ARM GAS  C:\Users\Robert\AppData\Local\Temp\cckkjh3f.s 			page 1


   1              		.syntax unified
   2              		.cpu cortex-m3
   3              		.fpu softvfp
   4              		.eabi_attribute 20, 1
   5              		.eabi_attribute 21, 1
   6              		.eabi_attribute 23, 3
   7              		.eabi_attribute 24, 1
   8              		.eabi_attribute 25, 1
   9              		.eabi_attribute 26, 1
  10              		.eabi_attribute 30, 6
  11              		.eabi_attribute 34, 1
  12              		.eabi_attribute 18, 4
  13              		.thumb
  14              		.file	"USBFS_pm.c"
  15              		.text
  16              	.Ltext0:
  17              		.cfi_sections	.debug_frame
  18              		.bss
  19              		.align	2
  20              	USBFS_backup:
  21 0000 0000     		.space	2
  22 0002 0000     		.section	.text.USBFS_DP_ISR,"ax",%progbits
  23              		.align	2
  24              		.global	USBFS_DP_ISR
  25              		.thumb
  26              		.thumb_func
  27              		.type	USBFS_DP_ISR, %function
  28              	USBFS_DP_ISR:
  29              	.LFB56:
  30              		.file 1 ".\\Generated_Source\\PSoC5\\USBFS_pm.c"
   1:.\Generated_Source\PSoC5/USBFS_pm.c **** /*******************************************************************************
   2:.\Generated_Source\PSoC5/USBFS_pm.c **** * File Name: USBFS_pm.c
   3:.\Generated_Source\PSoC5/USBFS_pm.c **** * Version 2.70
   4:.\Generated_Source\PSoC5/USBFS_pm.c **** *
   5:.\Generated_Source\PSoC5/USBFS_pm.c **** * Description:
   6:.\Generated_Source\PSoC5/USBFS_pm.c **** *  This file provides Suspend/Resume APIs functionality.
   7:.\Generated_Source\PSoC5/USBFS_pm.c **** *
   8:.\Generated_Source\PSoC5/USBFS_pm.c **** * Note:
   9:.\Generated_Source\PSoC5/USBFS_pm.c **** *
  10:.\Generated_Source\PSoC5/USBFS_pm.c **** ********************************************************************************
  11:.\Generated_Source\PSoC5/USBFS_pm.c **** * Copyright 2008-2013, Cypress Semiconductor Corporation.  All rights reserved.
  12:.\Generated_Source\PSoC5/USBFS_pm.c **** * You may use this file only in accordance with the license, terms, conditions,
  13:.\Generated_Source\PSoC5/USBFS_pm.c **** * disclaimers, and limitations in the end user license agreement accompanying
  14:.\Generated_Source\PSoC5/USBFS_pm.c **** * the software package with which this file was provided.
  15:.\Generated_Source\PSoC5/USBFS_pm.c **** *******************************************************************************/
  16:.\Generated_Source\PSoC5/USBFS_pm.c **** 
  17:.\Generated_Source\PSoC5/USBFS_pm.c **** #include "project.h"
  18:.\Generated_Source\PSoC5/USBFS_pm.c **** #include "USBFS.h"
  19:.\Generated_Source\PSoC5/USBFS_pm.c **** #include "USBFS_pvt.h"
  20:.\Generated_Source\PSoC5/USBFS_pm.c **** 
  21:.\Generated_Source\PSoC5/USBFS_pm.c **** 
  22:.\Generated_Source\PSoC5/USBFS_pm.c **** /***************************************
  23:.\Generated_Source\PSoC5/USBFS_pm.c **** * Custom Declarations
  24:.\Generated_Source\PSoC5/USBFS_pm.c **** ***************************************/
  25:.\Generated_Source\PSoC5/USBFS_pm.c **** /* `#START PM_CUSTOM_DECLARATIONS` Place your declaration here */
  26:.\Generated_Source\PSoC5/USBFS_pm.c **** 
  27:.\Generated_Source\PSoC5/USBFS_pm.c **** /* `#END` */
ARM GAS  C:\Users\Robert\AppData\Local\Temp\cckkjh3f.s 			page 2


  28:.\Generated_Source\PSoC5/USBFS_pm.c **** 
  29:.\Generated_Source\PSoC5/USBFS_pm.c **** 
  30:.\Generated_Source\PSoC5/USBFS_pm.c **** /***************************************
  31:.\Generated_Source\PSoC5/USBFS_pm.c **** * Local data allocation
  32:.\Generated_Source\PSoC5/USBFS_pm.c **** ***************************************/
  33:.\Generated_Source\PSoC5/USBFS_pm.c **** 
  34:.\Generated_Source\PSoC5/USBFS_pm.c **** static USBFS_BACKUP_STRUCT  USBFS_backup;
  35:.\Generated_Source\PSoC5/USBFS_pm.c **** 
  36:.\Generated_Source\PSoC5/USBFS_pm.c **** 
  37:.\Generated_Source\PSoC5/USBFS_pm.c **** #if(USBFS_DP_ISR_REMOVE == 0u)
  38:.\Generated_Source\PSoC5/USBFS_pm.c **** 
  39:.\Generated_Source\PSoC5/USBFS_pm.c ****     /*******************************************************************************
  40:.\Generated_Source\PSoC5/USBFS_pm.c ****     * Function Name: USBFS_DP_Interrupt
  41:.\Generated_Source\PSoC5/USBFS_pm.c ****     ********************************************************************************
  42:.\Generated_Source\PSoC5/USBFS_pm.c ****     *
  43:.\Generated_Source\PSoC5/USBFS_pm.c ****     * Summary:
  44:.\Generated_Source\PSoC5/USBFS_pm.c ****     *  This Interrupt Service Routine handles DP pin changes for wake-up from
  45:.\Generated_Source\PSoC5/USBFS_pm.c ****     *  the sleep mode.
  46:.\Generated_Source\PSoC5/USBFS_pm.c ****     *
  47:.\Generated_Source\PSoC5/USBFS_pm.c ****     * Parameters:
  48:.\Generated_Source\PSoC5/USBFS_pm.c ****     *  None.
  49:.\Generated_Source\PSoC5/USBFS_pm.c ****     *
  50:.\Generated_Source\PSoC5/USBFS_pm.c ****     * Return:
  51:.\Generated_Source\PSoC5/USBFS_pm.c ****     *  None.
  52:.\Generated_Source\PSoC5/USBFS_pm.c ****     *
  53:.\Generated_Source\PSoC5/USBFS_pm.c ****     *******************************************************************************/
  54:.\Generated_Source\PSoC5/USBFS_pm.c ****     CY_ISR(USBFS_DP_ISR)
  55:.\Generated_Source\PSoC5/USBFS_pm.c ****     {
  31              		.loc 1 55 0
  32              		.cfi_startproc
  33              		@ args = 0, pretend = 0, frame = 0
  34              		@ frame_needed = 1, uses_anonymous_args = 0
  35              		@ link register save eliminated.
  36 0000 80B4     		push	{r7}
  37              	.LCFI0:
  38              		.cfi_def_cfa_offset 4
  39              		.cfi_offset 7, -4
  40 0002 00AF     		add	r7, sp, #0
  41              	.LCFI1:
  42              		.cfi_def_cfa_register 7
  56:.\Generated_Source\PSoC5/USBFS_pm.c ****         /* `#START DP_USER_CODE` Place your code here */
  57:.\Generated_Source\PSoC5/USBFS_pm.c **** 
  58:.\Generated_Source\PSoC5/USBFS_pm.c ****         /* `#END` */
  59:.\Generated_Source\PSoC5/USBFS_pm.c **** 
  60:.\Generated_Source\PSoC5/USBFS_pm.c ****         /* Clears active interrupt */
  61:.\Generated_Source\PSoC5/USBFS_pm.c ****         CY_GET_REG8(USBFS_DP_INTSTAT_PTR);
  43              		.loc 1 61 0
  44 0004 44F28F53 		movw	r3, #17807
  45 0008 C4F20003 		movt	r3, 16384
  46 000c 1B78     		ldrb	r3, [r3, #0]
  62:.\Generated_Source\PSoC5/USBFS_pm.c ****     }
  47              		.loc 1 62 0
  48 000e BD46     		mov	sp, r7
  49 0010 80BC     		pop	{r7}
  50 0012 7047     		bx	lr
  51              		.cfi_endproc
  52              	.LFE56:
ARM GAS  C:\Users\Robert\AppData\Local\Temp\cckkjh3f.s 			page 3


  53              		.size	USBFS_DP_ISR, .-USBFS_DP_ISR
  54              		.section	.text.USBFS_SaveConfig,"ax",%progbits
  55              		.align	2
  56              		.global	USBFS_SaveConfig
  57              		.thumb
  58              		.thumb_func
  59              		.type	USBFS_SaveConfig, %function
  60              	USBFS_SaveConfig:
  61              	.LFB57:
  63:.\Generated_Source\PSoC5/USBFS_pm.c **** 
  64:.\Generated_Source\PSoC5/USBFS_pm.c **** #endif /* (USBFS_DP_ISR_REMOVE == 0u) */
  65:.\Generated_Source\PSoC5/USBFS_pm.c **** 
  66:.\Generated_Source\PSoC5/USBFS_pm.c **** 
  67:.\Generated_Source\PSoC5/USBFS_pm.c **** /*******************************************************************************
  68:.\Generated_Source\PSoC5/USBFS_pm.c **** * Function Name: USBFS_SaveConfig
  69:.\Generated_Source\PSoC5/USBFS_pm.c **** ********************************************************************************
  70:.\Generated_Source\PSoC5/USBFS_pm.c **** *
  71:.\Generated_Source\PSoC5/USBFS_pm.c **** * Summary:
  72:.\Generated_Source\PSoC5/USBFS_pm.c **** *  Saves the current user configuration.
  73:.\Generated_Source\PSoC5/USBFS_pm.c **** *
  74:.\Generated_Source\PSoC5/USBFS_pm.c **** * Parameters:
  75:.\Generated_Source\PSoC5/USBFS_pm.c **** *  None.
  76:.\Generated_Source\PSoC5/USBFS_pm.c **** *
  77:.\Generated_Source\PSoC5/USBFS_pm.c **** * Return:
  78:.\Generated_Source\PSoC5/USBFS_pm.c **** *  None.
  79:.\Generated_Source\PSoC5/USBFS_pm.c **** *
  80:.\Generated_Source\PSoC5/USBFS_pm.c **** * Reentrant:
  81:.\Generated_Source\PSoC5/USBFS_pm.c **** *  No.
  82:.\Generated_Source\PSoC5/USBFS_pm.c **** *
  83:.\Generated_Source\PSoC5/USBFS_pm.c **** *******************************************************************************/
  84:.\Generated_Source\PSoC5/USBFS_pm.c **** void USBFS_SaveConfig(void) 
  85:.\Generated_Source\PSoC5/USBFS_pm.c **** {
  62              		.loc 1 85 0
  63              		.cfi_startproc
  64              		@ args = 0, pretend = 0, frame = 0
  65              		@ frame_needed = 1, uses_anonymous_args = 0
  66              		@ link register save eliminated.
  67 0000 80B4     		push	{r7}
  68              	.LCFI2:
  69              		.cfi_def_cfa_offset 4
  70              		.cfi_offset 7, -4
  71 0002 00AF     		add	r7, sp, #0
  72              	.LCFI3:
  73              		.cfi_def_cfa_register 7
  86:.\Generated_Source\PSoC5/USBFS_pm.c **** 
  87:.\Generated_Source\PSoC5/USBFS_pm.c **** }
  74              		.loc 1 87 0
  75 0004 BD46     		mov	sp, r7
  76 0006 80BC     		pop	{r7}
  77 0008 7047     		bx	lr
  78              		.cfi_endproc
  79              	.LFE57:
  80              		.size	USBFS_SaveConfig, .-USBFS_SaveConfig
  81 000a 00BF     		.section	.text.USBFS_RestoreConfig,"ax",%progbits
  82              		.align	2
  83              		.global	USBFS_RestoreConfig
  84              		.thumb
ARM GAS  C:\Users\Robert\AppData\Local\Temp\cckkjh3f.s 			page 4


  85              		.thumb_func
  86              		.type	USBFS_RestoreConfig, %function
  87              	USBFS_RestoreConfig:
  88              	.LFB58:
  88:.\Generated_Source\PSoC5/USBFS_pm.c **** 
  89:.\Generated_Source\PSoC5/USBFS_pm.c **** 
  90:.\Generated_Source\PSoC5/USBFS_pm.c **** /*******************************************************************************
  91:.\Generated_Source\PSoC5/USBFS_pm.c **** * Function Name: USBFS_RestoreConfig
  92:.\Generated_Source\PSoC5/USBFS_pm.c **** ********************************************************************************
  93:.\Generated_Source\PSoC5/USBFS_pm.c **** *
  94:.\Generated_Source\PSoC5/USBFS_pm.c **** * Summary:
  95:.\Generated_Source\PSoC5/USBFS_pm.c **** *  Restores the current user configuration.
  96:.\Generated_Source\PSoC5/USBFS_pm.c **** *
  97:.\Generated_Source\PSoC5/USBFS_pm.c **** * Parameters:
  98:.\Generated_Source\PSoC5/USBFS_pm.c **** *  None.
  99:.\Generated_Source\PSoC5/USBFS_pm.c **** *
 100:.\Generated_Source\PSoC5/USBFS_pm.c **** * Return:
 101:.\Generated_Source\PSoC5/USBFS_pm.c **** *  None.
 102:.\Generated_Source\PSoC5/USBFS_pm.c **** *
 103:.\Generated_Source\PSoC5/USBFS_pm.c **** * Reentrant:
 104:.\Generated_Source\PSoC5/USBFS_pm.c **** *  No.
 105:.\Generated_Source\PSoC5/USBFS_pm.c **** *
 106:.\Generated_Source\PSoC5/USBFS_pm.c **** *******************************************************************************/
 107:.\Generated_Source\PSoC5/USBFS_pm.c **** void USBFS_RestoreConfig(void) 
 108:.\Generated_Source\PSoC5/USBFS_pm.c **** {
  89              		.loc 1 108 0
  90              		.cfi_startproc
  91              		@ args = 0, pretend = 0, frame = 0
  92              		@ frame_needed = 1, uses_anonymous_args = 0
  93 0000 80B5     		push	{r7, lr}
  94              	.LCFI4:
  95              		.cfi_def_cfa_offset 8
  96              		.cfi_offset 7, -8
  97              		.cfi_offset 14, -4
  98 0002 00AF     		add	r7, sp, #0
  99              	.LCFI5:
 100              		.cfi_def_cfa_register 7
 109:.\Generated_Source\PSoC5/USBFS_pm.c ****     if(USBFS_configuration != 0u)
 101              		.loc 1 109 0
 102 0004 40F20003 		movw	r3, #:lower16:USBFS_configuration
 103 0008 C0F20003 		movt	r3, #:upper16:USBFS_configuration
 104 000c 1B78     		ldrb	r3, [r3, #0]
 105 000e DBB2     		uxtb	r3, r3
 106 0010 002B     		cmp	r3, #0
 107 0012 01D0     		beq	.L3
 110:.\Generated_Source\PSoC5/USBFS_pm.c ****     {
 111:.\Generated_Source\PSoC5/USBFS_pm.c ****         USBFS_ConfigReg();
 108              		.loc 1 111 0
 109 0014 FFF7FEFF 		bl	USBFS_ConfigReg
 110              	.L3:
 112:.\Generated_Source\PSoC5/USBFS_pm.c ****     }
 113:.\Generated_Source\PSoC5/USBFS_pm.c **** }
 111              		.loc 1 113 0
 112 0018 80BD     		pop	{r7, pc}
 113              		.cfi_endproc
 114              	.LFE58:
 115              		.size	USBFS_RestoreConfig, .-USBFS_RestoreConfig
ARM GAS  C:\Users\Robert\AppData\Local\Temp\cckkjh3f.s 			page 5


 116 001a 00BF     		.section	.text.USBFS_Suspend,"ax",%progbits
 117              		.align	2
 118              		.global	USBFS_Suspend
 119              		.thumb
 120              		.thumb_func
 121              		.type	USBFS_Suspend, %function
 122              	USBFS_Suspend:
 123              	.LFB59:
 114:.\Generated_Source\PSoC5/USBFS_pm.c **** 
 115:.\Generated_Source\PSoC5/USBFS_pm.c **** 
 116:.\Generated_Source\PSoC5/USBFS_pm.c **** /*******************************************************************************
 117:.\Generated_Source\PSoC5/USBFS_pm.c **** * Function Name: USBFS_Suspend
 118:.\Generated_Source\PSoC5/USBFS_pm.c **** ********************************************************************************
 119:.\Generated_Source\PSoC5/USBFS_pm.c **** *
 120:.\Generated_Source\PSoC5/USBFS_pm.c **** * Summary:
 121:.\Generated_Source\PSoC5/USBFS_pm.c **** *  This function disables the USBFS block and prepares for power down mode.
 122:.\Generated_Source\PSoC5/USBFS_pm.c **** *
 123:.\Generated_Source\PSoC5/USBFS_pm.c **** * Parameters:
 124:.\Generated_Source\PSoC5/USBFS_pm.c **** *  None.
 125:.\Generated_Source\PSoC5/USBFS_pm.c **** *
 126:.\Generated_Source\PSoC5/USBFS_pm.c **** * Return:
 127:.\Generated_Source\PSoC5/USBFS_pm.c **** *   None.
 128:.\Generated_Source\PSoC5/USBFS_pm.c **** *
 129:.\Generated_Source\PSoC5/USBFS_pm.c **** * Global variables:
 130:.\Generated_Source\PSoC5/USBFS_pm.c **** *  USBFS_backup.enable:  modified.
 131:.\Generated_Source\PSoC5/USBFS_pm.c **** *
 132:.\Generated_Source\PSoC5/USBFS_pm.c **** * Reentrant:
 133:.\Generated_Source\PSoC5/USBFS_pm.c **** *  No.
 134:.\Generated_Source\PSoC5/USBFS_pm.c **** *
 135:.\Generated_Source\PSoC5/USBFS_pm.c **** *******************************************************************************/
 136:.\Generated_Source\PSoC5/USBFS_pm.c **** void USBFS_Suspend(void) 
 137:.\Generated_Source\PSoC5/USBFS_pm.c **** {
 124              		.loc 1 137 0
 125              		.cfi_startproc
 126              		@ args = 0, pretend = 0, frame = 8
 127              		@ frame_needed = 1, uses_anonymous_args = 0
 128 0000 80B5     		push	{r7, lr}
 129              	.LCFI6:
 130              		.cfi_def_cfa_offset 8
 131              		.cfi_offset 7, -8
 132              		.cfi_offset 14, -4
 133 0002 82B0     		sub	sp, sp, #8
 134              	.LCFI7:
 135              		.cfi_def_cfa_offset 16
 136 0004 00AF     		add	r7, sp, #0
 137              	.LCFI8:
 138              		.cfi_def_cfa_register 7
 138:.\Generated_Source\PSoC5/USBFS_pm.c ****     uint8 enableInterrupts;
 139:.\Generated_Source\PSoC5/USBFS_pm.c ****     enableInterrupts = CyEnterCriticalSection();
 139              		.loc 1 139 0
 140 0006 FFF7FEFF 		bl	CyEnterCriticalSection
 141 000a 0346     		mov	r3, r0
 142 000c FB71     		strb	r3, [r7, #7]
 140:.\Generated_Source\PSoC5/USBFS_pm.c **** 
 141:.\Generated_Source\PSoC5/USBFS_pm.c ****     if((CY_GET_REG8(USBFS_CR0_PTR) & USBFS_CR0_ENABLE) != 0u)
 143              		.loc 1 141 0
 144 000e 46F20803 		movw	r3, #24584
ARM GAS  C:\Users\Robert\AppData\Local\Temp\cckkjh3f.s 			page 6


 145 0012 C4F20003 		movt	r3, 16384
 146 0016 1B78     		ldrb	r3, [r3, #0]
 147 0018 DBB2     		uxtb	r3, r3
 148 001a DBB2     		uxtb	r3, r3
 149 001c 5BB2     		sxtb	r3, r3
 150 001e 002B     		cmp	r3, #0
 151 0020 80F29680 		bge	.L6
 142:.\Generated_Source\PSoC5/USBFS_pm.c ****     {   /* USB block is enabled */
 143:.\Generated_Source\PSoC5/USBFS_pm.c ****         USBFS_backup.enableState = 1u;
 152              		.loc 1 143 0
 153 0024 40F20003 		movw	r3, #:lower16:USBFS_backup
 154 0028 C0F20003 		movt	r3, #:upper16:USBFS_backup
 155 002c 4FF00102 		mov	r2, #1
 156 0030 1A70     		strb	r2, [r3, #0]
 144:.\Generated_Source\PSoC5/USBFS_pm.c **** 
 145:.\Generated_Source\PSoC5/USBFS_pm.c ****         #if(USBFS_EP_MM != USBFS__EP_MANUAL)
 146:.\Generated_Source\PSoC5/USBFS_pm.c ****             USBFS_Stop_DMA(USBFS_MAX_EP);     /* Stop all DMAs */
 147:.\Generated_Source\PSoC5/USBFS_pm.c ****         #endif   /*  USBFS_EP_MM != USBFS__EP_MANUAL */
 148:.\Generated_Source\PSoC5/USBFS_pm.c **** 
 149:.\Generated_Source\PSoC5/USBFS_pm.c ****         /* Ensure USB transmit enable is low (USB_USBIO_CR0.ten). - Manual Transmission - Disabled 
 150:.\Generated_Source\PSoC5/USBFS_pm.c ****         USBFS_USBIO_CR0_REG &= (uint8)~USBFS_USBIO_CR0_TEN;
 157              		.loc 1 150 0
 158 0032 46F21003 		movw	r3, #24592
 159 0036 C4F20003 		movt	r3, 16384
 160 003a 46F21002 		movw	r2, #24592
 161 003e C4F20002 		movt	r2, 16384
 162 0042 1278     		ldrb	r2, [r2, #0]
 163 0044 D2B2     		uxtb	r2, r2
 164 0046 02F07F02 		and	r2, r2, #127
 165 004a D2B2     		uxtb	r2, r2
 166 004c 1A70     		strb	r2, [r3, #0]
 151:.\Generated_Source\PSoC5/USBFS_pm.c ****         CyDelayUs(0u);  /*~50ns delay */
 167              		.loc 1 151 0
 168 004e 4FF00000 		mov	r0, #0
 169 0052 FFF7FEFF 		bl	CyDelayUs
 152:.\Generated_Source\PSoC5/USBFS_pm.c **** 
 153:.\Generated_Source\PSoC5/USBFS_pm.c ****         /* Disable the USBIO by asserting PM.USB_CR0.fsusbio_pd_n(Inverted) and pd_pullup_hv(Invert
 154:.\Generated_Source\PSoC5/USBFS_pm.c ****         USBFS_PM_USB_CR0_REG &=
 170              		.loc 1 154 0
 171 0056 44F29433 		movw	r3, #17300
 172 005a C4F20003 		movt	r3, 16384
 173 005e 44F29432 		movw	r2, #17300
 174 0062 C4F20002 		movt	r2, 16384
 175 0066 1278     		ldrb	r2, [r2, #0]
 176 0068 D2B2     		uxtb	r2, r2
 177 006a 22F00602 		bic	r2, r2, #6
 178 006e D2B2     		uxtb	r2, r2
 179 0070 1A70     		strb	r2, [r3, #0]
 155:.\Generated_Source\PSoC5/USBFS_pm.c ****                                 (uint8)~(USBFS_PM_USB_CR0_PD_N | USBFS_PM_USB_CR0_PD_PULLUP_N);
 156:.\Generated_Source\PSoC5/USBFS_pm.c **** 
 157:.\Generated_Source\PSoC5/USBFS_pm.c ****         /* Disable the SIE */
 158:.\Generated_Source\PSoC5/USBFS_pm.c ****         USBFS_CR0_REG &= (uint8)~USBFS_CR0_ENABLE;
 180              		.loc 1 158 0
 181 0072 46F20803 		movw	r3, #24584
 182 0076 C4F20003 		movt	r3, 16384
 183 007a 46F20802 		movw	r2, #24584
 184 007e C4F20002 		movt	r2, 16384
ARM GAS  C:\Users\Robert\AppData\Local\Temp\cckkjh3f.s 			page 7


 185 0082 1278     		ldrb	r2, [r2, #0]
 186 0084 D2B2     		uxtb	r2, r2
 187 0086 02F07F02 		and	r2, r2, #127
 188 008a D2B2     		uxtb	r2, r2
 189 008c 1A70     		strb	r2, [r3, #0]
 159:.\Generated_Source\PSoC5/USBFS_pm.c **** 
 160:.\Generated_Source\PSoC5/USBFS_pm.c ****         CyDelayUs(0u);  /* ~50ns delay */
 190              		.loc 1 160 0
 191 008e 4FF00000 		mov	r0, #0
 192 0092 FFF7FEFF 		bl	CyDelayUs
 161:.\Generated_Source\PSoC5/USBFS_pm.c ****         /* Store mode and Disable VRegulator*/
 162:.\Generated_Source\PSoC5/USBFS_pm.c ****         USBFS_backup.mode = USBFS_CR1_REG & USBFS_CR1_REG_ENABLE;
 193              		.loc 1 162 0
 194 0096 46F20903 		movw	r3, #24585
 195 009a C4F20003 		movt	r3, 16384
 196 009e 1B78     		ldrb	r3, [r3, #0]
 197 00a0 DBB2     		uxtb	r3, r3
 198 00a2 03F00103 		and	r3, r3, #1
 199 00a6 DAB2     		uxtb	r2, r3
 200 00a8 40F20003 		movw	r3, #:lower16:USBFS_backup
 201 00ac C0F20003 		movt	r3, #:upper16:USBFS_backup
 202 00b0 5A70     		strb	r2, [r3, #1]
 163:.\Generated_Source\PSoC5/USBFS_pm.c ****         USBFS_CR1_REG &= (uint8)~USBFS_CR1_REG_ENABLE;
 203              		.loc 1 163 0
 204 00b2 46F20903 		movw	r3, #24585
 205 00b6 C4F20003 		movt	r3, 16384
 206 00ba 46F20902 		movw	r2, #24585
 207 00be C4F20002 		movt	r2, 16384
 208 00c2 1278     		ldrb	r2, [r2, #0]
 209 00c4 D2B2     		uxtb	r2, r2
 210 00c6 22F00102 		bic	r2, r2, #1
 211 00ca D2B2     		uxtb	r2, r2
 212 00cc 1A70     		strb	r2, [r3, #0]
 164:.\Generated_Source\PSoC5/USBFS_pm.c **** 
 165:.\Generated_Source\PSoC5/USBFS_pm.c ****         CyDelayUs(1u);  /* 0.5 us min delay */
 213              		.loc 1 165 0
 214 00ce 4FF00100 		mov	r0, #1
 215 00d2 FFF7FEFF 		bl	CyDelayUs
 166:.\Generated_Source\PSoC5/USBFS_pm.c ****         /* Disable the USBIO reference by setting PM.USB_CR0.fsusbio_ref_en.*/
 167:.\Generated_Source\PSoC5/USBFS_pm.c ****         USBFS_PM_USB_CR0_REG &= (uint8)~USBFS_PM_USB_CR0_REF_EN;
 216              		.loc 1 167 0
 217 00d6 44F29433 		movw	r3, #17300
 218 00da C4F20003 		movt	r3, 16384
 219 00de 44F29432 		movw	r2, #17300
 220 00e2 C4F20002 		movt	r2, 16384
 221 00e6 1278     		ldrb	r2, [r2, #0]
 222 00e8 D2B2     		uxtb	r2, r2
 223 00ea 22F00102 		bic	r2, r2, #1
 224 00ee D2B2     		uxtb	r2, r2
 225 00f0 1A70     		strb	r2, [r3, #0]
 168:.\Generated_Source\PSoC5/USBFS_pm.c **** 
 169:.\Generated_Source\PSoC5/USBFS_pm.c ****         /* Switch DP and DM terminals to GPIO mode and disconnect 1.5k pullup*/
 170:.\Generated_Source\PSoC5/USBFS_pm.c ****         USBFS_USBIO_CR1_REG |= USBFS_USBIO_CR1_IOMODE;
 226              		.loc 1 170 0
 227 00f2 46F21203 		movw	r3, #24594
 228 00f6 C4F20003 		movt	r3, 16384
 229 00fa 46F21202 		movw	r2, #24594
ARM GAS  C:\Users\Robert\AppData\Local\Temp\cckkjh3f.s 			page 8


 230 00fe C4F20002 		movt	r2, 16384
 231 0102 1278     		ldrb	r2, [r2, #0]
 232 0104 D2B2     		uxtb	r2, r2
 233 0106 42F02002 		orr	r2, r2, #32
 234 010a D2B2     		uxtb	r2, r2
 235 010c 1A70     		strb	r2, [r3, #0]
 171:.\Generated_Source\PSoC5/USBFS_pm.c **** 
 172:.\Generated_Source\PSoC5/USBFS_pm.c ****         /* Disable USB in ACT PM */
 173:.\Generated_Source\PSoC5/USBFS_pm.c ****         USBFS_PM_ACT_CFG_REG &= (uint8)~USBFS_PM_ACT_EN_FSUSB;
 236              		.loc 1 173 0
 237 010e 44F2A533 		movw	r3, #17317
 238 0112 C4F20003 		movt	r3, 16384
 239 0116 44F2A532 		movw	r2, #17317
 240 011a C4F20002 		movt	r2, 16384
 241 011e 1278     		ldrb	r2, [r2, #0]
 242 0120 D2B2     		uxtb	r2, r2
 243 0122 22F00102 		bic	r2, r2, #1
 244 0126 D2B2     		uxtb	r2, r2
 245 0128 1A70     		strb	r2, [r3, #0]
 174:.\Generated_Source\PSoC5/USBFS_pm.c ****         /* Disable USB block for Standby Power Mode */
 175:.\Generated_Source\PSoC5/USBFS_pm.c ****         USBFS_PM_STBY_CFG_REG &= (uint8)~USBFS_PM_STBY_EN_FSUSB;
 246              		.loc 1 175 0
 247 012a 44F2B533 		movw	r3, #17333
 248 012e C4F20003 		movt	r3, 16384
 249 0132 44F2B532 		movw	r2, #17333
 250 0136 C4F20002 		movt	r2, 16384
 251 013a 1278     		ldrb	r2, [r2, #0]
 252 013c D2B2     		uxtb	r2, r2
 253 013e 22F00102 		bic	r2, r2, #1
 254 0142 D2B2     		uxtb	r2, r2
 255 0144 1A70     		strb	r2, [r3, #0]
 176:.\Generated_Source\PSoC5/USBFS_pm.c ****         CyDelayUs(1u); /* min  0.5us delay required */
 256              		.loc 1 176 0
 257 0146 4FF00100 		mov	r0, #1
 258 014a FFF7FEFF 		bl	CyDelayUs
 259 014e 06E0     		b	.L7
 260              	.L6:
 177:.\Generated_Source\PSoC5/USBFS_pm.c **** 
 178:.\Generated_Source\PSoC5/USBFS_pm.c ****     }
 179:.\Generated_Source\PSoC5/USBFS_pm.c ****     else
 180:.\Generated_Source\PSoC5/USBFS_pm.c ****     {
 181:.\Generated_Source\PSoC5/USBFS_pm.c ****         USBFS_backup.enableState = 0u;
 261              		.loc 1 181 0
 262 0150 40F20003 		movw	r3, #:lower16:USBFS_backup
 263 0154 C0F20003 		movt	r3, #:upper16:USBFS_backup
 264 0158 4FF00002 		mov	r2, #0
 265 015c 1A70     		strb	r2, [r3, #0]
 266              	.L7:
 182:.\Generated_Source\PSoC5/USBFS_pm.c ****     }
 183:.\Generated_Source\PSoC5/USBFS_pm.c ****     
 184:.\Generated_Source\PSoC5/USBFS_pm.c ****     CyExitCriticalSection(enableInterrupts);
 267              		.loc 1 184 0
 268 015e FB79     		ldrb	r3, [r7, #7]	@ zero_extendqisi2
 269 0160 1846     		mov	r0, r3
 270 0162 FFF7FEFF 		bl	CyExitCriticalSection
 185:.\Generated_Source\PSoC5/USBFS_pm.c **** 
 186:.\Generated_Source\PSoC5/USBFS_pm.c ****     /* Set the DP Interrupt for wake-up from sleep mode. */
ARM GAS  C:\Users\Robert\AppData\Local\Temp\cckkjh3f.s 			page 9


 187:.\Generated_Source\PSoC5/USBFS_pm.c ****     #if(USBFS_DP_ISR_REMOVE == 0u)
 188:.\Generated_Source\PSoC5/USBFS_pm.c ****         (void) CyIntSetVector(USBFS_DP_INTC_VECT_NUM, &USBFS_DP_ISR);
 271              		.loc 1 188 0
 272 0166 4FF00C00 		mov	r0, #12
 273 016a 40F20001 		movw	r1, #:lower16:USBFS_DP_ISR
 274 016e C0F20001 		movt	r1, #:upper16:USBFS_DP_ISR
 275 0172 FFF7FEFF 		bl	CyIntSetVector
 189:.\Generated_Source\PSoC5/USBFS_pm.c ****         CyIntSetPriority(USBFS_DP_INTC_VECT_NUM, USBFS_DP_INTC_PRIOR);
 276              		.loc 1 189 0
 277 0176 4FF00C00 		mov	r0, #12
 278 017a 4FF00701 		mov	r1, #7
 279 017e FFF7FEFF 		bl	CyIntSetPriority
 190:.\Generated_Source\PSoC5/USBFS_pm.c ****         CyIntClearPending(USBFS_DP_INTC_VECT_NUM);
 280              		.loc 1 190 0
 281 0182 4EF28023 		movw	r3, #57984
 282 0186 CEF20003 		movt	r3, 57344
 283 018a 4FF48052 		mov	r2, #4096
 284 018e 1A60     		str	r2, [r3, #0]
 191:.\Generated_Source\PSoC5/USBFS_pm.c ****         CyIntEnable(USBFS_DP_INTC_VECT_NUM);
 285              		.loc 1 191 0
 286 0190 4FF46143 		mov	r3, #57600
 287 0194 CEF20003 		movt	r3, 57344
 288 0198 4FF48052 		mov	r2, #4096
 289 019c 1A60     		str	r2, [r3, #0]
 192:.\Generated_Source\PSoC5/USBFS_pm.c ****     #endif /* (USBFS_DP_ISR_REMOVE == 0u) */
 193:.\Generated_Source\PSoC5/USBFS_pm.c **** }
 290              		.loc 1 193 0
 291 019e 07F10807 		add	r7, r7, #8
 292 01a2 BD46     		mov	sp, r7
 293 01a4 80BD     		pop	{r7, pc}
 294              		.cfi_endproc
 295              	.LFE59:
 296              		.size	USBFS_Suspend, .-USBFS_Suspend
 297 01a6 00BF     		.section	.text.USBFS_Resume,"ax",%progbits
 298              		.align	2
 299              		.global	USBFS_Resume
 300              		.thumb
 301              		.thumb_func
 302              		.type	USBFS_Resume, %function
 303              	USBFS_Resume:
 304              	.LFB60:
 194:.\Generated_Source\PSoC5/USBFS_pm.c **** 
 195:.\Generated_Source\PSoC5/USBFS_pm.c **** 
 196:.\Generated_Source\PSoC5/USBFS_pm.c **** /*******************************************************************************
 197:.\Generated_Source\PSoC5/USBFS_pm.c **** * Function Name: USBFS_Resume
 198:.\Generated_Source\PSoC5/USBFS_pm.c **** ********************************************************************************
 199:.\Generated_Source\PSoC5/USBFS_pm.c **** *
 200:.\Generated_Source\PSoC5/USBFS_pm.c **** * Summary:
 201:.\Generated_Source\PSoC5/USBFS_pm.c **** *  This function enables the USBFS block after power down mode.
 202:.\Generated_Source\PSoC5/USBFS_pm.c **** *
 203:.\Generated_Source\PSoC5/USBFS_pm.c **** * Parameters:
 204:.\Generated_Source\PSoC5/USBFS_pm.c **** *  None.
 205:.\Generated_Source\PSoC5/USBFS_pm.c **** *
 206:.\Generated_Source\PSoC5/USBFS_pm.c **** * Return:
 207:.\Generated_Source\PSoC5/USBFS_pm.c **** *  None.
 208:.\Generated_Source\PSoC5/USBFS_pm.c **** *
 209:.\Generated_Source\PSoC5/USBFS_pm.c **** * Global variables:
ARM GAS  C:\Users\Robert\AppData\Local\Temp\cckkjh3f.s 			page 10


 210:.\Generated_Source\PSoC5/USBFS_pm.c **** *  USBFS_backup - checked.
 211:.\Generated_Source\PSoC5/USBFS_pm.c **** *
 212:.\Generated_Source\PSoC5/USBFS_pm.c **** * Reentrant:
 213:.\Generated_Source\PSoC5/USBFS_pm.c **** *  No.
 214:.\Generated_Source\PSoC5/USBFS_pm.c **** *
 215:.\Generated_Source\PSoC5/USBFS_pm.c **** *******************************************************************************/
 216:.\Generated_Source\PSoC5/USBFS_pm.c **** void USBFS_Resume(void) 
 217:.\Generated_Source\PSoC5/USBFS_pm.c **** {
 305              		.loc 1 217 0
 306              		.cfi_startproc
 307              		@ args = 0, pretend = 0, frame = 8
 308              		@ frame_needed = 1, uses_anonymous_args = 0
 309 0000 80B5     		push	{r7, lr}
 310              	.LCFI9:
 311              		.cfi_def_cfa_offset 8
 312              		.cfi_offset 7, -8
 313              		.cfi_offset 14, -4
 314 0002 82B0     		sub	sp, sp, #8
 315              	.LCFI10:
 316              		.cfi_def_cfa_offset 16
 317 0004 00AF     		add	r7, sp, #0
 318              	.LCFI11:
 319              		.cfi_def_cfa_register 7
 218:.\Generated_Source\PSoC5/USBFS_pm.c ****     uint8 enableInterrupts;
 219:.\Generated_Source\PSoC5/USBFS_pm.c ****     enableInterrupts = CyEnterCriticalSection();
 320              		.loc 1 219 0
 321 0006 FFF7FEFF 		bl	CyEnterCriticalSection
 322 000a 0346     		mov	r3, r0
 323 000c FB71     		strb	r3, [r7, #7]
 220:.\Generated_Source\PSoC5/USBFS_pm.c **** 
 221:.\Generated_Source\PSoC5/USBFS_pm.c ****     if(USBFS_backup.enableState != 0u)
 324              		.loc 1 221 0
 325 000e 40F20003 		movw	r3, #:lower16:USBFS_backup
 326 0012 C0F20003 		movt	r3, #:upper16:USBFS_backup
 327 0016 1B78     		ldrb	r3, [r3, #0]	@ zero_extendqisi2
 328 0018 002B     		cmp	r3, #0
 329 001a 00F09B80 		beq	.L9
 222:.\Generated_Source\PSoC5/USBFS_pm.c ****     {
 223:.\Generated_Source\PSoC5/USBFS_pm.c ****         #if(USBFS_DP_ISR_REMOVE == 0u)
 224:.\Generated_Source\PSoC5/USBFS_pm.c ****             CyIntDisable(USBFS_DP_INTC_VECT_NUM);
 330              		.loc 1 224 0
 331 001e 4EF28013 		movw	r3, #57728
 332 0022 CEF20003 		movt	r3, 57344
 333 0026 4FF48052 		mov	r2, #4096
 334 002a 1A60     		str	r2, [r3, #0]
 225:.\Generated_Source\PSoC5/USBFS_pm.c ****         #endif /*  USBFS_DP_ISR_REMOVE */
 226:.\Generated_Source\PSoC5/USBFS_pm.c **** 
 227:.\Generated_Source\PSoC5/USBFS_pm.c ****         /* Enable USB block */
 228:.\Generated_Source\PSoC5/USBFS_pm.c ****         USBFS_PM_ACT_CFG_REG |= USBFS_PM_ACT_EN_FSUSB;
 335              		.loc 1 228 0
 336 002c 44F2A533 		movw	r3, #17317
 337 0030 C4F20003 		movt	r3, 16384
 338 0034 44F2A532 		movw	r2, #17317
 339 0038 C4F20002 		movt	r2, 16384
 340 003c 1278     		ldrb	r2, [r2, #0]
 341 003e D2B2     		uxtb	r2, r2
 342 0040 42F00102 		orr	r2, r2, #1
ARM GAS  C:\Users\Robert\AppData\Local\Temp\cckkjh3f.s 			page 11


 343 0044 D2B2     		uxtb	r2, r2
 344 0046 1A70     		strb	r2, [r3, #0]
 229:.\Generated_Source\PSoC5/USBFS_pm.c ****         /* Enable USB block for Standby Power Mode */
 230:.\Generated_Source\PSoC5/USBFS_pm.c ****         USBFS_PM_STBY_CFG_REG |= USBFS_PM_STBY_EN_FSUSB;
 345              		.loc 1 230 0
 346 0048 44F2B533 		movw	r3, #17333
 347 004c C4F20003 		movt	r3, 16384
 348 0050 44F2B532 		movw	r2, #17333
 349 0054 C4F20002 		movt	r2, 16384
 350 0058 1278     		ldrb	r2, [r2, #0]
 351 005a D2B2     		uxtb	r2, r2
 352 005c 42F00102 		orr	r2, r2, #1
 353 0060 D2B2     		uxtb	r2, r2
 354 0062 1A70     		strb	r2, [r3, #0]
 231:.\Generated_Source\PSoC5/USBFS_pm.c ****         /* Enable core clock */
 232:.\Generated_Source\PSoC5/USBFS_pm.c ****         USBFS_USB_CLK_EN_REG |= USBFS_USB_CLK_ENABLE;
 355              		.loc 1 232 0
 356 0064 46F29D03 		movw	r3, #24733
 357 0068 C4F20003 		movt	r3, 16384
 358 006c 46F29D02 		movw	r2, #24733
 359 0070 C4F20002 		movt	r2, 16384
 360 0074 1278     		ldrb	r2, [r2, #0]
 361 0076 D2B2     		uxtb	r2, r2
 362 0078 42F00102 		orr	r2, r2, #1
 363 007c D2B2     		uxtb	r2, r2
 364 007e 1A70     		strb	r2, [r3, #0]
 233:.\Generated_Source\PSoC5/USBFS_pm.c **** 
 234:.\Generated_Source\PSoC5/USBFS_pm.c ****         /* Enable the USBIO reference by setting PM.USB_CR0.fsusbio_ref_en.*/
 235:.\Generated_Source\PSoC5/USBFS_pm.c ****         USBFS_PM_USB_CR0_REG |= USBFS_PM_USB_CR0_REF_EN;
 365              		.loc 1 235 0
 366 0080 44F29433 		movw	r3, #17300
 367 0084 C4F20003 		movt	r3, 16384
 368 0088 44F29432 		movw	r2, #17300
 369 008c C4F20002 		movt	r2, 16384
 370 0090 1278     		ldrb	r2, [r2, #0]
 371 0092 D2B2     		uxtb	r2, r2
 372 0094 42F00102 		orr	r2, r2, #1
 373 0098 D2B2     		uxtb	r2, r2
 374 009a 1A70     		strb	r2, [r3, #0]
 236:.\Generated_Source\PSoC5/USBFS_pm.c ****         /* The reference will be available ~40us after power restored */
 237:.\Generated_Source\PSoC5/USBFS_pm.c ****         CyDelayUs(40u);
 375              		.loc 1 237 0
 376 009c 4FF02800 		mov	r0, #40
 377 00a0 FFF7FEFF 		bl	CyDelayUs
 238:.\Generated_Source\PSoC5/USBFS_pm.c ****         /* Return VRegulator*/
 239:.\Generated_Source\PSoC5/USBFS_pm.c ****         USBFS_CR1_REG |= USBFS_backup.mode;
 378              		.loc 1 239 0
 379 00a4 46F20903 		movw	r3, #24585
 380 00a8 C4F20003 		movt	r3, 16384
 381 00ac 46F20902 		movw	r2, #24585
 382 00b0 C4F20002 		movt	r2, 16384
 383 00b4 1278     		ldrb	r2, [r2, #0]
 384 00b6 D1B2     		uxtb	r1, r2
 385 00b8 40F20002 		movw	r2, #:lower16:USBFS_backup
 386 00bc C0F20002 		movt	r2, #:upper16:USBFS_backup
 387 00c0 5278     		ldrb	r2, [r2, #1]	@ zero_extendqisi2
 388 00c2 0A43     		orrs	r2, r2, r1
ARM GAS  C:\Users\Robert\AppData\Local\Temp\cckkjh3f.s 			page 12


 389 00c4 D2B2     		uxtb	r2, r2
 390 00c6 1A70     		strb	r2, [r3, #0]
 240:.\Generated_Source\PSoC5/USBFS_pm.c ****         CyDelayUs(0u);  /*~50ns delay */
 391              		.loc 1 240 0
 392 00c8 4FF00000 		mov	r0, #0
 393 00cc FFF7FEFF 		bl	CyDelayUs
 241:.\Generated_Source\PSoC5/USBFS_pm.c ****         /* Enable USBIO */
 242:.\Generated_Source\PSoC5/USBFS_pm.c ****         USBFS_PM_USB_CR0_REG |= USBFS_PM_USB_CR0_PD_N;
 394              		.loc 1 242 0
 395 00d0 44F29433 		movw	r3, #17300
 396 00d4 C4F20003 		movt	r3, 16384
 397 00d8 44F29432 		movw	r2, #17300
 398 00dc C4F20002 		movt	r2, 16384
 399 00e0 1278     		ldrb	r2, [r2, #0]
 400 00e2 D2B2     		uxtb	r2, r2
 401 00e4 42F00202 		orr	r2, r2, #2
 402 00e8 D2B2     		uxtb	r2, r2
 403 00ea 1A70     		strb	r2, [r3, #0]
 243:.\Generated_Source\PSoC5/USBFS_pm.c ****         CyDelayUs(2u);
 404              		.loc 1 243 0
 405 00ec 4FF00200 		mov	r0, #2
 406 00f0 FFF7FEFF 		bl	CyDelayUs
 244:.\Generated_Source\PSoC5/USBFS_pm.c ****         /* Set the USBIO pull-up enable */
 245:.\Generated_Source\PSoC5/USBFS_pm.c ****         USBFS_PM_USB_CR0_REG |= USBFS_PM_USB_CR0_PD_PULLUP_N;
 407              		.loc 1 245 0
 408 00f4 44F29433 		movw	r3, #17300
 409 00f8 C4F20003 		movt	r3, 16384
 410 00fc 44F29432 		movw	r2, #17300
 411 0100 C4F20002 		movt	r2, 16384
 412 0104 1278     		ldrb	r2, [r2, #0]
 413 0106 D2B2     		uxtb	r2, r2
 414 0108 42F00402 		orr	r2, r2, #4
 415 010c D2B2     		uxtb	r2, r2
 416 010e 1A70     		strb	r2, [r3, #0]
 246:.\Generated_Source\PSoC5/USBFS_pm.c **** 
 247:.\Generated_Source\PSoC5/USBFS_pm.c ****         /* Re-init Arbiter configuration for DMA transfers */
 248:.\Generated_Source\PSoC5/USBFS_pm.c ****         #if(USBFS_EP_MM != USBFS__EP_MANUAL)
 249:.\Generated_Source\PSoC5/USBFS_pm.c ****             /* Usb arb interrupt enable */
 250:.\Generated_Source\PSoC5/USBFS_pm.c ****             USBFS_ARB_INT_EN_REG = USBFS_ARB_INT_MASK;
 251:.\Generated_Source\PSoC5/USBFS_pm.c ****             #if(USBFS_EP_MM == USBFS__EP_DMAMANUAL)
 252:.\Generated_Source\PSoC5/USBFS_pm.c ****                 USBFS_ARB_CFG_REG = USBFS_ARB_CFG_MANUAL_DMA;
 253:.\Generated_Source\PSoC5/USBFS_pm.c ****             #endif   /*  USBFS_EP_MM == USBFS__EP_DMAMANUAL */
 254:.\Generated_Source\PSoC5/USBFS_pm.c ****             #if(USBFS_EP_MM == USBFS__EP_DMAAUTO)
 255:.\Generated_Source\PSoC5/USBFS_pm.c ****                 /*Set cfg cmplt this rises DMA request when the full configuration is done */
 256:.\Generated_Source\PSoC5/USBFS_pm.c ****                 USBFS_ARB_CFG_REG = USBFS_ARB_CFG_AUTO_DMA | USBFS_ARB_CFG_AUTO_MEM;
 257:.\Generated_Source\PSoC5/USBFS_pm.c ****             #endif   /*  USBFS_EP_MM == USBFS__EP_DMAAUTO */
 258:.\Generated_Source\PSoC5/USBFS_pm.c ****         #endif   /*  USBFS_EP_MM != USBFS__EP_MANUAL */
 259:.\Generated_Source\PSoC5/USBFS_pm.c **** 
 260:.\Generated_Source\PSoC5/USBFS_pm.c ****         /* STALL_IN_OUT */
 261:.\Generated_Source\PSoC5/USBFS_pm.c ****         CY_SET_REG8(USBFS_EP0_CR_PTR, USBFS_MODE_STALL_IN_OUT);
 417              		.loc 1 261 0
 418 0110 46F22803 		movw	r3, #24616
 419 0114 C4F20003 		movt	r3, 16384
 420 0118 4FF00302 		mov	r2, #3
 421 011c 1A70     		strb	r2, [r3, #0]
 262:.\Generated_Source\PSoC5/USBFS_pm.c ****         /* Enable the SIE with a last address */
 263:.\Generated_Source\PSoC5/USBFS_pm.c ****         USBFS_CR0_REG |= USBFS_CR0_ENABLE;
ARM GAS  C:\Users\Robert\AppData\Local\Temp\cckkjh3f.s 			page 13


 422              		.loc 1 263 0
 423 011e 46F20803 		movw	r3, #24584
 424 0122 C4F20003 		movt	r3, 16384
 425 0126 46F20802 		movw	r2, #24584
 426 012a C4F20002 		movt	r2, 16384
 427 012e 1278     		ldrb	r2, [r2, #0]
 428 0130 D2B2     		uxtb	r2, r2
 429 0132 62F07F02 		orn	r2, r2, #127
 430 0136 D2B2     		uxtb	r2, r2
 431 0138 1A70     		strb	r2, [r3, #0]
 264:.\Generated_Source\PSoC5/USBFS_pm.c ****         CyDelayCycles(1u);
 432              		.loc 1 264 0
 433 013a 4FF00100 		mov	r0, #1
 434 013e FFF7FEFF 		bl	CyDelayCycles
 265:.\Generated_Source\PSoC5/USBFS_pm.c ****         /* Finally, Enable d+ pullup and select iomode to USB mode*/
 266:.\Generated_Source\PSoC5/USBFS_pm.c ****         CY_SET_REG8(USBFS_USBIO_CR1_PTR, USBFS_USBIO_CR1_USBPUEN);
 435              		.loc 1 266 0
 436 0142 46F21203 		movw	r3, #24594
 437 0146 C4F20003 		movt	r3, 16384
 438 014a 4FF00402 		mov	r2, #4
 439 014e 1A70     		strb	r2, [r3, #0]
 267:.\Generated_Source\PSoC5/USBFS_pm.c **** 
 268:.\Generated_Source\PSoC5/USBFS_pm.c ****         /* Restore USB register settings */
 269:.\Generated_Source\PSoC5/USBFS_pm.c ****         USBFS_RestoreConfig();
 440              		.loc 1 269 0
 441 0150 FFF7FEFF 		bl	USBFS_RestoreConfig
 442              	.L9:
 270:.\Generated_Source\PSoC5/USBFS_pm.c ****     }
 271:.\Generated_Source\PSoC5/USBFS_pm.c **** 
 272:.\Generated_Source\PSoC5/USBFS_pm.c ****     CyExitCriticalSection(enableInterrupts);
 443              		.loc 1 272 0
 444 0154 FB79     		ldrb	r3, [r7, #7]	@ zero_extendqisi2
 445 0156 1846     		mov	r0, r3
 446 0158 FFF7FEFF 		bl	CyExitCriticalSection
 273:.\Generated_Source\PSoC5/USBFS_pm.c **** }
 447              		.loc 1 273 0
 448 015c 07F10807 		add	r7, r7, #8
 449 0160 BD46     		mov	sp, r7
 450 0162 80BD     		pop	{r7, pc}
 451              		.cfi_endproc
 452              	.LFE60:
 453              		.size	USBFS_Resume, .-USBFS_Resume
 454              		.text
 455              	.Letext0:
 456              		.file 2 "c:\\program files (x86)\\cypress\\psoc creator\\3.0\\psoc creator\\import\\gnu_cs\\arm\\4
 457              		.file 3 "./Generated_Source/PSoC5/cytypes.h"
 458              		.file 4 "./Generated_Source/PSoC5/USBFS.h"
 459              		.file 5 "./Generated_Source/PSoC5/core_cm3.h"