ARM GAS  C:\Users\Robert\AppData\Local\Temp\ccwgAcz4.s 			page 1


   1              		.syntax unified
   2              		.cpu cortex-m3
   3              		.fpu softvfp
   4              		.eabi_attribute 20, 1
   5              		.eabi_attribute 21, 1
   6              		.eabi_attribute 23, 3
   7              		.eabi_attribute 24, 1
   8              		.eabi_attribute 25, 1
   9              		.eabi_attribute 26, 1
  10              		.eabi_attribute 30, 6
  11              		.eabi_attribute 34, 1
  12              		.eabi_attribute 18, 4
  13              		.thumb
  14              		.file	"USBFS_hid.c"
  15              		.text
  16              	.Ltext0:
  17              		.cfi_sections	.debug_frame
  18              		.comm	USBFS_hidProtocol,1,4
  19              		.comm	USBFS_hidIdleRate,1,4
  20              		.comm	USBFS_hidIdleTimer,1,4
  21              		.section	.text.USBFS_UpdateHIDTimer,"ax",%progbits
  22              		.align	2
  23              		.global	USBFS_UpdateHIDTimer
  24              		.thumb
  25              		.thumb_func
  26              		.type	USBFS_UpdateHIDTimer, %function
  27              	USBFS_UpdateHIDTimer:
  28              	.LFB0:
  29              		.file 1 ".\\Generated_Source\\PSoC5\\USBFS_hid.c"
   1:.\Generated_Source\PSoC5/USBFS_hid.c **** /*******************************************************************************
   2:.\Generated_Source\PSoC5/USBFS_hid.c **** * File Name: USBFS_hid.c
   3:.\Generated_Source\PSoC5/USBFS_hid.c **** * Version 2.70
   4:.\Generated_Source\PSoC5/USBFS_hid.c **** *
   5:.\Generated_Source\PSoC5/USBFS_hid.c **** * Description:
   6:.\Generated_Source\PSoC5/USBFS_hid.c **** *  USB HID Class request handler.
   7:.\Generated_Source\PSoC5/USBFS_hid.c **** *
   8:.\Generated_Source\PSoC5/USBFS_hid.c **** * Related Document:
   9:.\Generated_Source\PSoC5/USBFS_hid.c **** *  Device Class Definition for Human Interface Devices (HID) Version 1.11  
  10:.\Generated_Source\PSoC5/USBFS_hid.c **** *
  11:.\Generated_Source\PSoC5/USBFS_hid.c **** * Note:
  12:.\Generated_Source\PSoC5/USBFS_hid.c **** *
  13:.\Generated_Source\PSoC5/USBFS_hid.c **** ********************************************************************************
  14:.\Generated_Source\PSoC5/USBFS_hid.c **** * Copyright 2008-2013, Cypress Semiconductor Corporation.  All rights reserved.
  15:.\Generated_Source\PSoC5/USBFS_hid.c **** * You may use this file only in accordance with the license, terms, conditions,
  16:.\Generated_Source\PSoC5/USBFS_hid.c **** * disclaimers, and limitations in the end user license agreement accompanying
  17:.\Generated_Source\PSoC5/USBFS_hid.c **** * the software package with which this file was provided.
  18:.\Generated_Source\PSoC5/USBFS_hid.c **** *******************************************************************************/
  19:.\Generated_Source\PSoC5/USBFS_hid.c **** 
  20:.\Generated_Source\PSoC5/USBFS_hid.c **** #include "USBFS.h"
  21:.\Generated_Source\PSoC5/USBFS_hid.c **** 
  22:.\Generated_Source\PSoC5/USBFS_hid.c **** #if defined(USBFS_ENABLE_HID_CLASS)
  23:.\Generated_Source\PSoC5/USBFS_hid.c **** 
  24:.\Generated_Source\PSoC5/USBFS_hid.c **** #include "USBFS_pvt.h"
  25:.\Generated_Source\PSoC5/USBFS_hid.c **** #include "USBFS_hid.h"
  26:.\Generated_Source\PSoC5/USBFS_hid.c **** 
  27:.\Generated_Source\PSoC5/USBFS_hid.c **** 
  28:.\Generated_Source\PSoC5/USBFS_hid.c **** /***************************************
ARM GAS  C:\Users\Robert\AppData\Local\Temp\ccwgAcz4.s 			page 2


  29:.\Generated_Source\PSoC5/USBFS_hid.c **** *    HID Variables
  30:.\Generated_Source\PSoC5/USBFS_hid.c **** ***************************************/
  31:.\Generated_Source\PSoC5/USBFS_hid.c **** 
  32:.\Generated_Source\PSoC5/USBFS_hid.c **** volatile uint8 USBFS_hidProtocol[USBFS_MAX_INTERFACES_NUMBER];  /* HID device protocol status */
  33:.\Generated_Source\PSoC5/USBFS_hid.c **** volatile uint8 USBFS_hidIdleRate[USBFS_MAX_INTERFACES_NUMBER];  /* HID device idle reload value */
  34:.\Generated_Source\PSoC5/USBFS_hid.c **** volatile uint8 USBFS_hidIdleTimer[USBFS_MAX_INTERFACES_NUMBER]; /* HID device idle rate value */
  35:.\Generated_Source\PSoC5/USBFS_hid.c **** 
  36:.\Generated_Source\PSoC5/USBFS_hid.c **** 
  37:.\Generated_Source\PSoC5/USBFS_hid.c **** /***************************************
  38:.\Generated_Source\PSoC5/USBFS_hid.c **** * Custom Declarations
  39:.\Generated_Source\PSoC5/USBFS_hid.c **** ***************************************/
  40:.\Generated_Source\PSoC5/USBFS_hid.c **** 
  41:.\Generated_Source\PSoC5/USBFS_hid.c **** /* `#START HID_CUSTOM_DECLARATIONS` Place your declaration here */
  42:.\Generated_Source\PSoC5/USBFS_hid.c **** 
  43:.\Generated_Source\PSoC5/USBFS_hid.c **** /* `#END` */
  44:.\Generated_Source\PSoC5/USBFS_hid.c **** 
  45:.\Generated_Source\PSoC5/USBFS_hid.c **** 
  46:.\Generated_Source\PSoC5/USBFS_hid.c **** /*******************************************************************************
  47:.\Generated_Source\PSoC5/USBFS_hid.c **** * Function Name: USBFS_UpdateHIDTimer
  48:.\Generated_Source\PSoC5/USBFS_hid.c **** ********************************************************************************
  49:.\Generated_Source\PSoC5/USBFS_hid.c **** *
  50:.\Generated_Source\PSoC5/USBFS_hid.c **** * Summary:
  51:.\Generated_Source\PSoC5/USBFS_hid.c **** *  Updates the HID report timer and reloads it if expired
  52:.\Generated_Source\PSoC5/USBFS_hid.c **** *
  53:.\Generated_Source\PSoC5/USBFS_hid.c **** * Parameters:
  54:.\Generated_Source\PSoC5/USBFS_hid.c **** *  interface:  Interface Number.
  55:.\Generated_Source\PSoC5/USBFS_hid.c **** *
  56:.\Generated_Source\PSoC5/USBFS_hid.c **** * Return:
  57:.\Generated_Source\PSoC5/USBFS_hid.c **** *  status.
  58:.\Generated_Source\PSoC5/USBFS_hid.c **** *
  59:.\Generated_Source\PSoC5/USBFS_hid.c **** * Reentrant:
  60:.\Generated_Source\PSoC5/USBFS_hid.c **** *  No.
  61:.\Generated_Source\PSoC5/USBFS_hid.c **** *
  62:.\Generated_Source\PSoC5/USBFS_hid.c **** *******************************************************************************/
  63:.\Generated_Source\PSoC5/USBFS_hid.c **** uint8 USBFS_UpdateHIDTimer(uint8 interface) 
  64:.\Generated_Source\PSoC5/USBFS_hid.c **** {
  30              		.loc 1 64 0
  31              		.cfi_startproc
  32              		@ args = 0, pretend = 0, frame = 16
  33              		@ frame_needed = 1, uses_anonymous_args = 0
  34              		@ link register save eliminated.
  35 0000 80B4     		push	{r7}
  36              	.LCFI0:
  37              		.cfi_def_cfa_offset 4
  38              		.cfi_offset 7, -4
  39 0002 85B0     		sub	sp, sp, #20
  40              	.LCFI1:
  41              		.cfi_def_cfa_offset 24
  42 0004 00AF     		add	r7, sp, #0
  43              	.LCFI2:
  44              		.cfi_def_cfa_register 7
  45 0006 0346     		mov	r3, r0
  46 0008 FB71     		strb	r3, [r7, #7]
  65:.\Generated_Source\PSoC5/USBFS_hid.c ****     uint8 stat = USBFS_IDLE_TIMER_INDEFINITE;
  47              		.loc 1 65 0
  48 000a 4FF00003 		mov	r3, #0
  49 000e FB73     		strb	r3, [r7, #15]
ARM GAS  C:\Users\Robert\AppData\Local\Temp\ccwgAcz4.s 			page 3


  66:.\Generated_Source\PSoC5/USBFS_hid.c **** 
  67:.\Generated_Source\PSoC5/USBFS_hid.c ****     if(USBFS_hidIdleRate[interface] != 0u)
  50              		.loc 1 67 0
  51 0010 FA79     		ldrb	r2, [r7, #7]	@ zero_extendqisi2
  52 0012 40F20003 		movw	r3, #:lower16:USBFS_hidIdleRate
  53 0016 C0F20003 		movt	r3, #:upper16:USBFS_hidIdleRate
  54 001a 9B5C     		ldrb	r3, [r3, r2]
  55 001c DBB2     		uxtb	r3, r3
  56 001e 002B     		cmp	r3, #0
  57 0020 2BD0     		beq	.L2
  68:.\Generated_Source\PSoC5/USBFS_hid.c ****     {
  69:.\Generated_Source\PSoC5/USBFS_hid.c ****         if(USBFS_hidIdleTimer[interface] > 0u)
  58              		.loc 1 69 0
  59 0022 FA79     		ldrb	r2, [r7, #7]	@ zero_extendqisi2
  60 0024 40F20003 		movw	r3, #:lower16:USBFS_hidIdleTimer
  61 0028 C0F20003 		movt	r3, #:upper16:USBFS_hidIdleTimer
  62 002c 9B5C     		ldrb	r3, [r3, r2]
  63 002e DBB2     		uxtb	r3, r3
  64 0030 002B     		cmp	r3, #0
  65 0032 12D0     		beq	.L3
  70:.\Generated_Source\PSoC5/USBFS_hid.c ****         {
  71:.\Generated_Source\PSoC5/USBFS_hid.c ****             USBFS_hidIdleTimer[interface]--;
  66              		.loc 1 71 0
  67 0034 FA79     		ldrb	r2, [r7, #7]	@ zero_extendqisi2
  68 0036 40F20003 		movw	r3, #:lower16:USBFS_hidIdleTimer
  69 003a C0F20003 		movt	r3, #:upper16:USBFS_hidIdleTimer
  70 003e 9B5C     		ldrb	r3, [r3, r2]
  71 0040 DBB2     		uxtb	r3, r3
  72 0042 03F1FF33 		add	r3, r3, #-1
  73 0046 D9B2     		uxtb	r1, r3
  74 0048 40F20003 		movw	r3, #:lower16:USBFS_hidIdleTimer
  75 004c C0F20003 		movt	r3, #:upper16:USBFS_hidIdleTimer
  76 0050 9954     		strb	r1, [r3, r2]
  72:.\Generated_Source\PSoC5/USBFS_hid.c ****             stat = USBFS_IDLE_TIMER_RUNNING;
  77              		.loc 1 72 0
  78 0052 4FF00203 		mov	r3, #2
  79 0056 FB73     		strb	r3, [r7, #15]
  80 0058 0FE0     		b	.L2
  81              	.L3:
  73:.\Generated_Source\PSoC5/USBFS_hid.c ****         }
  74:.\Generated_Source\PSoC5/USBFS_hid.c ****         else
  75:.\Generated_Source\PSoC5/USBFS_hid.c ****         {
  76:.\Generated_Source\PSoC5/USBFS_hid.c ****             USBFS_hidIdleTimer[interface] = USBFS_hidIdleRate[interface];
  82              		.loc 1 76 0
  83 005a FA79     		ldrb	r2, [r7, #7]	@ zero_extendqisi2
  84 005c F979     		ldrb	r1, [r7, #7]	@ zero_extendqisi2
  85 005e 40F20003 		movw	r3, #:lower16:USBFS_hidIdleRate
  86 0062 C0F20003 		movt	r3, #:upper16:USBFS_hidIdleRate
  87 0066 5B5C     		ldrb	r3, [r3, r1]
  88 0068 D9B2     		uxtb	r1, r3
  89 006a 40F20003 		movw	r3, #:lower16:USBFS_hidIdleTimer
  90 006e C0F20003 		movt	r3, #:upper16:USBFS_hidIdleTimer
  91 0072 9954     		strb	r1, [r3, r2]
  77:.\Generated_Source\PSoC5/USBFS_hid.c ****             stat = USBFS_IDLE_TIMER_EXPIRED;
  92              		.loc 1 77 0
  93 0074 4FF00103 		mov	r3, #1
  94 0078 FB73     		strb	r3, [r7, #15]
ARM GAS  C:\Users\Robert\AppData\Local\Temp\ccwgAcz4.s 			page 4


  95              	.L2:
  78:.\Generated_Source\PSoC5/USBFS_hid.c ****         }
  79:.\Generated_Source\PSoC5/USBFS_hid.c ****     }
  80:.\Generated_Source\PSoC5/USBFS_hid.c **** 
  81:.\Generated_Source\PSoC5/USBFS_hid.c ****     return(stat);
  96              		.loc 1 81 0
  97 007a FB7B     		ldrb	r3, [r7, #15]	@ zero_extendqisi2
  82:.\Generated_Source\PSoC5/USBFS_hid.c **** }
  98              		.loc 1 82 0
  99 007c 1846     		mov	r0, r3
 100 007e 07F11407 		add	r7, r7, #20
 101 0082 BD46     		mov	sp, r7
 102 0084 80BC     		pop	{r7}
 103 0086 7047     		bx	lr
 104              		.cfi_endproc
 105              	.LFE0:
 106              		.size	USBFS_UpdateHIDTimer, .-USBFS_UpdateHIDTimer
 107              		.section	.text.USBFS_GetProtocol,"ax",%progbits
 108              		.align	2
 109              		.global	USBFS_GetProtocol
 110              		.thumb
 111              		.thumb_func
 112              		.type	USBFS_GetProtocol, %function
 113              	USBFS_GetProtocol:
 114              	.LFB1:
  83:.\Generated_Source\PSoC5/USBFS_hid.c **** 
  84:.\Generated_Source\PSoC5/USBFS_hid.c **** 
  85:.\Generated_Source\PSoC5/USBFS_hid.c **** /*******************************************************************************
  86:.\Generated_Source\PSoC5/USBFS_hid.c **** * Function Name: USBFS_GetProtocol
  87:.\Generated_Source\PSoC5/USBFS_hid.c **** ********************************************************************************
  88:.\Generated_Source\PSoC5/USBFS_hid.c **** *
  89:.\Generated_Source\PSoC5/USBFS_hid.c **** * Summary:
  90:.\Generated_Source\PSoC5/USBFS_hid.c **** *  Returns the selected protocol value to the application
  91:.\Generated_Source\PSoC5/USBFS_hid.c **** *
  92:.\Generated_Source\PSoC5/USBFS_hid.c **** * Parameters:
  93:.\Generated_Source\PSoC5/USBFS_hid.c **** *  interface:  Interface Number.
  94:.\Generated_Source\PSoC5/USBFS_hid.c **** *
  95:.\Generated_Source\PSoC5/USBFS_hid.c **** * Return:
  96:.\Generated_Source\PSoC5/USBFS_hid.c **** *  Interface protocol.
  97:.\Generated_Source\PSoC5/USBFS_hid.c **** *
  98:.\Generated_Source\PSoC5/USBFS_hid.c **** *******************************************************************************/
  99:.\Generated_Source\PSoC5/USBFS_hid.c **** uint8 USBFS_GetProtocol(uint8 interface) 
 100:.\Generated_Source\PSoC5/USBFS_hid.c **** {
 115              		.loc 1 100 0
 116              		.cfi_startproc
 117              		@ args = 0, pretend = 0, frame = 8
 118              		@ frame_needed = 1, uses_anonymous_args = 0
 119              		@ link register save eliminated.
 120 0000 80B4     		push	{r7}
 121              	.LCFI3:
 122              		.cfi_def_cfa_offset 4
 123              		.cfi_offset 7, -4
 124 0002 83B0     		sub	sp, sp, #12
 125              	.LCFI4:
 126              		.cfi_def_cfa_offset 16
 127 0004 00AF     		add	r7, sp, #0
 128              	.LCFI5:
ARM GAS  C:\Users\Robert\AppData\Local\Temp\ccwgAcz4.s 			page 5


 129              		.cfi_def_cfa_register 7
 130 0006 0346     		mov	r3, r0
 131 0008 FB71     		strb	r3, [r7, #7]
 101:.\Generated_Source\PSoC5/USBFS_hid.c ****     return(USBFS_hidProtocol[interface]);
 132              		.loc 1 101 0
 133 000a FA79     		ldrb	r2, [r7, #7]	@ zero_extendqisi2
 134 000c 40F20003 		movw	r3, #:lower16:USBFS_hidProtocol
 135 0010 C0F20003 		movt	r3, #:upper16:USBFS_hidProtocol
 136 0014 9B5C     		ldrb	r3, [r3, r2]
 137 0016 DBB2     		uxtb	r3, r3
 102:.\Generated_Source\PSoC5/USBFS_hid.c **** }
 138              		.loc 1 102 0
 139 0018 1846     		mov	r0, r3
 140 001a 07F10C07 		add	r7, r7, #12
 141 001e BD46     		mov	sp, r7
 142 0020 80BC     		pop	{r7}
 143 0022 7047     		bx	lr
 144              		.cfi_endproc
 145              	.LFE1:
 146              		.size	USBFS_GetProtocol, .-USBFS_GetProtocol
 147              		.section	.text.USBFS_DispatchHIDClassRqst,"ax",%progbits
 148              		.align	2
 149              		.global	USBFS_DispatchHIDClassRqst
 150              		.thumb
 151              		.thumb_func
 152              		.type	USBFS_DispatchHIDClassRqst, %function
 153              	USBFS_DispatchHIDClassRqst:
 154              	.LFB2:
 103:.\Generated_Source\PSoC5/USBFS_hid.c **** 
 104:.\Generated_Source\PSoC5/USBFS_hid.c **** 
 105:.\Generated_Source\PSoC5/USBFS_hid.c **** /*******************************************************************************
 106:.\Generated_Source\PSoC5/USBFS_hid.c **** * Function Name: USBFS_DispatchHIDClassRqst
 107:.\Generated_Source\PSoC5/USBFS_hid.c **** ********************************************************************************
 108:.\Generated_Source\PSoC5/USBFS_hid.c **** *
 109:.\Generated_Source\PSoC5/USBFS_hid.c **** * Summary:
 110:.\Generated_Source\PSoC5/USBFS_hid.c **** *  This routine dispatches class requests
 111:.\Generated_Source\PSoC5/USBFS_hid.c **** *
 112:.\Generated_Source\PSoC5/USBFS_hid.c **** * Parameters:
 113:.\Generated_Source\PSoC5/USBFS_hid.c **** *  None.
 114:.\Generated_Source\PSoC5/USBFS_hid.c **** *
 115:.\Generated_Source\PSoC5/USBFS_hid.c **** * Return:
 116:.\Generated_Source\PSoC5/USBFS_hid.c **** *  requestHandled
 117:.\Generated_Source\PSoC5/USBFS_hid.c **** *
 118:.\Generated_Source\PSoC5/USBFS_hid.c **** * Reentrant:
 119:.\Generated_Source\PSoC5/USBFS_hid.c **** *  No.
 120:.\Generated_Source\PSoC5/USBFS_hid.c **** *
 121:.\Generated_Source\PSoC5/USBFS_hid.c **** *******************************************************************************/
 122:.\Generated_Source\PSoC5/USBFS_hid.c **** uint8 USBFS_DispatchHIDClassRqst(void) 
 123:.\Generated_Source\PSoC5/USBFS_hid.c **** {
 155              		.loc 1 123 0
 156              		.cfi_startproc
 157              		@ args = 0, pretend = 0, frame = 8
 158              		@ frame_needed = 1, uses_anonymous_args = 0
 159 0000 80B5     		push	{r7, lr}
 160              	.LCFI6:
 161              		.cfi_def_cfa_offset 8
 162              		.cfi_offset 7, -8
ARM GAS  C:\Users\Robert\AppData\Local\Temp\ccwgAcz4.s 			page 6


 163              		.cfi_offset 14, -4
 164 0002 82B0     		sub	sp, sp, #8
 165              	.LCFI7:
 166              		.cfi_def_cfa_offset 16
 167 0004 00AF     		add	r7, sp, #0
 168              	.LCFI8:
 169              		.cfi_def_cfa_register 7
 124:.\Generated_Source\PSoC5/USBFS_hid.c ****     uint8 requestHandled = USBFS_FALSE;
 170              		.loc 1 124 0
 171 0006 4FF00003 		mov	r3, #0
 172 000a FB71     		strb	r3, [r7, #7]
 125:.\Generated_Source\PSoC5/USBFS_hid.c ****     uint8 interfaceNumber;
 126:.\Generated_Source\PSoC5/USBFS_hid.c **** 
 127:.\Generated_Source\PSoC5/USBFS_hid.c ****     interfaceNumber = CY_GET_REG8(USBFS_wIndexLo);
 173              		.loc 1 127 0
 174 000c 46F20403 		movw	r3, #24580
 175 0010 C4F20003 		movt	r3, 16384
 176 0014 1B78     		ldrb	r3, [r3, #0]
 177 0016 BB71     		strb	r3, [r7, #6]
 128:.\Generated_Source\PSoC5/USBFS_hid.c ****     if ((CY_GET_REG8(USBFS_bmRequestType) & USBFS_RQST_DIR_MASK) == USBFS_RQST_DIR_D2H)
 178              		.loc 1 128 0
 179 0018 4FF4C043 		mov	r3, #24576
 180 001c C4F20003 		movt	r3, 16384
 181 0020 1B78     		ldrb	r3, [r3, #0]
 182 0022 DBB2     		uxtb	r3, r3
 183 0024 DBB2     		uxtb	r3, r3
 184 0026 5BB2     		sxtb	r3, r3
 185 0028 002B     		cmp	r3, #0
 186 002a 80F29C80 		bge	.L8
 129:.\Generated_Source\PSoC5/USBFS_hid.c ****     {   /* Control Read */
 130:.\Generated_Source\PSoC5/USBFS_hid.c ****         switch (CY_GET_REG8(USBFS_bRequest))
 187              		.loc 1 130 0
 188 002e 46F20103 		movw	r3, #24577
 189 0032 C4F20003 		movt	r3, 16384
 190 0036 1B78     		ldrb	r3, [r3, #0]
 191 0038 DBB2     		uxtb	r3, r3
 192 003a 03F1FF33 		add	r3, r3, #-1
 193 003e 052B     		cmp	r3, #5
 194 0040 00F22481 		bhi	.L34
 195 0044 01A2     		adr	r2, .L14
 196 0046 52F823F0 		ldr	pc, [r2, r3, lsl #2]
 197 004a 00BF     		.align	2
 198              	.L14:
 199 004c C7000000 		.word	.L10+1
 200 0050 E7000000 		.word	.L11+1
 201 0054 2F010000 		.word	.L12+1
 202 0058 8D020000 		.word	.L34+1
 203 005c 8D020000 		.word	.L34+1
 204 0060 65000000 		.word	.L13+1
 205              	.L13:
 131:.\Generated_Source\PSoC5/USBFS_hid.c ****         {
 132:.\Generated_Source\PSoC5/USBFS_hid.c ****             case USBFS_GET_DESCRIPTOR:
 133:.\Generated_Source\PSoC5/USBFS_hid.c ****                 if (CY_GET_REG8(USBFS_wValueHi) == USBFS_DESCR_HID_CLASS)
 206              		.loc 1 133 0
 207 0064 46F20303 		movw	r3, #24579
 208 0068 C4F20003 		movt	r3, 16384
 209 006c 1B78     		ldrb	r3, [r3, #0]
ARM GAS  C:\Users\Robert\AppData\Local\Temp\ccwgAcz4.s 			page 7


 210 006e DBB2     		uxtb	r3, r3
 211 0070 212B     		cmp	r3, #33
 212 0072 0FD1     		bne	.L15
 134:.\Generated_Source\PSoC5/USBFS_hid.c ****                 {
 135:.\Generated_Source\PSoC5/USBFS_hid.c ****                     USBFS_FindHidClassDecriptor();
 213              		.loc 1 135 0
 214 0074 FFF7FEFF 		bl	USBFS_FindHidClassDecriptor
 136:.\Generated_Source\PSoC5/USBFS_hid.c ****                     if (USBFS_currentTD.count != 0u)
 215              		.loc 1 136 0
 216 0078 40F20003 		movw	r3, #:lower16:USBFS_currentTD
 217 007c C0F20003 		movt	r3, #:upper16:USBFS_currentTD
 218 0080 1B88     		ldrh	r3, [r3, #0]	@ movhi
 219 0082 9BB2     		uxth	r3, r3
 220 0084 002B     		cmp	r3, #0
 221 0086 00F00381 		beq	.L35
 137:.\Generated_Source\PSoC5/USBFS_hid.c ****                     {
 138:.\Generated_Source\PSoC5/USBFS_hid.c ****                         requestHandled = USBFS_InitControlRead();
 222              		.loc 1 138 0
 223 008a FFF7FEFF 		bl	USBFS_InitControlRead
 224 008e 0346     		mov	r3, r0
 225 0090 FB71     		strb	r3, [r7, #7]
 139:.\Generated_Source\PSoC5/USBFS_hid.c ****                     }
 140:.\Generated_Source\PSoC5/USBFS_hid.c ****                 }
 141:.\Generated_Source\PSoC5/USBFS_hid.c ****                 else if (CY_GET_REG8(USBFS_wValueHi) == USBFS_DESCR_HID_REPORT)
 142:.\Generated_Source\PSoC5/USBFS_hid.c ****                 {
 143:.\Generated_Source\PSoC5/USBFS_hid.c ****                     USBFS_FindReportDescriptor();
 144:.\Generated_Source\PSoC5/USBFS_hid.c ****                     if (USBFS_currentTD.count != 0u)
 145:.\Generated_Source\PSoC5/USBFS_hid.c ****                     {
 146:.\Generated_Source\PSoC5/USBFS_hid.c ****                         requestHandled = USBFS_InitControlRead();
 147:.\Generated_Source\PSoC5/USBFS_hid.c ****                     }
 148:.\Generated_Source\PSoC5/USBFS_hid.c ****                 }
 149:.\Generated_Source\PSoC5/USBFS_hid.c ****                 else
 150:.\Generated_Source\PSoC5/USBFS_hid.c ****                 {   /* requestHandled is initialezed as FALSE by default */
 151:.\Generated_Source\PSoC5/USBFS_hid.c ****                 }
 152:.\Generated_Source\PSoC5/USBFS_hid.c ****                 break;
 226              		.loc 1 152 0
 227 0092 FDE0     		b	.L35
 228              	.L15:
 141:.\Generated_Source\PSoC5/USBFS_hid.c ****                 else if (CY_GET_REG8(USBFS_wValueHi) == USBFS_DESCR_HID_REPORT)
 229              		.loc 1 141 0
 230 0094 46F20303 		movw	r3, #24579
 231 0098 C4F20003 		movt	r3, 16384
 232 009c 1B78     		ldrb	r3, [r3, #0]
 233 009e DBB2     		uxtb	r3, r3
 234 00a0 222B     		cmp	r3, #34
 235 00a2 40F0F580 		bne	.L35
 143:.\Generated_Source\PSoC5/USBFS_hid.c ****                     USBFS_FindReportDescriptor();
 236              		.loc 1 143 0
 237 00a6 FFF7FEFF 		bl	USBFS_FindReportDescriptor
 144:.\Generated_Source\PSoC5/USBFS_hid.c ****                     if (USBFS_currentTD.count != 0u)
 238              		.loc 1 144 0
 239 00aa 40F20003 		movw	r3, #:lower16:USBFS_currentTD
 240 00ae C0F20003 		movt	r3, #:upper16:USBFS_currentTD
 241 00b2 1B88     		ldrh	r3, [r3, #0]	@ movhi
 242 00b4 9BB2     		uxth	r3, r3
 243 00b6 002B     		cmp	r3, #0
 244 00b8 00F0EA80 		beq	.L35
ARM GAS  C:\Users\Robert\AppData\Local\Temp\ccwgAcz4.s 			page 8


 146:.\Generated_Source\PSoC5/USBFS_hid.c ****                         requestHandled = USBFS_InitControlRead();
 245              		.loc 1 146 0
 246 00bc FFF7FEFF 		bl	USBFS_InitControlRead
 247 00c0 0346     		mov	r3, r0
 248 00c2 FB71     		strb	r3, [r7, #7]
 249              		.loc 1 152 0
 250 00c4 E4E0     		b	.L35
 251              	.L10:
 153:.\Generated_Source\PSoC5/USBFS_hid.c ****             case USBFS_HID_GET_REPORT:
 154:.\Generated_Source\PSoC5/USBFS_hid.c ****                 USBFS_FindReport();
 252              		.loc 1 154 0
 253 00c6 FFF7FEFF 		bl	USBFS_FindReport
 155:.\Generated_Source\PSoC5/USBFS_hid.c ****                 if (USBFS_currentTD.count != 0u)
 254              		.loc 1 155 0
 255 00ca 40F20003 		movw	r3, #:lower16:USBFS_currentTD
 256 00ce C0F20003 		movt	r3, #:upper16:USBFS_currentTD
 257 00d2 1B88     		ldrh	r3, [r3, #0]	@ movhi
 258 00d4 9BB2     		uxth	r3, r3
 259 00d6 002B     		cmp	r3, #0
 260 00d8 00F0DC80 		beq	.L36
 156:.\Generated_Source\PSoC5/USBFS_hid.c ****                 {
 157:.\Generated_Source\PSoC5/USBFS_hid.c ****                     requestHandled = USBFS_InitControlRead();
 261              		.loc 1 157 0
 262 00dc FFF7FEFF 		bl	USBFS_InitControlRead
 263 00e0 0346     		mov	r3, r0
 264 00e2 FB71     		strb	r3, [r7, #7]
 158:.\Generated_Source\PSoC5/USBFS_hid.c ****                 }
 159:.\Generated_Source\PSoC5/USBFS_hid.c ****                 break;
 265              		.loc 1 159 0
 266 00e4 D6E0     		b	.L36
 267              	.L11:
 160:.\Generated_Source\PSoC5/USBFS_hid.c **** 
 161:.\Generated_Source\PSoC5/USBFS_hid.c ****             case USBFS_HID_GET_IDLE:
 162:.\Generated_Source\PSoC5/USBFS_hid.c ****                 /* This function does not support multiple reports per interface*/
 163:.\Generated_Source\PSoC5/USBFS_hid.c ****                 /* Validate interfaceNumber and Report ID (should be 0) */
 164:.\Generated_Source\PSoC5/USBFS_hid.c ****                 if( (interfaceNumber < USBFS_MAX_INTERFACES_NUMBER) &&
 268              		.loc 1 164 0
 269 00e6 BB79     		ldrb	r3, [r7, #6]	@ zero_extendqisi2
 270 00e8 002B     		cmp	r3, #0
 271 00ea 40F0D580 		bne	.L37
 165:.\Generated_Source\PSoC5/USBFS_hid.c ****                     (CY_GET_REG8(USBFS_wValueLo) == 0u ) ) /* Do not support Idle per Report ID */
 272              		.loc 1 165 0 discriminator 1
 273 00ee 46F20203 		movw	r3, #24578
 274 00f2 C4F20003 		movt	r3, 16384
 275 00f6 1B78     		ldrb	r3, [r3, #0]
 276 00f8 DBB2     		uxtb	r3, r3
 164:.\Generated_Source\PSoC5/USBFS_hid.c ****                 if( (interfaceNumber < USBFS_MAX_INTERFACES_NUMBER) &&
 277              		.loc 1 164 0 discriminator 1
 278 00fa 002B     		cmp	r3, #0
 279 00fc 40F0CC80 		bne	.L37
 166:.\Generated_Source\PSoC5/USBFS_hid.c ****                 {
 167:.\Generated_Source\PSoC5/USBFS_hid.c ****                     USBFS_currentTD.count = 1u;
 280              		.loc 1 167 0
 281 0100 40F20003 		movw	r3, #:lower16:USBFS_currentTD
 282 0104 C0F20003 		movt	r3, #:upper16:USBFS_currentTD
 283 0108 4FF00102 		mov	r2, #1
 284 010c 1A80     		strh	r2, [r3, #0]	@ movhi
ARM GAS  C:\Users\Robert\AppData\Local\Temp\ccwgAcz4.s 			page 9


 168:.\Generated_Source\PSoC5/USBFS_hid.c ****                     USBFS_currentTD.pData = &USBFS_hidIdleRate[interfaceNumber];
 285              		.loc 1 168 0
 286 010e BA79     		ldrb	r2, [r7, #6]	@ zero_extendqisi2
 287 0110 40F20003 		movw	r3, #:lower16:USBFS_hidIdleRate
 288 0114 C0F20003 		movt	r3, #:upper16:USBFS_hidIdleRate
 289 0118 D218     		adds	r2, r2, r3
 290 011a 40F20003 		movw	r3, #:lower16:USBFS_currentTD
 291 011e C0F20003 		movt	r3, #:upper16:USBFS_currentTD
 292 0122 5A60     		str	r2, [r3, #4]
 169:.\Generated_Source\PSoC5/USBFS_hid.c ****                     requestHandled  = USBFS_InitControlRead();
 293              		.loc 1 169 0
 294 0124 FFF7FEFF 		bl	USBFS_InitControlRead
 295 0128 0346     		mov	r3, r0
 296 012a FB71     		strb	r3, [r7, #7]
 170:.\Generated_Source\PSoC5/USBFS_hid.c ****                 }
 171:.\Generated_Source\PSoC5/USBFS_hid.c ****                 break;
 297              		.loc 1 171 0
 298 012c B4E0     		b	.L37
 299              	.L12:
 172:.\Generated_Source\PSoC5/USBFS_hid.c ****             case USBFS_HID_GET_PROTOCOL:
 173:.\Generated_Source\PSoC5/USBFS_hid.c ****                 /* Validate interfaceNumber */
 174:.\Generated_Source\PSoC5/USBFS_hid.c ****                 if( interfaceNumber < USBFS_MAX_INTERFACES_NUMBER)
 300              		.loc 1 174 0
 301 012e BB79     		ldrb	r3, [r7, #6]	@ zero_extendqisi2
 302 0130 002B     		cmp	r3, #0
 303 0132 40F0B380 		bne	.L38
 175:.\Generated_Source\PSoC5/USBFS_hid.c ****                 {
 176:.\Generated_Source\PSoC5/USBFS_hid.c ****                     USBFS_currentTD.count = 1u;
 304              		.loc 1 176 0
 305 0136 40F20003 		movw	r3, #:lower16:USBFS_currentTD
 306 013a C0F20003 		movt	r3, #:upper16:USBFS_currentTD
 307 013e 4FF00102 		mov	r2, #1
 308 0142 1A80     		strh	r2, [r3, #0]	@ movhi
 177:.\Generated_Source\PSoC5/USBFS_hid.c ****                     USBFS_currentTD.pData = &USBFS_hidProtocol[interfaceNumber];
 309              		.loc 1 177 0
 310 0144 BA79     		ldrb	r2, [r7, #6]	@ zero_extendqisi2
 311 0146 40F20003 		movw	r3, #:lower16:USBFS_hidProtocol
 312 014a C0F20003 		movt	r3, #:upper16:USBFS_hidProtocol
 313 014e D218     		adds	r2, r2, r3
 314 0150 40F20003 		movw	r3, #:lower16:USBFS_currentTD
 315 0154 C0F20003 		movt	r3, #:upper16:USBFS_currentTD
 316 0158 5A60     		str	r2, [r3, #4]
 178:.\Generated_Source\PSoC5/USBFS_hid.c ****                     requestHandled  = USBFS_InitControlRead();
 317              		.loc 1 178 0
 318 015a FFF7FEFF 		bl	USBFS_InitControlRead
 319 015e 0346     		mov	r3, r0
 320 0160 FB71     		strb	r3, [r7, #7]
 179:.\Generated_Source\PSoC5/USBFS_hid.c ****                 }
 180:.\Generated_Source\PSoC5/USBFS_hid.c ****                 break;
 321              		.loc 1 180 0
 322 0162 00BF     		nop
 323 0164 9AE0     		b	.L38
 324              	.L8:
 181:.\Generated_Source\PSoC5/USBFS_hid.c ****             default:    /* requestHandled is initialized as FALSE by default */
 182:.\Generated_Source\PSoC5/USBFS_hid.c ****                 break;
 183:.\Generated_Source\PSoC5/USBFS_hid.c ****         }
 184:.\Generated_Source\PSoC5/USBFS_hid.c ****     }
ARM GAS  C:\Users\Robert\AppData\Local\Temp\ccwgAcz4.s 			page 10


 185:.\Generated_Source\PSoC5/USBFS_hid.c ****     else if ((CY_GET_REG8(USBFS_bmRequestType) & USBFS_RQST_DIR_MASK) ==
 325              		.loc 1 185 0
 326 0166 4FF4C043 		mov	r3, #24576
 327 016a C4F20003 		movt	r3, 16384
 328 016e 1B78     		ldrb	r3, [r3, #0]
 329 0170 DBB2     		uxtb	r3, r3
 330 0172 DBB2     		uxtb	r3, r3
 331 0174 5BB2     		sxtb	r3, r3
 332 0176 002B     		cmp	r3, #0
 333 0178 C0F29980 		blt	.L21
 186:.\Generated_Source\PSoC5/USBFS_hid.c ****                                                                             USBFS_RQST_DIR_H2D)
 187:.\Generated_Source\PSoC5/USBFS_hid.c ****     {   /* Control Write */
 188:.\Generated_Source\PSoC5/USBFS_hid.c ****         switch (CY_GET_REG8(USBFS_bRequest))
 334              		.loc 1 188 0
 335 017c 46F20103 		movw	r3, #24577
 336 0180 C4F20003 		movt	r3, 16384
 337 0184 1B78     		ldrb	r3, [r3, #0]
 338 0186 DBB2     		uxtb	r3, r3
 339 0188 092B     		cmp	r3, #9
 340 018a 07D0     		beq	.L23
 341 018c 092B     		cmp	r3, #9
 342 018e C0F28780 		blt	.L39
 343 0192 0A2B     		cmp	r3, #10
 344 0194 11D0     		beq	.L24
 345 0196 0B2B     		cmp	r3, #11
 346 0198 5AD0     		beq	.L25
 347 019a 75E0     		b	.L33
 348              	.L23:
 189:.\Generated_Source\PSoC5/USBFS_hid.c ****         {
 190:.\Generated_Source\PSoC5/USBFS_hid.c ****             case USBFS_HID_SET_REPORT:
 191:.\Generated_Source\PSoC5/USBFS_hid.c ****                 USBFS_FindReport();
 349              		.loc 1 191 0
 350 019c FFF7FEFF 		bl	USBFS_FindReport
 192:.\Generated_Source\PSoC5/USBFS_hid.c ****                 if (USBFS_currentTD.count != 0u)
 351              		.loc 1 192 0
 352 01a0 40F20003 		movw	r3, #:lower16:USBFS_currentTD
 353 01a4 C0F20003 		movt	r3, #:upper16:USBFS_currentTD
 354 01a8 1B88     		ldrh	r3, [r3, #0]	@ movhi
 355 01aa 9BB2     		uxth	r3, r3
 356 01ac 002B     		cmp	r3, #0
 357 01ae 79D0     		beq	.L40
 193:.\Generated_Source\PSoC5/USBFS_hid.c ****                 {
 194:.\Generated_Source\PSoC5/USBFS_hid.c ****                     requestHandled = USBFS_InitControlWrite();
 358              		.loc 1 194 0
 359 01b0 FFF7FEFF 		bl	USBFS_InitControlWrite
 360 01b4 0346     		mov	r3, r0
 361 01b6 FB71     		strb	r3, [r7, #7]
 195:.\Generated_Source\PSoC5/USBFS_hid.c ****                 }
 196:.\Generated_Source\PSoC5/USBFS_hid.c ****                 break;
 362              		.loc 1 196 0
 363 01b8 74E0     		b	.L40
 364              	.L24:
 197:.\Generated_Source\PSoC5/USBFS_hid.c ****             case USBFS_HID_SET_IDLE:
 198:.\Generated_Source\PSoC5/USBFS_hid.c ****                 /* This function does not support multiple reports per interface */
 199:.\Generated_Source\PSoC5/USBFS_hid.c ****                 /* Validate interfaceNumber and Report ID (should be 0) */
 200:.\Generated_Source\PSoC5/USBFS_hid.c ****                 if( (interfaceNumber < USBFS_MAX_INTERFACES_NUMBER) &&
 365              		.loc 1 200 0
ARM GAS  C:\Users\Robert\AppData\Local\Temp\ccwgAcz4.s 			page 11


 366 01ba BB79     		ldrb	r3, [r7, #6]	@ zero_extendqisi2
 367 01bc 002B     		cmp	r3, #0
 368 01be 73D1     		bne	.L41
 201:.\Generated_Source\PSoC5/USBFS_hid.c ****                     (CY_GET_REG8(USBFS_wValueLo) == 0u ) ) /* Do not support Idle per Report ID */
 369              		.loc 1 201 0 discriminator 1
 370 01c0 46F20203 		movw	r3, #24578
 371 01c4 C4F20003 		movt	r3, 16384
 372 01c8 1B78     		ldrb	r3, [r3, #0]
 373 01ca DBB2     		uxtb	r3, r3
 200:.\Generated_Source\PSoC5/USBFS_hid.c ****                 if( (interfaceNumber < USBFS_MAX_INTERFACES_NUMBER) &&
 374              		.loc 1 200 0 discriminator 1
 375 01cc 002B     		cmp	r3, #0
 376 01ce 6BD1     		bne	.L41
 202:.\Generated_Source\PSoC5/USBFS_hid.c ****                 {
 203:.\Generated_Source\PSoC5/USBFS_hid.c ****                     USBFS_hidIdleRate[interfaceNumber] = CY_GET_REG8(USBFS_wValueHi);
 377              		.loc 1 203 0
 378 01d0 BA79     		ldrb	r2, [r7, #6]	@ zero_extendqisi2
 379 01d2 46F20303 		movw	r3, #24579
 380 01d6 C4F20003 		movt	r3, 16384
 381 01da 1B78     		ldrb	r3, [r3, #0]
 382 01dc D9B2     		uxtb	r1, r3
 383 01de 40F20003 		movw	r3, #:lower16:USBFS_hidIdleRate
 384 01e2 C0F20003 		movt	r3, #:upper16:USBFS_hidIdleRate
 385 01e6 9954     		strb	r1, [r3, r2]
 204:.\Generated_Source\PSoC5/USBFS_hid.c ****                     /* With regards to HID spec: "7.2.4 Set_Idle Request"
 205:.\Generated_Source\PSoC5/USBFS_hid.c ****                     *  Latency. If the current period has gone past the
 206:.\Generated_Source\PSoC5/USBFS_hid.c ****                     *  newly proscribed time duration, then a report
 207:.\Generated_Source\PSoC5/USBFS_hid.c ****                     *  will be generated immediately.
 208:.\Generated_Source\PSoC5/USBFS_hid.c ****                     */
 209:.\Generated_Source\PSoC5/USBFS_hid.c ****                     if(USBFS_hidIdleRate[interfaceNumber] <
 386              		.loc 1 209 0
 387 01e8 BA79     		ldrb	r2, [r7, #6]	@ zero_extendqisi2
 388 01ea 40F20003 		movw	r3, #:lower16:USBFS_hidIdleRate
 389 01ee C0F20003 		movt	r3, #:upper16:USBFS_hidIdleRate
 390 01f2 9B5C     		ldrb	r3, [r3, r2]
 391 01f4 DAB2     		uxtb	r2, r3
 210:.\Generated_Source\PSoC5/USBFS_hid.c ****                        USBFS_hidIdleTimer[interfaceNumber])
 392              		.loc 1 210 0
 393 01f6 B979     		ldrb	r1, [r7, #6]	@ zero_extendqisi2
 394 01f8 40F20003 		movw	r3, #:lower16:USBFS_hidIdleTimer
 395 01fc C0F20003 		movt	r3, #:upper16:USBFS_hidIdleTimer
 396 0200 5B5C     		ldrb	r3, [r3, r1]
 397 0202 DBB2     		uxtb	r3, r3
 209:.\Generated_Source\PSoC5/USBFS_hid.c ****                     if(USBFS_hidIdleRate[interfaceNumber] <
 398              		.loc 1 209 0
 399 0204 9A42     		cmp	r2, r3
 400 0206 08D2     		bcs	.L29
 211:.\Generated_Source\PSoC5/USBFS_hid.c ****                     {
 212:.\Generated_Source\PSoC5/USBFS_hid.c ****                         /* Set the timer to zero and let the UpdateHIDTimer() API return IDLE_TIMER
 213:.\Generated_Source\PSoC5/USBFS_hid.c ****                         USBFS_hidIdleTimer[interfaceNumber] = 0u;
 401              		.loc 1 213 0
 402 0208 BA79     		ldrb	r2, [r7, #6]	@ zero_extendqisi2
 403 020a 40F20003 		movw	r3, #:lower16:USBFS_hidIdleTimer
 404 020e C0F20003 		movt	r3, #:upper16:USBFS_hidIdleTimer
 405 0212 4FF00001 		mov	r1, #0
 406 0216 9954     		strb	r1, [r3, r2]
 407 0218 15E0     		b	.L30
ARM GAS  C:\Users\Robert\AppData\Local\Temp\ccwgAcz4.s 			page 12


 408              	.L29:
 214:.\Generated_Source\PSoC5/USBFS_hid.c ****                     }
 215:.\Generated_Source\PSoC5/USBFS_hid.c ****                     /* If the new request is received within 4 milliseconds
 216:.\Generated_Source\PSoC5/USBFS_hid.c ****                     *  (1 count) of the end of the current period, then the
 217:.\Generated_Source\PSoC5/USBFS_hid.c ****                     *  new request will have no effect until after the report.
 218:.\Generated_Source\PSoC5/USBFS_hid.c ****                     */
 219:.\Generated_Source\PSoC5/USBFS_hid.c ****                     else if(USBFS_hidIdleTimer[interfaceNumber] <= 1u)
 409              		.loc 1 219 0
 410 021a BA79     		ldrb	r2, [r7, #6]	@ zero_extendqisi2
 411 021c 40F20003 		movw	r3, #:lower16:USBFS_hidIdleTimer
 412 0220 C0F20003 		movt	r3, #:upper16:USBFS_hidIdleTimer
 413 0224 9B5C     		ldrb	r3, [r3, r2]
 414 0226 DBB2     		uxtb	r3, r3
 415 0228 012B     		cmp	r3, #1
 416 022a 0CD9     		bls	.L30
 220:.\Generated_Source\PSoC5/USBFS_hid.c ****                     {
 221:.\Generated_Source\PSoC5/USBFS_hid.c ****                         /* Do nothing.
 222:.\Generated_Source\PSoC5/USBFS_hid.c ****                         *  Let the UpdateHIDTimer() API continue to work and
 223:.\Generated_Source\PSoC5/USBFS_hid.c ****                         *  return IDLE_TIMER_EXPIRED status
 224:.\Generated_Source\PSoC5/USBFS_hid.c ****                         */
 225:.\Generated_Source\PSoC5/USBFS_hid.c ****                     }
 226:.\Generated_Source\PSoC5/USBFS_hid.c ****                     else
 227:.\Generated_Source\PSoC5/USBFS_hid.c ****                     {   /* Reload the timer*/
 228:.\Generated_Source\PSoC5/USBFS_hid.c ****                         USBFS_hidIdleTimer[interfaceNumber] =
 417              		.loc 1 228 0
 418 022c BA79     		ldrb	r2, [r7, #6]	@ zero_extendqisi2
 229:.\Generated_Source\PSoC5/USBFS_hid.c ****                         USBFS_hidIdleRate[interfaceNumber];
 419              		.loc 1 229 0
 420 022e B979     		ldrb	r1, [r7, #6]	@ zero_extendqisi2
 421 0230 40F20003 		movw	r3, #:lower16:USBFS_hidIdleRate
 422 0234 C0F20003 		movt	r3, #:upper16:USBFS_hidIdleRate
 423 0238 5B5C     		ldrb	r3, [r3, r1]
 424 023a D9B2     		uxtb	r1, r3
 228:.\Generated_Source\PSoC5/USBFS_hid.c ****                         USBFS_hidIdleTimer[interfaceNumber] =
 425              		.loc 1 228 0
 426 023c 40F20003 		movw	r3, #:lower16:USBFS_hidIdleTimer
 427 0240 C0F20003 		movt	r3, #:upper16:USBFS_hidIdleTimer
 428 0244 9954     		strb	r1, [r3, r2]
 429              	.L30:
 230:.\Generated_Source\PSoC5/USBFS_hid.c ****                     }
 231:.\Generated_Source\PSoC5/USBFS_hid.c ****                     requestHandled = USBFS_InitNoDataControlTransfer();
 430              		.loc 1 231 0
 431 0246 FFF7FEFF 		bl	USBFS_InitNoDataControlTransfer
 432 024a 0346     		mov	r3, r0
 433 024c FB71     		strb	r3, [r7, #7]
 232:.\Generated_Source\PSoC5/USBFS_hid.c ****                 }
 233:.\Generated_Source\PSoC5/USBFS_hid.c ****                 break;
 434              		.loc 1 233 0
 435 024e 2BE0     		b	.L41
 436              	.L25:
 234:.\Generated_Source\PSoC5/USBFS_hid.c **** 
 235:.\Generated_Source\PSoC5/USBFS_hid.c ****             case USBFS_HID_SET_PROTOCOL:
 236:.\Generated_Source\PSoC5/USBFS_hid.c ****                 /* Validate interfaceNumber and protocol (must be 0 or 1) */
 237:.\Generated_Source\PSoC5/USBFS_hid.c ****                 if( (interfaceNumber < USBFS_MAX_INTERFACES_NUMBER) &&
 437              		.loc 1 237 0
 438 0250 BB79     		ldrb	r3, [r7, #6]	@ zero_extendqisi2
 439 0252 002B     		cmp	r3, #0
ARM GAS  C:\Users\Robert\AppData\Local\Temp\ccwgAcz4.s 			page 13


 440 0254 2AD1     		bne	.L42
 238:.\Generated_Source\PSoC5/USBFS_hid.c ****                     (CY_GET_REG8(USBFS_wValueLo) <= 1u) )
 441              		.loc 1 238 0 discriminator 1
 442 0256 46F20203 		movw	r3, #24578
 443 025a C4F20003 		movt	r3, 16384
 444 025e 1B78     		ldrb	r3, [r3, #0]
 445 0260 DBB2     		uxtb	r3, r3
 237:.\Generated_Source\PSoC5/USBFS_hid.c ****                 if( (interfaceNumber < USBFS_MAX_INTERFACES_NUMBER) &&
 446              		.loc 1 237 0 discriminator 1
 447 0262 012B     		cmp	r3, #1
 448 0264 22D8     		bhi	.L42
 239:.\Generated_Source\PSoC5/USBFS_hid.c ****                 {
 240:.\Generated_Source\PSoC5/USBFS_hid.c ****                     USBFS_hidProtocol[interfaceNumber] = CY_GET_REG8(USBFS_wValueLo);
 449              		.loc 1 240 0
 450 0266 BA79     		ldrb	r2, [r7, #6]	@ zero_extendqisi2
 451 0268 46F20203 		movw	r3, #24578
 452 026c C4F20003 		movt	r3, 16384
 453 0270 1B78     		ldrb	r3, [r3, #0]
 454 0272 D9B2     		uxtb	r1, r3
 455 0274 40F20003 		movw	r3, #:lower16:USBFS_hidProtocol
 456 0278 C0F20003 		movt	r3, #:upper16:USBFS_hidProtocol
 457 027c 9954     		strb	r1, [r3, r2]
 241:.\Generated_Source\PSoC5/USBFS_hid.c ****                     requestHandled = USBFS_InitNoDataControlTransfer();
 458              		.loc 1 241 0
 459 027e FFF7FEFF 		bl	USBFS_InitNoDataControlTransfer
 460 0282 0346     		mov	r3, r0
 461 0284 FB71     		strb	r3, [r7, #7]
 242:.\Generated_Source\PSoC5/USBFS_hid.c ****                 }
 243:.\Generated_Source\PSoC5/USBFS_hid.c ****                 break;
 462              		.loc 1 243 0
 463 0286 11E0     		b	.L42
 464              	.L33:
 244:.\Generated_Source\PSoC5/USBFS_hid.c ****             default:    /* requestHandled is initialized as FALSE by default */
 245:.\Generated_Source\PSoC5/USBFS_hid.c ****                 break;
 465              		.loc 1 245 0
 466 0288 00BF     		nop
 467 028a 09E0     		b	.L39
 468              	.L34:
 182:.\Generated_Source\PSoC5/USBFS_hid.c ****                 break;
 469              		.loc 1 182 0
 470 028c 00BF     		nop
 471 028e 0EE0     		b	.L21
 472              	.L35:
 152:.\Generated_Source\PSoC5/USBFS_hid.c ****                 break;
 473              		.loc 1 152 0
 474 0290 00BF     		nop
 475 0292 0CE0     		b	.L21
 476              	.L36:
 159:.\Generated_Source\PSoC5/USBFS_hid.c ****                 break;
 477              		.loc 1 159 0
 478 0294 00BF     		nop
 479 0296 0AE0     		b	.L21
 480              	.L37:
 171:.\Generated_Source\PSoC5/USBFS_hid.c ****                 break;
 481              		.loc 1 171 0
 482 0298 00BF     		nop
 483 029a 08E0     		b	.L21
ARM GAS  C:\Users\Robert\AppData\Local\Temp\ccwgAcz4.s 			page 14


 484              	.L38:
 180:.\Generated_Source\PSoC5/USBFS_hid.c ****                 break;
 485              		.loc 1 180 0
 486 029c 00BF     		nop
 487 029e 06E0     		b	.L21
 488              	.L39:
 489              		.loc 1 245 0
 490 02a0 00BF     		nop
 491 02a2 04E0     		b	.L21
 492              	.L40:
 196:.\Generated_Source\PSoC5/USBFS_hid.c ****                 break;
 493              		.loc 1 196 0
 494 02a4 00BF     		nop
 495 02a6 02E0     		b	.L21
 496              	.L41:
 233:.\Generated_Source\PSoC5/USBFS_hid.c ****                 break;
 497              		.loc 1 233 0
 498 02a8 00BF     		nop
 499 02aa 00E0     		b	.L21
 500              	.L42:
 243:.\Generated_Source\PSoC5/USBFS_hid.c ****                 break;
 501              		.loc 1 243 0
 502 02ac 00BF     		nop
 503              	.L21:
 246:.\Generated_Source\PSoC5/USBFS_hid.c ****         }
 247:.\Generated_Source\PSoC5/USBFS_hid.c ****     }
 248:.\Generated_Source\PSoC5/USBFS_hid.c ****     else
 249:.\Generated_Source\PSoC5/USBFS_hid.c ****     {   /* requestHandled is initialized as FALSE by default */
 250:.\Generated_Source\PSoC5/USBFS_hid.c ****     }
 251:.\Generated_Source\PSoC5/USBFS_hid.c **** 
 252:.\Generated_Source\PSoC5/USBFS_hid.c ****     return(requestHandled);
 504              		.loc 1 252 0
 505 02ae FB79     		ldrb	r3, [r7, #7]	@ zero_extendqisi2
 253:.\Generated_Source\PSoC5/USBFS_hid.c **** }
 506              		.loc 1 253 0
 507 02b0 1846     		mov	r0, r3
 508 02b2 07F10807 		add	r7, r7, #8
 509 02b6 BD46     		mov	sp, r7
 510 02b8 80BD     		pop	{r7, pc}
 511              		.cfi_endproc
 512              	.LFE2:
 513              		.size	USBFS_DispatchHIDClassRqst, .-USBFS_DispatchHIDClassRqst
 514 02ba 00BF     		.section	.text.USBFS_FindHidClassDecriptor,"ax",%progbits
 515              		.align	2
 516              		.global	USBFS_FindHidClassDecriptor
 517              		.thumb
 518              		.thumb_func
 519              		.type	USBFS_FindHidClassDecriptor, %function
 520              	USBFS_FindHidClassDecriptor:
 521              	.LFB3:
 254:.\Generated_Source\PSoC5/USBFS_hid.c **** 
 255:.\Generated_Source\PSoC5/USBFS_hid.c **** 
 256:.\Generated_Source\PSoC5/USBFS_hid.c **** /*******************************************************************************
 257:.\Generated_Source\PSoC5/USBFS_hid.c **** * Function Name: USB_FindHidClassDescriptor
 258:.\Generated_Source\PSoC5/USBFS_hid.c **** ********************************************************************************
 259:.\Generated_Source\PSoC5/USBFS_hid.c **** *
 260:.\Generated_Source\PSoC5/USBFS_hid.c **** * Summary:
ARM GAS  C:\Users\Robert\AppData\Local\Temp\ccwgAcz4.s 			page 15


 261:.\Generated_Source\PSoC5/USBFS_hid.c **** *  This routine find Hid Class Descriptor pointer based on the Interface number
 262:.\Generated_Source\PSoC5/USBFS_hid.c **** *  and Alternate setting then loads the currentTD structure with the address of
 263:.\Generated_Source\PSoC5/USBFS_hid.c **** *  the buffer and the size.
 264:.\Generated_Source\PSoC5/USBFS_hid.c **** *  The HID Class Descriptor resides inside the config descriptor.
 265:.\Generated_Source\PSoC5/USBFS_hid.c **** *
 266:.\Generated_Source\PSoC5/USBFS_hid.c **** * Parameters:
 267:.\Generated_Source\PSoC5/USBFS_hid.c **** *  None.
 268:.\Generated_Source\PSoC5/USBFS_hid.c **** *
 269:.\Generated_Source\PSoC5/USBFS_hid.c **** * Return:
 270:.\Generated_Source\PSoC5/USBFS_hid.c **** *  currentTD
 271:.\Generated_Source\PSoC5/USBFS_hid.c **** *
 272:.\Generated_Source\PSoC5/USBFS_hid.c **** * Reentrant:
 273:.\Generated_Source\PSoC5/USBFS_hid.c **** *  No.
 274:.\Generated_Source\PSoC5/USBFS_hid.c **** *
 275:.\Generated_Source\PSoC5/USBFS_hid.c **** *******************************************************************************/
 276:.\Generated_Source\PSoC5/USBFS_hid.c **** void USBFS_FindHidClassDecriptor(void) 
 277:.\Generated_Source\PSoC5/USBFS_hid.c **** {
 522              		.loc 1 277 0
 523              		.cfi_startproc
 524              		@ args = 0, pretend = 0, frame = 16
 525              		@ frame_needed = 1, uses_anonymous_args = 0
 526 0000 80B5     		push	{r7, lr}
 527              	.LCFI9:
 528              		.cfi_def_cfa_offset 8
 529              		.cfi_offset 7, -8
 530              		.cfi_offset 14, -4
 531 0002 84B0     		sub	sp, sp, #16
 532              	.LCFI10:
 533              		.cfi_def_cfa_offset 24
 534 0004 00AF     		add	r7, sp, #0
 535              	.LCFI11:
 536              		.cfi_def_cfa_register 7
 278:.\Generated_Source\PSoC5/USBFS_hid.c ****     const T_USBFS_LUT CYCODE *pTmp;
 279:.\Generated_Source\PSoC5/USBFS_hid.c ****     volatile uint8 *pDescr;
 280:.\Generated_Source\PSoC5/USBFS_hid.c ****     uint8 interfaceN;
 281:.\Generated_Source\PSoC5/USBFS_hid.c **** 
 282:.\Generated_Source\PSoC5/USBFS_hid.c ****     pTmp = USBFS_GetConfigTablePtr(USBFS_configuration - 1u);
 537              		.loc 1 282 0
 538 0006 40F20003 		movw	r3, #:lower16:USBFS_configuration
 539 000a C0F20003 		movt	r3, #:upper16:USBFS_configuration
 540 000e 1B78     		ldrb	r3, [r3, #0]
 541 0010 DBB2     		uxtb	r3, r3
 542 0012 03F1FF33 		add	r3, r3, #-1
 543 0016 DBB2     		uxtb	r3, r3
 544 0018 1846     		mov	r0, r3
 545 001a FFF7FEFF 		bl	USBFS_GetConfigTablePtr
 546 001e F860     		str	r0, [r7, #12]
 283:.\Generated_Source\PSoC5/USBFS_hid.c ****     interfaceN = CY_GET_REG8(USBFS_wIndexLo);
 547              		.loc 1 283 0
 548 0020 46F20403 		movw	r3, #24580
 549 0024 C4F20003 		movt	r3, 16384
 550 0028 1B78     		ldrb	r3, [r3, #0]
 551 002a FB72     		strb	r3, [r7, #11]
 284:.\Generated_Source\PSoC5/USBFS_hid.c ****     /* Third entry in the LUT starts the Interface Table pointers */
 285:.\Generated_Source\PSoC5/USBFS_hid.c ****     /* Now use the request interface number*/
 286:.\Generated_Source\PSoC5/USBFS_hid.c ****     pTmp = &pTmp[interfaceN + 2u];
 552              		.loc 1 286 0
ARM GAS  C:\Users\Robert\AppData\Local\Temp\ccwgAcz4.s 			page 16


 553 002c FB7A     		ldrb	r3, [r7, #11]	@ zero_extendqisi2
 554 002e 03F10203 		add	r3, r3, #2
 555 0032 4FEAC303 		lsl	r3, r3, #3
 556 0036 FA68     		ldr	r2, [r7, #12]
 557 0038 D318     		adds	r3, r2, r3
 558 003a FB60     		str	r3, [r7, #12]
 287:.\Generated_Source\PSoC5/USBFS_hid.c ****     /* USB_DEVICEx_CONFIGURATIONy_INTERFACEz_TABLE */
 288:.\Generated_Source\PSoC5/USBFS_hid.c ****     pTmp = (const T_USBFS_LUT CYCODE *) pTmp->p_list;
 559              		.loc 1 288 0
 560 003c FB68     		ldr	r3, [r7, #12]
 561 003e 5B68     		ldr	r3, [r3, #4]
 562 0040 FB60     		str	r3, [r7, #12]
 289:.\Generated_Source\PSoC5/USBFS_hid.c ****     /* Now use Alternate setting number */
 290:.\Generated_Source\PSoC5/USBFS_hid.c ****     pTmp = &pTmp[USBFS_interfaceSetting[interfaceN]];
 563              		.loc 1 290 0
 564 0042 FA7A     		ldrb	r2, [r7, #11]	@ zero_extendqisi2
 565 0044 40F20003 		movw	r3, #:lower16:USBFS_interfaceSetting
 566 0048 C0F20003 		movt	r3, #:upper16:USBFS_interfaceSetting
 567 004c 9B5C     		ldrb	r3, [r3, r2]
 568 004e DBB2     		uxtb	r3, r3
 569 0050 4FEAC303 		lsl	r3, r3, #3
 570 0054 FA68     		ldr	r2, [r7, #12]
 571 0056 D318     		adds	r3, r2, r3
 572 0058 FB60     		str	r3, [r7, #12]
 291:.\Generated_Source\PSoC5/USBFS_hid.c ****     /* USB_DEVICEx_CONFIGURATIONy_INTERFACEz_ALTERNATEi_HID_TABLE */
 292:.\Generated_Source\PSoC5/USBFS_hid.c ****     pTmp = (const T_USBFS_LUT CYCODE *) pTmp->p_list;
 573              		.loc 1 292 0
 574 005a FB68     		ldr	r3, [r7, #12]
 575 005c 5B68     		ldr	r3, [r3, #4]
 576 005e FB60     		str	r3, [r7, #12]
 293:.\Generated_Source\PSoC5/USBFS_hid.c ****     /* Fifth entry in the LUT points to Hid Class Descriptor in Configuration Descriptor */
 294:.\Generated_Source\PSoC5/USBFS_hid.c ****     pTmp = &pTmp[4u];
 577              		.loc 1 294 0
 578 0060 FB68     		ldr	r3, [r7, #12]
 579 0062 03F12003 		add	r3, r3, #32
 580 0066 FB60     		str	r3, [r7, #12]
 295:.\Generated_Source\PSoC5/USBFS_hid.c ****     pDescr = (volatile uint8 *)pTmp->p_list;
 581              		.loc 1 295 0
 582 0068 FB68     		ldr	r3, [r7, #12]
 583 006a 5B68     		ldr	r3, [r3, #4]
 584 006c 7B60     		str	r3, [r7, #4]
 296:.\Generated_Source\PSoC5/USBFS_hid.c ****     /* The first byte contains the descriptor length */
 297:.\Generated_Source\PSoC5/USBFS_hid.c ****     USBFS_currentTD.count = *pDescr;
 585              		.loc 1 297 0
 586 006e 7B68     		ldr	r3, [r7, #4]
 587 0070 1B78     		ldrb	r3, [r3, #0]
 588 0072 DBB2     		uxtb	r3, r3
 589 0074 1A46     		mov	r2, r3
 590 0076 40F20003 		movw	r3, #:lower16:USBFS_currentTD
 591 007a C0F20003 		movt	r3, #:upper16:USBFS_currentTD
 592 007e 1A80     		strh	r2, [r3, #0]	@ movhi
 298:.\Generated_Source\PSoC5/USBFS_hid.c ****     USBFS_currentTD.pData = pDescr;
 593              		.loc 1 298 0
 594 0080 40F20003 		movw	r3, #:lower16:USBFS_currentTD
 595 0084 C0F20003 		movt	r3, #:upper16:USBFS_currentTD
 596 0088 7A68     		ldr	r2, [r7, #4]
 597 008a 5A60     		str	r2, [r3, #4]
ARM GAS  C:\Users\Robert\AppData\Local\Temp\ccwgAcz4.s 			page 17


 299:.\Generated_Source\PSoC5/USBFS_hid.c **** }
 598              		.loc 1 299 0
 599 008c 07F11007 		add	r7, r7, #16
 600 0090 BD46     		mov	sp, r7
 601 0092 80BD     		pop	{r7, pc}
 602              		.cfi_endproc
 603              	.LFE3:
 604              		.size	USBFS_FindHidClassDecriptor, .-USBFS_FindHidClassDecriptor
 605              		.section	.text.USBFS_FindReportDescriptor,"ax",%progbits
 606              		.align	2
 607              		.global	USBFS_FindReportDescriptor
 608              		.thumb
 609              		.thumb_func
 610              		.type	USBFS_FindReportDescriptor, %function
 611              	USBFS_FindReportDescriptor:
 612              	.LFB4:
 300:.\Generated_Source\PSoC5/USBFS_hid.c **** 
 301:.\Generated_Source\PSoC5/USBFS_hid.c **** 
 302:.\Generated_Source\PSoC5/USBFS_hid.c **** /*******************************************************************************
 303:.\Generated_Source\PSoC5/USBFS_hid.c **** * Function Name: USB_FindReportDescriptor
 304:.\Generated_Source\PSoC5/USBFS_hid.c **** ********************************************************************************
 305:.\Generated_Source\PSoC5/USBFS_hid.c **** *
 306:.\Generated_Source\PSoC5/USBFS_hid.c **** * Summary:
 307:.\Generated_Source\PSoC5/USBFS_hid.c **** *  This routine find Hid Report Descriptor pointer based on the Interface
 308:.\Generated_Source\PSoC5/USBFS_hid.c **** *  number, then loads the currentTD structure with the address of the buffer
 309:.\Generated_Source\PSoC5/USBFS_hid.c **** *  and the size.
 310:.\Generated_Source\PSoC5/USBFS_hid.c **** *  Hid Report Descriptor is located after IN/OUT/FEATURE reports.
 311:.\Generated_Source\PSoC5/USBFS_hid.c **** *
 312:.\Generated_Source\PSoC5/USBFS_hid.c **** * Parameters:
 313:.\Generated_Source\PSoC5/USBFS_hid.c **** *   void
 314:.\Generated_Source\PSoC5/USBFS_hid.c **** *
 315:.\Generated_Source\PSoC5/USBFS_hid.c **** * Return:
 316:.\Generated_Source\PSoC5/USBFS_hid.c **** *  currentTD
 317:.\Generated_Source\PSoC5/USBFS_hid.c **** *
 318:.\Generated_Source\PSoC5/USBFS_hid.c **** * Reentrant:
 319:.\Generated_Source\PSoC5/USBFS_hid.c **** *  No.
 320:.\Generated_Source\PSoC5/USBFS_hid.c **** *
 321:.\Generated_Source\PSoC5/USBFS_hid.c **** *******************************************************************************/
 322:.\Generated_Source\PSoC5/USBFS_hid.c **** void USBFS_FindReportDescriptor(void) 
 323:.\Generated_Source\PSoC5/USBFS_hid.c **** {
 613              		.loc 1 323 0
 614              		.cfi_startproc
 615              		@ args = 0, pretend = 0, frame = 16
 616              		@ frame_needed = 1, uses_anonymous_args = 0
 617 0000 80B5     		push	{r7, lr}
 618              	.LCFI12:
 619              		.cfi_def_cfa_offset 8
 620              		.cfi_offset 7, -8
 621              		.cfi_offset 14, -4
 622 0002 84B0     		sub	sp, sp, #16
 623              	.LCFI13:
 624              		.cfi_def_cfa_offset 24
 625 0004 00AF     		add	r7, sp, #0
 626              	.LCFI14:
 627              		.cfi_def_cfa_register 7
 324:.\Generated_Source\PSoC5/USBFS_hid.c ****     const T_USBFS_LUT CYCODE *pTmp;
 325:.\Generated_Source\PSoC5/USBFS_hid.c ****     volatile uint8 *pDescr;
ARM GAS  C:\Users\Robert\AppData\Local\Temp\ccwgAcz4.s 			page 18


 326:.\Generated_Source\PSoC5/USBFS_hid.c ****     uint8 interfaceN;
 327:.\Generated_Source\PSoC5/USBFS_hid.c **** 
 328:.\Generated_Source\PSoC5/USBFS_hid.c ****     pTmp = USBFS_GetConfigTablePtr(USBFS_configuration - 1u);
 628              		.loc 1 328 0
 629 0006 40F20003 		movw	r3, #:lower16:USBFS_configuration
 630 000a C0F20003 		movt	r3, #:upper16:USBFS_configuration
 631 000e 1B78     		ldrb	r3, [r3, #0]
 632 0010 DBB2     		uxtb	r3, r3
 633 0012 03F1FF33 		add	r3, r3, #-1
 634 0016 DBB2     		uxtb	r3, r3
 635 0018 1846     		mov	r0, r3
 636 001a FFF7FEFF 		bl	USBFS_GetConfigTablePtr
 637 001e F860     		str	r0, [r7, #12]
 329:.\Generated_Source\PSoC5/USBFS_hid.c ****     interfaceN = CY_GET_REG8(USBFS_wIndexLo);
 638              		.loc 1 329 0
 639 0020 46F20403 		movw	r3, #24580
 640 0024 C4F20003 		movt	r3, 16384
 641 0028 1B78     		ldrb	r3, [r3, #0]
 642 002a FB72     		strb	r3, [r7, #11]
 330:.\Generated_Source\PSoC5/USBFS_hid.c ****     /* Third entry in the LUT starts the Interface Table pointers */
 331:.\Generated_Source\PSoC5/USBFS_hid.c ****     /* Now use the request interface number */
 332:.\Generated_Source\PSoC5/USBFS_hid.c ****     pTmp = &pTmp[interfaceN + 2u];
 643              		.loc 1 332 0
 644 002c FB7A     		ldrb	r3, [r7, #11]	@ zero_extendqisi2
 645 002e 03F10203 		add	r3, r3, #2
 646 0032 4FEAC303 		lsl	r3, r3, #3
 647 0036 FA68     		ldr	r2, [r7, #12]
 648 0038 D318     		adds	r3, r2, r3
 649 003a FB60     		str	r3, [r7, #12]
 333:.\Generated_Source\PSoC5/USBFS_hid.c ****     /* USB_DEVICEx_CONFIGURATIONy_INTERFACEz_TABLE */
 334:.\Generated_Source\PSoC5/USBFS_hid.c ****     pTmp = (const T_USBFS_LUT CYCODE *) pTmp->p_list;
 650              		.loc 1 334 0
 651 003c FB68     		ldr	r3, [r7, #12]
 652 003e 5B68     		ldr	r3, [r3, #4]
 653 0040 FB60     		str	r3, [r7, #12]
 335:.\Generated_Source\PSoC5/USBFS_hid.c ****     /* Now use Alternate setting number */
 336:.\Generated_Source\PSoC5/USBFS_hid.c ****     pTmp = &pTmp[USBFS_interfaceSetting[interfaceN]];
 654              		.loc 1 336 0
 655 0042 FA7A     		ldrb	r2, [r7, #11]	@ zero_extendqisi2
 656 0044 40F20003 		movw	r3, #:lower16:USBFS_interfaceSetting
 657 0048 C0F20003 		movt	r3, #:upper16:USBFS_interfaceSetting
 658 004c 9B5C     		ldrb	r3, [r3, r2]
 659 004e DBB2     		uxtb	r3, r3
 660 0050 4FEAC303 		lsl	r3, r3, #3
 661 0054 FA68     		ldr	r2, [r7, #12]
 662 0056 D318     		adds	r3, r2, r3
 663 0058 FB60     		str	r3, [r7, #12]
 337:.\Generated_Source\PSoC5/USBFS_hid.c ****     /* USB_DEVICEx_CONFIGURATIONy_INTERFACEz_ALTERNATEi_HID_TABLE */
 338:.\Generated_Source\PSoC5/USBFS_hid.c ****     pTmp = (const T_USBFS_LUT CYCODE *) pTmp->p_list;
 664              		.loc 1 338 0
 665 005a FB68     		ldr	r3, [r7, #12]
 666 005c 5B68     		ldr	r3, [r3, #4]
 667 005e FB60     		str	r3, [r7, #12]
 339:.\Generated_Source\PSoC5/USBFS_hid.c ****     /* Fourth entry in the LUT starts the Hid Report Descriptor */
 340:.\Generated_Source\PSoC5/USBFS_hid.c ****     pTmp = &pTmp[3u];
 668              		.loc 1 340 0
 669 0060 FB68     		ldr	r3, [r7, #12]
ARM GAS  C:\Users\Robert\AppData\Local\Temp\ccwgAcz4.s 			page 19


 670 0062 03F11803 		add	r3, r3, #24
 671 0066 FB60     		str	r3, [r7, #12]
 341:.\Generated_Source\PSoC5/USBFS_hid.c ****     pDescr = (volatile uint8 *)pTmp->p_list;
 672              		.loc 1 341 0
 673 0068 FB68     		ldr	r3, [r7, #12]
 674 006a 5B68     		ldr	r3, [r3, #4]
 675 006c 7B60     		str	r3, [r7, #4]
 342:.\Generated_Source\PSoC5/USBFS_hid.c ****     /* The 1st and 2nd bytes of descriptor contain its length. LSB is 1st. */
 343:.\Generated_Source\PSoC5/USBFS_hid.c ****     USBFS_currentTD.count =  (((uint16)pDescr[1u] << 8u) | pDescr[0u]);
 676              		.loc 1 343 0
 677 006e 7B68     		ldr	r3, [r7, #4]
 678 0070 03F10103 		add	r3, r3, #1
 679 0074 1B78     		ldrb	r3, [r3, #0]
 680 0076 DBB2     		uxtb	r3, r3
 681 0078 4FEA0323 		lsl	r3, r3, #8
 682 007c 9AB2     		uxth	r2, r3
 683 007e 7B68     		ldr	r3, [r7, #4]
 684 0080 1B78     		ldrb	r3, [r3, #0]
 685 0082 DBB2     		uxtb	r3, r3
 686 0084 1343     		orrs	r3, r3, r2
 687 0086 9BB2     		uxth	r3, r3
 688 0088 9AB2     		uxth	r2, r3
 689 008a 40F20003 		movw	r3, #:lower16:USBFS_currentTD
 690 008e C0F20003 		movt	r3, #:upper16:USBFS_currentTD
 691 0092 1A80     		strh	r2, [r3, #0]	@ movhi
 344:.\Generated_Source\PSoC5/USBFS_hid.c ****     USBFS_currentTD.pData = &pDescr[2u];
 692              		.loc 1 344 0
 693 0094 7B68     		ldr	r3, [r7, #4]
 694 0096 03F10202 		add	r2, r3, #2
 695 009a 40F20003 		movw	r3, #:lower16:USBFS_currentTD
 696 009e C0F20003 		movt	r3, #:upper16:USBFS_currentTD
 697 00a2 5A60     		str	r2, [r3, #4]
 345:.\Generated_Source\PSoC5/USBFS_hid.c **** }
 698              		.loc 1 345 0
 699 00a4 07F11007 		add	r7, r7, #16
 700 00a8 BD46     		mov	sp, r7
 701 00aa 80BD     		pop	{r7, pc}
 702              		.cfi_endproc
 703              	.LFE4:
 704              		.size	USBFS_FindReportDescriptor, .-USBFS_FindReportDescriptor
 705              		.section	.text.USBFS_FindReport,"ax",%progbits
 706              		.align	2
 707              		.global	USBFS_FindReport
 708              		.thumb
 709              		.thumb_func
 710              		.type	USBFS_FindReport, %function
 711              	USBFS_FindReport:
 712              	.LFB5:
 346:.\Generated_Source\PSoC5/USBFS_hid.c **** 
 347:.\Generated_Source\PSoC5/USBFS_hid.c **** 
 348:.\Generated_Source\PSoC5/USBFS_hid.c **** /*******************************************************************************
 349:.\Generated_Source\PSoC5/USBFS_hid.c **** * Function Name: USBFS_FindReport
 350:.\Generated_Source\PSoC5/USBFS_hid.c **** ********************************************************************************
 351:.\Generated_Source\PSoC5/USBFS_hid.c **** *
 352:.\Generated_Source\PSoC5/USBFS_hid.c **** * Summary:
 353:.\Generated_Source\PSoC5/USBFS_hid.c **** *  This routine sets up a transfer based on the Interface number, Report Type
 354:.\Generated_Source\PSoC5/USBFS_hid.c **** *  and Report ID, then loads the currentTD structure with the address of the
ARM GAS  C:\Users\Robert\AppData\Local\Temp\ccwgAcz4.s 			page 20


 355:.\Generated_Source\PSoC5/USBFS_hid.c **** *  buffer and the size.  The caller has to decide if it is a control read or
 356:.\Generated_Source\PSoC5/USBFS_hid.c **** *  control write.
 357:.\Generated_Source\PSoC5/USBFS_hid.c **** *
 358:.\Generated_Source\PSoC5/USBFS_hid.c **** * Parameters:
 359:.\Generated_Source\PSoC5/USBFS_hid.c **** *  None.
 360:.\Generated_Source\PSoC5/USBFS_hid.c **** *
 361:.\Generated_Source\PSoC5/USBFS_hid.c **** * Return:
 362:.\Generated_Source\PSoC5/USBFS_hid.c **** *  currentTD
 363:.\Generated_Source\PSoC5/USBFS_hid.c **** *
 364:.\Generated_Source\PSoC5/USBFS_hid.c **** * Reentrant:
 365:.\Generated_Source\PSoC5/USBFS_hid.c **** *  No.
 366:.\Generated_Source\PSoC5/USBFS_hid.c **** *
 367:.\Generated_Source\PSoC5/USBFS_hid.c **** *******************************************************************************/
 368:.\Generated_Source\PSoC5/USBFS_hid.c **** void USBFS_FindReport(void) 
 369:.\Generated_Source\PSoC5/USBFS_hid.c **** {
 713              		.loc 1 369 0
 714              		.cfi_startproc
 715              		@ args = 0, pretend = 0, frame = 16
 716              		@ frame_needed = 1, uses_anonymous_args = 0
 717 0000 80B5     		push	{r7, lr}
 718              	.LCFI15:
 719              		.cfi_def_cfa_offset 8
 720              		.cfi_offset 7, -8
 721              		.cfi_offset 14, -4
 722 0002 84B0     		sub	sp, sp, #16
 723              	.LCFI16:
 724              		.cfi_def_cfa_offset 24
 725 0004 00AF     		add	r7, sp, #0
 726              	.LCFI17:
 727              		.cfi_def_cfa_register 7
 370:.\Generated_Source\PSoC5/USBFS_hid.c ****     const T_USBFS_LUT CYCODE *pTmp;
 371:.\Generated_Source\PSoC5/USBFS_hid.c ****     T_USBFS_TD *pTD;
 372:.\Generated_Source\PSoC5/USBFS_hid.c ****     uint8 interfaceN;
 373:.\Generated_Source\PSoC5/USBFS_hid.c ****     uint8 reportType;
 374:.\Generated_Source\PSoC5/USBFS_hid.c **** 
 375:.\Generated_Source\PSoC5/USBFS_hid.c ****     /* `#START HID_FINDREPORT` Place custom handling here */
 376:.\Generated_Source\PSoC5/USBFS_hid.c **** 
 377:.\Generated_Source\PSoC5/USBFS_hid.c ****     /* `#END` */
 378:.\Generated_Source\PSoC5/USBFS_hid.c ****     USBFS_currentTD.count = 0u;   /* Init not supported condition */
 728              		.loc 1 378 0
 729 0006 40F20003 		movw	r3, #:lower16:USBFS_currentTD
 730 000a C0F20003 		movt	r3, #:upper16:USBFS_currentTD
 731 000e 4FF00002 		mov	r2, #0
 732 0012 1A80     		strh	r2, [r3, #0]	@ movhi
 379:.\Generated_Source\PSoC5/USBFS_hid.c ****     pTmp = USBFS_GetConfigTablePtr(USBFS_configuration - 1u);
 733              		.loc 1 379 0
 734 0014 40F20003 		movw	r3, #:lower16:USBFS_configuration
 735 0018 C0F20003 		movt	r3, #:upper16:USBFS_configuration
 736 001c 1B78     		ldrb	r3, [r3, #0]
 737 001e DBB2     		uxtb	r3, r3
 738 0020 03F1FF33 		add	r3, r3, #-1
 739 0024 DBB2     		uxtb	r3, r3
 740 0026 1846     		mov	r0, r3
 741 0028 FFF7FEFF 		bl	USBFS_GetConfigTablePtr
 742 002c F860     		str	r0, [r7, #12]
 380:.\Generated_Source\PSoC5/USBFS_hid.c ****     reportType = CY_GET_REG8(USBFS_wValueHi);
 743              		.loc 1 380 0
ARM GAS  C:\Users\Robert\AppData\Local\Temp\ccwgAcz4.s 			page 21


 744 002e 46F20303 		movw	r3, #24579
 745 0032 C4F20003 		movt	r3, 16384
 746 0036 1B78     		ldrb	r3, [r3, #0]
 747 0038 FB72     		strb	r3, [r7, #11]
 381:.\Generated_Source\PSoC5/USBFS_hid.c ****     interfaceN = CY_GET_REG8(USBFS_wIndexLo);
 748              		.loc 1 381 0
 749 003a 46F20403 		movw	r3, #24580
 750 003e C4F20003 		movt	r3, 16384
 751 0042 1B78     		ldrb	r3, [r3, #0]
 752 0044 BB72     		strb	r3, [r7, #10]
 382:.\Generated_Source\PSoC5/USBFS_hid.c ****     /* Third entry in the LUT COnfiguration Table starts the Interface Table pointers */
 383:.\Generated_Source\PSoC5/USBFS_hid.c ****     /* Now use the request interface number */
 384:.\Generated_Source\PSoC5/USBFS_hid.c ****     pTmp = &pTmp[interfaceN + 2u];
 753              		.loc 1 384 0
 754 0046 BB7A     		ldrb	r3, [r7, #10]	@ zero_extendqisi2
 755 0048 03F10203 		add	r3, r3, #2
 756 004c 4FEAC303 		lsl	r3, r3, #3
 757 0050 FA68     		ldr	r2, [r7, #12]
 758 0052 D318     		adds	r3, r2, r3
 759 0054 FB60     		str	r3, [r7, #12]
 385:.\Generated_Source\PSoC5/USBFS_hid.c ****     /* USB_DEVICEx_CONFIGURATIONy_INTERFACEz_TABLE*/
 386:.\Generated_Source\PSoC5/USBFS_hid.c ****     pTmp = (const T_USBFS_LUT CYCODE *) pTmp->p_list;
 760              		.loc 1 386 0
 761 0056 FB68     		ldr	r3, [r7, #12]
 762 0058 5B68     		ldr	r3, [r3, #4]
 763 005a FB60     		str	r3, [r7, #12]
 387:.\Generated_Source\PSoC5/USBFS_hid.c ****     if(interfaceN < USBFS_MAX_INTERFACES_NUMBER)
 764              		.loc 1 387 0
 765 005c BB7A     		ldrb	r3, [r7, #10]	@ zero_extendqisi2
 766 005e 002B     		cmp	r3, #0
 767 0060 49D1     		bne	.L45
 388:.\Generated_Source\PSoC5/USBFS_hid.c ****     {
 389:.\Generated_Source\PSoC5/USBFS_hid.c ****         /* Now use Alternate setting number */
 390:.\Generated_Source\PSoC5/USBFS_hid.c ****         pTmp = &pTmp[USBFS_interfaceSetting[interfaceN]];
 768              		.loc 1 390 0
 769 0062 BA7A     		ldrb	r2, [r7, #10]	@ zero_extendqisi2
 770 0064 40F20003 		movw	r3, #:lower16:USBFS_interfaceSetting
 771 0068 C0F20003 		movt	r3, #:upper16:USBFS_interfaceSetting
 772 006c 9B5C     		ldrb	r3, [r3, r2]
 773 006e DBB2     		uxtb	r3, r3
 774 0070 4FEAC303 		lsl	r3, r3, #3
 775 0074 FA68     		ldr	r2, [r7, #12]
 776 0076 D318     		adds	r3, r2, r3
 777 0078 FB60     		str	r3, [r7, #12]
 391:.\Generated_Source\PSoC5/USBFS_hid.c ****         /* USB_DEVICEx_CONFIGURATIONy_INTERFACEz_ALTERNATEi_HID_TABLE */
 392:.\Generated_Source\PSoC5/USBFS_hid.c ****         pTmp = (const T_USBFS_LUT CYCODE *) pTmp->p_list;
 778              		.loc 1 392 0
 779 007a FB68     		ldr	r3, [r7, #12]
 780 007c 5B68     		ldr	r3, [r3, #4]
 781 007e FB60     		str	r3, [r7, #12]
 393:.\Generated_Source\PSoC5/USBFS_hid.c ****         /* Validate reportType to comply with "7.2.1 Get_Report Request" */
 394:.\Generated_Source\PSoC5/USBFS_hid.c ****         if((reportType >= USBFS_HID_GET_REPORT_INPUT) &&
 782              		.loc 1 394 0
 783 0080 FB7A     		ldrb	r3, [r7, #11]	@ zero_extendqisi2
 784 0082 002B     		cmp	r3, #0
 785 0084 37D0     		beq	.L45
 786              		.loc 1 394 0 is_stmt 0 discriminator 1
ARM GAS  C:\Users\Robert\AppData\Local\Temp\ccwgAcz4.s 			page 22


 787 0086 FB7A     		ldrb	r3, [r7, #11]	@ zero_extendqisi2
 788 0088 032B     		cmp	r3, #3
 789 008a 34D8     		bhi	.L45
 395:.\Generated_Source\PSoC5/USBFS_hid.c ****            (reportType <= USBFS_HID_GET_REPORT_FEATURE))
 396:.\Generated_Source\PSoC5/USBFS_hid.c ****         {
 397:.\Generated_Source\PSoC5/USBFS_hid.c ****             /* Get the entry proper TD (IN, OUT or Feature Report Table)*/
 398:.\Generated_Source\PSoC5/USBFS_hid.c ****             pTmp = &pTmp[reportType - 1u];
 790              		.loc 1 398 0 is_stmt 1
 791 008c FB7A     		ldrb	r3, [r7, #11]	@ zero_extendqisi2
 792 008e 03F1FF33 		add	r3, r3, #-1
 793 0092 4FEAC303 		lsl	r3, r3, #3
 794 0096 FA68     		ldr	r2, [r7, #12]
 795 0098 D318     		adds	r3, r2, r3
 796 009a FB60     		str	r3, [r7, #12]
 399:.\Generated_Source\PSoC5/USBFS_hid.c ****             reportType = CY_GET_REG8(USBFS_wValueLo);    /* Get reportID */
 797              		.loc 1 399 0
 798 009c 46F20203 		movw	r3, #24578
 799 00a0 C4F20003 		movt	r3, 16384
 800 00a4 1B78     		ldrb	r3, [r3, #0]
 801 00a6 FB72     		strb	r3, [r7, #11]
 400:.\Generated_Source\PSoC5/USBFS_hid.c ****             /* Validate table support by the HID descriptor, compare table count with reportID */
 401:.\Generated_Source\PSoC5/USBFS_hid.c ****             if(pTmp->c >= reportType)
 802              		.loc 1 401 0
 803 00a8 FB68     		ldr	r3, [r7, #12]
 804 00aa 1B78     		ldrb	r3, [r3, #0]	@ zero_extendqisi2
 805 00ac FA7A     		ldrb	r2, [r7, #11]	@ zero_extendqisi2
 806 00ae 9A42     		cmp	r2, r3
 807 00b0 21D8     		bhi	.L45
 402:.\Generated_Source\PSoC5/USBFS_hid.c ****             {
 403:.\Generated_Source\PSoC5/USBFS_hid.c ****                 pTD = (T_USBFS_TD *) pTmp->p_list;
 808              		.loc 1 403 0
 809 00b2 FB68     		ldr	r3, [r7, #12]
 810 00b4 5B68     		ldr	r3, [r3, #4]
 811 00b6 7B60     		str	r3, [r7, #4]
 404:.\Generated_Source\PSoC5/USBFS_hid.c ****                 pTD = &pTD[reportType];                          /* select entry depend on report I
 812              		.loc 1 404 0
 813 00b8 FA7A     		ldrb	r2, [r7, #11]	@ zero_extendqisi2
 814 00ba 1346     		mov	r3, r2
 815 00bc 4FEA4303 		lsl	r3, r3, #1
 816 00c0 9B18     		adds	r3, r3, r2
 817 00c2 4FEA8303 		lsl	r3, r3, #2
 818 00c6 7A68     		ldr	r2, [r7, #4]
 819 00c8 D318     		adds	r3, r2, r3
 820 00ca 7B60     		str	r3, [r7, #4]
 405:.\Generated_Source\PSoC5/USBFS_hid.c ****                 USBFS_currentTD.pData = pTD->pData;   /* Buffer pointer */
 821              		.loc 1 405 0
 822 00cc 7B68     		ldr	r3, [r7, #4]
 823 00ce 5A68     		ldr	r2, [r3, #4]
 824 00d0 40F20003 		movw	r3, #:lower16:USBFS_currentTD
 825 00d4 C0F20003 		movt	r3, #:upper16:USBFS_currentTD
 826 00d8 5A60     		str	r2, [r3, #4]
 406:.\Generated_Source\PSoC5/USBFS_hid.c ****                 USBFS_currentTD.count = pTD->count;   /* Buffer Size */
 827              		.loc 1 406 0
 828 00da 7B68     		ldr	r3, [r7, #4]
 829 00dc 1A88     		ldrh	r2, [r3, #0]
 830 00de 40F20003 		movw	r3, #:lower16:USBFS_currentTD
 831 00e2 C0F20003 		movt	r3, #:upper16:USBFS_currentTD
ARM GAS  C:\Users\Robert\AppData\Local\Temp\ccwgAcz4.s 			page 23


 832 00e6 1A80     		strh	r2, [r3, #0]	@ movhi
 407:.\Generated_Source\PSoC5/USBFS_hid.c ****                 USBFS_currentTD.pStatusBlock = pTD->pStatusBlock;
 833              		.loc 1 407 0
 834 00e8 7B68     		ldr	r3, [r7, #4]
 835 00ea 9A68     		ldr	r2, [r3, #8]
 836 00ec 40F20003 		movw	r3, #:lower16:USBFS_currentTD
 837 00f0 C0F20003 		movt	r3, #:upper16:USBFS_currentTD
 838 00f4 9A60     		str	r2, [r3, #8]
 839              	.L45:
 408:.\Generated_Source\PSoC5/USBFS_hid.c ****             }
 409:.\Generated_Source\PSoC5/USBFS_hid.c ****         }
 410:.\Generated_Source\PSoC5/USBFS_hid.c ****     }
 411:.\Generated_Source\PSoC5/USBFS_hid.c **** }
 840              		.loc 1 411 0
 841 00f6 07F11007 		add	r7, r7, #16
 842 00fa BD46     		mov	sp, r7
 843 00fc 80BD     		pop	{r7, pc}
 844              		.cfi_endproc
 845              	.LFE5:
 846              		.size	USBFS_FindReport, .-USBFS_FindReport
 847 00fe 00BF     		.text
 848              	.Letext0:
 849              		.file 2 ".\\Generated_Source\\PSoC5\\cytypes.h"
 850              		.file 3 ".\\Generated_Source\\PSoC5\\USBFS.h"
 851              		.file 4 ".\\Generated_Source\\PSoC5\\USBFS_pvt.h"
 852              		.section	.debug_info,"",%progbits
 853              	.Ldebug_info0:
 854 0000 82030000 		.4byte	0x382
 855 0004 0200     		.2byte	0x2
 856 0006 00000000 		.4byte	.Ldebug_abbrev0
 857 000a 04       		.byte	0x4
 858 000b 01       		.uleb128 0x1
 859 000c 1F020000 		.4byte	.LASF45
 860 0010 01       		.byte	0x1
 861 0011 0D000000 		.4byte	.LASF46
 862 0015 87020000 		.4byte	.LASF47
 863 0019 00000000 		.4byte	.Ldebug_ranges0+0
 864 001d 00000000 		.4byte	0
 865 0021 00000000 		.4byte	0
 866 0025 00000000 		.4byte	.Ldebug_line0
 867 0029 02       		.uleb128 0x2
 868 002a 01       		.byte	0x1
 869 002b 06       		.byte	0x6
 870 002c 7B020000 		.4byte	.LASF0
 871 0030 02       		.uleb128 0x2
 872 0031 01       		.byte	0x1
 873 0032 08       		.byte	0x8
 874 0033 DE000000 		.4byte	.LASF1
 875 0037 02       		.uleb128 0x2
 876 0038 02       		.byte	0x2
 877 0039 05       		.byte	0x5
 878 003a 4B010000 		.4byte	.LASF2
 879 003e 02       		.uleb128 0x2
 880 003f 02       		.byte	0x2
 881 0040 07       		.byte	0x7
 882 0041 67000000 		.4byte	.LASF3
 883 0045 02       		.uleb128 0x2
ARM GAS  C:\Users\Robert\AppData\Local\Temp\ccwgAcz4.s 			page 24


 884 0046 04       		.byte	0x4
 885 0047 05       		.byte	0x5
 886 0048 72020000 		.4byte	.LASF4
 887 004c 02       		.uleb128 0x2
 888 004d 04       		.byte	0x4
 889 004e 07       		.byte	0x7
 890 004f 0B010000 		.4byte	.LASF5
 891 0053 02       		.uleb128 0x2
 892 0054 08       		.byte	0x8
 893 0055 05       		.byte	0x5
 894 0056 D4010000 		.4byte	.LASF6
 895 005a 02       		.uleb128 0x2
 896 005b 08       		.byte	0x8
 897 005c 07       		.byte	0x7
 898 005d 8B010000 		.4byte	.LASF7
 899 0061 03       		.uleb128 0x3
 900 0062 04       		.byte	0x4
 901 0063 05       		.byte	0x5
 902 0064 696E7400 		.ascii	"int\000"
 903 0068 02       		.uleb128 0x2
 904 0069 04       		.byte	0x4
 905 006a 07       		.byte	0x7
 906 006b 63010000 		.4byte	.LASF8
 907 006f 04       		.uleb128 0x4
 908 0070 1D010000 		.4byte	.LASF9
 909 0074 02       		.byte	0x2
 910 0075 5B       		.byte	0x5b
 911 0076 30000000 		.4byte	0x30
 912 007a 04       		.uleb128 0x4
 913 007b 55010000 		.4byte	.LASF10
 914 007f 02       		.byte	0x2
 915 0080 5C       		.byte	0x5c
 916 0081 3E000000 		.4byte	0x3e
 917 0085 02       		.uleb128 0x2
 918 0086 04       		.byte	0x4
 919 0087 04       		.byte	0x4
 920 0088 B9000000 		.4byte	.LASF11
 921 008c 02       		.uleb128 0x2
 922 008d 08       		.byte	0x8
 923 008e 04       		.byte	0x4
 924 008f 44010000 		.4byte	.LASF12
 925 0093 02       		.uleb128 0x2
 926 0094 01       		.byte	0x1
 927 0095 08       		.byte	0x8
 928 0096 EE010000 		.4byte	.LASF13
 929 009a 04       		.uleb128 0x4
 930 009b EC000000 		.4byte	.LASF14
 931 009f 02       		.byte	0x2
 932 00a0 F0       		.byte	0xf0
 933 00a1 A5000000 		.4byte	0xa5
 934 00a5 05       		.uleb128 0x5
 935 00a6 6F000000 		.4byte	0x6f
 936 00aa 02       		.uleb128 0x2
 937 00ab 04       		.byte	0x4
 938 00ac 07       		.byte	0x7
 939 00ad CB010000 		.4byte	.LASF15
 940 00b1 06       		.uleb128 0x6
ARM GAS  C:\Users\Robert\AppData\Local\Temp\ccwgAcz4.s 			page 25


 941 00b2 04       		.byte	0x4
 942 00b3 03       		.byte	0x3
 943 00b4 96       		.byte	0x96
 944 00b5 D6000000 		.4byte	0xd6
 945 00b9 07       		.uleb128 0x7
 946 00ba 85000000 		.4byte	.LASF16
 947 00be 03       		.byte	0x3
 948 00bf 98       		.byte	0x98
 949 00c0 6F000000 		.4byte	0x6f
 950 00c4 02       		.byte	0x2
 951 00c5 23       		.byte	0x23
 952 00c6 00       		.uleb128 0
 953 00c7 07       		.uleb128 0x7
 954 00c8 0E030000 		.4byte	.LASF17
 955 00cc 03       		.byte	0x3
 956 00cd 99       		.byte	0x99
 957 00ce 7A000000 		.4byte	0x7a
 958 00d2 02       		.byte	0x2
 959 00d3 23       		.byte	0x23
 960 00d4 02       		.uleb128 0x2
 961 00d5 00       		.byte	0
 962 00d6 04       		.uleb128 0x4
 963 00d7 F1000000 		.4byte	.LASF18
 964 00db 03       		.byte	0x3
 965 00dc 9A       		.byte	0x9a
 966 00dd B1000000 		.4byte	0xb1
 967 00e1 06       		.uleb128 0x6
 968 00e2 0C       		.byte	0xc
 969 00e3 03       		.byte	0x3
 970 00e4 9C       		.byte	0x9c
 971 00e5 14010000 		.4byte	0x114
 972 00e9 07       		.uleb128 0x7
 973 00ea 46000000 		.4byte	.LASF19
 974 00ee 03       		.byte	0x3
 975 00ef 9E       		.byte	0x9e
 976 00f0 7A000000 		.4byte	0x7a
 977 00f4 02       		.byte	0x2
 978 00f5 23       		.byte	0x23
 979 00f6 00       		.uleb128 0
 980 00f7 07       		.uleb128 0x7
 981 00f8 8C000000 		.4byte	.LASF20
 982 00fc 03       		.byte	0x3
 983 00fd 9F       		.byte	0x9f
 984 00fe 14010000 		.4byte	0x114
 985 0102 02       		.byte	0x2
 986 0103 23       		.byte	0x23
 987 0104 04       		.uleb128 0x4
 988 0105 07       		.uleb128 0x7
 989 0106 00000000 		.4byte	.LASF21
 990 010a 03       		.byte	0x3
 991 010b A0       		.byte	0xa0
 992 010c 1A010000 		.4byte	0x11a
 993 0110 02       		.byte	0x2
 994 0111 23       		.byte	0x23
 995 0112 08       		.uleb128 0x8
 996 0113 00       		.byte	0
 997 0114 08       		.uleb128 0x8
ARM GAS  C:\Users\Robert\AppData\Local\Temp\ccwgAcz4.s 			page 26


 998 0115 04       		.byte	0x4
 999 0116 A5000000 		.4byte	0xa5
 1000 011a 08       		.uleb128 0x8
 1001 011b 04       		.byte	0x4
 1002 011c D6000000 		.4byte	0xd6
 1003 0120 04       		.uleb128 0x4
 1004 0121 AE000000 		.4byte	.LASF22
 1005 0125 03       		.byte	0x3
 1006 0126 A1       		.byte	0xa1
 1007 0127 E1000000 		.4byte	0xe1
 1008 012b 06       		.uleb128 0x6
 1009 012c 08       		.byte	0x8
 1010 012d 03       		.byte	0x3
 1011 012e A4       		.byte	0xa4
 1012 012f 4E010000 		.4byte	0x14e
 1013 0133 09       		.uleb128 0x9
 1014 0134 6300     		.ascii	"c\000"
 1015 0136 03       		.byte	0x3
 1016 0137 A6       		.byte	0xa6
 1017 0138 6F000000 		.4byte	0x6f
 1018 013c 02       		.byte	0x2
 1019 013d 23       		.byte	0x23
 1020 013e 00       		.uleb128 0
 1021 013f 07       		.uleb128 0x7
 1022 0140 A2010000 		.4byte	.LASF23
 1023 0144 03       		.byte	0x3
 1024 0145 A7       		.byte	0xa7
 1025 0146 4E010000 		.4byte	0x14e
 1026 014a 02       		.byte	0x2
 1027 014b 23       		.byte	0x23
 1028 014c 04       		.uleb128 0x4
 1029 014d 00       		.byte	0
 1030 014e 08       		.uleb128 0x8
 1031 014f 04       		.byte	0x4
 1032 0150 54010000 		.4byte	0x154
 1033 0154 0A       		.uleb128 0xa
 1034 0155 04       		.uleb128 0x4
 1035 0156 E2010000 		.4byte	.LASF24
 1036 015a 03       		.byte	0x3
 1037 015b A8       		.byte	0xa8
 1038 015c 2B010000 		.4byte	0x12b
 1039 0160 0B       		.uleb128 0xb
 1040 0161 01       		.byte	0x1
 1041 0162 0A020000 		.4byte	.LASF25
 1042 0166 01       		.byte	0x1
 1043 0167 3F       		.byte	0x3f
 1044 0168 01       		.byte	0x1
 1045 0169 6F000000 		.4byte	0x6f
 1046 016d 00000000 		.4byte	.LFB0
 1047 0171 88000000 		.4byte	.LFE0
 1048 0175 00000000 		.4byte	.LLST0
 1049 0179 01       		.byte	0x1
 1050 017a 9B010000 		.4byte	0x19b
 1051 017e 0C       		.uleb128 0xc
 1052 017f 68020000 		.4byte	.LASF27
 1053 0183 01       		.byte	0x1
 1054 0184 3F       		.byte	0x3f
ARM GAS  C:\Users\Robert\AppData\Local\Temp\ccwgAcz4.s 			page 27


 1055 0185 6F000000 		.4byte	0x6f
 1056 0189 02       		.byte	0x2
 1057 018a 91       		.byte	0x91
 1058 018b 6F       		.sleb128 -17
 1059 018c 0D       		.uleb128 0xd
 1060 018d 32000000 		.4byte	.LASF29
 1061 0191 01       		.byte	0x1
 1062 0192 41       		.byte	0x41
 1063 0193 6F000000 		.4byte	0x6f
 1064 0197 02       		.byte	0x2
 1065 0198 91       		.byte	0x91
 1066 0199 77       		.sleb128 -9
 1067 019a 00       		.byte	0
 1068 019b 0B       		.uleb128 0xb
 1069 019c 01       		.byte	0x1
 1070 019d B9010000 		.4byte	.LASF26
 1071 01a1 01       		.byte	0x1
 1072 01a2 63       		.byte	0x63
 1073 01a3 01       		.byte	0x1
 1074 01a4 6F000000 		.4byte	0x6f
 1075 01a8 00000000 		.4byte	.LFB1
 1076 01ac 24000000 		.4byte	.LFE1
 1077 01b0 38000000 		.4byte	.LLST1
 1078 01b4 01       		.byte	0x1
 1079 01b5 C8010000 		.4byte	0x1c8
 1080 01b9 0C       		.uleb128 0xc
 1081 01ba 68020000 		.4byte	.LASF27
 1082 01be 01       		.byte	0x1
 1083 01bf 63       		.byte	0x63
 1084 01c0 6F000000 		.4byte	0x6f
 1085 01c4 02       		.byte	0x2
 1086 01c5 91       		.byte	0x91
 1087 01c6 77       		.sleb128 -9
 1088 01c7 00       		.byte	0
 1089 01c8 0E       		.uleb128 0xe
 1090 01c9 01       		.byte	0x1
 1091 01ca 70010000 		.4byte	.LASF28
 1092 01ce 01       		.byte	0x1
 1093 01cf 7A       		.byte	0x7a
 1094 01d0 01       		.byte	0x1
 1095 01d1 6F000000 		.4byte	0x6f
 1096 01d5 00000000 		.4byte	.LFB2
 1097 01d9 BA020000 		.4byte	.LFE2
 1098 01dd 70000000 		.4byte	.LLST2
 1099 01e1 01       		.byte	0x1
 1100 01e2 03020000 		.4byte	0x203
 1101 01e6 0D       		.uleb128 0xd
 1102 01e7 37000000 		.4byte	.LASF30
 1103 01eb 01       		.byte	0x1
 1104 01ec 7C       		.byte	0x7c
 1105 01ed 6F000000 		.4byte	0x6f
 1106 01f1 02       		.byte	0x2
 1107 01f2 91       		.byte	0x91
 1108 01f3 77       		.sleb128 -9
 1109 01f4 0D       		.uleb128 0xd
 1110 01f5 23010000 		.4byte	.LASF31
 1111 01f9 01       		.byte	0x1
ARM GAS  C:\Users\Robert\AppData\Local\Temp\ccwgAcz4.s 			page 28


 1112 01fa 7D       		.byte	0x7d
 1113 01fb 6F000000 		.4byte	0x6f
 1114 01ff 02       		.byte	0x2
 1115 0200 91       		.byte	0x91
 1116 0201 76       		.sleb128 -10
 1117 0202 00       		.byte	0
 1118 0203 0F       		.uleb128 0xf
 1119 0204 01       		.byte	0x1
 1120 0205 92000000 		.4byte	.LASF35
 1121 0209 01       		.byte	0x1
 1122 020a 1401     		.2byte	0x114
 1123 020c 01       		.byte	0x1
 1124 020d 00000000 		.4byte	.LFB3
 1125 0211 94000000 		.4byte	.LFE3
 1126 0215 A8000000 		.4byte	.LLST3
 1127 0219 01       		.byte	0x1
 1128 021a 4C020000 		.4byte	0x24c
 1129 021e 10       		.uleb128 0x10
 1130 021f F3010000 		.4byte	.LASF32
 1131 0223 01       		.byte	0x1
 1132 0224 1601     		.2byte	0x116
 1133 0226 4C020000 		.4byte	0x24c
 1134 022a 02       		.byte	0x2
 1135 022b 91       		.byte	0x91
 1136 022c 74       		.sleb128 -12
 1137 022d 10       		.uleb128 0x10
 1138 022e 5C010000 		.4byte	.LASF33
 1139 0232 01       		.byte	0x1
 1140 0233 1701     		.2byte	0x117
 1141 0235 14010000 		.4byte	0x114
 1142 0239 02       		.byte	0x2
 1143 023a 91       		.byte	0x91
 1144 023b 6C       		.sleb128 -20
 1145 023c 10       		.uleb128 0x10
 1146 023d 7A000000 		.4byte	.LASF34
 1147 0241 01       		.byte	0x1
 1148 0242 1801     		.2byte	0x118
 1149 0244 6F000000 		.4byte	0x6f
 1150 0248 02       		.byte	0x2
 1151 0249 91       		.byte	0x91
 1152 024a 73       		.sleb128 -13
 1153 024b 00       		.byte	0
 1154 024c 08       		.uleb128 0x8
 1155 024d 04       		.byte	0x4
 1156 024e 52020000 		.4byte	0x252
 1157 0252 11       		.uleb128 0x11
 1158 0253 55010000 		.4byte	0x155
 1159 0257 0F       		.uleb128 0xf
 1160 0258 01       		.byte	0x1
 1161 0259 4C000000 		.4byte	.LASF36
 1162 025d 01       		.byte	0x1
 1163 025e 4201     		.2byte	0x142
 1164 0260 01       		.byte	0x1
 1165 0261 00000000 		.4byte	.LFB4
 1166 0265 AC000000 		.4byte	.LFE4
 1167 0269 E0000000 		.4byte	.LLST4
 1168 026d 01       		.byte	0x1
ARM GAS  C:\Users\Robert\AppData\Local\Temp\ccwgAcz4.s 			page 29


 1169 026e A0020000 		.4byte	0x2a0
 1170 0272 10       		.uleb128 0x10
 1171 0273 F3010000 		.4byte	.LASF32
 1172 0277 01       		.byte	0x1
 1173 0278 4401     		.2byte	0x144
 1174 027a 4C020000 		.4byte	0x24c
 1175 027e 02       		.byte	0x2
 1176 027f 91       		.byte	0x91
 1177 0280 74       		.sleb128 -12
 1178 0281 10       		.uleb128 0x10
 1179 0282 5C010000 		.4byte	.LASF33
 1180 0286 01       		.byte	0x1
 1181 0287 4501     		.2byte	0x145
 1182 0289 14010000 		.4byte	0x114
 1183 028d 02       		.byte	0x2
 1184 028e 91       		.byte	0x91
 1185 028f 6C       		.sleb128 -20
 1186 0290 10       		.uleb128 0x10
 1187 0291 7A000000 		.4byte	.LASF34
 1188 0295 01       		.byte	0x1
 1189 0296 4601     		.2byte	0x146
 1190 0298 6F000000 		.4byte	0x6f
 1191 029c 02       		.byte	0x2
 1192 029d 91       		.byte	0x91
 1193 029e 73       		.sleb128 -13
 1194 029f 00       		.byte	0
 1195 02a0 0F       		.uleb128 0xf
 1196 02a1 01       		.byte	0x1
 1197 02a2 33010000 		.4byte	.LASF37
 1198 02a6 01       		.byte	0x1
 1199 02a7 7001     		.2byte	0x170
 1200 02a9 01       		.byte	0x1
 1201 02aa 00000000 		.4byte	.LFB5
 1202 02ae FE000000 		.4byte	.LFE5
 1203 02b2 18010000 		.4byte	.LLST5
 1204 02b6 01       		.byte	0x1
 1205 02b7 F8020000 		.4byte	0x2f8
 1206 02bb 10       		.uleb128 0x10
 1207 02bc F3010000 		.4byte	.LASF32
 1208 02c0 01       		.byte	0x1
 1209 02c1 7201     		.2byte	0x172
 1210 02c3 4C020000 		.4byte	0x24c
 1211 02c7 02       		.byte	0x2
 1212 02c8 91       		.byte	0x91
 1213 02c9 74       		.sleb128 -12
 1214 02ca 12       		.uleb128 0x12
 1215 02cb 70544400 		.ascii	"pTD\000"
 1216 02cf 01       		.byte	0x1
 1217 02d0 7301     		.2byte	0x173
 1218 02d2 F8020000 		.4byte	0x2f8
 1219 02d6 02       		.byte	0x2
 1220 02d7 91       		.byte	0x91
 1221 02d8 6C       		.sleb128 -20
 1222 02d9 10       		.uleb128 0x10
 1223 02da 7A000000 		.4byte	.LASF34
 1224 02de 01       		.byte	0x1
 1225 02df 7401     		.2byte	0x174
ARM GAS  C:\Users\Robert\AppData\Local\Temp\ccwgAcz4.s 			page 30


 1226 02e1 6F000000 		.4byte	0x6f
 1227 02e5 02       		.byte	0x2
 1228 02e6 91       		.byte	0x91
 1229 02e7 72       		.sleb128 -14
 1230 02e8 10       		.uleb128 0x10
 1231 02e9 BF000000 		.4byte	.LASF38
 1232 02ed 01       		.byte	0x1
 1233 02ee 7501     		.2byte	0x175
 1234 02f0 6F000000 		.4byte	0x6f
 1235 02f4 02       		.byte	0x2
 1236 02f5 91       		.byte	0x91
 1237 02f6 73       		.sleb128 -13
 1238 02f7 00       		.byte	0
 1239 02f8 08       		.uleb128 0x8
 1240 02f9 04       		.byte	0x4
 1241 02fa 20010000 		.4byte	0x120
 1242 02fe 13       		.uleb128 0x13
 1243 02ff CA000000 		.4byte	.LASF39
 1244 0303 03       		.byte	0x3
 1245 0304 5302     		.2byte	0x253
 1246 0306 A5000000 		.4byte	0xa5
 1247 030a 01       		.byte	0x1
 1248 030b 01       		.byte	0x1
 1249 030c 14       		.uleb128 0x14
 1250 030d 6F000000 		.4byte	0x6f
 1251 0311 1C030000 		.4byte	0x31c
 1252 0315 15       		.uleb128 0x15
 1253 0316 AA000000 		.4byte	0xaa
 1254 031a 00       		.byte	0
 1255 031b 00       		.byte	0
 1256 031c 16       		.uleb128 0x16
 1257 031d F8010000 		.4byte	.LASF40
 1258 0321 01       		.byte	0x1
 1259 0322 20       		.byte	0x20
 1260 0323 2E030000 		.4byte	0x32e
 1261 0327 01       		.byte	0x1
 1262 0328 05       		.byte	0x5
 1263 0329 03       		.byte	0x3
 1264 032a 00000000 		.4byte	USBFS_hidProtocol
 1265 032e 05       		.uleb128 0x5
 1266 032f 0C030000 		.4byte	0x30c
 1267 0333 16       		.uleb128 0x16
 1268 0334 E9020000 		.4byte	.LASF41
 1269 0338 01       		.byte	0x1
 1270 0339 21       		.byte	0x21
 1271 033a 45030000 		.4byte	0x345
 1272 033e 01       		.byte	0x1
 1273 033f 05       		.byte	0x5
 1274 0340 03       		.byte	0x3
 1275 0341 00000000 		.4byte	USBFS_hidIdleRate
 1276 0345 05       		.uleb128 0x5
 1277 0346 0C030000 		.4byte	0x30c
 1278 034a 16       		.uleb128 0x16
 1279 034b FB020000 		.4byte	.LASF42
 1280 034f 01       		.byte	0x1
 1281 0350 22       		.byte	0x22
 1282 0351 5C030000 		.4byte	0x35c
ARM GAS  C:\Users\Robert\AppData\Local\Temp\ccwgAcz4.s 			page 31


 1283 0355 01       		.byte	0x1
 1284 0356 05       		.byte	0x5
 1285 0357 03       		.byte	0x3
 1286 0358 00000000 		.4byte	USBFS_hidIdleTimer
 1287 035c 05       		.uleb128 0x5
 1288 035d 0C030000 		.4byte	0x30c
 1289 0361 17       		.uleb128 0x17
 1290 0362 15030000 		.4byte	.LASF43
 1291 0366 04       		.byte	0x4
 1292 0367 39       		.byte	0x39
 1293 0368 6E030000 		.4byte	0x36e
 1294 036c 01       		.byte	0x1
 1295 036d 01       		.byte	0x1
 1296 036e 05       		.uleb128 0x5
 1297 036f 0C030000 		.4byte	0x30c
 1298 0373 17       		.uleb128 0x17
 1299 0374 A9010000 		.4byte	.LASF44
 1300 0378 04       		.byte	0x4
 1301 0379 40       		.byte	0x40
 1302 037a 80030000 		.4byte	0x380
 1303 037e 01       		.byte	0x1
 1304 037f 01       		.byte	0x1
 1305 0380 05       		.uleb128 0x5
 1306 0381 20010000 		.4byte	0x120
 1307 0385 00       		.byte	0
 1308              		.section	.debug_abbrev,"",%progbits
 1309              	.Ldebug_abbrev0:
 1310 0000 01       		.uleb128 0x1
 1311 0001 11       		.uleb128 0x11
 1312 0002 01       		.byte	0x1
 1313 0003 25       		.uleb128 0x25
 1314 0004 0E       		.uleb128 0xe
 1315 0005 13       		.uleb128 0x13
 1316 0006 0B       		.uleb128 0xb
 1317 0007 03       		.uleb128 0x3
 1318 0008 0E       		.uleb128 0xe
 1319 0009 1B       		.uleb128 0x1b
 1320 000a 0E       		.uleb128 0xe
 1321 000b 55       		.uleb128 0x55
 1322 000c 06       		.uleb128 0x6
 1323 000d 11       		.uleb128 0x11
 1324 000e 01       		.uleb128 0x1
 1325 000f 52       		.uleb128 0x52
 1326 0010 01       		.uleb128 0x1
 1327 0011 10       		.uleb128 0x10
 1328 0012 06       		.uleb128 0x6
 1329 0013 00       		.byte	0
 1330 0014 00       		.byte	0
 1331 0015 02       		.uleb128 0x2
 1332 0016 24       		.uleb128 0x24
 1333 0017 00       		.byte	0
 1334 0018 0B       		.uleb128 0xb
 1335 0019 0B       		.uleb128 0xb
 1336 001a 3E       		.uleb128 0x3e
 1337 001b 0B       		.uleb128 0xb
 1338 001c 03       		.uleb128 0x3
 1339 001d 0E       		.uleb128 0xe
ARM GAS  C:\Users\Robert\AppData\Local\Temp\ccwgAcz4.s 			page 32


 1340 001e 00       		.byte	0
 1341 001f 00       		.byte	0
 1342 0020 03       		.uleb128 0x3
 1343 0021 24       		.uleb128 0x24
 1344 0022 00       		.byte	0
 1345 0023 0B       		.uleb128 0xb
 1346 0024 0B       		.uleb128 0xb
 1347 0025 3E       		.uleb128 0x3e
 1348 0026 0B       		.uleb128 0xb
 1349 0027 03       		.uleb128 0x3
 1350 0028 08       		.uleb128 0x8
 1351 0029 00       		.byte	0
 1352 002a 00       		.byte	0
 1353 002b 04       		.uleb128 0x4
 1354 002c 16       		.uleb128 0x16
 1355 002d 00       		.byte	0
 1356 002e 03       		.uleb128 0x3
 1357 002f 0E       		.uleb128 0xe
 1358 0030 3A       		.uleb128 0x3a
 1359 0031 0B       		.uleb128 0xb
 1360 0032 3B       		.uleb128 0x3b
 1361 0033 0B       		.uleb128 0xb
 1362 0034 49       		.uleb128 0x49
 1363 0035 13       		.uleb128 0x13
 1364 0036 00       		.byte	0
 1365 0037 00       		.byte	0
 1366 0038 05       		.uleb128 0x5
 1367 0039 35       		.uleb128 0x35
 1368 003a 00       		.byte	0
 1369 003b 49       		.uleb128 0x49
 1370 003c 13       		.uleb128 0x13
 1371 003d 00       		.byte	0
 1372 003e 00       		.byte	0
 1373 003f 06       		.uleb128 0x6
 1374 0040 13       		.uleb128 0x13
 1375 0041 01       		.byte	0x1
 1376 0042 0B       		.uleb128 0xb
 1377 0043 0B       		.uleb128 0xb
 1378 0044 3A       		.uleb128 0x3a
 1379 0045 0B       		.uleb128 0xb
 1380 0046 3B       		.uleb128 0x3b
 1381 0047 0B       		.uleb128 0xb
 1382 0048 01       		.uleb128 0x1
 1383 0049 13       		.uleb128 0x13
 1384 004a 00       		.byte	0
 1385 004b 00       		.byte	0
 1386 004c 07       		.uleb128 0x7
 1387 004d 0D       		.uleb128 0xd
 1388 004e 00       		.byte	0
 1389 004f 03       		.uleb128 0x3
 1390 0050 0E       		.uleb128 0xe
 1391 0051 3A       		.uleb128 0x3a
 1392 0052 0B       		.uleb128 0xb
 1393 0053 3B       		.uleb128 0x3b
 1394 0054 0B       		.uleb128 0xb
 1395 0055 49       		.uleb128 0x49
 1396 0056 13       		.uleb128 0x13
ARM GAS  C:\Users\Robert\AppData\Local\Temp\ccwgAcz4.s 			page 33


 1397 0057 38       		.uleb128 0x38
 1398 0058 0A       		.uleb128 0xa
 1399 0059 00       		.byte	0
 1400 005a 00       		.byte	0
 1401 005b 08       		.uleb128 0x8
 1402 005c 0F       		.uleb128 0xf
 1403 005d 00       		.byte	0
 1404 005e 0B       		.uleb128 0xb
 1405 005f 0B       		.uleb128 0xb
 1406 0060 49       		.uleb128 0x49
 1407 0061 13       		.uleb128 0x13
 1408 0062 00       		.byte	0
 1409 0063 00       		.byte	0
 1410 0064 09       		.uleb128 0x9
 1411 0065 0D       		.uleb128 0xd
 1412 0066 00       		.byte	0
 1413 0067 03       		.uleb128 0x3
 1414 0068 08       		.uleb128 0x8
 1415 0069 3A       		.uleb128 0x3a
 1416 006a 0B       		.uleb128 0xb
 1417 006b 3B       		.uleb128 0x3b
 1418 006c 0B       		.uleb128 0xb
 1419 006d 49       		.uleb128 0x49
 1420 006e 13       		.uleb128 0x13
 1421 006f 38       		.uleb128 0x38
 1422 0070 0A       		.uleb128 0xa
 1423 0071 00       		.byte	0
 1424 0072 00       		.byte	0
 1425 0073 0A       		.uleb128 0xa
 1426 0074 26       		.uleb128 0x26
 1427 0075 00       		.byte	0
 1428 0076 00       		.byte	0
 1429 0077 00       		.byte	0
 1430 0078 0B       		.uleb128 0xb
 1431 0079 2E       		.uleb128 0x2e
 1432 007a 01       		.byte	0x1
 1433 007b 3F       		.uleb128 0x3f
 1434 007c 0C       		.uleb128 0xc
 1435 007d 03       		.uleb128 0x3
 1436 007e 0E       		.uleb128 0xe
 1437 007f 3A       		.uleb128 0x3a
 1438 0080 0B       		.uleb128 0xb
 1439 0081 3B       		.uleb128 0x3b
 1440 0082 0B       		.uleb128 0xb
 1441 0083 27       		.uleb128 0x27
 1442 0084 0C       		.uleb128 0xc
 1443 0085 49       		.uleb128 0x49
 1444 0086 13       		.uleb128 0x13
 1445 0087 11       		.uleb128 0x11
 1446 0088 01       		.uleb128 0x1
 1447 0089 12       		.uleb128 0x12
 1448 008a 01       		.uleb128 0x1
 1449 008b 40       		.uleb128 0x40
 1450 008c 06       		.uleb128 0x6
 1451 008d 9742     		.uleb128 0x2117
 1452 008f 0C       		.uleb128 0xc
 1453 0090 01       		.uleb128 0x1
ARM GAS  C:\Users\Robert\AppData\Local\Temp\ccwgAcz4.s 			page 34


 1454 0091 13       		.uleb128 0x13
 1455 0092 00       		.byte	0
 1456 0093 00       		.byte	0
 1457 0094 0C       		.uleb128 0xc
 1458 0095 05       		.uleb128 0x5
 1459 0096 00       		.byte	0
 1460 0097 03       		.uleb128 0x3
 1461 0098 0E       		.uleb128 0xe
 1462 0099 3A       		.uleb128 0x3a
 1463 009a 0B       		.uleb128 0xb
 1464 009b 3B       		.uleb128 0x3b
 1465 009c 0B       		.uleb128 0xb
 1466 009d 49       		.uleb128 0x49
 1467 009e 13       		.uleb128 0x13
 1468 009f 02       		.uleb128 0x2
 1469 00a0 0A       		.uleb128 0xa
 1470 00a1 00       		.byte	0
 1471 00a2 00       		.byte	0
 1472 00a3 0D       		.uleb128 0xd
 1473 00a4 34       		.uleb128 0x34
 1474 00a5 00       		.byte	0
 1475 00a6 03       		.uleb128 0x3
 1476 00a7 0E       		.uleb128 0xe
 1477 00a8 3A       		.uleb128 0x3a
 1478 00a9 0B       		.uleb128 0xb
 1479 00aa 3B       		.uleb128 0x3b
 1480 00ab 0B       		.uleb128 0xb
 1481 00ac 49       		.uleb128 0x49
 1482 00ad 13       		.uleb128 0x13
 1483 00ae 02       		.uleb128 0x2
 1484 00af 0A       		.uleb128 0xa
 1485 00b0 00       		.byte	0
 1486 00b1 00       		.byte	0
 1487 00b2 0E       		.uleb128 0xe
 1488 00b3 2E       		.uleb128 0x2e
 1489 00b4 01       		.byte	0x1
 1490 00b5 3F       		.uleb128 0x3f
 1491 00b6 0C       		.uleb128 0xc
 1492 00b7 03       		.uleb128 0x3
 1493 00b8 0E       		.uleb128 0xe
 1494 00b9 3A       		.uleb128 0x3a
 1495 00ba 0B       		.uleb128 0xb
 1496 00bb 3B       		.uleb128 0x3b
 1497 00bc 0B       		.uleb128 0xb
 1498 00bd 27       		.uleb128 0x27
 1499 00be 0C       		.uleb128 0xc
 1500 00bf 49       		.uleb128 0x49
 1501 00c0 13       		.uleb128 0x13
 1502 00c1 11       		.uleb128 0x11
 1503 00c2 01       		.uleb128 0x1
 1504 00c3 12       		.uleb128 0x12
 1505 00c4 01       		.uleb128 0x1
 1506 00c5 40       		.uleb128 0x40
 1507 00c6 06       		.uleb128 0x6
 1508 00c7 9642     		.uleb128 0x2116
 1509 00c9 0C       		.uleb128 0xc
 1510 00ca 01       		.uleb128 0x1
ARM GAS  C:\Users\Robert\AppData\Local\Temp\ccwgAcz4.s 			page 35


 1511 00cb 13       		.uleb128 0x13
 1512 00cc 00       		.byte	0
 1513 00cd 00       		.byte	0
 1514 00ce 0F       		.uleb128 0xf
 1515 00cf 2E       		.uleb128 0x2e
 1516 00d0 01       		.byte	0x1
 1517 00d1 3F       		.uleb128 0x3f
 1518 00d2 0C       		.uleb128 0xc
 1519 00d3 03       		.uleb128 0x3
 1520 00d4 0E       		.uleb128 0xe
 1521 00d5 3A       		.uleb128 0x3a
 1522 00d6 0B       		.uleb128 0xb
 1523 00d7 3B       		.uleb128 0x3b
 1524 00d8 05       		.uleb128 0x5
 1525 00d9 27       		.uleb128 0x27
 1526 00da 0C       		.uleb128 0xc
 1527 00db 11       		.uleb128 0x11
 1528 00dc 01       		.uleb128 0x1
 1529 00dd 12       		.uleb128 0x12
 1530 00de 01       		.uleb128 0x1
 1531 00df 40       		.uleb128 0x40
 1532 00e0 06       		.uleb128 0x6
 1533 00e1 9642     		.uleb128 0x2116
 1534 00e3 0C       		.uleb128 0xc
 1535 00e4 01       		.uleb128 0x1
 1536 00e5 13       		.uleb128 0x13
 1537 00e6 00       		.byte	0
 1538 00e7 00       		.byte	0
 1539 00e8 10       		.uleb128 0x10
 1540 00e9 34       		.uleb128 0x34
 1541 00ea 00       		.byte	0
 1542 00eb 03       		.uleb128 0x3
 1543 00ec 0E       		.uleb128 0xe
 1544 00ed 3A       		.uleb128 0x3a
 1545 00ee 0B       		.uleb128 0xb
 1546 00ef 3B       		.uleb128 0x3b
 1547 00f0 05       		.uleb128 0x5
 1548 00f1 49       		.uleb128 0x49
 1549 00f2 13       		.uleb128 0x13
 1550 00f3 02       		.uleb128 0x2
 1551 00f4 0A       		.uleb128 0xa
 1552 00f5 00       		.byte	0
 1553 00f6 00       		.byte	0
 1554 00f7 11       		.uleb128 0x11
 1555 00f8 26       		.uleb128 0x26
 1556 00f9 00       		.byte	0
 1557 00fa 49       		.uleb128 0x49
 1558 00fb 13       		.uleb128 0x13
 1559 00fc 00       		.byte	0
 1560 00fd 00       		.byte	0
 1561 00fe 12       		.uleb128 0x12
 1562 00ff 34       		.uleb128 0x34
 1563 0100 00       		.byte	0
 1564 0101 03       		.uleb128 0x3
 1565 0102 08       		.uleb128 0x8
 1566 0103 3A       		.uleb128 0x3a
 1567 0104 0B       		.uleb128 0xb
ARM GAS  C:\Users\Robert\AppData\Local\Temp\ccwgAcz4.s 			page 36


 1568 0105 3B       		.uleb128 0x3b
 1569 0106 05       		.uleb128 0x5
 1570 0107 49       		.uleb128 0x49
 1571 0108 13       		.uleb128 0x13
 1572 0109 02       		.uleb128 0x2
 1573 010a 0A       		.uleb128 0xa
 1574 010b 00       		.byte	0
 1575 010c 00       		.byte	0
 1576 010d 13       		.uleb128 0x13
 1577 010e 34       		.uleb128 0x34
 1578 010f 00       		.byte	0
 1579 0110 03       		.uleb128 0x3
 1580 0111 0E       		.uleb128 0xe
 1581 0112 3A       		.uleb128 0x3a
 1582 0113 0B       		.uleb128 0xb
 1583 0114 3B       		.uleb128 0x3b
 1584 0115 05       		.uleb128 0x5
 1585 0116 49       		.uleb128 0x49
 1586 0117 13       		.uleb128 0x13
 1587 0118 3F       		.uleb128 0x3f
 1588 0119 0C       		.uleb128 0xc
 1589 011a 3C       		.uleb128 0x3c
 1590 011b 0C       		.uleb128 0xc
 1591 011c 00       		.byte	0
 1592 011d 00       		.byte	0
 1593 011e 14       		.uleb128 0x14
 1594 011f 01       		.uleb128 0x1
 1595 0120 01       		.byte	0x1
 1596 0121 49       		.uleb128 0x49
 1597 0122 13       		.uleb128 0x13
 1598 0123 01       		.uleb128 0x1
 1599 0124 13       		.uleb128 0x13
 1600 0125 00       		.byte	0
 1601 0126 00       		.byte	0
 1602 0127 15       		.uleb128 0x15
 1603 0128 21       		.uleb128 0x21
 1604 0129 00       		.byte	0
 1605 012a 49       		.uleb128 0x49
 1606 012b 13       		.uleb128 0x13
 1607 012c 2F       		.uleb128 0x2f
 1608 012d 0B       		.uleb128 0xb
 1609 012e 00       		.byte	0
 1610 012f 00       		.byte	0
 1611 0130 16       		.uleb128 0x16
 1612 0131 34       		.uleb128 0x34
 1613 0132 00       		.byte	0
 1614 0133 03       		.uleb128 0x3
 1615 0134 0E       		.uleb128 0xe
 1616 0135 3A       		.uleb128 0x3a
 1617 0136 0B       		.uleb128 0xb
 1618 0137 3B       		.uleb128 0x3b
 1619 0138 0B       		.uleb128 0xb
 1620 0139 49       		.uleb128 0x49
 1621 013a 13       		.uleb128 0x13
 1622 013b 3F       		.uleb128 0x3f
 1623 013c 0C       		.uleb128 0xc
 1624 013d 02       		.uleb128 0x2
ARM GAS  C:\Users\Robert\AppData\Local\Temp\ccwgAcz4.s 			page 37


 1625 013e 0A       		.uleb128 0xa
 1626 013f 00       		.byte	0
 1627 0140 00       		.byte	0
 1628 0141 17       		.uleb128 0x17
 1629 0142 34       		.uleb128 0x34
 1630 0143 00       		.byte	0
 1631 0144 03       		.uleb128 0x3
 1632 0145 0E       		.uleb128 0xe
 1633 0146 3A       		.uleb128 0x3a
 1634 0147 0B       		.uleb128 0xb
 1635 0148 3B       		.uleb128 0x3b
 1636 0149 0B       		.uleb128 0xb
 1637 014a 49       		.uleb128 0x49
 1638 014b 13       		.uleb128 0x13
 1639 014c 3F       		.uleb128 0x3f
 1640 014d 0C       		.uleb128 0xc
 1641 014e 3C       		.uleb128 0x3c
 1642 014f 0C       		.uleb128 0xc
 1643 0150 00       		.byte	0
 1644 0151 00       		.byte	0
 1645 0152 00       		.byte	0
 1646              		.section	.debug_loc,"",%progbits
 1647              	.Ldebug_loc0:
 1648              	.LLST0:
 1649 0000 00000000 		.4byte	.LFB0
 1650 0004 02000000 		.4byte	.LCFI0
 1651 0008 0200     		.2byte	0x2
 1652 000a 7D       		.byte	0x7d
 1653 000b 00       		.sleb128 0
 1654 000c 02000000 		.4byte	.LCFI0
 1655 0010 04000000 		.4byte	.LCFI1
 1656 0014 0200     		.2byte	0x2
 1657 0016 7D       		.byte	0x7d
 1658 0017 04       		.sleb128 4
 1659 0018 04000000 		.4byte	.LCFI1
 1660 001c 06000000 		.4byte	.LCFI2
 1661 0020 0200     		.2byte	0x2
 1662 0022 7D       		.byte	0x7d
 1663 0023 18       		.sleb128 24
 1664 0024 06000000 		.4byte	.LCFI2
 1665 0028 88000000 		.4byte	.LFE0
 1666 002c 0200     		.2byte	0x2
 1667 002e 77       		.byte	0x77
 1668 002f 18       		.sleb128 24
 1669 0030 00000000 		.4byte	0
 1670 0034 00000000 		.4byte	0
 1671              	.LLST1:
 1672 0038 00000000 		.4byte	.LFB1
 1673 003c 02000000 		.4byte	.LCFI3
 1674 0040 0200     		.2byte	0x2
 1675 0042 7D       		.byte	0x7d
 1676 0043 00       		.sleb128 0
 1677 0044 02000000 		.4byte	.LCFI3
 1678 0048 04000000 		.4byte	.LCFI4
 1679 004c 0200     		.2byte	0x2
 1680 004e 7D       		.byte	0x7d
 1681 004f 04       		.sleb128 4
ARM GAS  C:\Users\Robert\AppData\Local\Temp\ccwgAcz4.s 			page 38


 1682 0050 04000000 		.4byte	.LCFI4
 1683 0054 06000000 		.4byte	.LCFI5
 1684 0058 0200     		.2byte	0x2
 1685 005a 7D       		.byte	0x7d
 1686 005b 10       		.sleb128 16
 1687 005c 06000000 		.4byte	.LCFI5
 1688 0060 24000000 		.4byte	.LFE1
 1689 0064 0200     		.2byte	0x2
 1690 0066 77       		.byte	0x77
 1691 0067 10       		.sleb128 16
 1692 0068 00000000 		.4byte	0
 1693 006c 00000000 		.4byte	0
 1694              	.LLST2:
 1695 0070 00000000 		.4byte	.LFB2
 1696 0074 02000000 		.4byte	.LCFI6
 1697 0078 0200     		.2byte	0x2
 1698 007a 7D       		.byte	0x7d
 1699 007b 00       		.sleb128 0
 1700 007c 02000000 		.4byte	.LCFI6
 1701 0080 04000000 		.4byte	.LCFI7
 1702 0084 0200     		.2byte	0x2
 1703 0086 7D       		.byte	0x7d
 1704 0087 08       		.sleb128 8
 1705 0088 04000000 		.4byte	.LCFI7
 1706 008c 06000000 		.4byte	.LCFI8
 1707 0090 0200     		.2byte	0x2
 1708 0092 7D       		.byte	0x7d
 1709 0093 10       		.sleb128 16
 1710 0094 06000000 		.4byte	.LCFI8
 1711 0098 BA020000 		.4byte	.LFE2
 1712 009c 0200     		.2byte	0x2
 1713 009e 77       		.byte	0x77
 1714 009f 10       		.sleb128 16
 1715 00a0 00000000 		.4byte	0
 1716 00a4 00000000 		.4byte	0
 1717              	.LLST3:
 1718 00a8 00000000 		.4byte	.LFB3
 1719 00ac 02000000 		.4byte	.LCFI9
 1720 00b0 0200     		.2byte	0x2
 1721 00b2 7D       		.byte	0x7d
 1722 00b3 00       		.sleb128 0
 1723 00b4 02000000 		.4byte	.LCFI9
 1724 00b8 04000000 		.4byte	.LCFI10
 1725 00bc 0200     		.2byte	0x2
 1726 00be 7D       		.byte	0x7d
 1727 00bf 08       		.sleb128 8
 1728 00c0 04000000 		.4byte	.LCFI10
 1729 00c4 06000000 		.4byte	.LCFI11
 1730 00c8 0200     		.2byte	0x2
 1731 00ca 7D       		.byte	0x7d
 1732 00cb 18       		.sleb128 24
 1733 00cc 06000000 		.4byte	.LCFI11
 1734 00d0 94000000 		.4byte	.LFE3
 1735 00d4 0200     		.2byte	0x2
 1736 00d6 77       		.byte	0x77
 1737 00d7 18       		.sleb128 24
 1738 00d8 00000000 		.4byte	0
ARM GAS  C:\Users\Robert\AppData\Local\Temp\ccwgAcz4.s 			page 39


 1739 00dc 00000000 		.4byte	0
 1740              	.LLST4:
 1741 00e0 00000000 		.4byte	.LFB4
 1742 00e4 02000000 		.4byte	.LCFI12
 1743 00e8 0200     		.2byte	0x2
 1744 00ea 7D       		.byte	0x7d
 1745 00eb 00       		.sleb128 0
 1746 00ec 02000000 		.4byte	.LCFI12
 1747 00f0 04000000 		.4byte	.LCFI13
 1748 00f4 0200     		.2byte	0x2
 1749 00f6 7D       		.byte	0x7d
 1750 00f7 08       		.sleb128 8
 1751 00f8 04000000 		.4byte	.LCFI13
 1752 00fc 06000000 		.4byte	.LCFI14
 1753 0100 0200     		.2byte	0x2
 1754 0102 7D       		.byte	0x7d
 1755 0103 18       		.sleb128 24
 1756 0104 06000000 		.4byte	.LCFI14
 1757 0108 AC000000 		.4byte	.LFE4
 1758 010c 0200     		.2byte	0x2
 1759 010e 77       		.byte	0x77
 1760 010f 18       		.sleb128 24
 1761 0110 00000000 		.4byte	0
 1762 0114 00000000 		.4byte	0
 1763              	.LLST5:
 1764 0118 00000000 		.4byte	.LFB5
 1765 011c 02000000 		.4byte	.LCFI15
 1766 0120 0200     		.2byte	0x2
 1767 0122 7D       		.byte	0x7d
 1768 0123 00       		.sleb128 0
 1769 0124 02000000 		.4byte	.LCFI15
 1770 0128 04000000 		.4byte	.LCFI16
 1771 012c 0200     		.2byte	0x2
 1772 012e 7D       		.byte	0x7d
 1773 012f 08       		.sleb128 8
 1774 0130 04000000 		.4byte	.LCFI16
 1775 0134 06000000 		.4byte	.LCFI17
 1776 0138 0200     		.2byte	0x2
 1777 013a 7D       		.byte	0x7d
 1778 013b 18       		.sleb128 24
 1779 013c 06000000 		.4byte	.LCFI17
 1780 0140 FE000000 		.4byte	.LFE5
 1781 0144 0200     		.2byte	0x2
 1782 0146 77       		.byte	0x77
 1783 0147 18       		.sleb128 24
 1784 0148 00000000 		.4byte	0
 1785 014c 00000000 		.4byte	0
 1786              		.section	.debug_aranges,"",%progbits
 1787 0000 44000000 		.4byte	0x44
 1788 0004 0200     		.2byte	0x2
 1789 0006 00000000 		.4byte	.Ldebug_info0
 1790 000a 04       		.byte	0x4
 1791 000b 00       		.byte	0
 1792 000c 0000     		.2byte	0
 1793 000e 0000     		.2byte	0
 1794 0010 00000000 		.4byte	.LFB0
 1795 0014 88000000 		.4byte	.LFE0-.LFB0
ARM GAS  C:\Users\Robert\AppData\Local\Temp\ccwgAcz4.s 			page 40


 1796 0018 00000000 		.4byte	.LFB1
 1797 001c 24000000 		.4byte	.LFE1-.LFB1
 1798 0020 00000000 		.4byte	.LFB2
 1799 0024 BA020000 		.4byte	.LFE2-.LFB2
 1800 0028 00000000 		.4byte	.LFB3
 1801 002c 94000000 		.4byte	.LFE3-.LFB3
 1802 0030 00000000 		.4byte	.LFB4
 1803 0034 AC000000 		.4byte	.LFE4-.LFB4
 1804 0038 00000000 		.4byte	.LFB5
 1805 003c FE000000 		.4byte	.LFE5-.LFB5
 1806 0040 00000000 		.4byte	0
 1807 0044 00000000 		.4byte	0
 1808              		.section	.debug_ranges,"",%progbits
 1809              	.Ldebug_ranges0:
 1810 0000 00000000 		.4byte	.LFB0
 1811 0004 88000000 		.4byte	.LFE0
 1812 0008 00000000 		.4byte	.LFB1
 1813 000c 24000000 		.4byte	.LFE1
 1814 0010 00000000 		.4byte	.LFB2
 1815 0014 BA020000 		.4byte	.LFE2
 1816 0018 00000000 		.4byte	.LFB3
 1817 001c 94000000 		.4byte	.LFE3
 1818 0020 00000000 		.4byte	.LFB4
 1819 0024 AC000000 		.4byte	.LFE4
 1820 0028 00000000 		.4byte	.LFB5
 1821 002c FE000000 		.4byte	.LFE5
 1822 0030 00000000 		.4byte	0
 1823 0034 00000000 		.4byte	0
 1824              		.section	.debug_line,"",%progbits
 1825              	.Ldebug_line0:
 1826 0000 7B010000 		.section	.debug_str,"MS",%progbits,1
 1826      02006200 
 1826      00000201 
 1826      FB0E0D00 
 1826      01010101 
 1827              	.LASF21:
 1828 0000 70537461 		.ascii	"pStatusBlock\000"
 1828      74757342 
 1828      6C6F636B 
 1828      00
 1829              	.LASF46:
 1830 000d 2E5C4765 		.ascii	".\\Generated_Source\\PSoC5\\USBFS_hid.c\000"
 1830      6E657261 
 1830      7465645F 
 1830      536F7572 
 1830      63655C50 
 1831              	.LASF29:
 1832 0032 73746174 		.ascii	"stat\000"
 1832      00
 1833              	.LASF30:
 1834 0037 72657175 		.ascii	"requestHandled\000"
 1834      65737448 
 1834      616E646C 
 1834      656400
 1835              	.LASF19:
 1836 0046 636F756E 		.ascii	"count\000"
 1836      7400
ARM GAS  C:\Users\Robert\AppData\Local\Temp\ccwgAcz4.s 			page 41


 1837              	.LASF36:
 1838 004c 55534246 		.ascii	"USBFS_FindReportDescriptor\000"
 1838      535F4669 
 1838      6E645265 
 1838      706F7274 
 1838      44657363 
 1839              	.LASF3:
 1840 0067 73686F72 		.ascii	"short unsigned int\000"
 1840      7420756E 
 1840      7369676E 
 1840      65642069 
 1840      6E7400
 1841              	.LASF34:
 1842 007a 696E7465 		.ascii	"interfaceN\000"
 1842      72666163 
 1842      654E00
 1843              	.LASF16:
 1844 0085 73746174 		.ascii	"status\000"
 1844      757300
 1845              	.LASF20:
 1846 008c 70446174 		.ascii	"pData\000"
 1846      6100
 1847              	.LASF35:
 1848 0092 55534246 		.ascii	"USBFS_FindHidClassDecriptor\000"
 1848      535F4669 
 1848      6E644869 
 1848      64436C61 
 1848      73734465 
 1849              	.LASF22:
 1850 00ae 545F5553 		.ascii	"T_USBFS_TD\000"
 1850      4246535F 
 1850      544400
 1851              	.LASF11:
 1852 00b9 666C6F61 		.ascii	"float\000"
 1852      7400
 1853              	.LASF38:
 1854 00bf 7265706F 		.ascii	"reportType\000"
 1854      72745479 
 1854      706500
 1855              	.LASF39:
 1856 00ca 55534246 		.ascii	"USBFS_configuration\000"
 1856      535F636F 
 1856      6E666967 
 1856      75726174 
 1856      696F6E00 
 1857              	.LASF1:
 1858 00de 756E7369 		.ascii	"unsigned char\000"
 1858      676E6564 
 1858      20636861 
 1858      7200
 1859              	.LASF14:
 1860 00ec 72656738 		.ascii	"reg8\000"
 1860      00
 1861              	.LASF18:
 1862 00f1 545F5553 		.ascii	"T_USBFS_XFER_STATUS_BLOCK\000"
 1862      4246535F 
 1862      58464552 
ARM GAS  C:\Users\Robert\AppData\Local\Temp\ccwgAcz4.s 			page 42


 1862      5F535441 
 1862      5455535F 
 1863              	.LASF5:
 1864 010b 6C6F6E67 		.ascii	"long unsigned int\000"
 1864      20756E73 
 1864      69676E65 
 1864      6420696E 
 1864      7400
 1865              	.LASF9:
 1866 011d 75696E74 		.ascii	"uint8\000"
 1866      3800
 1867              	.LASF31:
 1868 0123 696E7465 		.ascii	"interfaceNumber\000"
 1868      72666163 
 1868      654E756D 
 1868      62657200 
 1869              	.LASF37:
 1870 0133 55534246 		.ascii	"USBFS_FindReport\000"
 1870      535F4669 
 1870      6E645265 
 1870      706F7274 
 1870      00
 1871              	.LASF12:
 1872 0144 646F7562 		.ascii	"double\000"
 1872      6C6500
 1873              	.LASF2:
 1874 014b 73686F72 		.ascii	"short int\000"
 1874      7420696E 
 1874      7400
 1875              	.LASF10:
 1876 0155 75696E74 		.ascii	"uint16\000"
 1876      313600
 1877              	.LASF33:
 1878 015c 70446573 		.ascii	"pDescr\000"
 1878      637200
 1879              	.LASF8:
 1880 0163 756E7369 		.ascii	"unsigned int\000"
 1880      676E6564 
 1880      20696E74 
 1880      00
 1881              	.LASF28:
 1882 0170 55534246 		.ascii	"USBFS_DispatchHIDClassRqst\000"
 1882      535F4469 
 1882      73706174 
 1882      63684849 
 1882      44436C61 
 1883              	.LASF7:
 1884 018b 6C6F6E67 		.ascii	"long long unsigned int\000"
 1884      206C6F6E 
 1884      6720756E 
 1884      7369676E 
 1884      65642069 
 1885              	.LASF23:
 1886 01a2 705F6C69 		.ascii	"p_list\000"
 1886      737400
 1887              	.LASF44:
 1888 01a9 55534246 		.ascii	"USBFS_currentTD\000"
ARM GAS  C:\Users\Robert\AppData\Local\Temp\ccwgAcz4.s 			page 43


 1888      535F6375 
 1888      7272656E 
 1888      74544400 
 1889              	.LASF26:
 1890 01b9 55534246 		.ascii	"USBFS_GetProtocol\000"
 1890      535F4765 
 1890      7450726F 
 1890      746F636F 
 1890      6C00
 1891              	.LASF15:
 1892 01cb 73697A65 		.ascii	"sizetype\000"
 1892      74797065 
 1892      00
 1893              	.LASF6:
 1894 01d4 6C6F6E67 		.ascii	"long long int\000"
 1894      206C6F6E 
 1894      6720696E 
 1894      7400
 1895              	.LASF24:
 1896 01e2 545F5553 		.ascii	"T_USBFS_LUT\000"
 1896      4246535F 
 1896      4C555400 
 1897              	.LASF13:
 1898 01ee 63686172 		.ascii	"char\000"
 1898      00
 1899              	.LASF32:
 1900 01f3 70546D70 		.ascii	"pTmp\000"
 1900      00
 1901              	.LASF40:
 1902 01f8 55534246 		.ascii	"USBFS_hidProtocol\000"
 1902      535F6869 
 1902      6450726F 
 1902      746F636F 
 1902      6C00
 1903              	.LASF25:
 1904 020a 55534246 		.ascii	"USBFS_UpdateHIDTimer\000"
 1904      535F5570 
 1904      64617465 
 1904      48494454 
 1904      696D6572 
 1905              	.LASF45:
 1906 021f 474E5520 		.ascii	"GNU C 4.7.3 20130312 (release) [ARM/embedded-4_7-br"
 1906      4320342E 
 1906      372E3320 
 1906      32303133 
 1906      30333132 
 1907 0252 616E6368 		.ascii	"anch revision 196615]\000"
 1907      20726576 
 1907      6973696F 
 1907      6E203139 
 1907      36363135 
 1908              	.LASF27:
 1909 0268 696E7465 		.ascii	"interface\000"
 1909      72666163 
 1909      6500
 1910              	.LASF4:
 1911 0272 6C6F6E67 		.ascii	"long int\000"
ARM GAS  C:\Users\Robert\AppData\Local\Temp\ccwgAcz4.s 			page 44


 1911      20696E74 
 1911      00
 1912              	.LASF0:
 1913 027b 7369676E 		.ascii	"signed char\000"
 1913      65642063 
 1913      68617200 
 1914              	.LASF47:
 1915 0287 433A5C55 		.ascii	"C:\\Users\\Robert\\workspace\\embedit_git\\RPiSoC_B"
 1915      73657273 
 1915      5C526F62 
 1915      6572745C 
 1915      776F726B 
 1916 02b5 6F6F746C 		.ascii	"ootloader\\RPiSoC_Bootloader\\Bootloader_RPiSoC.cyd"
 1916      6F616465 
 1916      725C5250 
 1916      69536F43 
 1916      5F426F6F 
 1917 02e6 736E00   		.ascii	"sn\000"
 1918              	.LASF41:
 1919 02e9 55534246 		.ascii	"USBFS_hidIdleRate\000"
 1919      535F6869 
 1919      6449646C 
 1919      65526174 
 1919      6500
 1920              	.LASF42:
 1921 02fb 55534246 		.ascii	"USBFS_hidIdleTimer\000"
 1921      535F6869 
 1921      6449646C 
 1921      6554696D 
 1921      657200
 1922              	.LASF17:
 1923 030e 6C656E67 		.ascii	"length\000"
 1923      746800
 1924              	.LASF43:
 1925 0315 55534246 		.ascii	"USBFS_interfaceSetting\000"
 1925      535F696E 
 1925      74657266 
 1925      61636553 
 1925      65747469 
 1926              		.ident	"GCC: (GNU Tools for ARM Embedded Processors) 4.7.3 20130312 (release) [ARM/embedded-4_7-br
