ARM GAS  C:\Users\Robert\AppData\Local\Temp\ccvhms5a.s 			page 1


   1              		.syntax unified
   2              		.cpu cortex-m3
   3              		.fpu softvfp
   4              		.eabi_attribute 20, 1
   5              		.eabi_attribute 21, 1
   6              		.eabi_attribute 23, 3
   7              		.eabi_attribute 24, 1
   8              		.eabi_attribute 25, 1
   9              		.eabi_attribute 26, 1
  10              		.eabi_attribute 30, 6
  11              		.eabi_attribute 34, 1
  12              		.eabi_attribute 18, 4
  13              		.thumb
  14              		.file	"USBFS_std.c"
  15              		.text
  16              	.Ltext0:
  17              		.cfi_sections	.debug_frame
  18              		.section	.text.USBFS_HandleStandardRqst,"ax",%progbits
  19              		.align	2
  20              		.global	USBFS_HandleStandardRqst
  21              		.thumb
  22              		.thumb_func
  23              		.type	USBFS_HandleStandardRqst, %function
  24              	USBFS_HandleStandardRqst:
  25              	.LFB0:
  26              		.file 1 ".\\Generated_Source\\PSoC5\\USBFS_std.c"
   1:.\Generated_Source\PSoC5/USBFS_std.c **** /*******************************************************************************
   2:.\Generated_Source\PSoC5/USBFS_std.c **** * File Name: USBFS_std.c
   3:.\Generated_Source\PSoC5/USBFS_std.c **** * Version 2.70
   4:.\Generated_Source\PSoC5/USBFS_std.c **** *
   5:.\Generated_Source\PSoC5/USBFS_std.c **** * Description:
   6:.\Generated_Source\PSoC5/USBFS_std.c **** *  USB Standard request handler.
   7:.\Generated_Source\PSoC5/USBFS_std.c **** *
   8:.\Generated_Source\PSoC5/USBFS_std.c **** * Note:
   9:.\Generated_Source\PSoC5/USBFS_std.c **** *
  10:.\Generated_Source\PSoC5/USBFS_std.c **** ********************************************************************************
  11:.\Generated_Source\PSoC5/USBFS_std.c **** * Copyright 2008-2013, Cypress Semiconductor Corporation.  All rights reserved.
  12:.\Generated_Source\PSoC5/USBFS_std.c **** * You may use this file only in accordance with the license, terms, conditions,
  13:.\Generated_Source\PSoC5/USBFS_std.c **** * disclaimers, and limitations in the end user license agreement accompanying
  14:.\Generated_Source\PSoC5/USBFS_std.c **** * the software package with which this file was provided.
  15:.\Generated_Source\PSoC5/USBFS_std.c **** *******************************************************************************/
  16:.\Generated_Source\PSoC5/USBFS_std.c **** 
  17:.\Generated_Source\PSoC5/USBFS_std.c **** #include "USBFS.h"
  18:.\Generated_Source\PSoC5/USBFS_std.c **** #include "USBFS_cdc.h"
  19:.\Generated_Source\PSoC5/USBFS_std.c **** #include "USBFS_pvt.h"
  20:.\Generated_Source\PSoC5/USBFS_std.c **** #if defined(USBFS_ENABLE_MIDI_STREAMING)
  21:.\Generated_Source\PSoC5/USBFS_std.c ****     #include "USBFS_midi.h"
  22:.\Generated_Source\PSoC5/USBFS_std.c **** #endif /*  USBFS_ENABLE_MIDI_STREAMING*/
  23:.\Generated_Source\PSoC5/USBFS_std.c **** 
  24:.\Generated_Source\PSoC5/USBFS_std.c **** 
  25:.\Generated_Source\PSoC5/USBFS_std.c **** /***************************************
  26:.\Generated_Source\PSoC5/USBFS_std.c **** *   Static data allocation
  27:.\Generated_Source\PSoC5/USBFS_std.c **** ***************************************/
  28:.\Generated_Source\PSoC5/USBFS_std.c **** 
  29:.\Generated_Source\PSoC5/USBFS_std.c **** #if defined(USBFS_ENABLE_FWSN_STRING)
  30:.\Generated_Source\PSoC5/USBFS_std.c ****     static volatile uint8 *USBFS_fwSerialNumberStringDescriptor;
  31:.\Generated_Source\PSoC5/USBFS_std.c ****     static volatile uint8 USBFS_snStringConfirm = USBFS_FALSE;
ARM GAS  C:\Users\Robert\AppData\Local\Temp\ccvhms5a.s 			page 2


  32:.\Generated_Source\PSoC5/USBFS_std.c **** #endif  /* USBFS_ENABLE_FWSN_STRING */
  33:.\Generated_Source\PSoC5/USBFS_std.c **** 
  34:.\Generated_Source\PSoC5/USBFS_std.c **** #if defined(USBFS_ENABLE_FWSN_STRING)
  35:.\Generated_Source\PSoC5/USBFS_std.c **** 
  36:.\Generated_Source\PSoC5/USBFS_std.c ****     /*******************************************************************************
  37:.\Generated_Source\PSoC5/USBFS_std.c ****     * Function Name: USBFS_SerialNumString
  38:.\Generated_Source\PSoC5/USBFS_std.c ****     ********************************************************************************
  39:.\Generated_Source\PSoC5/USBFS_std.c ****     *
  40:.\Generated_Source\PSoC5/USBFS_std.c ****     * Summary:
  41:.\Generated_Source\PSoC5/USBFS_std.c ****     *  Application firmware may supply the source of the USB device descriptors
  42:.\Generated_Source\PSoC5/USBFS_std.c ****     *  serial number string during runtime.
  43:.\Generated_Source\PSoC5/USBFS_std.c ****     *
  44:.\Generated_Source\PSoC5/USBFS_std.c ****     * Parameters:
  45:.\Generated_Source\PSoC5/USBFS_std.c ****     *  snString:  pointer to string.
  46:.\Generated_Source\PSoC5/USBFS_std.c ****     *
  47:.\Generated_Source\PSoC5/USBFS_std.c ****     * Return:
  48:.\Generated_Source\PSoC5/USBFS_std.c ****     *  None.
  49:.\Generated_Source\PSoC5/USBFS_std.c ****     *
  50:.\Generated_Source\PSoC5/USBFS_std.c ****     * Reentrant:
  51:.\Generated_Source\PSoC5/USBFS_std.c ****     *  No.
  52:.\Generated_Source\PSoC5/USBFS_std.c ****     *
  53:.\Generated_Source\PSoC5/USBFS_std.c ****     *******************************************************************************/
  54:.\Generated_Source\PSoC5/USBFS_std.c ****     void  USBFS_SerialNumString(uint8 snString[]) 
  55:.\Generated_Source\PSoC5/USBFS_std.c ****     {
  56:.\Generated_Source\PSoC5/USBFS_std.c ****         USBFS_snStringConfirm = USBFS_FALSE;
  57:.\Generated_Source\PSoC5/USBFS_std.c ****         if(snString != NULL)
  58:.\Generated_Source\PSoC5/USBFS_std.c ****         {
  59:.\Generated_Source\PSoC5/USBFS_std.c ****             /* Check descriptor validation */
  60:.\Generated_Source\PSoC5/USBFS_std.c ****             if( (snString[0u] > 1u ) && (snString[1u] == USBFS_DESCR_STRING) )
  61:.\Generated_Source\PSoC5/USBFS_std.c ****             {
  62:.\Generated_Source\PSoC5/USBFS_std.c ****                 USBFS_fwSerialNumberStringDescriptor = snString;
  63:.\Generated_Source\PSoC5/USBFS_std.c ****                 USBFS_snStringConfirm = USBFS_TRUE;
  64:.\Generated_Source\PSoC5/USBFS_std.c ****             }
  65:.\Generated_Source\PSoC5/USBFS_std.c ****         }
  66:.\Generated_Source\PSoC5/USBFS_std.c ****     }
  67:.\Generated_Source\PSoC5/USBFS_std.c **** 
  68:.\Generated_Source\PSoC5/USBFS_std.c **** #endif  /* USBFS_ENABLE_FWSN_STRING */
  69:.\Generated_Source\PSoC5/USBFS_std.c **** 
  70:.\Generated_Source\PSoC5/USBFS_std.c **** 
  71:.\Generated_Source\PSoC5/USBFS_std.c **** /*******************************************************************************
  72:.\Generated_Source\PSoC5/USBFS_std.c **** * Function Name: USBFS_HandleStandardRqst
  73:.\Generated_Source\PSoC5/USBFS_std.c **** ********************************************************************************
  74:.\Generated_Source\PSoC5/USBFS_std.c **** *
  75:.\Generated_Source\PSoC5/USBFS_std.c **** * Summary:
  76:.\Generated_Source\PSoC5/USBFS_std.c **** *  This Routine dispatches standard requests
  77:.\Generated_Source\PSoC5/USBFS_std.c **** *
  78:.\Generated_Source\PSoC5/USBFS_std.c **** * Parameters:
  79:.\Generated_Source\PSoC5/USBFS_std.c **** *  None.
  80:.\Generated_Source\PSoC5/USBFS_std.c **** *
  81:.\Generated_Source\PSoC5/USBFS_std.c **** * Return:
  82:.\Generated_Source\PSoC5/USBFS_std.c **** *  TRUE if request handled.
  83:.\Generated_Source\PSoC5/USBFS_std.c **** *
  84:.\Generated_Source\PSoC5/USBFS_std.c **** * Reentrant:
  85:.\Generated_Source\PSoC5/USBFS_std.c **** *  No.
  86:.\Generated_Source\PSoC5/USBFS_std.c **** *
  87:.\Generated_Source\PSoC5/USBFS_std.c **** *******************************************************************************/
  88:.\Generated_Source\PSoC5/USBFS_std.c **** uint8 USBFS_HandleStandardRqst(void) 
ARM GAS  C:\Users\Robert\AppData\Local\Temp\ccvhms5a.s 			page 3


  89:.\Generated_Source\PSoC5/USBFS_std.c **** {
  27              		.loc 1 89 0
  28              		.cfi_startproc
  29              		@ args = 0, pretend = 0, frame = 24
  30              		@ frame_needed = 1, uses_anonymous_args = 0
  31 0000 80B5     		push	{r7, lr}
  32              	.LCFI0:
  33              		.cfi_def_cfa_offset 8
  34              		.cfi_offset 7, -8
  35              		.cfi_offset 14, -4
  36 0002 86B0     		sub	sp, sp, #24
  37              	.LCFI1:
  38              		.cfi_def_cfa_offset 32
  39 0004 00AF     		add	r7, sp, #0
  40              	.LCFI2:
  41              		.cfi_def_cfa_register 7
  90:.\Generated_Source\PSoC5/USBFS_std.c ****     uint8 requestHandled = USBFS_FALSE;
  42              		.loc 1 90 0
  43 0006 4FF00003 		mov	r3, #0
  44 000a FB75     		strb	r3, [r7, #23]
  91:.\Generated_Source\PSoC5/USBFS_std.c ****     uint8 interfaceNumber;
  92:.\Generated_Source\PSoC5/USBFS_std.c ****     uint8 configurationN;
  93:.\Generated_Source\PSoC5/USBFS_std.c ****     #if defined(USBFS_ENABLE_STRINGS)
  94:.\Generated_Source\PSoC5/USBFS_std.c ****         volatile uint8 *pStr = 0u;
  45              		.loc 1 94 0
  46 000c 4FF00003 		mov	r3, #0
  47 0010 3B61     		str	r3, [r7, #16]
  95:.\Generated_Source\PSoC5/USBFS_std.c ****         #if defined(USBFS_ENABLE_DESCRIPTOR_STRINGS)
  96:.\Generated_Source\PSoC5/USBFS_std.c ****             uint8 nStr;
  97:.\Generated_Source\PSoC5/USBFS_std.c ****             uint8 descrLength;
  98:.\Generated_Source\PSoC5/USBFS_std.c ****         #endif /* USBFS_ENABLE_DESCRIPTOR_STRINGS */
  99:.\Generated_Source\PSoC5/USBFS_std.c ****     #endif /* USBFS_ENABLE_STRINGS */
 100:.\Generated_Source\PSoC5/USBFS_std.c ****     static volatile uint8 USBFS_tBuffer[USBFS_STATUS_LENGTH_MAX];
 101:.\Generated_Source\PSoC5/USBFS_std.c ****     const T_USBFS_LUT CYCODE *pTmp;
 102:.\Generated_Source\PSoC5/USBFS_std.c ****     USBFS_currentTD.count = 0u;
  48              		.loc 1 102 0
  49 0012 40F20003 		movw	r3, #:lower16:USBFS_currentTD
  50 0016 C0F20003 		movt	r3, #:upper16:USBFS_currentTD
  51 001a 4FF00002 		mov	r2, #0
  52 001e 1A80     		strh	r2, [r3, #0]	@ movhi
 103:.\Generated_Source\PSoC5/USBFS_std.c **** 
 104:.\Generated_Source\PSoC5/USBFS_std.c ****     if ((CY_GET_REG8(USBFS_bmRequestType) & USBFS_RQST_DIR_MASK) == USBFS_RQST_DIR_D2H)
  53              		.loc 1 104 0
  54 0020 4FF4C043 		mov	r3, #24576
  55 0024 C4F20003 		movt	r3, 16384
  56 0028 1B78     		ldrb	r3, [r3, #0]
  57 002a DBB2     		uxtb	r3, r3
  58 002c DBB2     		uxtb	r3, r3
  59 002e 5BB2     		sxtb	r3, r3
  60 0030 002B     		cmp	r3, #0
  61 0032 80F28181 		bge	.L2
 105:.\Generated_Source\PSoC5/USBFS_std.c ****     {
 106:.\Generated_Source\PSoC5/USBFS_std.c ****         /* Control Read */
 107:.\Generated_Source\PSoC5/USBFS_std.c ****         switch (CY_GET_REG8(USBFS_bRequest))
  62              		.loc 1 107 0
  63 0036 46F20103 		movw	r3, #24577
  64 003a C4F20003 		movt	r3, 16384
ARM GAS  C:\Users\Robert\AppData\Local\Temp\ccvhms5a.s 			page 4


  65 003e 1B78     		ldrb	r3, [r3, #0]
  66 0040 DBB2     		uxtb	r3, r3
  67 0042 0A2B     		cmp	r3, #10
  68 0044 00F2E382 		bhi	.L56
  69 0048 01A2     		adr	r2, .L8
  70 004a 52F823F0 		ldr	pc, [r2, r3, lsl #2]
  71 004e 00BF     		.align	2
  72              	.L8:
  73 0050 FD010000 		.word	.L4+1
  74 0054 0F060000 		.word	.L56+1
  75 0058 0F060000 		.word	.L56+1
  76 005c 0F060000 		.word	.L56+1
  77 0060 0F060000 		.word	.L56+1
  78 0064 0F060000 		.word	.L56+1
  79 0068 7D000000 		.word	.L5+1
  80 006c 0F060000 		.word	.L56+1
  81 0070 D3020000 		.word	.L6+1
  82 0074 0F060000 		.word	.L56+1
  83 0078 FD020000 		.word	.L7+1
  84              	.L5:
 108:.\Generated_Source\PSoC5/USBFS_std.c ****         {
 109:.\Generated_Source\PSoC5/USBFS_std.c ****             case USBFS_GET_DESCRIPTOR:
 110:.\Generated_Source\PSoC5/USBFS_std.c ****                 if (CY_GET_REG8(USBFS_wValueHi) == USBFS_DESCR_DEVICE)
  85              		.loc 1 110 0
  86 007c 46F20303 		movw	r3, #24579
  87 0080 C4F20003 		movt	r3, 16384
  88 0084 1B78     		ldrb	r3, [r3, #0]
  89 0086 DBB2     		uxtb	r3, r3
  90 0088 012B     		cmp	r3, #1
  91 008a 15D1     		bne	.L9
 111:.\Generated_Source\PSoC5/USBFS_std.c ****                 {
 112:.\Generated_Source\PSoC5/USBFS_std.c ****                     pTmp = USBFS_GetDeviceTablePtr();
  92              		.loc 1 112 0
  93 008c FFF7FEFF 		bl	USBFS_GetDeviceTablePtr
  94 0090 B860     		str	r0, [r7, #8]
 113:.\Generated_Source\PSoC5/USBFS_std.c ****                     USBFS_currentTD.pData = (volatile uint8 *)pTmp->p_list;
  95              		.loc 1 113 0
  96 0092 BB68     		ldr	r3, [r7, #8]
  97 0094 5A68     		ldr	r2, [r3, #4]
  98 0096 40F20003 		movw	r3, #:lower16:USBFS_currentTD
  99 009a C0F20003 		movt	r3, #:upper16:USBFS_currentTD
 100 009e 5A60     		str	r2, [r3, #4]
 114:.\Generated_Source\PSoC5/USBFS_std.c ****                     USBFS_currentTD.count = USBFS_DEVICE_DESCR_LENGTH;
 101              		.loc 1 114 0
 102 00a0 40F20003 		movw	r3, #:lower16:USBFS_currentTD
 103 00a4 C0F20003 		movt	r3, #:upper16:USBFS_currentTD
 104 00a8 4FF01202 		mov	r2, #18
 105 00ac 1A80     		strh	r2, [r3, #0]	@ movhi
 115:.\Generated_Source\PSoC5/USBFS_std.c ****                     requestHandled  = USBFS_InitControlRead();
 106              		.loc 1 115 0
 107 00ae FFF7FEFF 		bl	USBFS_InitControlRead
 108 00b2 0346     		mov	r3, r0
 109 00b4 FB75     		strb	r3, [r7, #23]
 116:.\Generated_Source\PSoC5/USBFS_std.c ****                 }
 117:.\Generated_Source\PSoC5/USBFS_std.c ****                 else if (CY_GET_REG8(USBFS_wValueHi) == USBFS_DESCR_CONFIG)
 118:.\Generated_Source\PSoC5/USBFS_std.c ****                 {
 119:.\Generated_Source\PSoC5/USBFS_std.c ****                     pTmp = USBFS_GetConfigTablePtr(CY_GET_REG8(USBFS_wValueLo));
ARM GAS  C:\Users\Robert\AppData\Local\Temp\ccvhms5a.s 			page 5


 120:.\Generated_Source\PSoC5/USBFS_std.c ****                     if( pTmp != NULL )  /* Verify that requested descriptor exists */
 121:.\Generated_Source\PSoC5/USBFS_std.c ****                     {
 122:.\Generated_Source\PSoC5/USBFS_std.c ****                         USBFS_currentTD.pData = (volatile uint8 *)pTmp->p_list;
 123:.\Generated_Source\PSoC5/USBFS_std.c ****                         USBFS_currentTD.count = ((uint16)(USBFS_currentTD.pData)[ \
 124:.\Generated_Source\PSoC5/USBFS_std.c ****                                           USBFS_CONFIG_DESCR_TOTAL_LENGTH_HI] << 8u) | \
 125:.\Generated_Source\PSoC5/USBFS_std.c ****                                          (USBFS_currentTD.pData)[USBFS_CONFIG_DESCR_TOTAL_LENGTH_LO
 126:.\Generated_Source\PSoC5/USBFS_std.c ****                         requestHandled  = USBFS_InitControlRead();
 127:.\Generated_Source\PSoC5/USBFS_std.c ****                     }
 128:.\Generated_Source\PSoC5/USBFS_std.c ****                 }
 129:.\Generated_Source\PSoC5/USBFS_std.c ****                 #if defined(USBFS_ENABLE_STRINGS)
 130:.\Generated_Source\PSoC5/USBFS_std.c ****                 else if (CY_GET_REG8(USBFS_wValueHi) == USBFS_DESCR_STRING)
 131:.\Generated_Source\PSoC5/USBFS_std.c ****                 {
 132:.\Generated_Source\PSoC5/USBFS_std.c ****                     /* Descriptor Strings*/
 133:.\Generated_Source\PSoC5/USBFS_std.c ****                     #if defined(USBFS_ENABLE_DESCRIPTOR_STRINGS)
 134:.\Generated_Source\PSoC5/USBFS_std.c ****                         nStr = 0u;
 135:.\Generated_Source\PSoC5/USBFS_std.c ****                         pStr = (volatile uint8 *)&USBFS_STRING_DESCRIPTORS[0u];
 136:.\Generated_Source\PSoC5/USBFS_std.c ****                         while ( (CY_GET_REG8(USBFS_wValueLo) > nStr) && (*pStr != 0u) )
 137:.\Generated_Source\PSoC5/USBFS_std.c ****                         {
 138:.\Generated_Source\PSoC5/USBFS_std.c ****                             /* Read descriptor length from 1st byte */
 139:.\Generated_Source\PSoC5/USBFS_std.c ****                             descrLength = *pStr;
 140:.\Generated_Source\PSoC5/USBFS_std.c ****                             /* Move to next string descriptor */
 141:.\Generated_Source\PSoC5/USBFS_std.c ****                             pStr = &pStr[descrLength];
 142:.\Generated_Source\PSoC5/USBFS_std.c ****                             nStr++;
 143:.\Generated_Source\PSoC5/USBFS_std.c ****                         }
 144:.\Generated_Source\PSoC5/USBFS_std.c ****                     #endif /*  USBFS_ENABLE_DESCRIPTOR_STRINGS */
 145:.\Generated_Source\PSoC5/USBFS_std.c ****                     /* Microsoft OS String*/
 146:.\Generated_Source\PSoC5/USBFS_std.c ****                     #if defined(USBFS_ENABLE_MSOS_STRING)
 147:.\Generated_Source\PSoC5/USBFS_std.c ****                         if( CY_GET_REG8(USBFS_wValueLo) == USBFS_STRING_MSOS )
 148:.\Generated_Source\PSoC5/USBFS_std.c ****                         {
 149:.\Generated_Source\PSoC5/USBFS_std.c ****                             pStr = (volatile uint8 *)&USBFS_MSOS_DESCRIPTOR[0u];
 150:.\Generated_Source\PSoC5/USBFS_std.c ****                         }
 151:.\Generated_Source\PSoC5/USBFS_std.c ****                     #endif /*  USBFS_ENABLE_MSOS_STRING*/
 152:.\Generated_Source\PSoC5/USBFS_std.c ****                     /* SN string */
 153:.\Generated_Source\PSoC5/USBFS_std.c ****                     #if defined(USBFS_ENABLE_SN_STRING)
 154:.\Generated_Source\PSoC5/USBFS_std.c ****                         if( (CY_GET_REG8(USBFS_wValueLo) != 0u) &&
 155:.\Generated_Source\PSoC5/USBFS_std.c ****                             (CY_GET_REG8(USBFS_wValueLo) ==
 156:.\Generated_Source\PSoC5/USBFS_std.c ****                             USBFS_DEVICE0_DESCR[USBFS_DEVICE_DESCR_SN_SHIFT]) )
 157:.\Generated_Source\PSoC5/USBFS_std.c ****                         {
 158:.\Generated_Source\PSoC5/USBFS_std.c ****                             
 159:.\Generated_Source\PSoC5/USBFS_std.c ****                             #if defined(USBFS_ENABLE_IDSN_STRING)
 160:.\Generated_Source\PSoC5/USBFS_std.c ****                                 /* Read DIE ID and generate string descriptor in RAM */
 161:.\Generated_Source\PSoC5/USBFS_std.c ****                                 USBFS_ReadDieID(USBFS_idSerialNumberStringDescriptor);
 162:.\Generated_Source\PSoC5/USBFS_std.c ****                                 pStr = USBFS_idSerialNumberStringDescriptor;
 163:.\Generated_Source\PSoC5/USBFS_std.c ****                             #elif defined(USBFS_ENABLE_FWSN_STRING)
 164:.\Generated_Source\PSoC5/USBFS_std.c ****                                 if(USBFS_snStringConfirm != USBFS_FALSE)
 165:.\Generated_Source\PSoC5/USBFS_std.c ****                                 {
 166:.\Generated_Source\PSoC5/USBFS_std.c ****                                     pStr = USBFS_fwSerialNumberStringDescriptor;
 167:.\Generated_Source\PSoC5/USBFS_std.c ****                                 }
 168:.\Generated_Source\PSoC5/USBFS_std.c ****                                 else
 169:.\Generated_Source\PSoC5/USBFS_std.c ****                                 {
 170:.\Generated_Source\PSoC5/USBFS_std.c ****                                     pStr = (volatile uint8 *)&USBFS_SN_STRING_DESCRIPTOR[0u];
 171:.\Generated_Source\PSoC5/USBFS_std.c ****                                 }
 172:.\Generated_Source\PSoC5/USBFS_std.c ****                             #else
 173:.\Generated_Source\PSoC5/USBFS_std.c ****                                 pStr = (volatile uint8 *)&USBFS_SN_STRING_DESCRIPTOR[0u];
 174:.\Generated_Source\PSoC5/USBFS_std.c ****                             #endif  /* defined(USBFS_ENABLE_IDSN_STRING) */
 175:.\Generated_Source\PSoC5/USBFS_std.c ****                         }
 176:.\Generated_Source\PSoC5/USBFS_std.c ****                     #endif    /*  USBFS_ENABLE_SN_STRING */
ARM GAS  C:\Users\Robert\AppData\Local\Temp\ccvhms5a.s 			page 6


 177:.\Generated_Source\PSoC5/USBFS_std.c ****                     if (*pStr != 0u)
 178:.\Generated_Source\PSoC5/USBFS_std.c ****                     {
 179:.\Generated_Source\PSoC5/USBFS_std.c ****                         USBFS_currentTD.count = *pStr;
 180:.\Generated_Source\PSoC5/USBFS_std.c ****                         USBFS_currentTD.pData = pStr;
 181:.\Generated_Source\PSoC5/USBFS_std.c ****                         requestHandled  = USBFS_InitControlRead();
 182:.\Generated_Source\PSoC5/USBFS_std.c ****                     }
 183:.\Generated_Source\PSoC5/USBFS_std.c ****                 }
 184:.\Generated_Source\PSoC5/USBFS_std.c ****                 #endif /*  USBFS_ENABLE_STRINGS */
 185:.\Generated_Source\PSoC5/USBFS_std.c ****                 else
 186:.\Generated_Source\PSoC5/USBFS_std.c ****                 {
 187:.\Generated_Source\PSoC5/USBFS_std.c ****                     requestHandled = USBFS_DispatchClassRqst();
 188:.\Generated_Source\PSoC5/USBFS_std.c ****                 }
 189:.\Generated_Source\PSoC5/USBFS_std.c ****                 break;
 110              		.loc 1 189 0
 111 00b6 ACE2     		b	.L57
 112              	.L9:
 117:.\Generated_Source\PSoC5/USBFS_std.c ****                 else if (CY_GET_REG8(USBFS_wValueHi) == USBFS_DESCR_CONFIG)
 113              		.loc 1 117 0
 114 00b8 46F20303 		movw	r3, #24579
 115 00bc C4F20003 		movt	r3, 16384
 116 00c0 1B78     		ldrb	r3, [r3, #0]
 117 00c2 DBB2     		uxtb	r3, r3
 118 00c4 022B     		cmp	r3, #2
 119 00c6 36D1     		bne	.L11
 119:.\Generated_Source\PSoC5/USBFS_std.c ****                     pTmp = USBFS_GetConfigTablePtr(CY_GET_REG8(USBFS_wValueLo));
 120              		.loc 1 119 0
 121 00c8 46F20203 		movw	r3, #24578
 122 00cc C4F20003 		movt	r3, 16384
 123 00d0 1B78     		ldrb	r3, [r3, #0]
 124 00d2 DBB2     		uxtb	r3, r3
 125 00d4 1846     		mov	r0, r3
 126 00d6 FFF7FEFF 		bl	USBFS_GetConfigTablePtr
 127 00da B860     		str	r0, [r7, #8]
 120:.\Generated_Source\PSoC5/USBFS_std.c ****                     if( pTmp != NULL )  /* Verify that requested descriptor exists */
 128              		.loc 1 120 0
 129 00dc BB68     		ldr	r3, [r7, #8]
 130 00de 002B     		cmp	r3, #0
 131 00e0 00F09782 		beq	.L57
 122:.\Generated_Source\PSoC5/USBFS_std.c ****                         USBFS_currentTD.pData = (volatile uint8 *)pTmp->p_list;
 132              		.loc 1 122 0
 133 00e4 BB68     		ldr	r3, [r7, #8]
 134 00e6 5A68     		ldr	r2, [r3, #4]
 135 00e8 40F20003 		movw	r3, #:lower16:USBFS_currentTD
 136 00ec C0F20003 		movt	r3, #:upper16:USBFS_currentTD
 137 00f0 5A60     		str	r2, [r3, #4]
 123:.\Generated_Source\PSoC5/USBFS_std.c ****                         USBFS_currentTD.count = ((uint16)(USBFS_currentTD.pData)[ \
 138              		.loc 1 123 0
 139 00f2 40F20003 		movw	r3, #:lower16:USBFS_currentTD
 140 00f6 C0F20003 		movt	r3, #:upper16:USBFS_currentTD
 141 00fa 5B68     		ldr	r3, [r3, #4]
 142 00fc 03F10303 		add	r3, r3, #3
 143 0100 1B78     		ldrb	r3, [r3, #0]
 144 0102 DBB2     		uxtb	r3, r3
 124:.\Generated_Source\PSoC5/USBFS_std.c ****                                           USBFS_CONFIG_DESCR_TOTAL_LENGTH_HI] << 8u) | \
 145              		.loc 1 124 0
 146 0104 4FEA0323 		lsl	r3, r3, #8
 123:.\Generated_Source\PSoC5/USBFS_std.c ****                         USBFS_currentTD.count = ((uint16)(USBFS_currentTD.pData)[ \
ARM GAS  C:\Users\Robert\AppData\Local\Temp\ccvhms5a.s 			page 7


 147              		.loc 1 123 0
 148 0108 9AB2     		uxth	r2, r3
 125:.\Generated_Source\PSoC5/USBFS_std.c ****                                          (USBFS_currentTD.pData)[USBFS_CONFIG_DESCR_TOTAL_LENGTH_LO
 149              		.loc 1 125 0
 150 010a 40F20003 		movw	r3, #:lower16:USBFS_currentTD
 151 010e C0F20003 		movt	r3, #:upper16:USBFS_currentTD
 152 0112 5B68     		ldr	r3, [r3, #4]
 153 0114 03F10203 		add	r3, r3, #2
 154 0118 1B78     		ldrb	r3, [r3, #0]
 155 011a DBB2     		uxtb	r3, r3
 123:.\Generated_Source\PSoC5/USBFS_std.c ****                         USBFS_currentTD.count = ((uint16)(USBFS_currentTD.pData)[ \
 156              		.loc 1 123 0
 157 011c 1343     		orrs	r3, r3, r2
 158 011e 9BB2     		uxth	r3, r3
 159 0120 9AB2     		uxth	r2, r3
 160 0122 40F20003 		movw	r3, #:lower16:USBFS_currentTD
 161 0126 C0F20003 		movt	r3, #:upper16:USBFS_currentTD
 162 012a 1A80     		strh	r2, [r3, #0]	@ movhi
 126:.\Generated_Source\PSoC5/USBFS_std.c ****                         requestHandled  = USBFS_InitControlRead();
 163              		.loc 1 126 0
 164 012c FFF7FEFF 		bl	USBFS_InitControlRead
 165 0130 0346     		mov	r3, r0
 166 0132 FB75     		strb	r3, [r7, #23]
 167              		.loc 1 189 0
 168 0134 6DE2     		b	.L57
 169              	.L11:
 130:.\Generated_Source\PSoC5/USBFS_std.c ****                 else if (CY_GET_REG8(USBFS_wValueHi) == USBFS_DESCR_STRING)
 170              		.loc 1 130 0
 171 0136 46F20303 		movw	r3, #24579
 172 013a C4F20003 		movt	r3, 16384
 173 013e 1B78     		ldrb	r3, [r3, #0]
 174 0140 DBB2     		uxtb	r3, r3
 175 0142 032B     		cmp	r3, #3
 176 0144 55D1     		bne	.L12
 134:.\Generated_Source\PSoC5/USBFS_std.c ****                         nStr = 0u;
 177              		.loc 1 134 0
 178 0146 4FF00003 		mov	r3, #0
 179 014a FB73     		strb	r3, [r7, #15]
 135:.\Generated_Source\PSoC5/USBFS_std.c ****                         pStr = (volatile uint8 *)&USBFS_STRING_DESCRIPTORS[0u];
 180              		.loc 1 135 0
 181 014c 40F20003 		movw	r3, #:lower16:USBFS_STRING_DESCRIPTORS
 182 0150 C0F20003 		movt	r3, #:upper16:USBFS_STRING_DESCRIPTORS
 183 0154 3B61     		str	r3, [r7, #16]
 136:.\Generated_Source\PSoC5/USBFS_std.c ****                         while ( (CY_GET_REG8(USBFS_wValueLo) > nStr) && (*pStr != 0u) )
 184              		.loc 1 136 0
 185 0156 0AE0     		b	.L13
 186              	.L15:
 139:.\Generated_Source\PSoC5/USBFS_std.c ****                             descrLength = *pStr;
 187              		.loc 1 139 0
 188 0158 3B69     		ldr	r3, [r7, #16]
 189 015a 1B78     		ldrb	r3, [r3, #0]
 190 015c FB71     		strb	r3, [r7, #7]
 141:.\Generated_Source\PSoC5/USBFS_std.c ****                             pStr = &pStr[descrLength];
 191              		.loc 1 141 0
 192 015e FB79     		ldrb	r3, [r7, #7]	@ zero_extendqisi2
 193 0160 3A69     		ldr	r2, [r7, #16]
 194 0162 D318     		adds	r3, r2, r3
ARM GAS  C:\Users\Robert\AppData\Local\Temp\ccvhms5a.s 			page 8


 195 0164 3B61     		str	r3, [r7, #16]
 142:.\Generated_Source\PSoC5/USBFS_std.c ****                             nStr++;
 196              		.loc 1 142 0
 197 0166 FB7B     		ldrb	r3, [r7, #15]
 198 0168 03F10103 		add	r3, r3, #1
 199 016c FB73     		strb	r3, [r7, #15]
 200              	.L13:
 136:.\Generated_Source\PSoC5/USBFS_std.c ****                         while ( (CY_GET_REG8(USBFS_wValueLo) > nStr) && (*pStr != 0u) )
 201              		.loc 1 136 0 discriminator 1
 202 016e 46F20203 		movw	r3, #24578
 203 0172 C4F20003 		movt	r3, 16384
 204 0176 1B78     		ldrb	r3, [r3, #0]
 205 0178 DBB2     		uxtb	r3, r3
 206 017a FA7B     		ldrb	r2, [r7, #15]	@ zero_extendqisi2
 207 017c 9A42     		cmp	r2, r3
 208 017e 04D2     		bcs	.L14
 136:.\Generated_Source\PSoC5/USBFS_std.c ****                         while ( (CY_GET_REG8(USBFS_wValueLo) > nStr) && (*pStr != 0u) )
 209              		.loc 1 136 0 is_stmt 0 discriminator 2
 210 0180 3B69     		ldr	r3, [r7, #16]
 211 0182 1B78     		ldrb	r3, [r3, #0]
 212 0184 DBB2     		uxtb	r3, r3
 213 0186 002B     		cmp	r3, #0
 214 0188 E6D1     		bne	.L15
 215              	.L14:
 154:.\Generated_Source\PSoC5/USBFS_std.c ****                         if( (CY_GET_REG8(USBFS_wValueLo) != 0u) &&
 216              		.loc 1 154 0 is_stmt 1
 217 018a 46F20203 		movw	r3, #24578
 218 018e C4F20003 		movt	r3, 16384
 219 0192 1B78     		ldrb	r3, [r3, #0]
 220 0194 DBB2     		uxtb	r3, r3
 221 0196 002B     		cmp	r3, #0
 222 0198 11D0     		beq	.L16
 155:.\Generated_Source\PSoC5/USBFS_std.c ****                             (CY_GET_REG8(USBFS_wValueLo) ==
 223              		.loc 1 155 0 discriminator 1
 224 019a 46F20203 		movw	r3, #24578
 225 019e C4F20003 		movt	r3, 16384
 226 01a2 1B78     		ldrb	r3, [r3, #0]
 227 01a4 DAB2     		uxtb	r2, r3
 156:.\Generated_Source\PSoC5/USBFS_std.c ****                             USBFS_DEVICE0_DESCR[USBFS_DEVICE_DESCR_SN_SHIFT]) )
 228              		.loc 1 156 0 discriminator 1
 229 01a6 40F20003 		movw	r3, #:lower16:USBFS_DEVICE0_DESCR
 230 01aa C0F20003 		movt	r3, #:upper16:USBFS_DEVICE0_DESCR
 231 01ae 1B7C     		ldrb	r3, [r3, #16]	@ zero_extendqisi2
 154:.\Generated_Source\PSoC5/USBFS_std.c ****                         if( (CY_GET_REG8(USBFS_wValueLo) != 0u) &&
 232              		.loc 1 154 0 discriminator 1
 233 01b0 9A42     		cmp	r2, r3
 234 01b2 04D1     		bne	.L16
 173:.\Generated_Source\PSoC5/USBFS_std.c ****                                 pStr = (volatile uint8 *)&USBFS_SN_STRING_DESCRIPTOR[0u];
 235              		.loc 1 173 0
 236 01b4 40F20003 		movw	r3, #:lower16:USBFS_SN_STRING_DESCRIPTOR
 237 01b8 C0F20003 		movt	r3, #:upper16:USBFS_SN_STRING_DESCRIPTOR
 238 01bc 3B61     		str	r3, [r7, #16]
 239              	.L16:
 177:.\Generated_Source\PSoC5/USBFS_std.c ****                     if (*pStr != 0u)
 240              		.loc 1 177 0
 241 01be 3B69     		ldr	r3, [r7, #16]
 242 01c0 1B78     		ldrb	r3, [r3, #0]
ARM GAS  C:\Users\Robert\AppData\Local\Temp\ccvhms5a.s 			page 9


 243 01c2 DBB2     		uxtb	r3, r3
 244 01c4 002B     		cmp	r3, #0
 245 01c6 00F02482 		beq	.L57
 179:.\Generated_Source\PSoC5/USBFS_std.c ****                         USBFS_currentTD.count = *pStr;
 246              		.loc 1 179 0
 247 01ca 3B69     		ldr	r3, [r7, #16]
 248 01cc 1B78     		ldrb	r3, [r3, #0]
 249 01ce DBB2     		uxtb	r3, r3
 250 01d0 1A46     		mov	r2, r3
 251 01d2 40F20003 		movw	r3, #:lower16:USBFS_currentTD
 252 01d6 C0F20003 		movt	r3, #:upper16:USBFS_currentTD
 253 01da 1A80     		strh	r2, [r3, #0]	@ movhi
 180:.\Generated_Source\PSoC5/USBFS_std.c ****                         USBFS_currentTD.pData = pStr;
 254              		.loc 1 180 0
 255 01dc 40F20003 		movw	r3, #:lower16:USBFS_currentTD
 256 01e0 C0F20003 		movt	r3, #:upper16:USBFS_currentTD
 257 01e4 3A69     		ldr	r2, [r7, #16]
 258 01e6 5A60     		str	r2, [r3, #4]
 181:.\Generated_Source\PSoC5/USBFS_std.c ****                         requestHandled  = USBFS_InitControlRead();
 259              		.loc 1 181 0
 260 01e8 FFF7FEFF 		bl	USBFS_InitControlRead
 261 01ec 0346     		mov	r3, r0
 262 01ee FB75     		strb	r3, [r7, #23]
 263              		.loc 1 189 0
 264 01f0 0FE2     		b	.L57
 265              	.L12:
 187:.\Generated_Source\PSoC5/USBFS_std.c ****                     requestHandled = USBFS_DispatchClassRqst();
 266              		.loc 1 187 0
 267 01f2 FFF7FEFF 		bl	USBFS_DispatchClassRqst
 268 01f6 0346     		mov	r3, r0
 269 01f8 FB75     		strb	r3, [r7, #23]
 270              		.loc 1 189 0
 271 01fa 0AE2     		b	.L57
 272              	.L4:
 190:.\Generated_Source\PSoC5/USBFS_std.c ****             case USBFS_GET_STATUS:
 191:.\Generated_Source\PSoC5/USBFS_std.c ****                 switch ((CY_GET_REG8(USBFS_bmRequestType) & USBFS_RQST_RCPT_MASK))
 273              		.loc 1 191 0
 274 01fc 4FF4C043 		mov	r3, #24576
 275 0200 C4F20003 		movt	r3, 16384
 276 0204 1B78     		ldrb	r3, [r3, #0]
 277 0206 DBB2     		uxtb	r3, r3
 278 0208 03F00303 		and	r3, r3, #3
 279 020c 002B     		cmp	r3, #0
 280 020e 37D0     		beq	.L19
 281 0210 022B     		cmp	r3, #2
 282 0212 5CD1     		bne	.L53
 283              	.L20:
 192:.\Generated_Source\PSoC5/USBFS_std.c ****                 {
 193:.\Generated_Source\PSoC5/USBFS_std.c ****                     case USBFS_RQST_RCPT_EP:
 194:.\Generated_Source\PSoC5/USBFS_std.c ****                         USBFS_currentTD.count = USBFS_EP_STATUS_LENGTH;
 284              		.loc 1 194 0
 285 0214 40F20003 		movw	r3, #:lower16:USBFS_currentTD
 286 0218 C0F20003 		movt	r3, #:upper16:USBFS_currentTD
 287 021c 4FF00202 		mov	r2, #2
 288 0220 1A80     		strh	r2, [r3, #0]	@ movhi
 195:.\Generated_Source\PSoC5/USBFS_std.c ****                         USBFS_tBuffer[0u] = USBFS_EP[ \
 196:.\Generated_Source\PSoC5/USBFS_std.c ****                                         CY_GET_REG8(USBFS_wIndexLo) & USBFS_DIR_UNUSED].hwEpState;
ARM GAS  C:\Users\Robert\AppData\Local\Temp\ccvhms5a.s 			page 10


 289              		.loc 1 196 0
 290 0222 46F20403 		movw	r3, #24580
 291 0226 C4F20003 		movt	r3, 16384
 292 022a 1B78     		ldrb	r3, [r3, #0]
 293 022c DBB2     		uxtb	r3, r3
 294 022e 03F07F01 		and	r1, r3, #127
 295 0232 40F20002 		movw	r2, #:lower16:USBFS_EP
 296 0236 C0F20002 		movt	r2, #:upper16:USBFS_EP
 297 023a 0B46     		mov	r3, r1
 298 023c 4FEA4303 		lsl	r3, r3, #1
 299 0240 5B18     		adds	r3, r3, r1
 300 0242 4FEA8303 		lsl	r3, r3, #2
 301 0246 D318     		adds	r3, r2, r3
 302 0248 9B78     		ldrb	r3, [r3, #2]
 303 024a DAB2     		uxtb	r2, r3
 195:.\Generated_Source\PSoC5/USBFS_std.c ****                         USBFS_tBuffer[0u] = USBFS_EP[ \
 304              		.loc 1 195 0
 305 024c 40F20003 		movw	r3, #:lower16:USBFS_tBuffer.5005
 306 0250 C0F20003 		movt	r3, #:upper16:USBFS_tBuffer.5005
 307 0254 1A70     		strb	r2, [r3, #0]
 197:.\Generated_Source\PSoC5/USBFS_std.c ****                         USBFS_tBuffer[1u] = 0u;
 308              		.loc 1 197 0
 309 0256 40F20003 		movw	r3, #:lower16:USBFS_tBuffer.5005
 310 025a C0F20003 		movt	r3, #:upper16:USBFS_tBuffer.5005
 311 025e 4FF00002 		mov	r2, #0
 312 0262 5A70     		strb	r2, [r3, #1]
 198:.\Generated_Source\PSoC5/USBFS_std.c ****                         USBFS_currentTD.pData = &USBFS_tBuffer[0u];
 313              		.loc 1 198 0
 314 0264 40F20003 		movw	r3, #:lower16:USBFS_currentTD
 315 0268 C0F20003 		movt	r3, #:upper16:USBFS_currentTD
 316 026c 40F20002 		movw	r2, #:lower16:USBFS_tBuffer.5005
 317 0270 C0F20002 		movt	r2, #:upper16:USBFS_tBuffer.5005
 318 0274 5A60     		str	r2, [r3, #4]
 199:.\Generated_Source\PSoC5/USBFS_std.c ****                         requestHandled  = USBFS_InitControlRead();
 319              		.loc 1 199 0
 320 0276 FFF7FEFF 		bl	USBFS_InitControlRead
 321 027a 0346     		mov	r3, r0
 322 027c FB75     		strb	r3, [r7, #23]
 200:.\Generated_Source\PSoC5/USBFS_std.c ****                         break;
 323              		.loc 1 200 0
 324 027e 27E0     		b	.L21
 325              	.L19:
 201:.\Generated_Source\PSoC5/USBFS_std.c ****                     case USBFS_RQST_RCPT_DEV:
 202:.\Generated_Source\PSoC5/USBFS_std.c ****                         USBFS_currentTD.count = USBFS_DEVICE_STATUS_LENGTH;
 326              		.loc 1 202 0
 327 0280 40F20003 		movw	r3, #:lower16:USBFS_currentTD
 328 0284 C0F20003 		movt	r3, #:upper16:USBFS_currentTD
 329 0288 4FF00202 		mov	r2, #2
 330 028c 1A80     		strh	r2, [r3, #0]	@ movhi
 203:.\Generated_Source\PSoC5/USBFS_std.c ****                         USBFS_tBuffer[0u] = USBFS_deviceStatus;
 331              		.loc 1 203 0
 332 028e 40F20003 		movw	r3, #:lower16:USBFS_deviceStatus
 333 0292 C0F20003 		movt	r3, #:upper16:USBFS_deviceStatus
 334 0296 1B78     		ldrb	r3, [r3, #0]
 335 0298 DAB2     		uxtb	r2, r3
 336 029a 40F20003 		movw	r3, #:lower16:USBFS_tBuffer.5005
 337 029e C0F20003 		movt	r3, #:upper16:USBFS_tBuffer.5005
ARM GAS  C:\Users\Robert\AppData\Local\Temp\ccvhms5a.s 			page 11


 338 02a2 1A70     		strb	r2, [r3, #0]
 204:.\Generated_Source\PSoC5/USBFS_std.c ****                         USBFS_tBuffer[1u] = 0u;
 339              		.loc 1 204 0
 340 02a4 40F20003 		movw	r3, #:lower16:USBFS_tBuffer.5005
 341 02a8 C0F20003 		movt	r3, #:upper16:USBFS_tBuffer.5005
 342 02ac 4FF00002 		mov	r2, #0
 343 02b0 5A70     		strb	r2, [r3, #1]
 205:.\Generated_Source\PSoC5/USBFS_std.c ****                         USBFS_currentTD.pData = &USBFS_tBuffer[0u];
 344              		.loc 1 205 0
 345 02b2 40F20003 		movw	r3, #:lower16:USBFS_currentTD
 346 02b6 C0F20003 		movt	r3, #:upper16:USBFS_currentTD
 347 02ba 40F20002 		movw	r2, #:lower16:USBFS_tBuffer.5005
 348 02be C0F20002 		movt	r2, #:upper16:USBFS_tBuffer.5005
 349 02c2 5A60     		str	r2, [r3, #4]
 206:.\Generated_Source\PSoC5/USBFS_std.c ****                         requestHandled  = USBFS_InitControlRead();
 350              		.loc 1 206 0
 351 02c4 FFF7FEFF 		bl	USBFS_InitControlRead
 352 02c8 0346     		mov	r3, r0
 353 02ca FB75     		strb	r3, [r7, #23]
 207:.\Generated_Source\PSoC5/USBFS_std.c ****                         break;
 354              		.loc 1 207 0
 355 02cc 00E0     		b	.L21
 356              	.L53:
 208:.\Generated_Source\PSoC5/USBFS_std.c ****                     default:    /* requestHandled is initialized as FALSE by default */
 209:.\Generated_Source\PSoC5/USBFS_std.c ****                         break;
 357              		.loc 1 209 0
 358 02ce 00BF     		nop
 359              	.L21:
 210:.\Generated_Source\PSoC5/USBFS_std.c ****                 }
 211:.\Generated_Source\PSoC5/USBFS_std.c ****                 break;
 360              		.loc 1 211 0
 361 02d0 A6E1     		b	.L22
 362              	.L6:
 212:.\Generated_Source\PSoC5/USBFS_std.c ****             case USBFS_GET_CONFIGURATION:
 213:.\Generated_Source\PSoC5/USBFS_std.c ****                 USBFS_currentTD.count = 1u;
 363              		.loc 1 213 0
 364 02d2 40F20003 		movw	r3, #:lower16:USBFS_currentTD
 365 02d6 C0F20003 		movt	r3, #:upper16:USBFS_currentTD
 366 02da 4FF00102 		mov	r2, #1
 367 02de 1A80     		strh	r2, [r3, #0]	@ movhi
 214:.\Generated_Source\PSoC5/USBFS_std.c ****                 USBFS_currentTD.pData = (volatile uint8 *)&USBFS_configuration;
 368              		.loc 1 214 0
 369 02e0 40F20003 		movw	r3, #:lower16:USBFS_currentTD
 370 02e4 C0F20003 		movt	r3, #:upper16:USBFS_currentTD
 371 02e8 40F20002 		movw	r2, #:lower16:USBFS_configuration
 372 02ec C0F20002 		movt	r2, #:upper16:USBFS_configuration
 373 02f0 5A60     		str	r2, [r3, #4]
 215:.\Generated_Source\PSoC5/USBFS_std.c ****                 requestHandled  = USBFS_InitControlRead();
 374              		.loc 1 215 0
 375 02f2 FFF7FEFF 		bl	USBFS_InitControlRead
 376 02f6 0346     		mov	r3, r0
 377 02f8 FB75     		strb	r3, [r7, #23]
 216:.\Generated_Source\PSoC5/USBFS_std.c ****                 break;
 378              		.loc 1 216 0
 379 02fa 91E1     		b	.L22
 380              	.L7:
 217:.\Generated_Source\PSoC5/USBFS_std.c ****             case USBFS_GET_INTERFACE:
ARM GAS  C:\Users\Robert\AppData\Local\Temp\ccvhms5a.s 			page 12


 218:.\Generated_Source\PSoC5/USBFS_std.c ****                 USBFS_currentTD.count = 1u;
 381              		.loc 1 218 0
 382 02fc 40F20003 		movw	r3, #:lower16:USBFS_currentTD
 383 0300 C0F20003 		movt	r3, #:upper16:USBFS_currentTD
 384 0304 4FF00102 		mov	r2, #1
 385 0308 1A80     		strh	r2, [r3, #0]	@ movhi
 219:.\Generated_Source\PSoC5/USBFS_std.c ****                 USBFS_currentTD.pData = (volatile uint8 *)&USBFS_interfaceSetting[ \
 220:.\Generated_Source\PSoC5/USBFS_std.c ****                                                                             CY_GET_REG8(USBFS_wInde
 386              		.loc 1 220 0
 387 030a 46F20403 		movw	r3, #24580
 388 030e C4F20003 		movt	r3, 16384
 389 0312 1B78     		ldrb	r3, [r3, #0]
 390 0314 DBB2     		uxtb	r3, r3
 219:.\Generated_Source\PSoC5/USBFS_std.c ****                 USBFS_currentTD.pData = (volatile uint8 *)&USBFS_interfaceSetting[ \
 391              		.loc 1 219 0
 392 0316 1A46     		mov	r2, r3
 393 0318 40F20003 		movw	r3, #:lower16:USBFS_interfaceSetting
 394 031c C0F20003 		movt	r3, #:upper16:USBFS_interfaceSetting
 395 0320 D218     		adds	r2, r2, r3
 396 0322 40F20003 		movw	r3, #:lower16:USBFS_currentTD
 397 0326 C0F20003 		movt	r3, #:upper16:USBFS_currentTD
 398 032a 5A60     		str	r2, [r3, #4]
 221:.\Generated_Source\PSoC5/USBFS_std.c ****                 requestHandled  = USBFS_InitControlRead();
 399              		.loc 1 221 0
 400 032c FFF7FEFF 		bl	USBFS_InitControlRead
 401 0330 0346     		mov	r3, r0
 402 0332 FB75     		strb	r3, [r7, #23]
 222:.\Generated_Source\PSoC5/USBFS_std.c ****                 break;
 403              		.loc 1 222 0
 404 0334 00BF     		nop
 405 0336 73E1     		b	.L22
 406              	.L2:
 223:.\Generated_Source\PSoC5/USBFS_std.c ****             default: /* requestHandled is initialized as FALSE by default */
 224:.\Generated_Source\PSoC5/USBFS_std.c ****                 break;
 225:.\Generated_Source\PSoC5/USBFS_std.c ****         }
 226:.\Generated_Source\PSoC5/USBFS_std.c ****     }
 227:.\Generated_Source\PSoC5/USBFS_std.c ****     else {
 228:.\Generated_Source\PSoC5/USBFS_std.c ****         /* Control Write */
 229:.\Generated_Source\PSoC5/USBFS_std.c ****         switch (CY_GET_REG8(USBFS_bRequest))
 407              		.loc 1 229 0
 408 0338 46F20103 		movw	r3, #24577
 409 033c C4F20003 		movt	r3, 16384
 410 0340 1B78     		ldrb	r3, [r3, #0]
 411 0342 DBB2     		uxtb	r3, r3
 412 0344 03F1FF33 		add	r3, r3, #-1
 413 0348 0A2B     		cmp	r3, #10
 414 034a 00F26481 		bhi	.L58
 415 034e 01A2     		adr	r2, .L29
 416 0350 52F823F0 		ldr	pc, [r2, r3, lsl #2]
 417              		.align	2
 418              	.L29:
 419 0354 6F040000 		.word	.L24+1
 420 0358 17060000 		.word	.L58+1
 421 035c 3F050000 		.word	.L25+1
 422 0360 17060000 		.word	.L58+1
 423 0364 81030000 		.word	.L26+1
 424 0368 17060000 		.word	.L58+1
ARM GAS  C:\Users\Robert\AppData\Local\Temp\ccvhms5a.s 			page 13


 425 036c 17060000 		.word	.L58+1
 426 0370 17060000 		.word	.L58+1
 427 0374 A1030000 		.word	.L27+1
 428 0378 17060000 		.word	.L58+1
 429 037c 15040000 		.word	.L28+1
 430              	.L26:
 230:.\Generated_Source\PSoC5/USBFS_std.c ****         {
 231:.\Generated_Source\PSoC5/USBFS_std.c ****             case USBFS_SET_ADDRESS:
 232:.\Generated_Source\PSoC5/USBFS_std.c ****                 USBFS_deviceAddress = CY_GET_REG8(USBFS_wValueLo);
 431              		.loc 1 232 0
 432 0380 46F20203 		movw	r3, #24578
 433 0384 C4F20003 		movt	r3, 16384
 434 0388 1B78     		ldrb	r3, [r3, #0]
 435 038a DAB2     		uxtb	r2, r3
 436 038c 40F20003 		movw	r3, #:lower16:USBFS_deviceAddress
 437 0390 C0F20003 		movt	r3, #:upper16:USBFS_deviceAddress
 438 0394 1A70     		strb	r2, [r3, #0]
 233:.\Generated_Source\PSoC5/USBFS_std.c ****                 requestHandled = USBFS_InitNoDataControlTransfer();
 439              		.loc 1 233 0
 440 0396 FFF7FEFF 		bl	USBFS_InitNoDataControlTransfer
 441 039a 0346     		mov	r3, r0
 442 039c FB75     		strb	r3, [r7, #23]
 234:.\Generated_Source\PSoC5/USBFS_std.c ****                 break;
 443              		.loc 1 234 0
 444 039e 3FE1     		b	.L22
 445              	.L27:
 235:.\Generated_Source\PSoC5/USBFS_std.c ****             case USBFS_SET_CONFIGURATION:
 236:.\Generated_Source\PSoC5/USBFS_std.c ****                 configurationN = CY_GET_REG8(USBFS_wValueLo);
 446              		.loc 1 236 0
 447 03a0 46F20203 		movw	r3, #24578
 448 03a4 C4F20003 		movt	r3, 16384
 449 03a8 1B78     		ldrb	r3, [r3, #0]
 450 03aa BB71     		strb	r3, [r7, #6]
 237:.\Generated_Source\PSoC5/USBFS_std.c ****                 if(configurationN > 0)
 451              		.loc 1 237 0
 452 03ac BB79     		ldrb	r3, [r7, #6]	@ zero_extendqisi2
 453 03ae 002B     		cmp	r3, #0
 454 03b0 07D0     		beq	.L30
 238:.\Generated_Source\PSoC5/USBFS_std.c ****                 {   /* Verify that configuration descriptor exists */
 239:.\Generated_Source\PSoC5/USBFS_std.c ****                     pTmp = USBFS_GetConfigTablePtr(configurationN - 1u);
 455              		.loc 1 239 0
 456 03b2 BB79     		ldrb	r3, [r7, #6]
 457 03b4 03F1FF33 		add	r3, r3, #-1
 458 03b8 DBB2     		uxtb	r3, r3
 459 03ba 1846     		mov	r0, r3
 460 03bc FFF7FEFF 		bl	USBFS_GetConfigTablePtr
 461 03c0 B860     		str	r0, [r7, #8]
 462              	.L30:
 240:.\Generated_Source\PSoC5/USBFS_std.c ****                 }
 241:.\Generated_Source\PSoC5/USBFS_std.c ****                 /* Responds with a Request Error when configuration number is invalid */
 242:.\Generated_Source\PSoC5/USBFS_std.c ****                 if (((configurationN > 0) && (pTmp != NULL)) || (configurationN == 0u))
 463              		.loc 1 242 0
 464 03c2 BB79     		ldrb	r3, [r7, #6]	@ zero_extendqisi2
 465 03c4 002B     		cmp	r3, #0
 466 03c6 02D0     		beq	.L31
 467              		.loc 1 242 0 is_stmt 0 discriminator 1
 468 03c8 BB68     		ldr	r3, [r7, #8]
ARM GAS  C:\Users\Robert\AppData\Local\Temp\ccvhms5a.s 			page 14


 469 03ca 002B     		cmp	r3, #0
 470 03cc 03D1     		bne	.L32
 471              	.L31:
 472              		.loc 1 242 0 discriminator 2
 473 03ce BB79     		ldrb	r3, [r7, #6]	@ zero_extendqisi2
 474 03d0 002B     		cmp	r3, #0
 475 03d2 40F02281 		bne	.L59
 476              	.L32:
 243:.\Generated_Source\PSoC5/USBFS_std.c ****                 {
 244:.\Generated_Source\PSoC5/USBFS_std.c ****                     /* Set new configuration if it has been changed */
 245:.\Generated_Source\PSoC5/USBFS_std.c ****                     if(configurationN != USBFS_configuration)        
 477              		.loc 1 245 0 is_stmt 1
 478 03d6 40F20003 		movw	r3, #:lower16:USBFS_configuration
 479 03da C0F20003 		movt	r3, #:upper16:USBFS_configuration
 480 03de 1B78     		ldrb	r3, [r3, #0]
 481 03e0 DBB2     		uxtb	r3, r3
 482 03e2 BA79     		ldrb	r2, [r7, #6]	@ zero_extendqisi2
 483 03e4 9A42     		cmp	r2, r3
 484 03e6 10D0     		beq	.L34
 246:.\Generated_Source\PSoC5/USBFS_std.c ****                     {
 247:.\Generated_Source\PSoC5/USBFS_std.c ****                         USBFS_configuration = configurationN;
 485              		.loc 1 247 0
 486 03e8 40F20003 		movw	r3, #:lower16:USBFS_configuration
 487 03ec C0F20003 		movt	r3, #:upper16:USBFS_configuration
 488 03f0 BA79     		ldrb	r2, [r7, #6]
 489 03f2 1A70     		strb	r2, [r3, #0]
 248:.\Generated_Source\PSoC5/USBFS_std.c ****                         USBFS_configurationChanged = USBFS_TRUE;
 490              		.loc 1 248 0
 491 03f4 40F20003 		movw	r3, #:lower16:USBFS_configurationChanged
 492 03f8 C0F20003 		movt	r3, #:upper16:USBFS_configurationChanged
 493 03fc 4FF00102 		mov	r2, #1
 494 0400 1A70     		strb	r2, [r3, #0]
 249:.\Generated_Source\PSoC5/USBFS_std.c ****                         USBFS_Config(USBFS_TRUE);
 495              		.loc 1 249 0
 496 0402 4FF00100 		mov	r0, #1
 497 0406 FFF7FEFF 		bl	USBFS_Config
 498              	.L34:
 250:.\Generated_Source\PSoC5/USBFS_std.c ****                     }
 251:.\Generated_Source\PSoC5/USBFS_std.c ****                     requestHandled = USBFS_InitNoDataControlTransfer();
 499              		.loc 1 251 0
 500 040a FFF7FEFF 		bl	USBFS_InitNoDataControlTransfer
 501 040e 0346     		mov	r3, r0
 502 0410 FB75     		strb	r3, [r7, #23]
 252:.\Generated_Source\PSoC5/USBFS_std.c ****                 }
 253:.\Generated_Source\PSoC5/USBFS_std.c ****                 break;
 503              		.loc 1 253 0
 504 0412 02E1     		b	.L59
 505              	.L28:
 254:.\Generated_Source\PSoC5/USBFS_std.c ****             case USBFS_SET_INTERFACE:
 255:.\Generated_Source\PSoC5/USBFS_std.c ****                 if (USBFS_ValidateAlternateSetting() != 0u)
 506              		.loc 1 255 0
 507 0414 FFF7FEFF 		bl	USBFS_ValidateAlternateSetting
 508 0418 0346     		mov	r3, r0
 509 041a 002B     		cmp	r3, #0
 510 041c 00F0FF80 		beq	.L60
 256:.\Generated_Source\PSoC5/USBFS_std.c ****                 {
 257:.\Generated_Source\PSoC5/USBFS_std.c ****                     interfaceNumber = CY_GET_REG8(USBFS_wIndexLo);
ARM GAS  C:\Users\Robert\AppData\Local\Temp\ccvhms5a.s 			page 15


 511              		.loc 1 257 0
 512 0420 46F20403 		movw	r3, #24580
 513 0424 C4F20003 		movt	r3, 16384
 514 0428 1B78     		ldrb	r3, [r3, #0]
 515 042a 7B71     		strb	r3, [r7, #5]
 258:.\Generated_Source\PSoC5/USBFS_std.c ****                     USBFS_interfaceNumber = interfaceNumber;
 516              		.loc 1 258 0
 517 042c 40F20003 		movw	r3, #:lower16:USBFS_interfaceNumber
 518 0430 C0F20003 		movt	r3, #:upper16:USBFS_interfaceNumber
 519 0434 7A79     		ldrb	r2, [r7, #5]
 520 0436 1A70     		strb	r2, [r3, #0]
 259:.\Generated_Source\PSoC5/USBFS_std.c ****                     USBFS_configurationChanged = USBFS_TRUE;
 521              		.loc 1 259 0
 522 0438 40F20003 		movw	r3, #:lower16:USBFS_configurationChanged
 523 043c C0F20003 		movt	r3, #:upper16:USBFS_configurationChanged
 524 0440 4FF00102 		mov	r2, #1
 525 0444 1A70     		strb	r2, [r3, #0]
 260:.\Generated_Source\PSoC5/USBFS_std.c ****                     #if ((USBFS_EP_MA == USBFS__MA_DYNAMIC) && \
 261:.\Generated_Source\PSoC5/USBFS_std.c ****                          (USBFS_EP_MM == USBFS__EP_MANUAL) )
 262:.\Generated_Source\PSoC5/USBFS_std.c ****                         USBFS_Config(USBFS_FALSE);
 263:.\Generated_Source\PSoC5/USBFS_std.c ****                     #else
 264:.\Generated_Source\PSoC5/USBFS_std.c ****                         USBFS_ConfigAltChanged();
 526              		.loc 1 264 0
 527 0446 FFF7FEFF 		bl	USBFS_ConfigAltChanged
 265:.\Generated_Source\PSoC5/USBFS_std.c ****                     #endif /*  (USBFS_EP_MA == USBFS__MA_DYNAMIC) */
 266:.\Generated_Source\PSoC5/USBFS_std.c ****                     /* Update handled Alt setting changes status */
 267:.\Generated_Source\PSoC5/USBFS_std.c ****                     USBFS_interfaceSetting_last[interfaceNumber] =
 528              		.loc 1 267 0
 529 044a 7A79     		ldrb	r2, [r7, #5]	@ zero_extendqisi2
 268:.\Generated_Source\PSoC5/USBFS_std.c ****                          USBFS_interfaceSetting[interfaceNumber];
 530              		.loc 1 268 0
 531 044c 7979     		ldrb	r1, [r7, #5]	@ zero_extendqisi2
 532 044e 40F20003 		movw	r3, #:lower16:USBFS_interfaceSetting
 533 0452 C0F20003 		movt	r3, #:upper16:USBFS_interfaceSetting
 534 0456 5B5C     		ldrb	r3, [r3, r1]
 535 0458 D9B2     		uxtb	r1, r3
 267:.\Generated_Source\PSoC5/USBFS_std.c ****                     USBFS_interfaceSetting_last[interfaceNumber] =
 536              		.loc 1 267 0
 537 045a 40F20003 		movw	r3, #:lower16:USBFS_interfaceSetting_last
 538 045e C0F20003 		movt	r3, #:upper16:USBFS_interfaceSetting_last
 539 0462 9954     		strb	r1, [r3, r2]
 269:.\Generated_Source\PSoC5/USBFS_std.c ****                     requestHandled = USBFS_InitNoDataControlTransfer();
 540              		.loc 1 269 0
 541 0464 FFF7FEFF 		bl	USBFS_InitNoDataControlTransfer
 542 0468 0346     		mov	r3, r0
 543 046a FB75     		strb	r3, [r7, #23]
 270:.\Generated_Source\PSoC5/USBFS_std.c ****                 }
 271:.\Generated_Source\PSoC5/USBFS_std.c ****                 break;
 544              		.loc 1 271 0
 545 046c D7E0     		b	.L60
 546              	.L24:
 272:.\Generated_Source\PSoC5/USBFS_std.c ****             case USBFS_CLEAR_FEATURE:
 273:.\Generated_Source\PSoC5/USBFS_std.c ****                 switch (CY_GET_REG8(USBFS_bmRequestType) & USBFS_RQST_RCPT_MASK)
 547              		.loc 1 273 0
 548 046e 4FF4C043 		mov	r3, #24576
 549 0472 C4F20003 		movt	r3, 16384
 550 0476 1B78     		ldrb	r3, [r3, #0]
ARM GAS  C:\Users\Robert\AppData\Local\Temp\ccvhms5a.s 			page 16


 551 0478 DBB2     		uxtb	r3, r3
 552 047a 03F00303 		and	r3, r3, #3
 553 047e 012B     		cmp	r3, #1
 554 0480 2BD0     		beq	.L38
 555 0482 012B     		cmp	r3, #1
 556 0484 0ED3     		bcc	.L37
 557 0486 022B     		cmp	r3, #2
 558 0488 52D1     		bne	.L54
 559              	.L39:
 274:.\Generated_Source\PSoC5/USBFS_std.c ****                 {
 275:.\Generated_Source\PSoC5/USBFS_std.c ****                     case USBFS_RQST_RCPT_EP:
 276:.\Generated_Source\PSoC5/USBFS_std.c ****                         if (CY_GET_REG8(USBFS_wValueLo) == USBFS_ENDPOINT_HALT)
 560              		.loc 1 276 0
 561 048a 46F20203 		movw	r3, #24578
 562 048e C4F20003 		movt	r3, 16384
 563 0492 1B78     		ldrb	r3, [r3, #0]
 564 0494 DBB2     		uxtb	r3, r3
 565 0496 002B     		cmp	r3, #0
 566 0498 4BD1     		bne	.L61
 277:.\Generated_Source\PSoC5/USBFS_std.c ****                         {
 278:.\Generated_Source\PSoC5/USBFS_std.c ****                             requestHandled = USBFS_ClearEndpointHalt();
 567              		.loc 1 278 0
 568 049a FFF7FEFF 		bl	USBFS_ClearEndpointHalt
 569 049e 0346     		mov	r3, r0
 570 04a0 FB75     		strb	r3, [r7, #23]
 279:.\Generated_Source\PSoC5/USBFS_std.c ****                         }
 280:.\Generated_Source\PSoC5/USBFS_std.c ****                         break;
 571              		.loc 1 280 0
 572 04a2 46E0     		b	.L61
 573              	.L37:
 281:.\Generated_Source\PSoC5/USBFS_std.c ****                     case USBFS_RQST_RCPT_DEV:
 282:.\Generated_Source\PSoC5/USBFS_std.c ****                         /* Clear device REMOTE_WAKEUP */
 283:.\Generated_Source\PSoC5/USBFS_std.c ****                         if (CY_GET_REG8(USBFS_wValueLo) == USBFS_DEVICE_REMOTE_WAKEUP)
 574              		.loc 1 283 0
 575 04a4 46F20203 		movw	r3, #24578
 576 04a8 C4F20003 		movt	r3, 16384
 577 04ac 1B78     		ldrb	r3, [r3, #0]
 578 04ae DBB2     		uxtb	r3, r3
 579 04b0 012B     		cmp	r3, #1
 580 04b2 40D1     		bne	.L62
 284:.\Generated_Source\PSoC5/USBFS_std.c ****                         {
 285:.\Generated_Source\PSoC5/USBFS_std.c ****                             USBFS_deviceStatus &= (uint8)~USBFS_DEVICE_STATUS_REMOTE_WAKEUP;
 581              		.loc 1 285 0
 582 04b4 40F20003 		movw	r3, #:lower16:USBFS_deviceStatus
 583 04b8 C0F20003 		movt	r3, #:upper16:USBFS_deviceStatus
 584 04bc 1B78     		ldrb	r3, [r3, #0]
 585 04be DBB2     		uxtb	r3, r3
 586 04c0 23F00203 		bic	r3, r3, #2
 587 04c4 DAB2     		uxtb	r2, r3
 588 04c6 40F20003 		movw	r3, #:lower16:USBFS_deviceStatus
 589 04ca C0F20003 		movt	r3, #:upper16:USBFS_deviceStatus
 590 04ce 1A70     		strb	r2, [r3, #0]
 286:.\Generated_Source\PSoC5/USBFS_std.c ****                             requestHandled = USBFS_InitNoDataControlTransfer();
 591              		.loc 1 286 0
 592 04d0 FFF7FEFF 		bl	USBFS_InitNoDataControlTransfer
 593 04d4 0346     		mov	r3, r0
 594 04d6 FB75     		strb	r3, [r7, #23]
ARM GAS  C:\Users\Robert\AppData\Local\Temp\ccvhms5a.s 			page 17


 287:.\Generated_Source\PSoC5/USBFS_std.c ****                         }
 288:.\Generated_Source\PSoC5/USBFS_std.c ****                         break;
 595              		.loc 1 288 0
 596 04d8 2DE0     		b	.L62
 597              	.L38:
 289:.\Generated_Source\PSoC5/USBFS_std.c ****                     case USBFS_RQST_RCPT_IFC:
 290:.\Generated_Source\PSoC5/USBFS_std.c ****                         /* Validate interfaceNumber */
 291:.\Generated_Source\PSoC5/USBFS_std.c ****                         if (CY_GET_REG8(USBFS_wIndexLo) < USBFS_MAX_INTERFACES_NUMBER)
 598              		.loc 1 291 0
 599 04da 46F20403 		movw	r3, #24580
 600 04de C4F20003 		movt	r3, 16384
 601 04e2 1B78     		ldrb	r3, [r3, #0]
 602 04e4 DBB2     		uxtb	r3, r3
 603 04e6 002B     		cmp	r3, #0
 604 04e8 27D1     		bne	.L63
 292:.\Generated_Source\PSoC5/USBFS_std.c ****                         {
 293:.\Generated_Source\PSoC5/USBFS_std.c ****                             USBFS_interfaceStatus[CY_GET_REG8(USBFS_wIndexLo)] &=
 605              		.loc 1 293 0
 606 04ea 46F20403 		movw	r3, #24580
 607 04ee C4F20003 		movt	r3, 16384
 608 04f2 1B78     		ldrb	r3, [r3, #0]
 609 04f4 DBB2     		uxtb	r3, r3
 610 04f6 1A46     		mov	r2, r3
 611 04f8 1946     		mov	r1, r3
 612 04fa 40F20003 		movw	r3, #:lower16:USBFS_interfaceStatus
 613 04fe C0F20003 		movt	r3, #:upper16:USBFS_interfaceStatus
 614 0502 5B5C     		ldrb	r3, [r3, r1]
 615 0504 D9B2     		uxtb	r1, r3
 294:.\Generated_Source\PSoC5/USBFS_std.c ****                                                                 (uint8)~(CY_GET_REG8(USBFS_wValueLo
 616              		.loc 1 294 0
 617 0506 46F20203 		movw	r3, #24578
 618 050a C4F20003 		movt	r3, 16384
 619 050e 1B78     		ldrb	r3, [r3, #0]
 620 0510 DBB2     		uxtb	r3, r3
 621 0512 6FEA0303 		mvn	r3, r3
 622 0516 DBB2     		uxtb	r3, r3
 293:.\Generated_Source\PSoC5/USBFS_std.c ****                             USBFS_interfaceStatus[CY_GET_REG8(USBFS_wIndexLo)] &=
 623              		.loc 1 293 0
 624 0518 0B40     		ands	r3, r3, r1
 625 051a D9B2     		uxtb	r1, r3
 626 051c 40F20003 		movw	r3, #:lower16:USBFS_interfaceStatus
 627 0520 C0F20003 		movt	r3, #:upper16:USBFS_interfaceStatus
 628 0524 9954     		strb	r1, [r3, r2]
 295:.\Generated_Source\PSoC5/USBFS_std.c ****                             requestHandled = USBFS_InitNoDataControlTransfer();
 629              		.loc 1 295 0
 630 0526 FFF7FEFF 		bl	USBFS_InitNoDataControlTransfer
 631 052a 0346     		mov	r3, r0
 632 052c FB75     		strb	r3, [r7, #23]
 296:.\Generated_Source\PSoC5/USBFS_std.c ****                         }
 297:.\Generated_Source\PSoC5/USBFS_std.c ****                         break;
 633              		.loc 1 297 0
 634 052e 04E0     		b	.L63
 635              	.L54:
 298:.\Generated_Source\PSoC5/USBFS_std.c ****                     default:    /* requestHandled is initialized as FALSE by default */
 299:.\Generated_Source\PSoC5/USBFS_std.c ****                         break;
 636              		.loc 1 299 0
 637 0530 04E0     		b	.L41
ARM GAS  C:\Users\Robert\AppData\Local\Temp\ccvhms5a.s 			page 18


 638              	.L61:
 280:.\Generated_Source\PSoC5/USBFS_std.c ****                         break;
 639              		.loc 1 280 0
 640 0532 00BF     		nop
 641 0534 02E0     		b	.L41
 642              	.L62:
 288:.\Generated_Source\PSoC5/USBFS_std.c ****                         break;
 643              		.loc 1 288 0
 644 0536 00BF     		nop
 645 0538 00E0     		b	.L41
 646              	.L63:
 297:.\Generated_Source\PSoC5/USBFS_std.c ****                         break;
 647              		.loc 1 297 0
 648 053a 00BF     		nop
 649              	.L41:
 300:.\Generated_Source\PSoC5/USBFS_std.c ****                 }
 301:.\Generated_Source\PSoC5/USBFS_std.c ****                 break;
 650              		.loc 1 301 0
 651 053c 70E0     		b	.L22
 652              	.L25:
 302:.\Generated_Source\PSoC5/USBFS_std.c ****             case USBFS_SET_FEATURE:
 303:.\Generated_Source\PSoC5/USBFS_std.c ****                 switch (CY_GET_REG8(USBFS_bmRequestType) & USBFS_RQST_RCPT_MASK)
 653              		.loc 1 303 0
 654 053e 4FF4C043 		mov	r3, #24576
 655 0542 C4F20003 		movt	r3, 16384
 656 0546 1B78     		ldrb	r3, [r3, #0]
 657 0548 DBB2     		uxtb	r3, r3
 658 054a 03F00303 		and	r3, r3, #3
 659 054e 012B     		cmp	r3, #1
 660 0550 2BD0     		beq	.L46
 661 0552 012B     		cmp	r3, #1
 662 0554 0ED3     		bcc	.L45
 663 0556 022B     		cmp	r3, #2
 664 0558 52D1     		bne	.L55
 665              	.L47:
 304:.\Generated_Source\PSoC5/USBFS_std.c ****                 {
 305:.\Generated_Source\PSoC5/USBFS_std.c ****                     case USBFS_RQST_RCPT_EP:
 306:.\Generated_Source\PSoC5/USBFS_std.c ****                         if (CY_GET_REG8(USBFS_wValueLo) == USBFS_ENDPOINT_HALT)
 666              		.loc 1 306 0
 667 055a 46F20203 		movw	r3, #24578
 668 055e C4F20003 		movt	r3, 16384
 669 0562 1B78     		ldrb	r3, [r3, #0]
 670 0564 DBB2     		uxtb	r3, r3
 671 0566 002B     		cmp	r3, #0
 672 0568 4BD1     		bne	.L64
 307:.\Generated_Source\PSoC5/USBFS_std.c ****                         {
 308:.\Generated_Source\PSoC5/USBFS_std.c ****                             requestHandled = USBFS_SetEndpointHalt();
 673              		.loc 1 308 0
 674 056a FFF7FEFF 		bl	USBFS_SetEndpointHalt
 675 056e 0346     		mov	r3, r0
 676 0570 FB75     		strb	r3, [r7, #23]
 309:.\Generated_Source\PSoC5/USBFS_std.c ****                         }
 310:.\Generated_Source\PSoC5/USBFS_std.c ****                         break;
 677              		.loc 1 310 0
 678 0572 46E0     		b	.L64
 679              	.L45:
 311:.\Generated_Source\PSoC5/USBFS_std.c ****                     case USBFS_RQST_RCPT_DEV:
ARM GAS  C:\Users\Robert\AppData\Local\Temp\ccvhms5a.s 			page 19


 312:.\Generated_Source\PSoC5/USBFS_std.c ****                         /* Set device REMOTE_WAKEUP */
 313:.\Generated_Source\PSoC5/USBFS_std.c ****                         if (CY_GET_REG8(USBFS_wValueLo) == USBFS_DEVICE_REMOTE_WAKEUP)
 680              		.loc 1 313 0
 681 0574 46F20203 		movw	r3, #24578
 682 0578 C4F20003 		movt	r3, 16384
 683 057c 1B78     		ldrb	r3, [r3, #0]
 684 057e DBB2     		uxtb	r3, r3
 685 0580 012B     		cmp	r3, #1
 686 0582 40D1     		bne	.L65
 314:.\Generated_Source\PSoC5/USBFS_std.c ****                         {
 315:.\Generated_Source\PSoC5/USBFS_std.c ****                             USBFS_deviceStatus |= USBFS_DEVICE_STATUS_REMOTE_WAKEUP;
 687              		.loc 1 315 0
 688 0584 40F20003 		movw	r3, #:lower16:USBFS_deviceStatus
 689 0588 C0F20003 		movt	r3, #:upper16:USBFS_deviceStatus
 690 058c 1B78     		ldrb	r3, [r3, #0]
 691 058e DBB2     		uxtb	r3, r3
 692 0590 43F00203 		orr	r3, r3, #2
 693 0594 DAB2     		uxtb	r2, r3
 694 0596 40F20003 		movw	r3, #:lower16:USBFS_deviceStatus
 695 059a C0F20003 		movt	r3, #:upper16:USBFS_deviceStatus
 696 059e 1A70     		strb	r2, [r3, #0]
 316:.\Generated_Source\PSoC5/USBFS_std.c ****                             requestHandled = USBFS_InitNoDataControlTransfer();
 697              		.loc 1 316 0
 698 05a0 FFF7FEFF 		bl	USBFS_InitNoDataControlTransfer
 699 05a4 0346     		mov	r3, r0
 700 05a6 FB75     		strb	r3, [r7, #23]
 317:.\Generated_Source\PSoC5/USBFS_std.c ****                         }
 318:.\Generated_Source\PSoC5/USBFS_std.c ****                         break;
 701              		.loc 1 318 0
 702 05a8 2DE0     		b	.L65
 703              	.L46:
 319:.\Generated_Source\PSoC5/USBFS_std.c ****                     case USBFS_RQST_RCPT_IFC:
 320:.\Generated_Source\PSoC5/USBFS_std.c ****                         /* Validate interfaceNumber */
 321:.\Generated_Source\PSoC5/USBFS_std.c ****                         if (CY_GET_REG8(USBFS_wIndexLo) < USBFS_MAX_INTERFACES_NUMBER)
 704              		.loc 1 321 0
 705 05aa 46F20403 		movw	r3, #24580
 706 05ae C4F20003 		movt	r3, 16384
 707 05b2 1B78     		ldrb	r3, [r3, #0]
 708 05b4 DBB2     		uxtb	r3, r3
 709 05b6 002B     		cmp	r3, #0
 710 05b8 27D1     		bne	.L66
 322:.\Generated_Source\PSoC5/USBFS_std.c ****                         {
 323:.\Generated_Source\PSoC5/USBFS_std.c ****                             USBFS_interfaceStatus[CY_GET_REG8(USBFS_wIndexLo)] &=
 711              		.loc 1 323 0
 712 05ba 46F20403 		movw	r3, #24580
 713 05be C4F20003 		movt	r3, 16384
 714 05c2 1B78     		ldrb	r3, [r3, #0]
 715 05c4 DBB2     		uxtb	r3, r3
 716 05c6 1A46     		mov	r2, r3
 717 05c8 1946     		mov	r1, r3
 718 05ca 40F20003 		movw	r3, #:lower16:USBFS_interfaceStatus
 719 05ce C0F20003 		movt	r3, #:upper16:USBFS_interfaceStatus
 720 05d2 5B5C     		ldrb	r3, [r3, r1]
 721 05d4 D9B2     		uxtb	r1, r3
 324:.\Generated_Source\PSoC5/USBFS_std.c ****                                                                 (uint8)~(CY_GET_REG8(USBFS_wValueLo
 722              		.loc 1 324 0
 723 05d6 46F20203 		movw	r3, #24578
ARM GAS  C:\Users\Robert\AppData\Local\Temp\ccvhms5a.s 			page 20


 724 05da C4F20003 		movt	r3, 16384
 725 05de 1B78     		ldrb	r3, [r3, #0]
 726 05e0 DBB2     		uxtb	r3, r3
 727 05e2 6FEA0303 		mvn	r3, r3
 728 05e6 DBB2     		uxtb	r3, r3
 323:.\Generated_Source\PSoC5/USBFS_std.c ****                             USBFS_interfaceStatus[CY_GET_REG8(USBFS_wIndexLo)] &=
 729              		.loc 1 323 0
 730 05e8 0B40     		ands	r3, r3, r1
 731 05ea D9B2     		uxtb	r1, r3
 732 05ec 40F20003 		movw	r3, #:lower16:USBFS_interfaceStatus
 733 05f0 C0F20003 		movt	r3, #:upper16:USBFS_interfaceStatus
 734 05f4 9954     		strb	r1, [r3, r2]
 325:.\Generated_Source\PSoC5/USBFS_std.c ****                             requestHandled = USBFS_InitNoDataControlTransfer();
 735              		.loc 1 325 0
 736 05f6 FFF7FEFF 		bl	USBFS_InitNoDataControlTransfer
 737 05fa 0346     		mov	r3, r0
 738 05fc FB75     		strb	r3, [r7, #23]
 326:.\Generated_Source\PSoC5/USBFS_std.c ****                         }
 327:.\Generated_Source\PSoC5/USBFS_std.c ****                         break;
 739              		.loc 1 327 0
 740 05fe 04E0     		b	.L66
 741              	.L55:
 328:.\Generated_Source\PSoC5/USBFS_std.c ****                     default:    /* requestHandled is initialized as FALSE by default */
 329:.\Generated_Source\PSoC5/USBFS_std.c ****                         break;
 742              		.loc 1 329 0
 743 0600 04E0     		b	.L49
 744              	.L64:
 310:.\Generated_Source\PSoC5/USBFS_std.c ****                         break;
 745              		.loc 1 310 0
 746 0602 00BF     		nop
 747 0604 02E0     		b	.L49
 748              	.L65:
 318:.\Generated_Source\PSoC5/USBFS_std.c ****                         break;
 749              		.loc 1 318 0
 750 0606 00BF     		nop
 751 0608 00E0     		b	.L49
 752              	.L66:
 327:.\Generated_Source\PSoC5/USBFS_std.c ****                         break;
 753              		.loc 1 327 0
 754 060a 00BF     		nop
 755              	.L49:
 330:.\Generated_Source\PSoC5/USBFS_std.c ****                 }
 331:.\Generated_Source\PSoC5/USBFS_std.c ****                 break;
 756              		.loc 1 331 0
 757 060c 08E0     		b	.L22
 758              	.L56:
 224:.\Generated_Source\PSoC5/USBFS_std.c ****                 break;
 759              		.loc 1 224 0
 760 060e 00BF     		nop
 761 0610 06E0     		b	.L22
 762              	.L57:
 189:.\Generated_Source\PSoC5/USBFS_std.c ****                 break;
 763              		.loc 1 189 0
 764 0612 00BF     		nop
 765 0614 04E0     		b	.L22
 766              	.L58:
 332:.\Generated_Source\PSoC5/USBFS_std.c ****             default:    /* requestHandled is initialized as FALSE by default */
ARM GAS  C:\Users\Robert\AppData\Local\Temp\ccvhms5a.s 			page 21


 333:.\Generated_Source\PSoC5/USBFS_std.c ****                 break;
 767              		.loc 1 333 0
 768 0616 00BF     		nop
 769 0618 02E0     		b	.L22
 770              	.L59:
 253:.\Generated_Source\PSoC5/USBFS_std.c ****                 break;
 771              		.loc 1 253 0
 772 061a 00BF     		nop
 773 061c 00E0     		b	.L22
 774              	.L60:
 271:.\Generated_Source\PSoC5/USBFS_std.c ****                 break;
 775              		.loc 1 271 0
 776 061e 00BF     		nop
 777              	.L22:
 334:.\Generated_Source\PSoC5/USBFS_std.c ****         }
 335:.\Generated_Source\PSoC5/USBFS_std.c ****     }
 336:.\Generated_Source\PSoC5/USBFS_std.c ****     return(requestHandled);
 778              		.loc 1 336 0
 779 0620 FB7D     		ldrb	r3, [r7, #23]	@ zero_extendqisi2
 337:.\Generated_Source\PSoC5/USBFS_std.c **** }
 780              		.loc 1 337 0
 781 0622 1846     		mov	r0, r3
 782 0624 07F11807 		add	r7, r7, #24
 783 0628 BD46     		mov	sp, r7
 784 062a 80BD     		pop	{r7, pc}
 785              		.cfi_endproc
 786              	.LFE0:
 787              		.size	USBFS_HandleStandardRqst, .-USBFS_HandleStandardRqst
 788              		.section	.text.USBFS_ConfigReg,"ax",%progbits
 789              		.align	2
 790              		.global	USBFS_ConfigReg
 791              		.thumb
 792              		.thumb_func
 793              		.type	USBFS_ConfigReg, %function
 794              	USBFS_ConfigReg:
 795              	.LFB1:
 338:.\Generated_Source\PSoC5/USBFS_std.c **** 
 339:.\Generated_Source\PSoC5/USBFS_std.c **** 
 340:.\Generated_Source\PSoC5/USBFS_std.c **** #if defined(USBFS_ENABLE_IDSN_STRING)
 341:.\Generated_Source\PSoC5/USBFS_std.c **** 
 342:.\Generated_Source\PSoC5/USBFS_std.c ****     /***************************************************************************
 343:.\Generated_Source\PSoC5/USBFS_std.c ****     * Function Name: USBFS_ReadDieID
 344:.\Generated_Source\PSoC5/USBFS_std.c ****     ****************************************************************************
 345:.\Generated_Source\PSoC5/USBFS_std.c ****     *
 346:.\Generated_Source\PSoC5/USBFS_std.c ****     * Summary:
 347:.\Generated_Source\PSoC5/USBFS_std.c ****     *  This routine read Die ID and generate Serial Number string descriptor.
 348:.\Generated_Source\PSoC5/USBFS_std.c ****     *
 349:.\Generated_Source\PSoC5/USBFS_std.c ****     * Parameters:
 350:.\Generated_Source\PSoC5/USBFS_std.c ****     *  descr:  pointer on string descriptor.
 351:.\Generated_Source\PSoC5/USBFS_std.c ****     *
 352:.\Generated_Source\PSoC5/USBFS_std.c ****     * Return:
 353:.\Generated_Source\PSoC5/USBFS_std.c ****     *  None.
 354:.\Generated_Source\PSoC5/USBFS_std.c ****     *
 355:.\Generated_Source\PSoC5/USBFS_std.c ****     * Reentrant:
 356:.\Generated_Source\PSoC5/USBFS_std.c ****     *  No.
 357:.\Generated_Source\PSoC5/USBFS_std.c ****     *
 358:.\Generated_Source\PSoC5/USBFS_std.c ****     ***************************************************************************/
ARM GAS  C:\Users\Robert\AppData\Local\Temp\ccvhms5a.s 			page 22


 359:.\Generated_Source\PSoC5/USBFS_std.c ****     void USBFS_ReadDieID(uint8 descr[]) 
 360:.\Generated_Source\PSoC5/USBFS_std.c ****     {
 361:.\Generated_Source\PSoC5/USBFS_std.c ****         uint8 i;
 362:.\Generated_Source\PSoC5/USBFS_std.c ****         uint8 j = 0u;
 363:.\Generated_Source\PSoC5/USBFS_std.c ****         uint8 value;
 364:.\Generated_Source\PSoC5/USBFS_std.c ****         const char8 CYCODE hex[16u] = "0123456789ABCDEF";
 365:.\Generated_Source\PSoC5/USBFS_std.c **** 
 366:.\Generated_Source\PSoC5/USBFS_std.c ****         /* Check descriptor validation */
 367:.\Generated_Source\PSoC5/USBFS_std.c ****         if( descr != NULL)
 368:.\Generated_Source\PSoC5/USBFS_std.c ****         {
 369:.\Generated_Source\PSoC5/USBFS_std.c ****             descr[0u] = USBFS_IDSN_DESCR_LENGTH;
 370:.\Generated_Source\PSoC5/USBFS_std.c ****             descr[1u] = USBFS_DESCR_STRING;
 371:.\Generated_Source\PSoC5/USBFS_std.c **** 
 372:.\Generated_Source\PSoC5/USBFS_std.c ****             /* fill descriptor */
 373:.\Generated_Source\PSoC5/USBFS_std.c ****             for(i = 2u; i < USBFS_IDSN_DESCR_LENGTH; i += 4u)
 374:.\Generated_Source\PSoC5/USBFS_std.c ****             {
 375:.\Generated_Source\PSoC5/USBFS_std.c ****                 value = CY_GET_XTND_REG8((void CYFAR *)(USBFS_DIE_ID + j));
 376:.\Generated_Source\PSoC5/USBFS_std.c ****                 j++;
 377:.\Generated_Source\PSoC5/USBFS_std.c ****                 descr[i] = (uint8)hex[value >> 4u];
 378:.\Generated_Source\PSoC5/USBFS_std.c ****                 descr[i + 2u] = (uint8)hex[value & 0x0Fu];
 379:.\Generated_Source\PSoC5/USBFS_std.c ****             }
 380:.\Generated_Source\PSoC5/USBFS_std.c ****         }
 381:.\Generated_Source\PSoC5/USBFS_std.c ****     }
 382:.\Generated_Source\PSoC5/USBFS_std.c **** 
 383:.\Generated_Source\PSoC5/USBFS_std.c **** #endif /*  USBFS_ENABLE_IDSN_STRING */
 384:.\Generated_Source\PSoC5/USBFS_std.c **** 
 385:.\Generated_Source\PSoC5/USBFS_std.c **** 
 386:.\Generated_Source\PSoC5/USBFS_std.c **** /*******************************************************************************
 387:.\Generated_Source\PSoC5/USBFS_std.c **** * Function Name: USBFS_ConfigReg
 388:.\Generated_Source\PSoC5/USBFS_std.c **** ********************************************************************************
 389:.\Generated_Source\PSoC5/USBFS_std.c **** *
 390:.\Generated_Source\PSoC5/USBFS_std.c **** * Summary:
 391:.\Generated_Source\PSoC5/USBFS_std.c **** *  This routine configures hardware registers from the variables.
 392:.\Generated_Source\PSoC5/USBFS_std.c **** *  It is called from USBFS_Config() function and from RestoreConfig
 393:.\Generated_Source\PSoC5/USBFS_std.c **** *  after Wakeup.
 394:.\Generated_Source\PSoC5/USBFS_std.c **** *
 395:.\Generated_Source\PSoC5/USBFS_std.c **** * Parameters:
 396:.\Generated_Source\PSoC5/USBFS_std.c **** *  None.
 397:.\Generated_Source\PSoC5/USBFS_std.c **** *
 398:.\Generated_Source\PSoC5/USBFS_std.c **** * Return:
 399:.\Generated_Source\PSoC5/USBFS_std.c **** *  None.
 400:.\Generated_Source\PSoC5/USBFS_std.c **** *
 401:.\Generated_Source\PSoC5/USBFS_std.c **** *******************************************************************************/
 402:.\Generated_Source\PSoC5/USBFS_std.c **** void USBFS_ConfigReg(void) 
 403:.\Generated_Source\PSoC5/USBFS_std.c **** {
 796              		.loc 1 403 0
 797              		.cfi_startproc
 798              		@ args = 0, pretend = 0, frame = 8
 799              		@ frame_needed = 1, uses_anonymous_args = 0
 800              		@ link register save eliminated.
 801 0000 80B4     		push	{r7}
 802              	.LCFI3:
 803              		.cfi_def_cfa_offset 4
 804              		.cfi_offset 7, -4
 805 0002 83B0     		sub	sp, sp, #12
 806              	.LCFI4:
 807              		.cfi_def_cfa_offset 16
ARM GAS  C:\Users\Robert\AppData\Local\Temp\ccvhms5a.s 			page 23


 808 0004 00AF     		add	r7, sp, #0
 809              	.LCFI5:
 810              		.cfi_def_cfa_register 7
 404:.\Generated_Source\PSoC5/USBFS_std.c ****     uint8 ep;
 405:.\Generated_Source\PSoC5/USBFS_std.c ****     uint8 i;
 406:.\Generated_Source\PSoC5/USBFS_std.c ****     #if(USBFS_EP_MM == USBFS__EP_DMAAUTO)
 407:.\Generated_Source\PSoC5/USBFS_std.c ****         uint8 epType = 0u;
 408:.\Generated_Source\PSoC5/USBFS_std.c ****     #endif /*  USBFS_EP_MM == USBFS__EP_DMAAUTO */
 409:.\Generated_Source\PSoC5/USBFS_std.c **** 
 410:.\Generated_Source\PSoC5/USBFS_std.c ****     /* Set the endpoint buffer addresses */
 411:.\Generated_Source\PSoC5/USBFS_std.c ****     ep = USBFS_EP1;
 811              		.loc 1 411 0
 812 0006 4FF00103 		mov	r3, #1
 813 000a FB71     		strb	r3, [r7, #7]
 412:.\Generated_Source\PSoC5/USBFS_std.c ****     for (i = 0u; i < 0x80u; i+= 0x10u)
 814              		.loc 1 412 0
 815 000c 4FF00003 		mov	r3, #0
 816 0010 BB71     		strb	r3, [r7, #6]
 817 0012 E5E0     		b	.L68
 818              	.L72:
 413:.\Generated_Source\PSoC5/USBFS_std.c ****     {
 414:.\Generated_Source\PSoC5/USBFS_std.c ****         CY_SET_REG8((reg8 *)(USBFS_ARB_EP1_CFG_IND + i), USBFS_ARB_EPX_CFG_DEFAULT);
 819              		.loc 1 414 0
 820 0014 BB79     		ldrb	r3, [r7, #6]	@ zero_extendqisi2
 821 0016 03F18043 		add	r3, r3, #1073741824
 822 001a 03F5C143 		add	r3, r3, #24704
 823 001e 4FF00C02 		mov	r2, #12
 824 0022 1A70     		strb	r2, [r3, #0]
 415:.\Generated_Source\PSoC5/USBFS_std.c ****         #if(USBFS_EP_MM != USBFS__EP_MANUAL)
 416:.\Generated_Source\PSoC5/USBFS_std.c ****             /* Enable all Arbiter EP Interrupts : err, buf under, buf over, dma gnt(mode2 only), in
 417:.\Generated_Source\PSoC5/USBFS_std.c ****             CY_SET_REG8((reg8 *)(USBFS_ARB_EP1_INT_EN_IND + i), USBFS_ARB_EPX_INT_MASK);
 418:.\Generated_Source\PSoC5/USBFS_std.c ****         #endif   /*  USBFS_EP_MM != USBFS__EP_MANUAL */
 419:.\Generated_Source\PSoC5/USBFS_std.c **** 
 420:.\Generated_Source\PSoC5/USBFS_std.c ****         if(USBFS_EP[ep].epMode != USBFS_MODE_DISABLE)
 825              		.loc 1 420 0
 826 0024 F979     		ldrb	r1, [r7, #7]	@ zero_extendqisi2
 827 0026 40F20002 		movw	r2, #:lower16:USBFS_EP
 828 002a C0F20002 		movt	r2, #:upper16:USBFS_EP
 829 002e 0B46     		mov	r3, r1
 830 0030 4FEA4303 		lsl	r3, r3, #1
 831 0034 5B18     		adds	r3, r3, r1
 832 0036 4FEA8303 		lsl	r3, r3, #2
 833 003a D318     		adds	r3, r2, r3
 834 003c 5B79     		ldrb	r3, [r3, #5]
 835 003e DBB2     		uxtb	r3, r3
 836 0040 002B     		cmp	r3, #0
 837 0042 25D0     		beq	.L69
 421:.\Generated_Source\PSoC5/USBFS_std.c ****         {
 422:.\Generated_Source\PSoC5/USBFS_std.c ****             if((USBFS_EP[ep].addr & USBFS_DIR_IN) != 0u )
 838              		.loc 1 422 0
 839 0044 F979     		ldrb	r1, [r7, #7]	@ zero_extendqisi2
 840 0046 40F20002 		movw	r2, #:lower16:USBFS_EP
 841 004a C0F20002 		movt	r2, #:upper16:USBFS_EP
 842 004e 0B46     		mov	r3, r1
 843 0050 4FEA4303 		lsl	r3, r3, #1
 844 0054 5B18     		adds	r3, r3, r1
 845 0056 4FEA8303 		lsl	r3, r3, #2
ARM GAS  C:\Users\Robert\AppData\Local\Temp\ccvhms5a.s 			page 24


 846 005a D318     		adds	r3, r2, r3
 847 005c 1B79     		ldrb	r3, [r3, #4]
 848 005e DBB2     		uxtb	r3, r3
 849 0060 DBB2     		uxtb	r3, r3
 850 0062 5BB2     		sxtb	r3, r3
 851 0064 002B     		cmp	r3, #0
 852 0066 09DA     		bge	.L70
 423:.\Generated_Source\PSoC5/USBFS_std.c ****             {
 424:.\Generated_Source\PSoC5/USBFS_std.c ****                 CY_SET_REG8((reg8 *)(USBFS_SIE_EP1_CR0_IND + i), USBFS_MODE_NAK_IN);
 853              		.loc 1 424 0
 854 0068 BA79     		ldrb	r2, [r7, #6]	@ zero_extendqisi2
 855 006a 46F20E03 		movw	r3, #24590
 856 006e C4F20003 		movt	r3, 16384
 857 0072 D318     		adds	r3, r2, r3
 858 0074 4FF00C02 		mov	r2, #12
 859 0078 1A70     		strb	r2, [r3, #0]
 860 007a 12E0     		b	.L71
 861              	.L70:
 425:.\Generated_Source\PSoC5/USBFS_std.c ****             }
 426:.\Generated_Source\PSoC5/USBFS_std.c ****             else
 427:.\Generated_Source\PSoC5/USBFS_std.c ****             {
 428:.\Generated_Source\PSoC5/USBFS_std.c ****                 CY_SET_REG8((reg8 *)(USBFS_SIE_EP1_CR0_IND + i), USBFS_MODE_NAK_OUT);
 862              		.loc 1 428 0
 863 007c BA79     		ldrb	r2, [r7, #6]	@ zero_extendqisi2
 864 007e 46F20E03 		movw	r3, #24590
 865 0082 C4F20003 		movt	r3, 16384
 866 0086 D318     		adds	r3, r2, r3
 867 0088 4FF00802 		mov	r2, #8
 868 008c 1A70     		strb	r2, [r3, #0]
 869 008e 08E0     		b	.L71
 870              	.L69:
 429:.\Generated_Source\PSoC5/USBFS_std.c ****                 /* Prepare EP type mask for automatic memory allocation */
 430:.\Generated_Source\PSoC5/USBFS_std.c ****                 #if(USBFS_EP_MM == USBFS__EP_DMAAUTO)
 431:.\Generated_Source\PSoC5/USBFS_std.c ****                     epType |= (uint8)(0x01u << (ep - USBFS_EP1));
 432:.\Generated_Source\PSoC5/USBFS_std.c ****                 #endif /*  USBFS_EP_MM == USBFS__EP_DMAAUTO */
 433:.\Generated_Source\PSoC5/USBFS_std.c ****             }
 434:.\Generated_Source\PSoC5/USBFS_std.c ****         }
 435:.\Generated_Source\PSoC5/USBFS_std.c ****         else
 436:.\Generated_Source\PSoC5/USBFS_std.c ****         {
 437:.\Generated_Source\PSoC5/USBFS_std.c ****             CY_SET_REG8((reg8 *)(USBFS_SIE_EP1_CR0_IND + i), USBFS_MODE_STALL_DATA_EP);
 871              		.loc 1 437 0
 872 0090 BA79     		ldrb	r2, [r7, #6]	@ zero_extendqisi2
 873 0092 46F20E03 		movw	r3, #24590
 874 0096 C4F20003 		movt	r3, 16384
 875 009a D318     		adds	r3, r2, r3
 876 009c 4FF08002 		mov	r2, #128
 877 00a0 1A70     		strb	r2, [r3, #0]
 878              	.L71:
 438:.\Generated_Source\PSoC5/USBFS_std.c ****         }
 439:.\Generated_Source\PSoC5/USBFS_std.c **** 
 440:.\Generated_Source\PSoC5/USBFS_std.c ****         #if(USBFS_EP_MM != USBFS__EP_DMAAUTO)
 441:.\Generated_Source\PSoC5/USBFS_std.c ****             CY_SET_REG8((reg8 *)(USBFS_SIE_EP1_CNT0_IND + i),   USBFS_EP[ep].bufferSize >> 8u);
 879              		.loc 1 441 0
 880 00a2 BA79     		ldrb	r2, [r7, #6]	@ zero_extendqisi2
 881 00a4 46F20C03 		movw	r3, #24588
 882 00a8 C4F20003 		movt	r3, 16384
 883 00ac D318     		adds	r3, r2, r3
ARM GAS  C:\Users\Robert\AppData\Local\Temp\ccvhms5a.s 			page 25


 884 00ae 1846     		mov	r0, r3
 885 00b0 F979     		ldrb	r1, [r7, #7]	@ zero_extendqisi2
 886 00b2 40F20002 		movw	r2, #:lower16:USBFS_EP
 887 00b6 C0F20002 		movt	r2, #:upper16:USBFS_EP
 888 00ba 0B46     		mov	r3, r1
 889 00bc 4FEA4303 		lsl	r3, r3, #1
 890 00c0 5B18     		adds	r3, r3, r1
 891 00c2 4FEA8303 		lsl	r3, r3, #2
 892 00c6 D318     		adds	r3, r2, r3
 893 00c8 03F10803 		add	r3, r3, #8
 894 00cc 1B88     		ldrh	r3, [r3, #0]	@ movhi
 895 00ce 9BB2     		uxth	r3, r3
 896 00d0 4FEA1323 		lsr	r3, r3, #8
 897 00d4 9BB2     		uxth	r3, r3
 898 00d6 DBB2     		uxtb	r3, r3
 899 00d8 0370     		strb	r3, [r0, #0]
 442:.\Generated_Source\PSoC5/USBFS_std.c ****             CY_SET_REG8((reg8 *)(USBFS_SIE_EP1_CNT1_IND + i),   USBFS_EP[ep].bufferSize & 0xFFu);
 900              		.loc 1 442 0
 901 00da BA79     		ldrb	r2, [r7, #6]	@ zero_extendqisi2
 902 00dc 46F20D03 		movw	r3, #24589
 903 00e0 C4F20003 		movt	r3, 16384
 904 00e4 D318     		adds	r3, r2, r3
 905 00e6 1846     		mov	r0, r3
 906 00e8 F979     		ldrb	r1, [r7, #7]	@ zero_extendqisi2
 907 00ea 40F20002 		movw	r2, #:lower16:USBFS_EP
 908 00ee C0F20002 		movt	r2, #:upper16:USBFS_EP
 909 00f2 0B46     		mov	r3, r1
 910 00f4 4FEA4303 		lsl	r3, r3, #1
 911 00f8 5B18     		adds	r3, r3, r1
 912 00fa 4FEA8303 		lsl	r3, r3, #2
 913 00fe D318     		adds	r3, r2, r3
 914 0100 03F10803 		add	r3, r3, #8
 915 0104 1B88     		ldrh	r3, [r3, #0]	@ movhi
 916 0106 9BB2     		uxth	r3, r3
 917 0108 DBB2     		uxtb	r3, r3
 918 010a 0370     		strb	r3, [r0, #0]
 443:.\Generated_Source\PSoC5/USBFS_std.c **** 
 444:.\Generated_Source\PSoC5/USBFS_std.c ****             CY_SET_REG8((reg8 *)(USBFS_ARB_RW1_RA_IND + i),     USBFS_EP[ep].buffOffset & 0xFFu);
 919              		.loc 1 444 0
 920 010c BA79     		ldrb	r2, [r7, #6]	@ zero_extendqisi2
 921 010e 46F28603 		movw	r3, #24710
 922 0112 C4F20003 		movt	r3, 16384
 923 0116 D318     		adds	r3, r2, r3
 924 0118 1846     		mov	r0, r3
 925 011a F979     		ldrb	r1, [r7, #7]	@ zero_extendqisi2
 926 011c 40F20002 		movw	r2, #:lower16:USBFS_EP
 927 0120 C0F20002 		movt	r2, #:upper16:USBFS_EP
 928 0124 0B46     		mov	r3, r1
 929 0126 4FEA4303 		lsl	r3, r3, #1
 930 012a 5B18     		adds	r3, r3, r1
 931 012c 4FEA8303 		lsl	r3, r3, #2
 932 0130 D318     		adds	r3, r2, r3
 933 0132 DB88     		ldrh	r3, [r3, #6]	@ movhi
 934 0134 9BB2     		uxth	r3, r3
 935 0136 DBB2     		uxtb	r3, r3
 936 0138 0370     		strb	r3, [r0, #0]
 445:.\Generated_Source\PSoC5/USBFS_std.c ****             CY_SET_REG8((reg8 *)(USBFS_ARB_RW1_RA_MSB_IND + i), USBFS_EP[ep].buffOffset >> 8u);
ARM GAS  C:\Users\Robert\AppData\Local\Temp\ccvhms5a.s 			page 26


 937              		.loc 1 445 0
 938 013a BA79     		ldrb	r2, [r7, #6]	@ zero_extendqisi2
 939 013c 46F28703 		movw	r3, #24711
 940 0140 C4F20003 		movt	r3, 16384
 941 0144 D318     		adds	r3, r2, r3
 942 0146 1846     		mov	r0, r3
 943 0148 F979     		ldrb	r1, [r7, #7]	@ zero_extendqisi2
 944 014a 40F20002 		movw	r2, #:lower16:USBFS_EP
 945 014e C0F20002 		movt	r2, #:upper16:USBFS_EP
 946 0152 0B46     		mov	r3, r1
 947 0154 4FEA4303 		lsl	r3, r3, #1
 948 0158 5B18     		adds	r3, r3, r1
 949 015a 4FEA8303 		lsl	r3, r3, #2
 950 015e D318     		adds	r3, r2, r3
 951 0160 DB88     		ldrh	r3, [r3, #6]	@ movhi
 952 0162 9BB2     		uxth	r3, r3
 953 0164 4FEA1323 		lsr	r3, r3, #8
 954 0168 9BB2     		uxth	r3, r3
 955 016a DBB2     		uxtb	r3, r3
 956 016c 0370     		strb	r3, [r0, #0]
 446:.\Generated_Source\PSoC5/USBFS_std.c ****             CY_SET_REG8((reg8 *)(USBFS_ARB_RW1_WA_IND + i),     USBFS_EP[ep].buffOffset & 0xFFu);
 957              		.loc 1 446 0
 958 016e BA79     		ldrb	r2, [r7, #6]	@ zero_extendqisi2
 959 0170 46F28403 		movw	r3, #24708
 960 0174 C4F20003 		movt	r3, 16384
 961 0178 D318     		adds	r3, r2, r3
 962 017a 1846     		mov	r0, r3
 963 017c F979     		ldrb	r1, [r7, #7]	@ zero_extendqisi2
 964 017e 40F20002 		movw	r2, #:lower16:USBFS_EP
 965 0182 C0F20002 		movt	r2, #:upper16:USBFS_EP
 966 0186 0B46     		mov	r3, r1
 967 0188 4FEA4303 		lsl	r3, r3, #1
 968 018c 5B18     		adds	r3, r3, r1
 969 018e 4FEA8303 		lsl	r3, r3, #2
 970 0192 D318     		adds	r3, r2, r3
 971 0194 DB88     		ldrh	r3, [r3, #6]	@ movhi
 972 0196 9BB2     		uxth	r3, r3
 973 0198 DBB2     		uxtb	r3, r3
 974 019a 0370     		strb	r3, [r0, #0]
 447:.\Generated_Source\PSoC5/USBFS_std.c ****             CY_SET_REG8((reg8 *)(USBFS_ARB_RW1_WA_MSB_IND + i), USBFS_EP[ep].buffOffset >> 8u);
 975              		.loc 1 447 0
 976 019c BA79     		ldrb	r2, [r7, #6]	@ zero_extendqisi2
 977 019e 46F28503 		movw	r3, #24709
 978 01a2 C4F20003 		movt	r3, 16384
 979 01a6 D318     		adds	r3, r2, r3
 980 01a8 1846     		mov	r0, r3
 981 01aa F979     		ldrb	r1, [r7, #7]	@ zero_extendqisi2
 982 01ac 40F20002 		movw	r2, #:lower16:USBFS_EP
 983 01b0 C0F20002 		movt	r2, #:upper16:USBFS_EP
 984 01b4 0B46     		mov	r3, r1
 985 01b6 4FEA4303 		lsl	r3, r3, #1
 986 01ba 5B18     		adds	r3, r3, r1
 987 01bc 4FEA8303 		lsl	r3, r3, #2
 988 01c0 D318     		adds	r3, r2, r3
 989 01c2 DB88     		ldrh	r3, [r3, #6]	@ movhi
 990 01c4 9BB2     		uxth	r3, r3
 991 01c6 4FEA1323 		lsr	r3, r3, #8
ARM GAS  C:\Users\Robert\AppData\Local\Temp\ccvhms5a.s 			page 27


 992 01ca 9BB2     		uxth	r3, r3
 993 01cc DBB2     		uxtb	r3, r3
 994 01ce 0370     		strb	r3, [r0, #0]
 448:.\Generated_Source\PSoC5/USBFS_std.c ****         #endif /*  USBFS_EP_MM != USBFS__EP_DMAAUTO */
 449:.\Generated_Source\PSoC5/USBFS_std.c **** 
 450:.\Generated_Source\PSoC5/USBFS_std.c ****         ep++;
 995              		.loc 1 450 0
 996 01d0 FB79     		ldrb	r3, [r7, #7]
 997 01d2 03F10103 		add	r3, r3, #1
 998 01d6 FB71     		strb	r3, [r7, #7]
 412:.\Generated_Source\PSoC5/USBFS_std.c ****     for (i = 0u; i < 0x80u; i+= 0x10u)
 999              		.loc 1 412 0
 1000 01d8 BB79     		ldrb	r3, [r7, #6]
 1001 01da 03F11003 		add	r3, r3, #16
 1002 01de BB71     		strb	r3, [r7, #6]
 1003              	.L68:
 412:.\Generated_Source\PSoC5/USBFS_std.c ****     for (i = 0u; i < 0x80u; i+= 0x10u)
 1004              		.loc 1 412 0 is_stmt 0 discriminator 1
 1005 01e0 BB79     		ldrb	r3, [r7, #6]	@ zero_extendqisi2
 1006 01e2 5BB2     		sxtb	r3, r3
 1007 01e4 002B     		cmp	r3, #0
 1008 01e6 BFF615AF 		bge	.L72
 451:.\Generated_Source\PSoC5/USBFS_std.c ****     }
 452:.\Generated_Source\PSoC5/USBFS_std.c **** 
 453:.\Generated_Source\PSoC5/USBFS_std.c ****     #if(USBFS_EP_MM == USBFS__EP_DMAAUTO)
 454:.\Generated_Source\PSoC5/USBFS_std.c ****          /* BUF_SIZE depend on DMA_THRESS value: 55-32 bytes  44-16 bytes 33-8 bytes 22-4 bytes 11-
 455:.\Generated_Source\PSoC5/USBFS_std.c ****         USBFS_BUF_SIZE_REG = USBFS_DMA_BUF_SIZE;
 456:.\Generated_Source\PSoC5/USBFS_std.c ****         USBFS_DMA_THRES_REG = USBFS_DMA_BYTES_PER_BURST;   /* DMA burst threshold */
 457:.\Generated_Source\PSoC5/USBFS_std.c ****         USBFS_DMA_THRES_MSB_REG = 0u;
 458:.\Generated_Source\PSoC5/USBFS_std.c ****         USBFS_EP_ACTIVE_REG = USBFS_ARB_INT_MASK;
 459:.\Generated_Source\PSoC5/USBFS_std.c ****         USBFS_EP_TYPE_REG = epType;
 460:.\Generated_Source\PSoC5/USBFS_std.c ****         /* Cfg_cmp bit set to 1 once configuration is complete. */
 461:.\Generated_Source\PSoC5/USBFS_std.c ****         USBFS_ARB_CFG_REG = USBFS_ARB_CFG_AUTO_DMA | USBFS_ARB_CFG_AUTO_MEM |
 462:.\Generated_Source\PSoC5/USBFS_std.c ****                                        USBFS_ARB_CFG_CFG_CPM;
 463:.\Generated_Source\PSoC5/USBFS_std.c ****         /* Cfg_cmp bit set to 0 during configuration of PFSUSB Registers. */
 464:.\Generated_Source\PSoC5/USBFS_std.c ****         USBFS_ARB_CFG_REG = USBFS_ARB_CFG_AUTO_DMA | USBFS_ARB_CFG_AUTO_MEM;
 465:.\Generated_Source\PSoC5/USBFS_std.c ****     #endif /*  USBFS_EP_MM == USBFS__EP_DMAAUTO */
 466:.\Generated_Source\PSoC5/USBFS_std.c **** 
 467:.\Generated_Source\PSoC5/USBFS_std.c ****     CY_SET_REG8(USBFS_SIE_EP_INT_EN_PTR, 0xFFu);
 1009              		.loc 1 467 0 is_stmt 1
 1010 01ea 46F20A03 		movw	r3, #24586
 1011 01ee C4F20003 		movt	r3, 16384
 1012 01f2 4FF0FF02 		mov	r2, #255
 1013 01f6 1A70     		strb	r2, [r3, #0]
 468:.\Generated_Source\PSoC5/USBFS_std.c **** }
 1014              		.loc 1 468 0
 1015 01f8 07F10C07 		add	r7, r7, #12
 1016 01fc BD46     		mov	sp, r7
 1017 01fe 80BC     		pop	{r7}
 1018 0200 7047     		bx	lr
 1019              		.cfi_endproc
 1020              	.LFE1:
 1021              		.size	USBFS_ConfigReg, .-USBFS_ConfigReg
 1022 0202 00BF     		.section	.text.USBFS_Config,"ax",%progbits
 1023              		.align	2
 1024              		.global	USBFS_Config
 1025              		.thumb
ARM GAS  C:\Users\Robert\AppData\Local\Temp\ccvhms5a.s 			page 28


 1026              		.thumb_func
 1027              		.type	USBFS_Config, %function
 1028              	USBFS_Config:
 1029              	.LFB2:
 469:.\Generated_Source\PSoC5/USBFS_std.c **** 
 470:.\Generated_Source\PSoC5/USBFS_std.c **** 
 471:.\Generated_Source\PSoC5/USBFS_std.c **** /*******************************************************************************
 472:.\Generated_Source\PSoC5/USBFS_std.c **** * Function Name: USBFS_Config
 473:.\Generated_Source\PSoC5/USBFS_std.c **** ********************************************************************************
 474:.\Generated_Source\PSoC5/USBFS_std.c **** *
 475:.\Generated_Source\PSoC5/USBFS_std.c **** * Summary:
 476:.\Generated_Source\PSoC5/USBFS_std.c **** *  This routine configures endpoints for the entire configuration by scanning
 477:.\Generated_Source\PSoC5/USBFS_std.c **** *  the configuration descriptor.
 478:.\Generated_Source\PSoC5/USBFS_std.c **** *
 479:.\Generated_Source\PSoC5/USBFS_std.c **** * Parameters:
 480:.\Generated_Source\PSoC5/USBFS_std.c **** *  clearAltSetting: It configures the bAlternateSetting 0 for each interface.
 481:.\Generated_Source\PSoC5/USBFS_std.c **** *
 482:.\Generated_Source\PSoC5/USBFS_std.c **** * Return:
 483:.\Generated_Source\PSoC5/USBFS_std.c **** *  None.
 484:.\Generated_Source\PSoC5/USBFS_std.c **** *
 485:.\Generated_Source\PSoC5/USBFS_std.c **** * USBFS_interfaceClass - Initialized class array for each interface.
 486:.\Generated_Source\PSoC5/USBFS_std.c **** *   It is used for handling Class specific requests depend on interface class.
 487:.\Generated_Source\PSoC5/USBFS_std.c **** *   Different classes in multiple Alternate settings does not supported.
 488:.\Generated_Source\PSoC5/USBFS_std.c **** *
 489:.\Generated_Source\PSoC5/USBFS_std.c **** * Reentrant:
 490:.\Generated_Source\PSoC5/USBFS_std.c **** *  No.
 491:.\Generated_Source\PSoC5/USBFS_std.c **** *
 492:.\Generated_Source\PSoC5/USBFS_std.c **** *******************************************************************************/
 493:.\Generated_Source\PSoC5/USBFS_std.c **** void USBFS_Config(uint8 clearAltSetting) 
 494:.\Generated_Source\PSoC5/USBFS_std.c **** {
 1030              		.loc 1 494 0
 1031              		.cfi_startproc
 1032              		@ args = 0, pretend = 0, frame = 32
 1033              		@ frame_needed = 1, uses_anonymous_args = 0
 1034 0000 80B5     		push	{r7, lr}
 1035              	.LCFI6:
 1036              		.cfi_def_cfa_offset 8
 1037              		.cfi_offset 7, -8
 1038              		.cfi_offset 14, -4
 1039 0002 88B0     		sub	sp, sp, #32
 1040              	.LCFI7:
 1041              		.cfi_def_cfa_offset 40
 1042 0004 00AF     		add	r7, sp, #0
 1043              	.LCFI8:
 1044              		.cfi_def_cfa_register 7
 1045 0006 0346     		mov	r3, r0
 1046 0008 FB71     		strb	r3, [r7, #7]
 495:.\Generated_Source\PSoC5/USBFS_std.c ****     uint8 ep;
 496:.\Generated_Source\PSoC5/USBFS_std.c ****     uint8 cur_ep;
 497:.\Generated_Source\PSoC5/USBFS_std.c ****     uint8 i;
 498:.\Generated_Source\PSoC5/USBFS_std.c ****     uint8 epType;
 499:.\Generated_Source\PSoC5/USBFS_std.c ****     const uint8 *pDescr;
 500:.\Generated_Source\PSoC5/USBFS_std.c ****     #if(USBFS_EP_MM != USBFS__EP_DMAAUTO)
 501:.\Generated_Source\PSoC5/USBFS_std.c ****         uint16 buffCount = 0u;
 1047              		.loc 1 501 0
 1048 000a 4FF00003 		mov	r3, #0
 1049 000e 7B83     		strh	r3, [r7, #26]	@ movhi
ARM GAS  C:\Users\Robert\AppData\Local\Temp\ccvhms5a.s 			page 29


 502:.\Generated_Source\PSoC5/USBFS_std.c ****     #endif /*  USBFS_EP_MM != USBFS__EP_DMAAUTO */
 503:.\Generated_Source\PSoC5/USBFS_std.c **** 
 504:.\Generated_Source\PSoC5/USBFS_std.c ****     const T_USBFS_LUT CYCODE *pTmp;
 505:.\Generated_Source\PSoC5/USBFS_std.c ****     const T_USBFS_EP_SETTINGS_BLOCK CYCODE *pEP;
 506:.\Generated_Source\PSoC5/USBFS_std.c **** 
 507:.\Generated_Source\PSoC5/USBFS_std.c ****     /* Clear all of the endpoints */
 508:.\Generated_Source\PSoC5/USBFS_std.c ****     for (ep = 0u; ep < USBFS_MAX_EP; ep++)
 1050              		.loc 1 508 0
 1051 0010 4FF00003 		mov	r3, #0
 1052 0014 FB77     		strb	r3, [r7, #31]
 1053 0016 70E0     		b	.L74
 1054              	.L75:
 509:.\Generated_Source\PSoC5/USBFS_std.c ****     {
 510:.\Generated_Source\PSoC5/USBFS_std.c ****         USBFS_EP[ep].attrib = 0u;
 1055              		.loc 1 510 0 discriminator 2
 1056 0018 F97F     		ldrb	r1, [r7, #31]	@ zero_extendqisi2
 1057 001a 40F20002 		movw	r2, #:lower16:USBFS_EP
 1058 001e C0F20002 		movt	r2, #:upper16:USBFS_EP
 1059 0022 0B46     		mov	r3, r1
 1060 0024 4FEA4303 		lsl	r3, r3, #1
 1061 0028 5B18     		adds	r3, r3, r1
 1062 002a 4FEA8303 		lsl	r3, r3, #2
 1063 002e D318     		adds	r3, r2, r3
 1064 0030 4FF00002 		mov	r2, #0
 1065 0034 1A70     		strb	r2, [r3, #0]
 511:.\Generated_Source\PSoC5/USBFS_std.c ****         USBFS_EP[ep].hwEpState = 0u;
 1066              		.loc 1 511 0 discriminator 2
 1067 0036 F97F     		ldrb	r1, [r7, #31]	@ zero_extendqisi2
 1068 0038 40F20002 		movw	r2, #:lower16:USBFS_EP
 1069 003c C0F20002 		movt	r2, #:upper16:USBFS_EP
 1070 0040 0B46     		mov	r3, r1
 1071 0042 4FEA4303 		lsl	r3, r3, #1
 1072 0046 5B18     		adds	r3, r3, r1
 1073 0048 4FEA8303 		lsl	r3, r3, #2
 1074 004c D318     		adds	r3, r2, r3
 1075 004e 4FF00002 		mov	r2, #0
 1076 0052 9A70     		strb	r2, [r3, #2]
 512:.\Generated_Source\PSoC5/USBFS_std.c ****         USBFS_EP[ep].apiEpState = USBFS_NO_EVENT_PENDING;
 1077              		.loc 1 512 0 discriminator 2
 1078 0054 F97F     		ldrb	r1, [r7, #31]	@ zero_extendqisi2
 1079 0056 40F20002 		movw	r2, #:lower16:USBFS_EP
 1080 005a C0F20002 		movt	r2, #:upper16:USBFS_EP
 1081 005e 0B46     		mov	r3, r1
 1082 0060 4FEA4303 		lsl	r3, r3, #1
 1083 0064 5B18     		adds	r3, r3, r1
 1084 0066 4FEA8303 		lsl	r3, r3, #2
 1085 006a D318     		adds	r3, r2, r3
 1086 006c 4FF00002 		mov	r2, #0
 1087 0070 5A70     		strb	r2, [r3, #1]
 513:.\Generated_Source\PSoC5/USBFS_std.c ****         USBFS_EP[ep].epToggle = 0u;
 1088              		.loc 1 513 0 discriminator 2
 1089 0072 F97F     		ldrb	r1, [r7, #31]	@ zero_extendqisi2
 1090 0074 40F20002 		movw	r2, #:lower16:USBFS_EP
 1091 0078 C0F20002 		movt	r2, #:upper16:USBFS_EP
 1092 007c 0B46     		mov	r3, r1
 1093 007e 4FEA4303 		lsl	r3, r3, #1
 1094 0082 5B18     		adds	r3, r3, r1
ARM GAS  C:\Users\Robert\AppData\Local\Temp\ccvhms5a.s 			page 30


 1095 0084 4FEA8303 		lsl	r3, r3, #2
 1096 0088 D318     		adds	r3, r2, r3
 1097 008a 4FF00002 		mov	r2, #0
 1098 008e DA70     		strb	r2, [r3, #3]
 514:.\Generated_Source\PSoC5/USBFS_std.c ****         USBFS_EP[ep].epMode = USBFS_MODE_DISABLE;
 1099              		.loc 1 514 0 discriminator 2
 1100 0090 F97F     		ldrb	r1, [r7, #31]	@ zero_extendqisi2
 1101 0092 40F20002 		movw	r2, #:lower16:USBFS_EP
 1102 0096 C0F20002 		movt	r2, #:upper16:USBFS_EP
 1103 009a 0B46     		mov	r3, r1
 1104 009c 4FEA4303 		lsl	r3, r3, #1
 1105 00a0 5B18     		adds	r3, r3, r1
 1106 00a2 4FEA8303 		lsl	r3, r3, #2
 1107 00a6 D318     		adds	r3, r2, r3
 1108 00a8 4FF00002 		mov	r2, #0
 1109 00ac 5A71     		strb	r2, [r3, #5]
 515:.\Generated_Source\PSoC5/USBFS_std.c ****         USBFS_EP[ep].bufferSize = 0u;
 1110              		.loc 1 515 0 discriminator 2
 1111 00ae F97F     		ldrb	r1, [r7, #31]	@ zero_extendqisi2
 1112 00b0 40F20002 		movw	r2, #:lower16:USBFS_EP
 1113 00b4 C0F20002 		movt	r2, #:upper16:USBFS_EP
 1114 00b8 0B46     		mov	r3, r1
 1115 00ba 4FEA4303 		lsl	r3, r3, #1
 1116 00be 5B18     		adds	r3, r3, r1
 1117 00c0 4FEA8303 		lsl	r3, r3, #2
 1118 00c4 D318     		adds	r3, r2, r3
 1119 00c6 03F10803 		add	r3, r3, #8
 1120 00ca 4FF00002 		mov	r2, #0
 1121 00ce 1A80     		strh	r2, [r3, #0]	@ movhi
 516:.\Generated_Source\PSoC5/USBFS_std.c ****         USBFS_EP[ep].interface = 0u;
 1122              		.loc 1 516 0 discriminator 2
 1123 00d0 F97F     		ldrb	r1, [r7, #31]	@ zero_extendqisi2
 1124 00d2 40F20002 		movw	r2, #:lower16:USBFS_EP
 1125 00d6 C0F20002 		movt	r2, #:upper16:USBFS_EP
 1126 00da 0B46     		mov	r3, r1
 1127 00dc 4FEA4303 		lsl	r3, r3, #1
 1128 00e0 5B18     		adds	r3, r3, r1
 1129 00e2 4FEA8303 		lsl	r3, r3, #2
 1130 00e6 D318     		adds	r3, r2, r3
 1131 00e8 03F10803 		add	r3, r3, #8
 1132 00ec 4FF00002 		mov	r2, #0
 1133 00f0 9A70     		strb	r2, [r3, #2]
 508:.\Generated_Source\PSoC5/USBFS_std.c ****     for (ep = 0u; ep < USBFS_MAX_EP; ep++)
 1134              		.loc 1 508 0 discriminator 2
 1135 00f2 FB7F     		ldrb	r3, [r7, #31]
 1136 00f4 03F10103 		add	r3, r3, #1
 1137 00f8 FB77     		strb	r3, [r7, #31]
 1138              	.L74:
 508:.\Generated_Source\PSoC5/USBFS_std.c ****     for (ep = 0u; ep < USBFS_MAX_EP; ep++)
 1139              		.loc 1 508 0 is_stmt 0 discriminator 1
 1140 00fa FB7F     		ldrb	r3, [r7, #31]	@ zero_extendqisi2
 1141 00fc 082B     		cmp	r3, #8
 1142 00fe 8BD9     		bls	.L75
 517:.\Generated_Source\PSoC5/USBFS_std.c **** 
 518:.\Generated_Source\PSoC5/USBFS_std.c ****     }
 519:.\Generated_Source\PSoC5/USBFS_std.c **** 
 520:.\Generated_Source\PSoC5/USBFS_std.c ****     /* Clear Alternate settings for all interfaces */
ARM GAS  C:\Users\Robert\AppData\Local\Temp\ccvhms5a.s 			page 31


 521:.\Generated_Source\PSoC5/USBFS_std.c ****     if(clearAltSetting != 0u)
 1143              		.loc 1 521 0 is_stmt 1
 1144 0100 FB79     		ldrb	r3, [r7, #7]	@ zero_extendqisi2
 1145 0102 002B     		cmp	r3, #0
 1146 0104 1AD0     		beq	.L76
 522:.\Generated_Source\PSoC5/USBFS_std.c ****     {
 523:.\Generated_Source\PSoC5/USBFS_std.c ****         for (i = 0u; i < USBFS_MAX_INTERFACES_NUMBER; i++)
 1147              		.loc 1 523 0
 1148 0106 4FF00003 		mov	r3, #0
 1149 010a 7B77     		strb	r3, [r7, #29]
 1150 010c 13E0     		b	.L77
 1151              	.L78:
 524:.\Generated_Source\PSoC5/USBFS_std.c ****         {
 525:.\Generated_Source\PSoC5/USBFS_std.c ****             USBFS_interfaceSetting[i] = 0x00u;
 1152              		.loc 1 525 0 discriminator 2
 1153 010e 7A7F     		ldrb	r2, [r7, #29]	@ zero_extendqisi2
 1154 0110 40F20003 		movw	r3, #:lower16:USBFS_interfaceSetting
 1155 0114 C0F20003 		movt	r3, #:upper16:USBFS_interfaceSetting
 1156 0118 4FF00001 		mov	r1, #0
 1157 011c 9954     		strb	r1, [r3, r2]
 526:.\Generated_Source\PSoC5/USBFS_std.c ****             USBFS_interfaceSetting_last[i] = 0x00u;
 1158              		.loc 1 526 0 discriminator 2
 1159 011e 7A7F     		ldrb	r2, [r7, #29]	@ zero_extendqisi2
 1160 0120 40F20003 		movw	r3, #:lower16:USBFS_interfaceSetting_last
 1161 0124 C0F20003 		movt	r3, #:upper16:USBFS_interfaceSetting_last
 1162 0128 4FF00001 		mov	r1, #0
 1163 012c 9954     		strb	r1, [r3, r2]
 523:.\Generated_Source\PSoC5/USBFS_std.c ****         for (i = 0u; i < USBFS_MAX_INTERFACES_NUMBER; i++)
 1164              		.loc 1 523 0 discriminator 2
 1165 012e 7B7F     		ldrb	r3, [r7, #29]
 1166 0130 03F10103 		add	r3, r3, #1
 1167 0134 7B77     		strb	r3, [r7, #29]
 1168              	.L77:
 523:.\Generated_Source\PSoC5/USBFS_std.c ****         for (i = 0u; i < USBFS_MAX_INTERFACES_NUMBER; i++)
 1169              		.loc 1 523 0 is_stmt 0 discriminator 1
 1170 0136 7B7F     		ldrb	r3, [r7, #29]	@ zero_extendqisi2
 1171 0138 002B     		cmp	r3, #0
 1172 013a E8D0     		beq	.L78
 1173              	.L76:
 527:.\Generated_Source\PSoC5/USBFS_std.c ****         }
 528:.\Generated_Source\PSoC5/USBFS_std.c ****     }
 529:.\Generated_Source\PSoC5/USBFS_std.c **** 
 530:.\Generated_Source\PSoC5/USBFS_std.c ****     /* Init Endpoints and Device Status if configured */
 531:.\Generated_Source\PSoC5/USBFS_std.c ****     if(USBFS_configuration > 0u)
 1174              		.loc 1 531 0 is_stmt 1
 1175 013c 40F20003 		movw	r3, #:lower16:USBFS_configuration
 1176 0140 C0F20003 		movt	r3, #:upper16:USBFS_configuration
 1177 0144 1B78     		ldrb	r3, [r3, #0]
 1178 0146 DBB2     		uxtb	r3, r3
 1179 0148 002B     		cmp	r3, #0
 1180 014a 00F06B81 		beq	.L73
 532:.\Generated_Source\PSoC5/USBFS_std.c ****     {
 533:.\Generated_Source\PSoC5/USBFS_std.c ****         pTmp = USBFS_GetConfigTablePtr(USBFS_configuration - 1u);
 1181              		.loc 1 533 0
 1182 014e 40F20003 		movw	r3, #:lower16:USBFS_configuration
 1183 0152 C0F20003 		movt	r3, #:upper16:USBFS_configuration
 1184 0156 1B78     		ldrb	r3, [r3, #0]
ARM GAS  C:\Users\Robert\AppData\Local\Temp\ccvhms5a.s 			page 32


 1185 0158 DBB2     		uxtb	r3, r3
 1186 015a 03F1FF33 		add	r3, r3, #-1
 1187 015e DBB2     		uxtb	r3, r3
 1188 0160 1846     		mov	r0, r3
 1189 0162 FFF7FEFF 		bl	USBFS_GetConfigTablePtr
 1190 0166 3861     		str	r0, [r7, #16]
 534:.\Generated_Source\PSoC5/USBFS_std.c ****         /* Set Power status for current configuration */
 535:.\Generated_Source\PSoC5/USBFS_std.c ****         pDescr = (const uint8 *)pTmp->p_list;
 1191              		.loc 1 535 0
 1192 0168 3B69     		ldr	r3, [r7, #16]
 1193 016a 5B68     		ldr	r3, [r3, #4]
 1194 016c FB60     		str	r3, [r7, #12]
 536:.\Generated_Source\PSoC5/USBFS_std.c ****         if((pDescr[USBFS_CONFIG_DESCR_ATTRIB] & USBFS_CONFIG_DESCR_ATTRIB_SELF_POWERED) != 0u)
 1195              		.loc 1 536 0
 1196 016e FB68     		ldr	r3, [r7, #12]
 1197 0170 03F10703 		add	r3, r3, #7
 1198 0174 1B78     		ldrb	r3, [r3, #0]	@ zero_extendqisi2
 1199 0176 03F04003 		and	r3, r3, #64
 1200 017a 002B     		cmp	r3, #0
 1201 017c 0ED0     		beq	.L80
 537:.\Generated_Source\PSoC5/USBFS_std.c ****         {
 538:.\Generated_Source\PSoC5/USBFS_std.c ****             USBFS_deviceStatus |=  USBFS_DEVICE_STATUS_SELF_POWERED;
 1202              		.loc 1 538 0
 1203 017e 40F20003 		movw	r3, #:lower16:USBFS_deviceStatus
 1204 0182 C0F20003 		movt	r3, #:upper16:USBFS_deviceStatus
 1205 0186 1B78     		ldrb	r3, [r3, #0]
 1206 0188 DBB2     		uxtb	r3, r3
 1207 018a 43F00103 		orr	r3, r3, #1
 1208 018e DAB2     		uxtb	r2, r3
 1209 0190 40F20003 		movw	r3, #:lower16:USBFS_deviceStatus
 1210 0194 C0F20003 		movt	r3, #:upper16:USBFS_deviceStatus
 1211 0198 1A70     		strb	r2, [r3, #0]
 1212 019a 0DE0     		b	.L81
 1213              	.L80:
 539:.\Generated_Source\PSoC5/USBFS_std.c ****         }
 540:.\Generated_Source\PSoC5/USBFS_std.c ****         else
 541:.\Generated_Source\PSoC5/USBFS_std.c ****         {
 542:.\Generated_Source\PSoC5/USBFS_std.c ****             USBFS_deviceStatus &=  (uint8)~USBFS_DEVICE_STATUS_SELF_POWERED;
 1214              		.loc 1 542 0
 1215 019c 40F20003 		movw	r3, #:lower16:USBFS_deviceStatus
 1216 01a0 C0F20003 		movt	r3, #:upper16:USBFS_deviceStatus
 1217 01a4 1B78     		ldrb	r3, [r3, #0]
 1218 01a6 DBB2     		uxtb	r3, r3
 1219 01a8 23F00103 		bic	r3, r3, #1
 1220 01ac DAB2     		uxtb	r2, r3
 1221 01ae 40F20003 		movw	r3, #:lower16:USBFS_deviceStatus
 1222 01b2 C0F20003 		movt	r3, #:upper16:USBFS_deviceStatus
 1223 01b6 1A70     		strb	r2, [r3, #0]
 1224              	.L81:
 543:.\Generated_Source\PSoC5/USBFS_std.c ****         }
 544:.\Generated_Source\PSoC5/USBFS_std.c ****         /* Move to next element */
 545:.\Generated_Source\PSoC5/USBFS_std.c ****         pTmp = &pTmp[1u];
 1225              		.loc 1 545 0
 1226 01b8 3B69     		ldr	r3, [r7, #16]
 1227 01ba 03F10803 		add	r3, r3, #8
 1228 01be 3B61     		str	r3, [r7, #16]
 546:.\Generated_Source\PSoC5/USBFS_std.c ****         ep = pTmp->c;  /* For this table, c is the number of endpoints configurations  */
ARM GAS  C:\Users\Robert\AppData\Local\Temp\ccvhms5a.s 			page 33


 1229              		.loc 1 546 0
 1230 01c0 3B69     		ldr	r3, [r7, #16]
 1231 01c2 1B78     		ldrb	r3, [r3, #0]
 1232 01c4 FB77     		strb	r3, [r7, #31]
 547:.\Generated_Source\PSoC5/USBFS_std.c **** 
 548:.\Generated_Source\PSoC5/USBFS_std.c ****         #if ((USBFS_EP_MA == USBFS__MA_DYNAMIC) && \
 549:.\Generated_Source\PSoC5/USBFS_std.c ****              (USBFS_EP_MM == USBFS__EP_MANUAL) )
 550:.\Generated_Source\PSoC5/USBFS_std.c ****             /* Configure for dynamic EP memory allocation */
 551:.\Generated_Source\PSoC5/USBFS_std.c ****             /* p_list points the endpoint setting table. */
 552:.\Generated_Source\PSoC5/USBFS_std.c ****             pEP = (T_USBFS_EP_SETTINGS_BLOCK *) pTmp->p_list;
 553:.\Generated_Source\PSoC5/USBFS_std.c ****             for (i = 0u; i < ep; i++)
 554:.\Generated_Source\PSoC5/USBFS_std.c ****             {
 555:.\Generated_Source\PSoC5/USBFS_std.c ****                 /* Compare current Alternate setting with EP Alt */
 556:.\Generated_Source\PSoC5/USBFS_std.c ****                 if(USBFS_interfaceSetting[pEP->interface] == pEP->altSetting)
 557:.\Generated_Source\PSoC5/USBFS_std.c ****                 {
 558:.\Generated_Source\PSoC5/USBFS_std.c ****                     cur_ep = pEP->addr & USBFS_DIR_UNUSED;
 559:.\Generated_Source\PSoC5/USBFS_std.c ****                     epType = pEP->attributes & USBFS_EP_TYPE_MASK;
 560:.\Generated_Source\PSoC5/USBFS_std.c ****                     if (pEP->addr & USBFS_DIR_IN)
 561:.\Generated_Source\PSoC5/USBFS_std.c ****                     {
 562:.\Generated_Source\PSoC5/USBFS_std.c ****                         /* IN Endpoint */
 563:.\Generated_Source\PSoC5/USBFS_std.c ****                         USBFS_EP[cur_ep].apiEpState = USBFS_EVENT_PENDING;
 564:.\Generated_Source\PSoC5/USBFS_std.c ****                         USBFS_EP[cur_ep].epMode = (epType == USBFS_EP_TYPE_ISOC) ?
 565:.\Generated_Source\PSoC5/USBFS_std.c ****                                                         USBFS_MODE_ISO_IN : USBFS_MODE_ACK_IN;
 566:.\Generated_Source\PSoC5/USBFS_std.c ****                         #if defined(USBFS_ENABLE_CDC_CLASS)
 567:.\Generated_Source\PSoC5/USBFS_std.c ****                             if(((pEP->bMisc == USBFS_CLASS_CDC_DATA) ||
 568:.\Generated_Source\PSoC5/USBFS_std.c ****                                 (pEP->bMisc == USBFS_CLASS_CDC)) &&
 569:.\Generated_Source\PSoC5/USBFS_std.c ****                                 (epType != USBFS_EP_TYPE_INT))
 570:.\Generated_Source\PSoC5/USBFS_std.c ****                             {
 571:.\Generated_Source\PSoC5/USBFS_std.c ****                                 USBFS_cdc_data_in_ep = cur_ep;
 572:.\Generated_Source\PSoC5/USBFS_std.c ****                             }
 573:.\Generated_Source\PSoC5/USBFS_std.c ****                         #endif  /*  USBFS_ENABLE_CDC_CLASS*/
 574:.\Generated_Source\PSoC5/USBFS_std.c ****                         #if ( defined(USBFS_ENABLE_MIDI_STREAMING) && \
 575:.\Generated_Source\PSoC5/USBFS_std.c ****                                              (USBFS_MIDI_IN_BUFF_SIZE > 0) )
 576:.\Generated_Source\PSoC5/USBFS_std.c ****                             if((pEP->bMisc == USBFS_CLASS_AUDIO) &&
 577:.\Generated_Source\PSoC5/USBFS_std.c ****                                (epType == USBFS_EP_TYPE_BULK))
 578:.\Generated_Source\PSoC5/USBFS_std.c ****                             {
 579:.\Generated_Source\PSoC5/USBFS_std.c ****                                 USBFS_midi_in_ep = cur_ep;
 580:.\Generated_Source\PSoC5/USBFS_std.c ****                             }
 581:.\Generated_Source\PSoC5/USBFS_std.c ****                         #endif  /*  USBFS_ENABLE_MIDI_STREAMING*/
 582:.\Generated_Source\PSoC5/USBFS_std.c ****                     }
 583:.\Generated_Source\PSoC5/USBFS_std.c ****                     else
 584:.\Generated_Source\PSoC5/USBFS_std.c ****                     {
 585:.\Generated_Source\PSoC5/USBFS_std.c ****                         /* OUT Endpoint */
 586:.\Generated_Source\PSoC5/USBFS_std.c ****                         USBFS_EP[cur_ep].apiEpState = USBFS_NO_EVENT_PENDING;
 587:.\Generated_Source\PSoC5/USBFS_std.c ****                         USBFS_EP[cur_ep].epMode = (epType == USBFS_EP_TYPE_ISOC) ?
 588:.\Generated_Source\PSoC5/USBFS_std.c ****                                                     USBFS_MODE_ISO_OUT : USBFS_MODE_ACK_OUT;
 589:.\Generated_Source\PSoC5/USBFS_std.c ****                         #if defined(USBFS_ENABLE_CDC_CLASS)
 590:.\Generated_Source\PSoC5/USBFS_std.c ****                             if(((pEP->bMisc == USBFS_CLASS_CDC_DATA) ||
 591:.\Generated_Source\PSoC5/USBFS_std.c ****                                 (pEP->bMisc == USBFS_CLASS_CDC)) &&
 592:.\Generated_Source\PSoC5/USBFS_std.c ****                                 (epType != USBFS_EP_TYPE_INT))
 593:.\Generated_Source\PSoC5/USBFS_std.c ****                             {
 594:.\Generated_Source\PSoC5/USBFS_std.c ****                                 USBFS_cdc_data_out_ep = cur_ep;
 595:.\Generated_Source\PSoC5/USBFS_std.c ****                             }
 596:.\Generated_Source\PSoC5/USBFS_std.c ****                         #endif  /*  USBFS_ENABLE_CDC_CLASS*/
 597:.\Generated_Source\PSoC5/USBFS_std.c ****                         #if ( defined(USBFS_ENABLE_MIDI_STREAMING) && \
 598:.\Generated_Source\PSoC5/USBFS_std.c ****                                      (USBFS_MIDI_OUT_BUFF_SIZE > 0) )
 599:.\Generated_Source\PSoC5/USBFS_std.c ****                             if((pEP->bMisc == USBFS_CLASS_AUDIO) &&
ARM GAS  C:\Users\Robert\AppData\Local\Temp\ccvhms5a.s 			page 34


 600:.\Generated_Source\PSoC5/USBFS_std.c ****                                (epType == USBFS_EP_TYPE_BULK))
 601:.\Generated_Source\PSoC5/USBFS_std.c ****                             {
 602:.\Generated_Source\PSoC5/USBFS_std.c ****                                 USBFS_midi_out_ep = cur_ep;
 603:.\Generated_Source\PSoC5/USBFS_std.c ****                             }
 604:.\Generated_Source\PSoC5/USBFS_std.c ****                         #endif  /*  USBFS_ENABLE_MIDI_STREAMING*/
 605:.\Generated_Source\PSoC5/USBFS_std.c ****                     }
 606:.\Generated_Source\PSoC5/USBFS_std.c ****                     USBFS_EP[cur_ep].bufferSize = pEP->bufferSize;
 607:.\Generated_Source\PSoC5/USBFS_std.c ****                     USBFS_EP[cur_ep].addr = pEP->addr;
 608:.\Generated_Source\PSoC5/USBFS_std.c ****                     USBFS_EP[cur_ep].attrib = pEP->attributes;
 609:.\Generated_Source\PSoC5/USBFS_std.c ****                 }
 610:.\Generated_Source\PSoC5/USBFS_std.c ****                 pEP = &pEP[1u];
 611:.\Generated_Source\PSoC5/USBFS_std.c ****             }
 612:.\Generated_Source\PSoC5/USBFS_std.c ****         #else /* Configure for static EP memory allocation  */
 613:.\Generated_Source\PSoC5/USBFS_std.c ****             for (i = USBFS_EP1; i < USBFS_MAX_EP; i++)
 1233              		.loc 1 613 0
 1234 01c6 4FF00103 		mov	r3, #1
 1235 01ca 7B77     		strb	r3, [r7, #29]
 1236 01cc C8E0     		b	.L82
 1237              	.L93:
 614:.\Generated_Source\PSoC5/USBFS_std.c ****             {
 615:.\Generated_Source\PSoC5/USBFS_std.c ****                 /* p_list points the endpoint setting table. */
 616:.\Generated_Source\PSoC5/USBFS_std.c ****                 pEP = (const T_USBFS_EP_SETTINGS_BLOCK CYCODE *) pTmp->p_list;
 1238              		.loc 1 616 0
 1239 01ce 3B69     		ldr	r3, [r7, #16]
 1240 01d0 5B68     		ldr	r3, [r3, #4]
 1241 01d2 7B61     		str	r3, [r7, #20]
 617:.\Generated_Source\PSoC5/USBFS_std.c ****                 /* Find max length for each EP and select it (length could be different in differen
 618:.\Generated_Source\PSoC5/USBFS_std.c ****                 /* but other settings should be correct with regards to Interface alt Setting */
 619:.\Generated_Source\PSoC5/USBFS_std.c ****                 for (cur_ep = 0u; cur_ep < ep; cur_ep++)
 1242              		.loc 1 619 0
 1243 01d4 4FF00003 		mov	r3, #0
 1244 01d8 BB77     		strb	r3, [r7, #30]
 1245 01da B8E0     		b	.L83
 1246              	.L92:
 620:.\Generated_Source\PSoC5/USBFS_std.c ****                 {
 621:.\Generated_Source\PSoC5/USBFS_std.c ****                     /* EP count is equal to EP # in table and we found larger EP length than have b
 622:.\Generated_Source\PSoC5/USBFS_std.c ****                     if(i == (pEP->addr & USBFS_DIR_UNUSED))
 1247              		.loc 1 622 0
 1248 01dc 7A7F     		ldrb	r2, [r7, #29]	@ zero_extendqisi2
 1249 01de 7B69     		ldr	r3, [r7, #20]
 1250 01e0 9B78     		ldrb	r3, [r3, #2]	@ zero_extendqisi2
 1251 01e2 03F07F03 		and	r3, r3, #127
 1252 01e6 9A42     		cmp	r2, r3
 1253 01e8 40F0A980 		bne	.L84
 623:.\Generated_Source\PSoC5/USBFS_std.c ****                     {
 624:.\Generated_Source\PSoC5/USBFS_std.c ****                         if(USBFS_EP[i].bufferSize < pEP->bufferSize)
 1254              		.loc 1 624 0
 1255 01ec 797F     		ldrb	r1, [r7, #29]	@ zero_extendqisi2
 1256 01ee 40F20002 		movw	r2, #:lower16:USBFS_EP
 1257 01f2 C0F20002 		movt	r2, #:upper16:USBFS_EP
 1258 01f6 0B46     		mov	r3, r1
 1259 01f8 4FEA4303 		lsl	r3, r3, #1
 1260 01fc 5B18     		adds	r3, r3, r1
 1261 01fe 4FEA8303 		lsl	r3, r3, #2
 1262 0202 D318     		adds	r3, r2, r3
 1263 0204 03F10803 		add	r3, r3, #8
 1264 0208 1B88     		ldrh	r3, [r3, #0]	@ movhi
ARM GAS  C:\Users\Robert\AppData\Local\Temp\ccvhms5a.s 			page 35


 1265 020a 9AB2     		uxth	r2, r3
 1266 020c 7B69     		ldr	r3, [r7, #20]
 1267 020e 9B88     		ldrh	r3, [r3, #4]
 1268 0210 9A42     		cmp	r2, r3
 1269 0212 11D2     		bcs	.L85
 625:.\Generated_Source\PSoC5/USBFS_std.c ****                         {
 626:.\Generated_Source\PSoC5/USBFS_std.c ****                             USBFS_EP[i].bufferSize = pEP->bufferSize;
 1270              		.loc 1 626 0
 1271 0214 797F     		ldrb	r1, [r7, #29]	@ zero_extendqisi2
 1272 0216 7B69     		ldr	r3, [r7, #20]
 1273 0218 9888     		ldrh	r0, [r3, #4]
 1274 021a 40F20002 		movw	r2, #:lower16:USBFS_EP
 1275 021e C0F20002 		movt	r2, #:upper16:USBFS_EP
 1276 0222 0B46     		mov	r3, r1
 1277 0224 4FEA4303 		lsl	r3, r3, #1
 1278 0228 5B18     		adds	r3, r3, r1
 1279 022a 4FEA8303 		lsl	r3, r3, #2
 1280 022e D318     		adds	r3, r2, r3
 1281 0230 03F10803 		add	r3, r3, #8
 1282 0234 0246     		mov	r2, r0	@ movhi
 1283 0236 1A80     		strh	r2, [r3, #0]	@ movhi
 1284              	.L85:
 627:.\Generated_Source\PSoC5/USBFS_std.c ****                         }
 628:.\Generated_Source\PSoC5/USBFS_std.c ****                         /* Compare current Alternate setting with EP Alt*/
 629:.\Generated_Source\PSoC5/USBFS_std.c ****                         if(USBFS_interfaceSetting[pEP->interface] == pEP->altSetting)
 1285              		.loc 1 629 0
 1286 0238 7B69     		ldr	r3, [r7, #20]
 1287 023a 1B78     		ldrb	r3, [r3, #0]	@ zero_extendqisi2
 1288 023c 1A46     		mov	r2, r3
 1289 023e 40F20003 		movw	r3, #:lower16:USBFS_interfaceSetting
 1290 0242 C0F20003 		movt	r3, #:upper16:USBFS_interfaceSetting
 1291 0246 9B5C     		ldrb	r3, [r3, r2]
 1292 0248 DAB2     		uxtb	r2, r3
 1293 024a 7B69     		ldr	r3, [r7, #20]
 1294 024c 5B78     		ldrb	r3, [r3, #1]	@ zero_extendqisi2
 1295 024e 9A42     		cmp	r2, r3
 1296 0250 75D1     		bne	.L84
 630:.\Generated_Source\PSoC5/USBFS_std.c ****                         {
 631:.\Generated_Source\PSoC5/USBFS_std.c ****                             epType = pEP->attributes & USBFS_EP_TYPE_MASK;
 1297              		.loc 1 631 0
 1298 0252 7B69     		ldr	r3, [r7, #20]
 1299 0254 DB78     		ldrb	r3, [r3, #3]	@ zero_extendqisi2
 1300 0256 03F00303 		and	r3, r3, #3
 1301 025a FB72     		strb	r3, [r7, #11]
 632:.\Generated_Source\PSoC5/USBFS_std.c ****                             if ((pEP->addr & USBFS_DIR_IN) != 0u)
 1302              		.loc 1 632 0
 1303 025c 7B69     		ldr	r3, [r7, #20]
 1304 025e 9B78     		ldrb	r3, [r3, #2]	@ zero_extendqisi2
 1305 0260 DBB2     		uxtb	r3, r3
 1306 0262 5BB2     		sxtb	r3, r3
 1307 0264 002B     		cmp	r3, #0
 1308 0266 25DA     		bge	.L86
 633:.\Generated_Source\PSoC5/USBFS_std.c ****                             {
 634:.\Generated_Source\PSoC5/USBFS_std.c ****                                 /* IN Endpoint */
 635:.\Generated_Source\PSoC5/USBFS_std.c ****                                 USBFS_EP[i].apiEpState = USBFS_EVENT_PENDING;
 1309              		.loc 1 635 0
 1310 0268 797F     		ldrb	r1, [r7, #29]	@ zero_extendqisi2
ARM GAS  C:\Users\Robert\AppData\Local\Temp\ccvhms5a.s 			page 36


 1311 026a 40F20002 		movw	r2, #:lower16:USBFS_EP
 1312 026e C0F20002 		movt	r2, #:upper16:USBFS_EP
 1313 0272 0B46     		mov	r3, r1
 1314 0274 4FEA4303 		lsl	r3, r3, #1
 1315 0278 5B18     		adds	r3, r3, r1
 1316 027a 4FEA8303 		lsl	r3, r3, #2
 1317 027e D318     		adds	r3, r2, r3
 1318 0280 4FF00102 		mov	r2, #1
 1319 0284 5A70     		strb	r2, [r3, #1]
 636:.\Generated_Source\PSoC5/USBFS_std.c ****                                 USBFS_EP[i].epMode = (epType == USBFS_EP_TYPE_ISOC) ?
 1320              		.loc 1 636 0
 1321 0286 787F     		ldrb	r0, [r7, #29]	@ zero_extendqisi2
 1322 0288 FB7A     		ldrb	r3, [r7, #11]	@ zero_extendqisi2
 1323 028a 012B     		cmp	r3, #1
 1324 028c 02D1     		bne	.L87
 1325              		.loc 1 636 0 is_stmt 0 discriminator 1
 1326 028e 4FF00701 		mov	r1, #7
 1327 0292 01E0     		b	.L88
 1328              	.L87:
 1329              		.loc 1 636 0 discriminator 2
 1330 0294 4FF00D01 		mov	r1, #13
 1331              	.L88:
 1332              		.loc 1 636 0 discriminator 3
 1333 0298 40F20002 		movw	r2, #:lower16:USBFS_EP
 1334 029c C0F20002 		movt	r2, #:upper16:USBFS_EP
 1335 02a0 0346     		mov	r3, r0
 1336 02a2 4FEA4303 		lsl	r3, r3, #1
 1337 02a6 1B18     		adds	r3, r3, r0
 1338 02a8 4FEA8303 		lsl	r3, r3, #2
 1339 02ac D318     		adds	r3, r2, r3
 1340 02ae 0A46     		mov	r2, r1
 1341 02b0 5A71     		strb	r2, [r3, #5]
 1342 02b2 24E0     		b	.L89
 1343              	.L86:
 637:.\Generated_Source\PSoC5/USBFS_std.c ****                                                         USBFS_MODE_ISO_IN : USBFS_MODE_ACK_IN;
 638:.\Generated_Source\PSoC5/USBFS_std.c ****                                 /* Find and initialize CDC IN endpoint number */
 639:.\Generated_Source\PSoC5/USBFS_std.c ****                                 #if defined(USBFS_ENABLE_CDC_CLASS)
 640:.\Generated_Source\PSoC5/USBFS_std.c ****                                     if(((pEP->bMisc == USBFS_CLASS_CDC_DATA) ||
 641:.\Generated_Source\PSoC5/USBFS_std.c ****                                         (pEP->bMisc == USBFS_CLASS_CDC)) &&
 642:.\Generated_Source\PSoC5/USBFS_std.c ****                                         (epType != USBFS_EP_TYPE_INT))
 643:.\Generated_Source\PSoC5/USBFS_std.c ****                                     {
 644:.\Generated_Source\PSoC5/USBFS_std.c ****                                         USBFS_cdc_data_in_ep = i;
 645:.\Generated_Source\PSoC5/USBFS_std.c ****                                     }
 646:.\Generated_Source\PSoC5/USBFS_std.c ****                                 #endif  /*  USBFS_ENABLE_CDC_CLASS*/
 647:.\Generated_Source\PSoC5/USBFS_std.c ****                                 #if ( defined(USBFS_ENABLE_MIDI_STREAMING) && \
 648:.\Generated_Source\PSoC5/USBFS_std.c ****                                              (USBFS_MIDI_IN_BUFF_SIZE > 0) )
 649:.\Generated_Source\PSoC5/USBFS_std.c ****                                     if((pEP->bMisc == USBFS_CLASS_AUDIO) &&
 650:.\Generated_Source\PSoC5/USBFS_std.c ****                                        (epType == USBFS_EP_TYPE_BULK))
 651:.\Generated_Source\PSoC5/USBFS_std.c ****                                     {
 652:.\Generated_Source\PSoC5/USBFS_std.c ****                                         USBFS_midi_in_ep = i;
 653:.\Generated_Source\PSoC5/USBFS_std.c ****                                     }
 654:.\Generated_Source\PSoC5/USBFS_std.c ****                                 #endif  /*  USBFS_ENABLE_MIDI_STREAMING*/
 655:.\Generated_Source\PSoC5/USBFS_std.c ****                             }
 656:.\Generated_Source\PSoC5/USBFS_std.c ****                             else
 657:.\Generated_Source\PSoC5/USBFS_std.c ****                             {
 658:.\Generated_Source\PSoC5/USBFS_std.c ****                                 /* OUT Endpoint */
 659:.\Generated_Source\PSoC5/USBFS_std.c ****                                 USBFS_EP[i].apiEpState = USBFS_NO_EVENT_PENDING;
ARM GAS  C:\Users\Robert\AppData\Local\Temp\ccvhms5a.s 			page 37


 1344              		.loc 1 659 0 is_stmt 1
 1345 02b4 797F     		ldrb	r1, [r7, #29]	@ zero_extendqisi2
 1346 02b6 40F20002 		movw	r2, #:lower16:USBFS_EP
 1347 02ba C0F20002 		movt	r2, #:upper16:USBFS_EP
 1348 02be 0B46     		mov	r3, r1
 1349 02c0 4FEA4303 		lsl	r3, r3, #1
 1350 02c4 5B18     		adds	r3, r3, r1
 1351 02c6 4FEA8303 		lsl	r3, r3, #2
 1352 02ca D318     		adds	r3, r2, r3
 1353 02cc 4FF00002 		mov	r2, #0
 1354 02d0 5A70     		strb	r2, [r3, #1]
 660:.\Generated_Source\PSoC5/USBFS_std.c ****                                 USBFS_EP[i].epMode = (epType == USBFS_EP_TYPE_ISOC) ?
 1355              		.loc 1 660 0
 1356 02d2 787F     		ldrb	r0, [r7, #29]	@ zero_extendqisi2
 1357 02d4 FB7A     		ldrb	r3, [r7, #11]	@ zero_extendqisi2
 1358 02d6 012B     		cmp	r3, #1
 1359 02d8 02D1     		bne	.L90
 1360              		.loc 1 660 0 is_stmt 0 discriminator 1
 1361 02da 4FF00501 		mov	r1, #5
 1362 02de 01E0     		b	.L91
 1363              	.L90:
 1364              		.loc 1 660 0 discriminator 2
 1365 02e0 4FF00901 		mov	r1, #9
 1366              	.L91:
 1367              		.loc 1 660 0 discriminator 3
 1368 02e4 40F20002 		movw	r2, #:lower16:USBFS_EP
 1369 02e8 C0F20002 		movt	r2, #:upper16:USBFS_EP
 1370 02ec 0346     		mov	r3, r0
 1371 02ee 4FEA4303 		lsl	r3, r3, #1
 1372 02f2 1B18     		adds	r3, r3, r0
 1373 02f4 4FEA8303 		lsl	r3, r3, #2
 1374 02f8 D318     		adds	r3, r2, r3
 1375 02fa 0A46     		mov	r2, r1
 1376 02fc 5A71     		strb	r2, [r3, #5]
 1377              	.L89:
 661:.\Generated_Source\PSoC5/USBFS_std.c ****                                                     USBFS_MODE_ISO_OUT : USBFS_MODE_ACK_OUT;
 662:.\Generated_Source\PSoC5/USBFS_std.c ****                                 /* Find and initialize CDC IN endpoint number */
 663:.\Generated_Source\PSoC5/USBFS_std.c ****                                 #if defined(USBFS_ENABLE_CDC_CLASS)
 664:.\Generated_Source\PSoC5/USBFS_std.c ****                                     if(((pEP->bMisc == USBFS_CLASS_CDC_DATA) ||
 665:.\Generated_Source\PSoC5/USBFS_std.c ****                                         (pEP->bMisc == USBFS_CLASS_CDC)) &&
 666:.\Generated_Source\PSoC5/USBFS_std.c ****                                         (epType != USBFS_EP_TYPE_INT))
 667:.\Generated_Source\PSoC5/USBFS_std.c ****                                     {
 668:.\Generated_Source\PSoC5/USBFS_std.c ****                                         USBFS_cdc_data_out_ep = i;
 669:.\Generated_Source\PSoC5/USBFS_std.c ****                                     }
 670:.\Generated_Source\PSoC5/USBFS_std.c ****                                 #endif  /*  USBFS_ENABLE_CDC_CLASS*/
 671:.\Generated_Source\PSoC5/USBFS_std.c ****                                 #if ( defined(USBFS_ENABLE_MIDI_STREAMING) && \
 672:.\Generated_Source\PSoC5/USBFS_std.c ****                                              (USBFS_MIDI_OUT_BUFF_SIZE > 0) )
 673:.\Generated_Source\PSoC5/USBFS_std.c ****                                     if((pEP->bMisc == USBFS_CLASS_AUDIO) &&
 674:.\Generated_Source\PSoC5/USBFS_std.c ****                                        (epType == USBFS_EP_TYPE_BULK))
 675:.\Generated_Source\PSoC5/USBFS_std.c ****                                     {
 676:.\Generated_Source\PSoC5/USBFS_std.c ****                                         USBFS_midi_out_ep = i;
 677:.\Generated_Source\PSoC5/USBFS_std.c ****                                     }
 678:.\Generated_Source\PSoC5/USBFS_std.c ****                                 #endif  /*  USBFS_ENABLE_MIDI_STREAMING*/
 679:.\Generated_Source\PSoC5/USBFS_std.c ****                             }
 680:.\Generated_Source\PSoC5/USBFS_std.c ****                             USBFS_EP[i].addr = pEP->addr;
 1378              		.loc 1 680 0 is_stmt 1
 1379 02fe 797F     		ldrb	r1, [r7, #29]	@ zero_extendqisi2
ARM GAS  C:\Users\Robert\AppData\Local\Temp\ccvhms5a.s 			page 38


 1380 0300 7B69     		ldr	r3, [r7, #20]
 1381 0302 9878     		ldrb	r0, [r3, #2]	@ zero_extendqisi2
 1382 0304 40F20002 		movw	r2, #:lower16:USBFS_EP
 1383 0308 C0F20002 		movt	r2, #:upper16:USBFS_EP
 1384 030c 0B46     		mov	r3, r1
 1385 030e 4FEA4303 		lsl	r3, r3, #1
 1386 0312 5B18     		adds	r3, r3, r1
 1387 0314 4FEA8303 		lsl	r3, r3, #2
 1388 0318 D318     		adds	r3, r2, r3
 1389 031a 0246     		mov	r2, r0
 1390 031c 1A71     		strb	r2, [r3, #4]
 681:.\Generated_Source\PSoC5/USBFS_std.c ****                             USBFS_EP[i].attrib = pEP->attributes;
 1391              		.loc 1 681 0
 1392 031e 797F     		ldrb	r1, [r7, #29]	@ zero_extendqisi2
 1393 0320 7B69     		ldr	r3, [r7, #20]
 1394 0322 D878     		ldrb	r0, [r3, #3]	@ zero_extendqisi2
 1395 0324 40F20002 		movw	r2, #:lower16:USBFS_EP
 1396 0328 C0F20002 		movt	r2, #:upper16:USBFS_EP
 1397 032c 0B46     		mov	r3, r1
 1398 032e 4FEA4303 		lsl	r3, r3, #1
 1399 0332 5B18     		adds	r3, r3, r1
 1400 0334 4FEA8303 		lsl	r3, r3, #2
 1401 0338 D318     		adds	r3, r2, r3
 1402 033a 0246     		mov	r2, r0
 1403 033c 1A70     		strb	r2, [r3, #0]
 1404              	.L84:
 682:.\Generated_Source\PSoC5/USBFS_std.c **** 
 683:.\Generated_Source\PSoC5/USBFS_std.c ****                             #if(USBFS_EP_MM == USBFS__EP_DMAAUTO)
 684:.\Generated_Source\PSoC5/USBFS_std.c ****                                 break;      /* use first EP setting in Auto memory managment */
 685:.\Generated_Source\PSoC5/USBFS_std.c ****                             #endif /*  USBFS_EP_MM == USBFS__EP_DMAAUTO */
 686:.\Generated_Source\PSoC5/USBFS_std.c ****                         }
 687:.\Generated_Source\PSoC5/USBFS_std.c ****                     }
 688:.\Generated_Source\PSoC5/USBFS_std.c ****                     pEP = &pEP[1u];
 1405              		.loc 1 688 0
 1406 033e 7B69     		ldr	r3, [r7, #20]
 1407 0340 03F10803 		add	r3, r3, #8
 1408 0344 7B61     		str	r3, [r7, #20]
 619:.\Generated_Source\PSoC5/USBFS_std.c ****                 for (cur_ep = 0u; cur_ep < ep; cur_ep++)
 1409              		.loc 1 619 0
 1410 0346 BB7F     		ldrb	r3, [r7, #30]
 1411 0348 03F10103 		add	r3, r3, #1
 1412 034c BB77     		strb	r3, [r7, #30]
 1413              	.L83:
 619:.\Generated_Source\PSoC5/USBFS_std.c ****                 for (cur_ep = 0u; cur_ep < ep; cur_ep++)
 1414              		.loc 1 619 0 is_stmt 0 discriminator 1
 1415 034e BA7F     		ldrb	r2, [r7, #30]	@ zero_extendqisi2
 1416 0350 FB7F     		ldrb	r3, [r7, #31]	@ zero_extendqisi2
 1417 0352 9A42     		cmp	r2, r3
 1418 0354 FFF442AF 		bcc	.L92
 613:.\Generated_Source\PSoC5/USBFS_std.c ****             for (i = USBFS_EP1; i < USBFS_MAX_EP; i++)
 1419              		.loc 1 613 0 is_stmt 1
 1420 0358 7B7F     		ldrb	r3, [r7, #29]
 1421 035a 03F10103 		add	r3, r3, #1
 1422 035e 7B77     		strb	r3, [r7, #29]
 1423              	.L82:
 613:.\Generated_Source\PSoC5/USBFS_std.c ****             for (i = USBFS_EP1; i < USBFS_MAX_EP; i++)
 1424              		.loc 1 613 0 is_stmt 0 discriminator 1
ARM GAS  C:\Users\Robert\AppData\Local\Temp\ccvhms5a.s 			page 39


 1425 0360 7B7F     		ldrb	r3, [r7, #29]	@ zero_extendqisi2
 1426 0362 082B     		cmp	r3, #8
 1427 0364 7FF633AF 		bls	.L93
 689:.\Generated_Source\PSoC5/USBFS_std.c ****                 }
 690:.\Generated_Source\PSoC5/USBFS_std.c ****             }
 691:.\Generated_Source\PSoC5/USBFS_std.c ****         #endif /*  (USBFS_EP_MA == USBFS__MA_DYNAMIC) */
 692:.\Generated_Source\PSoC5/USBFS_std.c **** 
 693:.\Generated_Source\PSoC5/USBFS_std.c ****         /* Init class array for each interface and interface number for each EP.
 694:.\Generated_Source\PSoC5/USBFS_std.c ****         *  It is used for handling Class specific requests directed to either an
 695:.\Generated_Source\PSoC5/USBFS_std.c ****         *  interface or the endpoint.
 696:.\Generated_Source\PSoC5/USBFS_std.c ****         */
 697:.\Generated_Source\PSoC5/USBFS_std.c ****         /* p_list points the endpoint setting table. */
 698:.\Generated_Source\PSoC5/USBFS_std.c ****         pEP = (const T_USBFS_EP_SETTINGS_BLOCK CYCODE *) pTmp->p_list;
 1428              		.loc 1 698 0 is_stmt 1
 1429 0368 3B69     		ldr	r3, [r7, #16]
 1430 036a 5B68     		ldr	r3, [r3, #4]
 1431 036c 7B61     		str	r3, [r7, #20]
 699:.\Generated_Source\PSoC5/USBFS_std.c ****         for (i = 0u; i < ep; i++)
 1432              		.loc 1 699 0
 1433 036e 4FF00003 		mov	r3, #0
 1434 0372 7B77     		strb	r3, [r7, #29]
 1435 0374 1CE0     		b	.L94
 1436              	.L95:
 700:.\Generated_Source\PSoC5/USBFS_std.c ****         {
 701:.\Generated_Source\PSoC5/USBFS_std.c ****             /* Configure interface number for each EP*/
 702:.\Generated_Source\PSoC5/USBFS_std.c ****             USBFS_EP[pEP->addr & USBFS_DIR_UNUSED].interface = pEP->interface;
 1437              		.loc 1 702 0 discriminator 2
 1438 0376 7B69     		ldr	r3, [r7, #20]
 1439 0378 9B78     		ldrb	r3, [r3, #2]	@ zero_extendqisi2
 1440 037a 03F07F01 		and	r1, r3, #127
 1441 037e 7B69     		ldr	r3, [r7, #20]
 1442 0380 1878     		ldrb	r0, [r3, #0]	@ zero_extendqisi2
 1443 0382 40F20002 		movw	r2, #:lower16:USBFS_EP
 1444 0386 C0F20002 		movt	r2, #:upper16:USBFS_EP
 1445 038a 0B46     		mov	r3, r1
 1446 038c 4FEA4303 		lsl	r3, r3, #1
 1447 0390 5B18     		adds	r3, r3, r1
 1448 0392 4FEA8303 		lsl	r3, r3, #2
 1449 0396 D318     		adds	r3, r2, r3
 1450 0398 03F10803 		add	r3, r3, #8
 1451 039c 0246     		mov	r2, r0
 1452 039e 9A70     		strb	r2, [r3, #2]
 703:.\Generated_Source\PSoC5/USBFS_std.c ****             pEP = &pEP[1u];
 1453              		.loc 1 703 0 discriminator 2
 1454 03a0 7B69     		ldr	r3, [r7, #20]
 1455 03a2 03F10803 		add	r3, r3, #8
 1456 03a6 7B61     		str	r3, [r7, #20]
 699:.\Generated_Source\PSoC5/USBFS_std.c ****         for (i = 0u; i < ep; i++)
 1457              		.loc 1 699 0 discriminator 2
 1458 03a8 7B7F     		ldrb	r3, [r7, #29]
 1459 03aa 03F10103 		add	r3, r3, #1
 1460 03ae 7B77     		strb	r3, [r7, #29]
 1461              	.L94:
 699:.\Generated_Source\PSoC5/USBFS_std.c ****         for (i = 0u; i < ep; i++)
 1462              		.loc 1 699 0 is_stmt 0 discriminator 1
 1463 03b0 7A7F     		ldrb	r2, [r7, #29]	@ zero_extendqisi2
 1464 03b2 FB7F     		ldrb	r3, [r7, #31]	@ zero_extendqisi2
ARM GAS  C:\Users\Robert\AppData\Local\Temp\ccvhms5a.s 			page 40


 1465 03b4 9A42     		cmp	r2, r3
 1466 03b6 DED3     		bcc	.L95
 704:.\Generated_Source\PSoC5/USBFS_std.c ****         }
 705:.\Generated_Source\PSoC5/USBFS_std.c ****         /* Init pointer on interface class table*/
 706:.\Generated_Source\PSoC5/USBFS_std.c ****         USBFS_interfaceClass = USBFS_GetInterfaceClassTablePtr();
 1467              		.loc 1 706 0 is_stmt 1
 1468 03b8 FFF7FEFF 		bl	USBFS_GetInterfaceClassTablePtr
 1469 03bc 0246     		mov	r2, r0
 1470 03be 40F20003 		movw	r3, #:lower16:USBFS_interfaceClass
 1471 03c2 C0F20003 		movt	r3, #:upper16:USBFS_interfaceClass
 1472 03c6 1A60     		str	r2, [r3, #0]
 707:.\Generated_Source\PSoC5/USBFS_std.c ****         /* Set the endpoint buffer addresses */
 708:.\Generated_Source\PSoC5/USBFS_std.c **** 
 709:.\Generated_Source\PSoC5/USBFS_std.c ****         #if(USBFS_EP_MM != USBFS__EP_DMAAUTO)
 710:.\Generated_Source\PSoC5/USBFS_std.c ****             for (ep = USBFS_EP1; ep < USBFS_MAX_EP; ep++)
 1473              		.loc 1 710 0
 1474 03c8 4FF00103 		mov	r3, #1
 1475 03cc FB77     		strb	r3, [r7, #31]
 1476 03ce 24E0     		b	.L96
 1477              	.L97:
 711:.\Generated_Source\PSoC5/USBFS_std.c ****             {
 712:.\Generated_Source\PSoC5/USBFS_std.c ****                 USBFS_EP[ep].buffOffset = buffCount;
 1478              		.loc 1 712 0 discriminator 2
 1479 03d0 F97F     		ldrb	r1, [r7, #31]	@ zero_extendqisi2
 1480 03d2 40F20002 		movw	r2, #:lower16:USBFS_EP
 1481 03d6 C0F20002 		movt	r2, #:upper16:USBFS_EP
 1482 03da 0B46     		mov	r3, r1
 1483 03dc 4FEA4303 		lsl	r3, r3, #1
 1484 03e0 5B18     		adds	r3, r3, r1
 1485 03e2 4FEA8303 		lsl	r3, r3, #2
 1486 03e6 D318     		adds	r3, r2, r3
 1487 03e8 7A8B     		ldrh	r2, [r7, #26]	@ movhi
 1488 03ea DA80     		strh	r2, [r3, #6]	@ movhi
 713:.\Generated_Source\PSoC5/USBFS_std.c ****                  buffCount += USBFS_EP[ep].bufferSize;
 1489              		.loc 1 713 0 discriminator 2
 1490 03ec F97F     		ldrb	r1, [r7, #31]	@ zero_extendqisi2
 1491 03ee 40F20002 		movw	r2, #:lower16:USBFS_EP
 1492 03f2 C0F20002 		movt	r2, #:upper16:USBFS_EP
 1493 03f6 0B46     		mov	r3, r1
 1494 03f8 4FEA4303 		lsl	r3, r3, #1
 1495 03fc 5B18     		adds	r3, r3, r1
 1496 03fe 4FEA8303 		lsl	r3, r3, #2
 1497 0402 D318     		adds	r3, r2, r3
 1498 0404 03F10803 		add	r3, r3, #8
 1499 0408 1B88     		ldrh	r3, [r3, #0]	@ movhi
 1500 040a 9AB2     		uxth	r2, r3
 1501 040c 7B8B     		ldrh	r3, [r7, #26]	@ movhi
 1502 040e D318     		adds	r3, r2, r3
 1503 0410 7B83     		strh	r3, [r7, #26]	@ movhi
 710:.\Generated_Source\PSoC5/USBFS_std.c ****             for (ep = USBFS_EP1; ep < USBFS_MAX_EP; ep++)
 1504              		.loc 1 710 0 discriminator 2
 1505 0412 FB7F     		ldrb	r3, [r7, #31]
 1506 0414 03F10103 		add	r3, r3, #1
 1507 0418 FB77     		strb	r3, [r7, #31]
 1508              	.L96:
 710:.\Generated_Source\PSoC5/USBFS_std.c ****             for (ep = USBFS_EP1; ep < USBFS_MAX_EP; ep++)
 1509              		.loc 1 710 0 is_stmt 0 discriminator 1
ARM GAS  C:\Users\Robert\AppData\Local\Temp\ccvhms5a.s 			page 41


 1510 041a FB7F     		ldrb	r3, [r7, #31]	@ zero_extendqisi2
 1511 041c 082B     		cmp	r3, #8
 1512 041e D7D9     		bls	.L97
 714:.\Generated_Source\PSoC5/USBFS_std.c ****             }
 715:.\Generated_Source\PSoC5/USBFS_std.c ****         #endif /*  USBFS_EP_MM != USBFS__EP_DMAAUTO */
 716:.\Generated_Source\PSoC5/USBFS_std.c **** 
 717:.\Generated_Source\PSoC5/USBFS_std.c ****         /* Configure hardware registers */
 718:.\Generated_Source\PSoC5/USBFS_std.c ****         USBFS_ConfigReg();
 1513              		.loc 1 718 0 is_stmt 1
 1514 0420 FFF7FEFF 		bl	USBFS_ConfigReg
 1515              	.L73:
 719:.\Generated_Source\PSoC5/USBFS_std.c ****     } /* USBFS_configuration > 0 */
 720:.\Generated_Source\PSoC5/USBFS_std.c **** }
 1516              		.loc 1 720 0
 1517 0424 07F12007 		add	r7, r7, #32
 1518 0428 BD46     		mov	sp, r7
 1519 042a 80BD     		pop	{r7, pc}
 1520              		.cfi_endproc
 1521              	.LFE2:
 1522              		.size	USBFS_Config, .-USBFS_Config
 1523              		.section	.text.USBFS_ConfigAltChanged,"ax",%progbits
 1524              		.align	2
 1525              		.global	USBFS_ConfigAltChanged
 1526              		.thumb
 1527              		.thumb_func
 1528              		.type	USBFS_ConfigAltChanged, %function
 1529              	USBFS_ConfigAltChanged:
 1530              	.LFB3:
 721:.\Generated_Source\PSoC5/USBFS_std.c **** 
 722:.\Generated_Source\PSoC5/USBFS_std.c **** 
 723:.\Generated_Source\PSoC5/USBFS_std.c **** /*******************************************************************************
 724:.\Generated_Source\PSoC5/USBFS_std.c **** * Function Name: USBFS_ConfigAltChanged
 725:.\Generated_Source\PSoC5/USBFS_std.c **** ********************************************************************************
 726:.\Generated_Source\PSoC5/USBFS_std.c **** *
 727:.\Generated_Source\PSoC5/USBFS_std.c **** * Summary:
 728:.\Generated_Source\PSoC5/USBFS_std.c **** *  This routine update configuration for the required endpoints only.
 729:.\Generated_Source\PSoC5/USBFS_std.c **** *  It is called after SET_INTERFACE request when Static memory allocation used.
 730:.\Generated_Source\PSoC5/USBFS_std.c **** *
 731:.\Generated_Source\PSoC5/USBFS_std.c **** * Parameters:
 732:.\Generated_Source\PSoC5/USBFS_std.c **** *  None.
 733:.\Generated_Source\PSoC5/USBFS_std.c **** *
 734:.\Generated_Source\PSoC5/USBFS_std.c **** * Return:
 735:.\Generated_Source\PSoC5/USBFS_std.c **** *  None.
 736:.\Generated_Source\PSoC5/USBFS_std.c **** *
 737:.\Generated_Source\PSoC5/USBFS_std.c **** * Reentrant:
 738:.\Generated_Source\PSoC5/USBFS_std.c **** *  No.
 739:.\Generated_Source\PSoC5/USBFS_std.c **** *
 740:.\Generated_Source\PSoC5/USBFS_std.c **** *******************************************************************************/
 741:.\Generated_Source\PSoC5/USBFS_std.c **** void USBFS_ConfigAltChanged(void) 
 742:.\Generated_Source\PSoC5/USBFS_std.c **** {
 1531              		.loc 1 742 0
 1532              		.cfi_startproc
 1533              		@ args = 0, pretend = 0, frame = 16
 1534              		@ frame_needed = 1, uses_anonymous_args = 0
 1535 0000 80B5     		push	{r7, lr}
 1536              	.LCFI9:
 1537              		.cfi_def_cfa_offset 8
ARM GAS  C:\Users\Robert\AppData\Local\Temp\ccvhms5a.s 			page 42


 1538              		.cfi_offset 7, -8
 1539              		.cfi_offset 14, -4
 1540 0002 84B0     		sub	sp, sp, #16
 1541              	.LCFI10:
 1542              		.cfi_def_cfa_offset 24
 1543 0004 00AF     		add	r7, sp, #0
 1544              	.LCFI11:
 1545              		.cfi_def_cfa_register 7
 743:.\Generated_Source\PSoC5/USBFS_std.c ****     uint8 ep;
 744:.\Generated_Source\PSoC5/USBFS_std.c ****     uint8 cur_ep;
 745:.\Generated_Source\PSoC5/USBFS_std.c ****     uint8 i;
 746:.\Generated_Source\PSoC5/USBFS_std.c ****     uint8 epType;
 747:.\Generated_Source\PSoC5/USBFS_std.c ****     uint8 ri;
 748:.\Generated_Source\PSoC5/USBFS_std.c **** 
 749:.\Generated_Source\PSoC5/USBFS_std.c ****     const T_USBFS_LUT CYCODE *pTmp;
 750:.\Generated_Source\PSoC5/USBFS_std.c ****     const T_USBFS_EP_SETTINGS_BLOCK CYCODE *pEP;
 751:.\Generated_Source\PSoC5/USBFS_std.c **** 
 752:.\Generated_Source\PSoC5/USBFS_std.c **** 
 753:.\Generated_Source\PSoC5/USBFS_std.c ****     /* Init Endpoints and Device Status if configured */
 754:.\Generated_Source\PSoC5/USBFS_std.c ****     if(USBFS_configuration > 0u)
 1546              		.loc 1 754 0
 1547 0006 40F20003 		movw	r3, #:lower16:USBFS_configuration
 1548 000a C0F20003 		movt	r3, #:upper16:USBFS_configuration
 1549 000e 1B78     		ldrb	r3, [r3, #0]
 1550 0010 DBB2     		uxtb	r3, r3
 1551 0012 002B     		cmp	r3, #0
 1552 0014 00F09981 		beq	.L98
 755:.\Generated_Source\PSoC5/USBFS_std.c ****     {
 756:.\Generated_Source\PSoC5/USBFS_std.c ****         pTmp = USBFS_GetConfigTablePtr(USBFS_configuration - 1u);
 1553              		.loc 1 756 0
 1554 0018 40F20003 		movw	r3, #:lower16:USBFS_configuration
 1555 001c C0F20003 		movt	r3, #:upper16:USBFS_configuration
 1556 0020 1B78     		ldrb	r3, [r3, #0]
 1557 0022 DBB2     		uxtb	r3, r3
 1558 0024 03F1FF33 		add	r3, r3, #-1
 1559 0028 DBB2     		uxtb	r3, r3
 1560 002a 1846     		mov	r0, r3
 1561 002c FFF7FEFF 		bl	USBFS_GetConfigTablePtr
 1562 0030 7860     		str	r0, [r7, #4]
 757:.\Generated_Source\PSoC5/USBFS_std.c ****         pTmp = &pTmp[1u];
 1563              		.loc 1 757 0
 1564 0032 7B68     		ldr	r3, [r7, #4]
 1565 0034 03F10803 		add	r3, r3, #8
 1566 0038 7B60     		str	r3, [r7, #4]
 758:.\Generated_Source\PSoC5/USBFS_std.c ****         ep = pTmp->c;  /* For this table, c is the number of endpoints configurations  */
 1567              		.loc 1 758 0
 1568 003a 7B68     		ldr	r3, [r7, #4]
 1569 003c 1B78     		ldrb	r3, [r3, #0]
 1570 003e FB70     		strb	r3, [r7, #3]
 759:.\Generated_Source\PSoC5/USBFS_std.c **** 
 760:.\Generated_Source\PSoC5/USBFS_std.c ****         /* Do not touch EP which doesn't need reconfiguration */
 761:.\Generated_Source\PSoC5/USBFS_std.c ****         /* When Alt setting changed, the only required endpoints need to be reconfigured */
 762:.\Generated_Source\PSoC5/USBFS_std.c ****         /* p_list points the endpoint setting table. */
 763:.\Generated_Source\PSoC5/USBFS_std.c ****         pEP = (const T_USBFS_EP_SETTINGS_BLOCK CYCODE *) pTmp->p_list;
 1571              		.loc 1 763 0
 1572 0040 7B68     		ldr	r3, [r7, #4]
 1573 0042 5B68     		ldr	r3, [r3, #4]
ARM GAS  C:\Users\Robert\AppData\Local\Temp\ccvhms5a.s 			page 43


 1574 0044 BB60     		str	r3, [r7, #8]
 764:.\Generated_Source\PSoC5/USBFS_std.c ****         for (i = 0u; i < ep; i++)
 1575              		.loc 1 764 0
 1576 0046 4FF00003 		mov	r3, #0
 1577 004a FB73     		strb	r3, [r7, #15]
 1578 004c 78E1     		b	.L100
 1579              	.L108:
 765:.\Generated_Source\PSoC5/USBFS_std.c ****         {
 766:.\Generated_Source\PSoC5/USBFS_std.c ****             /*If Alt setting changed and new is same with EP Alt */
 767:.\Generated_Source\PSoC5/USBFS_std.c ****             if((USBFS_interfaceSetting[pEP->interface] !=
 1580              		.loc 1 767 0
 1581 004e BB68     		ldr	r3, [r7, #8]
 1582 0050 1B78     		ldrb	r3, [r3, #0]	@ zero_extendqisi2
 1583 0052 1A46     		mov	r2, r3
 1584 0054 40F20003 		movw	r3, #:lower16:USBFS_interfaceSetting
 1585 0058 C0F20003 		movt	r3, #:upper16:USBFS_interfaceSetting
 1586 005c 9B5C     		ldrb	r3, [r3, r2]
 1587 005e DAB2     		uxtb	r2, r3
 768:.\Generated_Source\PSoC5/USBFS_std.c ****                 USBFS_interfaceSetting_last[pEP->interface] ) &&
 1588              		.loc 1 768 0
 1589 0060 BB68     		ldr	r3, [r7, #8]
 1590 0062 1B78     		ldrb	r3, [r3, #0]	@ zero_extendqisi2
 1591 0064 1946     		mov	r1, r3
 1592 0066 40F20003 		movw	r3, #:lower16:USBFS_interfaceSetting_last
 1593 006a C0F20003 		movt	r3, #:upper16:USBFS_interfaceSetting_last
 1594 006e 5B5C     		ldrb	r3, [r3, r1]
 1595 0070 DBB2     		uxtb	r3, r3
 767:.\Generated_Source\PSoC5/USBFS_std.c ****             if((USBFS_interfaceSetting[pEP->interface] !=
 1596              		.loc 1 767 0
 1597 0072 9A42     		cmp	r2, r3
 1598 0074 00F05C81 		beq	.L101
 769:.\Generated_Source\PSoC5/USBFS_std.c ****                (USBFS_interfaceSetting[pEP->interface] == pEP->altSetting) &&
 1599              		.loc 1 769 0
 1600 0078 BB68     		ldr	r3, [r7, #8]
 1601 007a 1B78     		ldrb	r3, [r3, #0]	@ zero_extendqisi2
 1602 007c 1A46     		mov	r2, r3
 1603 007e 40F20003 		movw	r3, #:lower16:USBFS_interfaceSetting
 1604 0082 C0F20003 		movt	r3, #:upper16:USBFS_interfaceSetting
 1605 0086 9B5C     		ldrb	r3, [r3, r2]
 1606 0088 DAB2     		uxtb	r2, r3
 1607 008a BB68     		ldr	r3, [r7, #8]
 1608 008c 5B78     		ldrb	r3, [r3, #1]	@ zero_extendqisi2
 768:.\Generated_Source\PSoC5/USBFS_std.c ****                 USBFS_interfaceSetting_last[pEP->interface] ) &&
 1609              		.loc 1 768 0
 1610 008e 9A42     		cmp	r2, r3
 1611 0090 40F04E81 		bne	.L101
 770:.\Generated_Source\PSoC5/USBFS_std.c ****                (pEP->interface == CY_GET_REG8(USBFS_wIndexLo)))
 1612              		.loc 1 770 0
 1613 0094 BB68     		ldr	r3, [r7, #8]
 1614 0096 1A78     		ldrb	r2, [r3, #0]	@ zero_extendqisi2
 1615 0098 46F20403 		movw	r3, #24580
 1616 009c C4F20003 		movt	r3, 16384
 1617 00a0 1B78     		ldrb	r3, [r3, #0]
 1618 00a2 DBB2     		uxtb	r3, r3
 769:.\Generated_Source\PSoC5/USBFS_std.c ****                (USBFS_interfaceSetting[pEP->interface] == pEP->altSetting) &&
 1619              		.loc 1 769 0
 1620 00a4 9A42     		cmp	r2, r3
ARM GAS  C:\Users\Robert\AppData\Local\Temp\ccvhms5a.s 			page 44


 1621 00a6 40F04381 		bne	.L101
 771:.\Generated_Source\PSoC5/USBFS_std.c ****             {
 772:.\Generated_Source\PSoC5/USBFS_std.c ****                 cur_ep = pEP->addr & USBFS_DIR_UNUSED;
 1622              		.loc 1 772 0
 1623 00aa BB68     		ldr	r3, [r7, #8]
 1624 00ac 9B78     		ldrb	r3, [r3, #2]	@ zero_extendqisi2
 1625 00ae 03F07F03 		and	r3, r3, #127
 1626 00b2 BB70     		strb	r3, [r7, #2]
 773:.\Generated_Source\PSoC5/USBFS_std.c ****                 ri = ((cur_ep - USBFS_EP1) << USBFS_EPX_CNTX_ADDR_SHIFT);
 1627              		.loc 1 773 0
 1628 00b4 BB78     		ldrb	r3, [r7, #2]
 1629 00b6 03F1FF33 		add	r3, r3, #-1
 1630 00ba DBB2     		uxtb	r3, r3
 1631 00bc 4FEA0313 		lsl	r3, r3, #4
 1632 00c0 7B70     		strb	r3, [r7, #1]
 774:.\Generated_Source\PSoC5/USBFS_std.c ****                 epType = pEP->attributes & USBFS_EP_TYPE_MASK;
 1633              		.loc 1 774 0
 1634 00c2 BB68     		ldr	r3, [r7, #8]
 1635 00c4 DB78     		ldrb	r3, [r3, #3]	@ zero_extendqisi2
 1636 00c6 03F00303 		and	r3, r3, #3
 1637 00ca 3B70     		strb	r3, [r7, #0]
 775:.\Generated_Source\PSoC5/USBFS_std.c ****                 if ((pEP->addr & USBFS_DIR_IN) != 0u)
 1638              		.loc 1 775 0
 1639 00cc BB68     		ldr	r3, [r7, #8]
 1640 00ce 9B78     		ldrb	r3, [r3, #2]	@ zero_extendqisi2
 1641 00d0 DBB2     		uxtb	r3, r3
 1642 00d2 5BB2     		sxtb	r3, r3
 1643 00d4 002B     		cmp	r3, #0
 1644 00d6 25DA     		bge	.L102
 776:.\Generated_Source\PSoC5/USBFS_std.c ****                 {
 777:.\Generated_Source\PSoC5/USBFS_std.c ****                     /* IN Endpoint */
 778:.\Generated_Source\PSoC5/USBFS_std.c ****                     USBFS_EP[cur_ep].apiEpState = USBFS_EVENT_PENDING;
 1645              		.loc 1 778 0
 1646 00d8 B978     		ldrb	r1, [r7, #2]	@ zero_extendqisi2
 1647 00da 40F20002 		movw	r2, #:lower16:USBFS_EP
 1648 00de C0F20002 		movt	r2, #:upper16:USBFS_EP
 1649 00e2 0B46     		mov	r3, r1
 1650 00e4 4FEA4303 		lsl	r3, r3, #1
 1651 00e8 5B18     		adds	r3, r3, r1
 1652 00ea 4FEA8303 		lsl	r3, r3, #2
 1653 00ee D318     		adds	r3, r2, r3
 1654 00f0 4FF00102 		mov	r2, #1
 1655 00f4 5A70     		strb	r2, [r3, #1]
 779:.\Generated_Source\PSoC5/USBFS_std.c ****                     USBFS_EP[cur_ep].epMode = (epType == USBFS_EP_TYPE_ISOC) ?
 1656              		.loc 1 779 0
 1657 00f6 B878     		ldrb	r0, [r7, #2]	@ zero_extendqisi2
 1658 00f8 3B78     		ldrb	r3, [r7, #0]	@ zero_extendqisi2
 1659 00fa 012B     		cmp	r3, #1
 1660 00fc 02D1     		bne	.L103
 1661              		.loc 1 779 0 is_stmt 0 discriminator 1
 1662 00fe 4FF00701 		mov	r1, #7
 1663 0102 01E0     		b	.L104
 1664              	.L103:
 1665              		.loc 1 779 0 discriminator 2
 1666 0104 4FF00D01 		mov	r1, #13
 1667              	.L104:
 1668              		.loc 1 779 0 discriminator 3
ARM GAS  C:\Users\Robert\AppData\Local\Temp\ccvhms5a.s 			page 45


 1669 0108 40F20002 		movw	r2, #:lower16:USBFS_EP
 1670 010c C0F20002 		movt	r2, #:upper16:USBFS_EP
 1671 0110 0346     		mov	r3, r0
 1672 0112 4FEA4303 		lsl	r3, r3, #1
 1673 0116 1B18     		adds	r3, r3, r0
 1674 0118 4FEA8303 		lsl	r3, r3, #2
 1675 011c D318     		adds	r3, r2, r3
 1676 011e 0A46     		mov	r2, r1
 1677 0120 5A71     		strb	r2, [r3, #5]
 1678 0122 24E0     		b	.L105
 1679              	.L102:
 780:.\Generated_Source\PSoC5/USBFS_std.c ****                                                 USBFS_MODE_ISO_IN : USBFS_MODE_ACK_IN;
 781:.\Generated_Source\PSoC5/USBFS_std.c ****                 }
 782:.\Generated_Source\PSoC5/USBFS_std.c ****                 else
 783:.\Generated_Source\PSoC5/USBFS_std.c ****                 {
 784:.\Generated_Source\PSoC5/USBFS_std.c ****                     /* OUT Endpoint */
 785:.\Generated_Source\PSoC5/USBFS_std.c ****                     USBFS_EP[cur_ep].apiEpState = USBFS_NO_EVENT_PENDING;
 1680              		.loc 1 785 0 is_stmt 1
 1681 0124 B978     		ldrb	r1, [r7, #2]	@ zero_extendqisi2
 1682 0126 40F20002 		movw	r2, #:lower16:USBFS_EP
 1683 012a C0F20002 		movt	r2, #:upper16:USBFS_EP
 1684 012e 0B46     		mov	r3, r1
 1685 0130 4FEA4303 		lsl	r3, r3, #1
 1686 0134 5B18     		adds	r3, r3, r1
 1687 0136 4FEA8303 		lsl	r3, r3, #2
 1688 013a D318     		adds	r3, r2, r3
 1689 013c 4FF00002 		mov	r2, #0
 1690 0140 5A70     		strb	r2, [r3, #1]
 786:.\Generated_Source\PSoC5/USBFS_std.c ****                     USBFS_EP[cur_ep].epMode = (epType == USBFS_EP_TYPE_ISOC) ?
 1691              		.loc 1 786 0
 1692 0142 B878     		ldrb	r0, [r7, #2]	@ zero_extendqisi2
 1693 0144 3B78     		ldrb	r3, [r7, #0]	@ zero_extendqisi2
 1694 0146 012B     		cmp	r3, #1
 1695 0148 02D1     		bne	.L106
 1696              		.loc 1 786 0 is_stmt 0 discriminator 1
 1697 014a 4FF00501 		mov	r1, #5
 1698 014e 01E0     		b	.L107
 1699              	.L106:
 1700              		.loc 1 786 0 discriminator 2
 1701 0150 4FF00901 		mov	r1, #9
 1702              	.L107:
 1703              		.loc 1 786 0 discriminator 3
 1704 0154 40F20002 		movw	r2, #:lower16:USBFS_EP
 1705 0158 C0F20002 		movt	r2, #:upper16:USBFS_EP
 1706 015c 0346     		mov	r3, r0
 1707 015e 4FEA4303 		lsl	r3, r3, #1
 1708 0162 1B18     		adds	r3, r3, r0
 1709 0164 4FEA8303 		lsl	r3, r3, #2
 1710 0168 D318     		adds	r3, r2, r3
 1711 016a 0A46     		mov	r2, r1
 1712 016c 5A71     		strb	r2, [r3, #5]
 1713              	.L105:
 787:.\Generated_Source\PSoC5/USBFS_std.c ****                                                 USBFS_MODE_ISO_OUT : USBFS_MODE_ACK_OUT;
 788:.\Generated_Source\PSoC5/USBFS_std.c ****                 }
 789:.\Generated_Source\PSoC5/USBFS_std.c ****                  /* Change the SIE mode for the selected EP to NAK ALL */
 790:.\Generated_Source\PSoC5/USBFS_std.c ****                  CY_SET_REG8((reg8 *)(USBFS_SIE_EP1_CR0_IND + ri), USBFS_MODE_NAK_IN_OUT);
 1714              		.loc 1 790 0 is_stmt 1
ARM GAS  C:\Users\Robert\AppData\Local\Temp\ccvhms5a.s 			page 46


 1715 016e 7A78     		ldrb	r2, [r7, #1]	@ zero_extendqisi2
 1716 0170 46F20E03 		movw	r3, #24590
 1717 0174 C4F20003 		movt	r3, 16384
 1718 0178 D318     		adds	r3, r2, r3
 1719 017a 4FF00102 		mov	r2, #1
 1720 017e 1A70     		strb	r2, [r3, #0]
 791:.\Generated_Source\PSoC5/USBFS_std.c ****                 USBFS_EP[cur_ep].bufferSize = pEP->bufferSize;
 1721              		.loc 1 791 0
 1722 0180 B978     		ldrb	r1, [r7, #2]	@ zero_extendqisi2
 1723 0182 BB68     		ldr	r3, [r7, #8]
 1724 0184 9888     		ldrh	r0, [r3, #4]
 1725 0186 40F20002 		movw	r2, #:lower16:USBFS_EP
 1726 018a C0F20002 		movt	r2, #:upper16:USBFS_EP
 1727 018e 0B46     		mov	r3, r1
 1728 0190 4FEA4303 		lsl	r3, r3, #1
 1729 0194 5B18     		adds	r3, r3, r1
 1730 0196 4FEA8303 		lsl	r3, r3, #2
 1731 019a D318     		adds	r3, r2, r3
 1732 019c 03F10803 		add	r3, r3, #8
 1733 01a0 0246     		mov	r2, r0	@ movhi
 1734 01a2 1A80     		strh	r2, [r3, #0]	@ movhi
 792:.\Generated_Source\PSoC5/USBFS_std.c ****                 USBFS_EP[cur_ep].addr = pEP->addr;
 1735              		.loc 1 792 0
 1736 01a4 B978     		ldrb	r1, [r7, #2]	@ zero_extendqisi2
 1737 01a6 BB68     		ldr	r3, [r7, #8]
 1738 01a8 9878     		ldrb	r0, [r3, #2]	@ zero_extendqisi2
 1739 01aa 40F20002 		movw	r2, #:lower16:USBFS_EP
 1740 01ae C0F20002 		movt	r2, #:upper16:USBFS_EP
 1741 01b2 0B46     		mov	r3, r1
 1742 01b4 4FEA4303 		lsl	r3, r3, #1
 1743 01b8 5B18     		adds	r3, r3, r1
 1744 01ba 4FEA8303 		lsl	r3, r3, #2
 1745 01be D318     		adds	r3, r2, r3
 1746 01c0 0246     		mov	r2, r0
 1747 01c2 1A71     		strb	r2, [r3, #4]
 793:.\Generated_Source\PSoC5/USBFS_std.c ****                 USBFS_EP[cur_ep].attrib = pEP->attributes;
 1748              		.loc 1 793 0
 1749 01c4 B978     		ldrb	r1, [r7, #2]	@ zero_extendqisi2
 1750 01c6 BB68     		ldr	r3, [r7, #8]
 1751 01c8 D878     		ldrb	r0, [r3, #3]	@ zero_extendqisi2
 1752 01ca 40F20002 		movw	r2, #:lower16:USBFS_EP
 1753 01ce C0F20002 		movt	r2, #:upper16:USBFS_EP
 1754 01d2 0B46     		mov	r3, r1
 1755 01d4 4FEA4303 		lsl	r3, r3, #1
 1756 01d8 5B18     		adds	r3, r3, r1
 1757 01da 4FEA8303 		lsl	r3, r3, #2
 1758 01de D318     		adds	r3, r2, r3
 1759 01e0 0246     		mov	r2, r0
 1760 01e2 1A70     		strb	r2, [r3, #0]
 794:.\Generated_Source\PSoC5/USBFS_std.c **** 
 795:.\Generated_Source\PSoC5/USBFS_std.c ****                 /* Clear the data toggle */
 796:.\Generated_Source\PSoC5/USBFS_std.c ****                 USBFS_EP[cur_ep].epToggle = 0u;
 1761              		.loc 1 796 0
 1762 01e4 B978     		ldrb	r1, [r7, #2]	@ zero_extendqisi2
 1763 01e6 40F20002 		movw	r2, #:lower16:USBFS_EP
 1764 01ea C0F20002 		movt	r2, #:upper16:USBFS_EP
 1765 01ee 0B46     		mov	r3, r1
ARM GAS  C:\Users\Robert\AppData\Local\Temp\ccvhms5a.s 			page 47


 1766 01f0 4FEA4303 		lsl	r3, r3, #1
 1767 01f4 5B18     		adds	r3, r3, r1
 1768 01f6 4FEA8303 		lsl	r3, r3, #2
 1769 01fa D318     		adds	r3, r2, r3
 1770 01fc 4FF00002 		mov	r2, #0
 1771 0200 DA70     		strb	r2, [r3, #3]
 797:.\Generated_Source\PSoC5/USBFS_std.c **** 
 798:.\Generated_Source\PSoC5/USBFS_std.c ****                 /* Dynamic reconfiguration for mode 3 transfer */
 799:.\Generated_Source\PSoC5/USBFS_std.c ****             #if(USBFS_EP_MM == USBFS__EP_DMAAUTO)
 800:.\Generated_Source\PSoC5/USBFS_std.c ****                 /* In_data_rdy for selected EP should be set to 0 */
 801:.\Generated_Source\PSoC5/USBFS_std.c ****                 * (reg8 *)(USBFS_ARB_EP1_CFG_IND + ri) &= (uint8)~USBFS_ARB_EPX_CFG_IN_DATA_RDY;
 802:.\Generated_Source\PSoC5/USBFS_std.c **** 
 803:.\Generated_Source\PSoC5/USBFS_std.c ****                 /* write the EP number for which reconfiguration is required */
 804:.\Generated_Source\PSoC5/USBFS_std.c ****                 USBFS_DYN_RECONFIG_REG = (cur_ep - USBFS_EP1) <<
 805:.\Generated_Source\PSoC5/USBFS_std.c ****                                                     USBFS_DYN_RECONFIG_EP_SHIFT;
 806:.\Generated_Source\PSoC5/USBFS_std.c ****                 /* Set the dyn_config_en bit in dynamic reconfiguration register */
 807:.\Generated_Source\PSoC5/USBFS_std.c ****                 USBFS_DYN_RECONFIG_REG |= USBFS_DYN_RECONFIG_ENABLE;
 808:.\Generated_Source\PSoC5/USBFS_std.c ****                 /* wait for the dyn_config_rdy bit to set by the block,
 809:.\Generated_Source\PSoC5/USBFS_std.c ****                 *  this bit will be set to 1 when block is ready for reconfiguration.
 810:.\Generated_Source\PSoC5/USBFS_std.c ****                 */
 811:.\Generated_Source\PSoC5/USBFS_std.c ****                 while((USBFS_DYN_RECONFIG_REG & USBFS_DYN_RECONFIG_RDY_STS) == 0u)
 812:.\Generated_Source\PSoC5/USBFS_std.c ****                 {
 813:.\Generated_Source\PSoC5/USBFS_std.c ****                     ;
 814:.\Generated_Source\PSoC5/USBFS_std.c ****                 }
 815:.\Generated_Source\PSoC5/USBFS_std.c ****                 /* Once dyn_config_rdy bit is set, FW can change the EP configuration. */
 816:.\Generated_Source\PSoC5/USBFS_std.c ****                 /* Change EP Type with new direction */
 817:.\Generated_Source\PSoC5/USBFS_std.c ****                 if((pEP->addr & USBFS_DIR_IN) == 0u)
 818:.\Generated_Source\PSoC5/USBFS_std.c ****                 {
 819:.\Generated_Source\PSoC5/USBFS_std.c ****                     USBFS_EP_TYPE_REG |= (uint8)(0x01u << (cur_ep - USBFS_EP1));
 820:.\Generated_Source\PSoC5/USBFS_std.c ****                 }
 821:.\Generated_Source\PSoC5/USBFS_std.c ****                 else
 822:.\Generated_Source\PSoC5/USBFS_std.c ****                 {
 823:.\Generated_Source\PSoC5/USBFS_std.c ****                     USBFS_EP_TYPE_REG &= (uint8)~(uint8)(0x01u << (cur_ep - USBFS_EP1));
 824:.\Generated_Source\PSoC5/USBFS_std.c ****                 }
 825:.\Generated_Source\PSoC5/USBFS_std.c ****                 /* dynamic reconfiguration enable bit cleared, pointers and control/status
 826:.\Generated_Source\PSoC5/USBFS_std.c ****                 *  signals for the selected EP is cleared/re-initialized on negative edge
 827:.\Generated_Source\PSoC5/USBFS_std.c ****                 *  of dynamic reconfiguration enable bit).
 828:.\Generated_Source\PSoC5/USBFS_std.c ****                 */
 829:.\Generated_Source\PSoC5/USBFS_std.c ****                 USBFS_DYN_RECONFIG_REG &= (uint8)~USBFS_DYN_RECONFIG_ENABLE;
 830:.\Generated_Source\PSoC5/USBFS_std.c ****                 /* The main loop has to re-enable DMA and OUT endpoint*/
 831:.\Generated_Source\PSoC5/USBFS_std.c ****             #else
 832:.\Generated_Source\PSoC5/USBFS_std.c ****                 CY_SET_REG8((reg8 *)(USBFS_SIE_EP1_CNT0_IND + ri),
 1772              		.loc 1 832 0
 1773 0202 7A78     		ldrb	r2, [r7, #1]	@ zero_extendqisi2
 1774 0204 46F20C03 		movw	r3, #24588
 1775 0208 C4F20003 		movt	r3, 16384
 1776 020c D318     		adds	r3, r2, r3
 1777 020e 1846     		mov	r0, r3
 1778 0210 B978     		ldrb	r1, [r7, #2]	@ zero_extendqisi2
 1779 0212 40F20002 		movw	r2, #:lower16:USBFS_EP
 1780 0216 C0F20002 		movt	r2, #:upper16:USBFS_EP
 1781 021a 0B46     		mov	r3, r1
 1782 021c 4FEA4303 		lsl	r3, r3, #1
 1783 0220 5B18     		adds	r3, r3, r1
 1784 0222 4FEA8303 		lsl	r3, r3, #2
 1785 0226 D318     		adds	r3, r2, r3
 1786 0228 03F10803 		add	r3, r3, #8
ARM GAS  C:\Users\Robert\AppData\Local\Temp\ccvhms5a.s 			page 48


 1787 022c 1B88     		ldrh	r3, [r3, #0]	@ movhi
 1788 022e 9BB2     		uxth	r3, r3
 1789 0230 4FEA1323 		lsr	r3, r3, #8
 1790 0234 9BB2     		uxth	r3, r3
 1791 0236 DBB2     		uxtb	r3, r3
 1792 0238 0370     		strb	r3, [r0, #0]
 833:.\Generated_Source\PSoC5/USBFS_std.c ****                                                                 USBFS_EP[cur_ep].bufferSize >> 8u);
 834:.\Generated_Source\PSoC5/USBFS_std.c ****                 CY_SET_REG8((reg8 *)(USBFS_SIE_EP1_CNT1_IND + ri),
 1793              		.loc 1 834 0
 1794 023a 7A78     		ldrb	r2, [r7, #1]	@ zero_extendqisi2
 1795 023c 46F20D03 		movw	r3, #24589
 1796 0240 C4F20003 		movt	r3, 16384
 1797 0244 D318     		adds	r3, r2, r3
 1798 0246 1846     		mov	r0, r3
 1799 0248 B978     		ldrb	r1, [r7, #2]	@ zero_extendqisi2
 1800 024a 40F20002 		movw	r2, #:lower16:USBFS_EP
 1801 024e C0F20002 		movt	r2, #:upper16:USBFS_EP
 1802 0252 0B46     		mov	r3, r1
 1803 0254 4FEA4303 		lsl	r3, r3, #1
 1804 0258 5B18     		adds	r3, r3, r1
 1805 025a 4FEA8303 		lsl	r3, r3, #2
 1806 025e D318     		adds	r3, r2, r3
 1807 0260 03F10803 		add	r3, r3, #8
 1808 0264 1B88     		ldrh	r3, [r3, #0]	@ movhi
 1809 0266 9BB2     		uxth	r3, r3
 1810 0268 DBB2     		uxtb	r3, r3
 1811 026a 0370     		strb	r3, [r0, #0]
 835:.\Generated_Source\PSoC5/USBFS_std.c ****                                                                 USBFS_EP[cur_ep].bufferSize & 0xFFu
 836:.\Generated_Source\PSoC5/USBFS_std.c ****                 CY_SET_REG8((reg8 *)(USBFS_ARB_RW1_RA_IND + ri),
 1812              		.loc 1 836 0
 1813 026c 7A78     		ldrb	r2, [r7, #1]	@ zero_extendqisi2
 1814 026e 46F28603 		movw	r3, #24710
 1815 0272 C4F20003 		movt	r3, 16384
 1816 0276 D318     		adds	r3, r2, r3
 1817 0278 1846     		mov	r0, r3
 1818 027a B978     		ldrb	r1, [r7, #2]	@ zero_extendqisi2
 1819 027c 40F20002 		movw	r2, #:lower16:USBFS_EP
 1820 0280 C0F20002 		movt	r2, #:upper16:USBFS_EP
 1821 0284 0B46     		mov	r3, r1
 1822 0286 4FEA4303 		lsl	r3, r3, #1
 1823 028a 5B18     		adds	r3, r3, r1
 1824 028c 4FEA8303 		lsl	r3, r3, #2
 1825 0290 D318     		adds	r3, r2, r3
 1826 0292 DB88     		ldrh	r3, [r3, #6]	@ movhi
 1827 0294 9BB2     		uxth	r3, r3
 1828 0296 DBB2     		uxtb	r3, r3
 1829 0298 0370     		strb	r3, [r0, #0]
 837:.\Generated_Source\PSoC5/USBFS_std.c ****                                                                 USBFS_EP[cur_ep].buffOffset & 0xFFu
 838:.\Generated_Source\PSoC5/USBFS_std.c ****                 CY_SET_REG8((reg8 *)(USBFS_ARB_RW1_RA_MSB_IND + ri),
 1830              		.loc 1 838 0
 1831 029a 7A78     		ldrb	r2, [r7, #1]	@ zero_extendqisi2
 1832 029c 46F28703 		movw	r3, #24711
 1833 02a0 C4F20003 		movt	r3, 16384
 1834 02a4 D318     		adds	r3, r2, r3
 1835 02a6 1846     		mov	r0, r3
 1836 02a8 B978     		ldrb	r1, [r7, #2]	@ zero_extendqisi2
 1837 02aa 40F20002 		movw	r2, #:lower16:USBFS_EP
ARM GAS  C:\Users\Robert\AppData\Local\Temp\ccvhms5a.s 			page 49


 1838 02ae C0F20002 		movt	r2, #:upper16:USBFS_EP
 1839 02b2 0B46     		mov	r3, r1
 1840 02b4 4FEA4303 		lsl	r3, r3, #1
 1841 02b8 5B18     		adds	r3, r3, r1
 1842 02ba 4FEA8303 		lsl	r3, r3, #2
 1843 02be D318     		adds	r3, r2, r3
 1844 02c0 DB88     		ldrh	r3, [r3, #6]	@ movhi
 1845 02c2 9BB2     		uxth	r3, r3
 1846 02c4 4FEA1323 		lsr	r3, r3, #8
 1847 02c8 9BB2     		uxth	r3, r3
 1848 02ca DBB2     		uxtb	r3, r3
 1849 02cc 0370     		strb	r3, [r0, #0]
 839:.\Generated_Source\PSoC5/USBFS_std.c ****                                                                 USBFS_EP[cur_ep].buffOffset >> 8u);
 840:.\Generated_Source\PSoC5/USBFS_std.c ****                 CY_SET_REG8((reg8 *)(USBFS_ARB_RW1_WA_IND + ri),
 1850              		.loc 1 840 0
 1851 02ce 7A78     		ldrb	r2, [r7, #1]	@ zero_extendqisi2
 1852 02d0 46F28403 		movw	r3, #24708
 1853 02d4 C4F20003 		movt	r3, 16384
 1854 02d8 D318     		adds	r3, r2, r3
 1855 02da 1846     		mov	r0, r3
 1856 02dc B978     		ldrb	r1, [r7, #2]	@ zero_extendqisi2
 1857 02de 40F20002 		movw	r2, #:lower16:USBFS_EP
 1858 02e2 C0F20002 		movt	r2, #:upper16:USBFS_EP
 1859 02e6 0B46     		mov	r3, r1
 1860 02e8 4FEA4303 		lsl	r3, r3, #1
 1861 02ec 5B18     		adds	r3, r3, r1
 1862 02ee 4FEA8303 		lsl	r3, r3, #2
 1863 02f2 D318     		adds	r3, r2, r3
 1864 02f4 DB88     		ldrh	r3, [r3, #6]	@ movhi
 1865 02f6 9BB2     		uxth	r3, r3
 1866 02f8 DBB2     		uxtb	r3, r3
 1867 02fa 0370     		strb	r3, [r0, #0]
 841:.\Generated_Source\PSoC5/USBFS_std.c ****                                                                 USBFS_EP[cur_ep].buffOffset & 0xFFu
 842:.\Generated_Source\PSoC5/USBFS_std.c ****                 CY_SET_REG8((reg8 *)(USBFS_ARB_RW1_WA_MSB_IND + ri),
 1868              		.loc 1 842 0
 1869 02fc 7A78     		ldrb	r2, [r7, #1]	@ zero_extendqisi2
 1870 02fe 46F28503 		movw	r3, #24709
 1871 0302 C4F20003 		movt	r3, 16384
 1872 0306 D318     		adds	r3, r2, r3
 1873 0308 1846     		mov	r0, r3
 1874 030a B978     		ldrb	r1, [r7, #2]	@ zero_extendqisi2
 1875 030c 40F20002 		movw	r2, #:lower16:USBFS_EP
 1876 0310 C0F20002 		movt	r2, #:upper16:USBFS_EP
 1877 0314 0B46     		mov	r3, r1
 1878 0316 4FEA4303 		lsl	r3, r3, #1
 1879 031a 5B18     		adds	r3, r3, r1
 1880 031c 4FEA8303 		lsl	r3, r3, #2
 1881 0320 D318     		adds	r3, r2, r3
 1882 0322 DB88     		ldrh	r3, [r3, #6]	@ movhi
 1883 0324 9BB2     		uxth	r3, r3
 1884 0326 4FEA1323 		lsr	r3, r3, #8
 1885 032a 9BB2     		uxth	r3, r3
 1886 032c DBB2     		uxtb	r3, r3
 1887 032e 0370     		strb	r3, [r0, #0]
 1888              	.L101:
 843:.\Generated_Source\PSoC5/USBFS_std.c ****                                                                 USBFS_EP[cur_ep].buffOffset >> 8u);
 844:.\Generated_Source\PSoC5/USBFS_std.c ****             #endif /*  USBFS_EP_MM == USBFS__EP_DMAAUTO */
ARM GAS  C:\Users\Robert\AppData\Local\Temp\ccvhms5a.s 			page 50


 845:.\Generated_Source\PSoC5/USBFS_std.c ****             }
 846:.\Generated_Source\PSoC5/USBFS_std.c ****             /* Get next EP element */
 847:.\Generated_Source\PSoC5/USBFS_std.c ****             pEP = &pEP[1u];
 1889              		.loc 1 847 0
 1890 0330 BB68     		ldr	r3, [r7, #8]
 1891 0332 03F10803 		add	r3, r3, #8
 1892 0336 BB60     		str	r3, [r7, #8]
 764:.\Generated_Source\PSoC5/USBFS_std.c ****         for (i = 0u; i < ep; i++)
 1893              		.loc 1 764 0
 1894 0338 FB7B     		ldrb	r3, [r7, #15]
 1895 033a 03F10103 		add	r3, r3, #1
 1896 033e FB73     		strb	r3, [r7, #15]
 1897              	.L100:
 764:.\Generated_Source\PSoC5/USBFS_std.c ****         for (i = 0u; i < ep; i++)
 1898              		.loc 1 764 0 is_stmt 0 discriminator 1
 1899 0340 FA7B     		ldrb	r2, [r7, #15]	@ zero_extendqisi2
 1900 0342 FB78     		ldrb	r3, [r7, #3]	@ zero_extendqisi2
 1901 0344 9A42     		cmp	r2, r3
 1902 0346 FFF482AE 		bcc	.L108
 1903              	.L98:
 848:.\Generated_Source\PSoC5/USBFS_std.c ****         }
 849:.\Generated_Source\PSoC5/USBFS_std.c ****     }   /* USBFS_configuration > 0 */
 850:.\Generated_Source\PSoC5/USBFS_std.c **** }
 1904              		.loc 1 850 0 is_stmt 1
 1905 034a 07F11007 		add	r7, r7, #16
 1906 034e BD46     		mov	sp, r7
 1907 0350 80BD     		pop	{r7, pc}
 1908              		.cfi_endproc
 1909              	.LFE3:
 1910              		.size	USBFS_ConfigAltChanged, .-USBFS_ConfigAltChanged
 1911 0352 00BF     		.section	.text.USBFS_GetConfigTablePtr,"ax",%progbits
 1912              		.align	2
 1913              		.global	USBFS_GetConfigTablePtr
 1914              		.thumb
 1915              		.thumb_func
 1916              		.type	USBFS_GetConfigTablePtr, %function
 1917              	USBFS_GetConfigTablePtr:
 1918              	.LFB4:
 851:.\Generated_Source\PSoC5/USBFS_std.c **** 
 852:.\Generated_Source\PSoC5/USBFS_std.c **** 
 853:.\Generated_Source\PSoC5/USBFS_std.c **** /*******************************************************************************
 854:.\Generated_Source\PSoC5/USBFS_std.c **** * Function Name: USBFS_GetConfigTablePtr
 855:.\Generated_Source\PSoC5/USBFS_std.c **** ********************************************************************************
 856:.\Generated_Source\PSoC5/USBFS_std.c **** *
 857:.\Generated_Source\PSoC5/USBFS_std.c **** * Summary:
 858:.\Generated_Source\PSoC5/USBFS_std.c **** *  This routine returns a pointer a configuration table entry
 859:.\Generated_Source\PSoC5/USBFS_std.c **** *
 860:.\Generated_Source\PSoC5/USBFS_std.c **** * Parameters:
 861:.\Generated_Source\PSoC5/USBFS_std.c **** *  confIndex:  Configuration Index
 862:.\Generated_Source\PSoC5/USBFS_std.c **** *
 863:.\Generated_Source\PSoC5/USBFS_std.c **** * Return:
 864:.\Generated_Source\PSoC5/USBFS_std.c **** *  Device Descriptor pointer or NULL when descriptor isn't exists.
 865:.\Generated_Source\PSoC5/USBFS_std.c **** *
 866:.\Generated_Source\PSoC5/USBFS_std.c **** *******************************************************************************/
 867:.\Generated_Source\PSoC5/USBFS_std.c **** const T_USBFS_LUT CYCODE *USBFS_GetConfigTablePtr(uint8 confIndex)
 868:.\Generated_Source\PSoC5/USBFS_std.c ****                                                         
 869:.\Generated_Source\PSoC5/USBFS_std.c **** {
ARM GAS  C:\Users\Robert\AppData\Local\Temp\ccvhms5a.s 			page 51


 1919              		.loc 1 869 0
 1920              		.cfi_startproc
 1921              		@ args = 0, pretend = 0, frame = 16
 1922              		@ frame_needed = 1, uses_anonymous_args = 0
 1923              		@ link register save eliminated.
 1924 0000 80B4     		push	{r7}
 1925              	.LCFI12:
 1926              		.cfi_def_cfa_offset 4
 1927              		.cfi_offset 7, -4
 1928 0002 85B0     		sub	sp, sp, #20
 1929              	.LCFI13:
 1930              		.cfi_def_cfa_offset 24
 1931 0004 00AF     		add	r7, sp, #0
 1932              	.LCFI14:
 1933              		.cfi_def_cfa_register 7
 1934 0006 0346     		mov	r3, r0
 1935 0008 FB71     		strb	r3, [r7, #7]
 870:.\Generated_Source\PSoC5/USBFS_std.c ****     /* Device Table */
 871:.\Generated_Source\PSoC5/USBFS_std.c ****     const T_USBFS_LUT CYCODE *pTmp;
 872:.\Generated_Source\PSoC5/USBFS_std.c **** 
 873:.\Generated_Source\PSoC5/USBFS_std.c ****     pTmp = (const T_USBFS_LUT CYCODE *) USBFS_TABLE[USBFS_device].p_list;
 1936              		.loc 1 873 0
 1937 000a 40F20003 		movw	r3, #:lower16:USBFS_device
 1938 000e C0F20003 		movt	r3, #:upper16:USBFS_device
 1939 0012 1B78     		ldrb	r3, [r3, #0]
 1940 0014 DBB2     		uxtb	r3, r3
 1941 0016 40F20002 		movw	r2, #:lower16:USBFS_TABLE
 1942 001a C0F20002 		movt	r2, #:upper16:USBFS_TABLE
 1943 001e 4FEAC303 		lsl	r3, r3, #3
 1944 0022 D318     		adds	r3, r2, r3
 1945 0024 5B68     		ldr	r3, [r3, #4]
 1946 0026 FB60     		str	r3, [r7, #12]
 874:.\Generated_Source\PSoC5/USBFS_std.c **** 
 875:.\Generated_Source\PSoC5/USBFS_std.c ****     /* The first entry points to the Device Descriptor,
 876:.\Generated_Source\PSoC5/USBFS_std.c ****     *  the rest configuration entries.
 877:.\Generated_Source\PSoC5/USBFS_std.c ****     *  Set pointer to the first Configuration Descriptor
 878:.\Generated_Source\PSoC5/USBFS_std.c ****     */
 879:.\Generated_Source\PSoC5/USBFS_std.c ****     pTmp = &pTmp[1u];
 1947              		.loc 1 879 0
 1948 0028 FB68     		ldr	r3, [r7, #12]
 1949 002a 03F10803 		add	r3, r3, #8
 1950 002e FB60     		str	r3, [r7, #12]
 880:.\Generated_Source\PSoC5/USBFS_std.c ****     /* For this table, c is the number of configuration descriptors  */
 881:.\Generated_Source\PSoC5/USBFS_std.c ****     if(confIndex >= pTmp->c)   /* Verify that required configuration descriptor exists */
 1951              		.loc 1 881 0
 1952 0030 FB68     		ldr	r3, [r7, #12]
 1953 0032 1B78     		ldrb	r3, [r3, #0]	@ zero_extendqisi2
 1954 0034 FA79     		ldrb	r2, [r7, #7]	@ zero_extendqisi2
 1955 0036 9A42     		cmp	r2, r3
 1956 0038 03D3     		bcc	.L110
 882:.\Generated_Source\PSoC5/USBFS_std.c ****     {
 883:.\Generated_Source\PSoC5/USBFS_std.c ****         pTmp = (const T_USBFS_LUT CYCODE *) NULL;
 1957              		.loc 1 883 0
 1958 003a 4FF00003 		mov	r3, #0
 1959 003e FB60     		str	r3, [r7, #12]
 1960 0040 06E0     		b	.L111
 1961              	.L110:
ARM GAS  C:\Users\Robert\AppData\Local\Temp\ccvhms5a.s 			page 52


 884:.\Generated_Source\PSoC5/USBFS_std.c ****     }
 885:.\Generated_Source\PSoC5/USBFS_std.c ****     else
 886:.\Generated_Source\PSoC5/USBFS_std.c ****     {
 887:.\Generated_Source\PSoC5/USBFS_std.c ****         pTmp = (const T_USBFS_LUT CYCODE *) pTmp[confIndex].p_list;
 1962              		.loc 1 887 0
 1963 0042 FB79     		ldrb	r3, [r7, #7]	@ zero_extendqisi2
 1964 0044 4FEAC303 		lsl	r3, r3, #3
 1965 0048 FA68     		ldr	r2, [r7, #12]
 1966 004a D318     		adds	r3, r2, r3
 1967 004c 5B68     		ldr	r3, [r3, #4]
 1968 004e FB60     		str	r3, [r7, #12]
 1969              	.L111:
 888:.\Generated_Source\PSoC5/USBFS_std.c ****     }
 889:.\Generated_Source\PSoC5/USBFS_std.c ****     
 890:.\Generated_Source\PSoC5/USBFS_std.c ****     return( pTmp );
 1970              		.loc 1 890 0
 1971 0050 FB68     		ldr	r3, [r7, #12]
 891:.\Generated_Source\PSoC5/USBFS_std.c **** }
 1972              		.loc 1 891 0
 1973 0052 1846     		mov	r0, r3
 1974 0054 07F11407 		add	r7, r7, #20
 1975 0058 BD46     		mov	sp, r7
 1976 005a 80BC     		pop	{r7}
 1977 005c 7047     		bx	lr
 1978              		.cfi_endproc
 1979              	.LFE4:
 1980              		.size	USBFS_GetConfigTablePtr, .-USBFS_GetConfigTablePtr
 1981 005e 00BF     		.section	.text.USBFS_GetDeviceTablePtr,"ax",%progbits
 1982              		.align	2
 1983              		.global	USBFS_GetDeviceTablePtr
 1984              		.thumb
 1985              		.thumb_func
 1986              		.type	USBFS_GetDeviceTablePtr, %function
 1987              	USBFS_GetDeviceTablePtr:
 1988              	.LFB5:
 892:.\Generated_Source\PSoC5/USBFS_std.c **** 
 893:.\Generated_Source\PSoC5/USBFS_std.c **** 
 894:.\Generated_Source\PSoC5/USBFS_std.c **** /*******************************************************************************
 895:.\Generated_Source\PSoC5/USBFS_std.c **** * Function Name: USBFS_GetDeviceTablePtr
 896:.\Generated_Source\PSoC5/USBFS_std.c **** ********************************************************************************
 897:.\Generated_Source\PSoC5/USBFS_std.c **** *
 898:.\Generated_Source\PSoC5/USBFS_std.c **** * Summary:
 899:.\Generated_Source\PSoC5/USBFS_std.c **** *  This routine returns a pointer to the Device table
 900:.\Generated_Source\PSoC5/USBFS_std.c **** *
 901:.\Generated_Source\PSoC5/USBFS_std.c **** * Parameters:
 902:.\Generated_Source\PSoC5/USBFS_std.c **** *  None.
 903:.\Generated_Source\PSoC5/USBFS_std.c **** *
 904:.\Generated_Source\PSoC5/USBFS_std.c **** * Return:
 905:.\Generated_Source\PSoC5/USBFS_std.c **** *  Device Table pointer
 906:.\Generated_Source\PSoC5/USBFS_std.c **** *
 907:.\Generated_Source\PSoC5/USBFS_std.c **** *******************************************************************************/
 908:.\Generated_Source\PSoC5/USBFS_std.c **** const T_USBFS_LUT CYCODE *USBFS_GetDeviceTablePtr(void)
 909:.\Generated_Source\PSoC5/USBFS_std.c ****                                                             
 910:.\Generated_Source\PSoC5/USBFS_std.c **** {
 1989              		.loc 1 910 0
 1990              		.cfi_startproc
 1991              		@ args = 0, pretend = 0, frame = 0
ARM GAS  C:\Users\Robert\AppData\Local\Temp\ccvhms5a.s 			page 53


 1992              		@ frame_needed = 1, uses_anonymous_args = 0
 1993              		@ link register save eliminated.
 1994 0000 80B4     		push	{r7}
 1995              	.LCFI15:
 1996              		.cfi_def_cfa_offset 4
 1997              		.cfi_offset 7, -4
 1998 0002 00AF     		add	r7, sp, #0
 1999              	.LCFI16:
 2000              		.cfi_def_cfa_register 7
 911:.\Generated_Source\PSoC5/USBFS_std.c ****     /* Device Table */
 912:.\Generated_Source\PSoC5/USBFS_std.c ****     return( (const T_USBFS_LUT CYCODE *) USBFS_TABLE[USBFS_device].p_list );
 2001              		.loc 1 912 0
 2002 0004 40F20003 		movw	r3, #:lower16:USBFS_device
 2003 0008 C0F20003 		movt	r3, #:upper16:USBFS_device
 2004 000c 1B78     		ldrb	r3, [r3, #0]
 2005 000e DBB2     		uxtb	r3, r3
 2006 0010 40F20002 		movw	r2, #:lower16:USBFS_TABLE
 2007 0014 C0F20002 		movt	r2, #:upper16:USBFS_TABLE
 2008 0018 4FEAC303 		lsl	r3, r3, #3
 2009 001c D318     		adds	r3, r2, r3
 2010 001e 5B68     		ldr	r3, [r3, #4]
 913:.\Generated_Source\PSoC5/USBFS_std.c **** }
 2011              		.loc 1 913 0
 2012 0020 1846     		mov	r0, r3
 2013 0022 BD46     		mov	sp, r7
 2014 0024 80BC     		pop	{r7}
 2015 0026 7047     		bx	lr
 2016              		.cfi_endproc
 2017              	.LFE5:
 2018              		.size	USBFS_GetDeviceTablePtr, .-USBFS_GetDeviceTablePtr
 2019              		.section	.text.USBFS_GetInterfaceClassTablePtr,"ax",%progbits
 2020              		.align	2
 2021              		.global	USBFS_GetInterfaceClassTablePtr
 2022              		.thumb
 2023              		.thumb_func
 2024              		.type	USBFS_GetInterfaceClassTablePtr, %function
 2025              	USBFS_GetInterfaceClassTablePtr:
 2026              	.LFB6:
 914:.\Generated_Source\PSoC5/USBFS_std.c **** 
 915:.\Generated_Source\PSoC5/USBFS_std.c **** 
 916:.\Generated_Source\PSoC5/USBFS_std.c **** /*******************************************************************************
 917:.\Generated_Source\PSoC5/USBFS_std.c **** * Function Name: USB_GetInterfaceClassTablePtr
 918:.\Generated_Source\PSoC5/USBFS_std.c **** ********************************************************************************
 919:.\Generated_Source\PSoC5/USBFS_std.c **** *
 920:.\Generated_Source\PSoC5/USBFS_std.c **** * Summary:
 921:.\Generated_Source\PSoC5/USBFS_std.c **** *  This routine returns Interface Class table pointer, which contains
 922:.\Generated_Source\PSoC5/USBFS_std.c **** *  the relation between interface number and interface class.
 923:.\Generated_Source\PSoC5/USBFS_std.c **** *
 924:.\Generated_Source\PSoC5/USBFS_std.c **** * Parameters:
 925:.\Generated_Source\PSoC5/USBFS_std.c **** *  None.
 926:.\Generated_Source\PSoC5/USBFS_std.c **** *
 927:.\Generated_Source\PSoC5/USBFS_std.c **** * Return:
 928:.\Generated_Source\PSoC5/USBFS_std.c **** *  Interface Class table pointer.
 929:.\Generated_Source\PSoC5/USBFS_std.c **** *
 930:.\Generated_Source\PSoC5/USBFS_std.c **** *******************************************************************************/
 931:.\Generated_Source\PSoC5/USBFS_std.c **** const uint8 CYCODE *USBFS_GetInterfaceClassTablePtr(void)
 932:.\Generated_Source\PSoC5/USBFS_std.c ****                                                         
ARM GAS  C:\Users\Robert\AppData\Local\Temp\ccvhms5a.s 			page 54


 933:.\Generated_Source\PSoC5/USBFS_std.c **** {
 2027              		.loc 1 933 0
 2028              		.cfi_startproc
 2029              		@ args = 0, pretend = 0, frame = 16
 2030              		@ frame_needed = 1, uses_anonymous_args = 0
 2031 0000 80B5     		push	{r7, lr}
 2032              	.LCFI17:
 2033              		.cfi_def_cfa_offset 8
 2034              		.cfi_offset 7, -8
 2035              		.cfi_offset 14, -4
 2036 0002 84B0     		sub	sp, sp, #16
 2037              	.LCFI18:
 2038              		.cfi_def_cfa_offset 24
 2039 0004 00AF     		add	r7, sp, #0
 2040              	.LCFI19:
 2041              		.cfi_def_cfa_register 7
 934:.\Generated_Source\PSoC5/USBFS_std.c ****     const T_USBFS_LUT CYCODE *pTmp;
 935:.\Generated_Source\PSoC5/USBFS_std.c ****     const uint8 CYCODE *pInterfaceClass;
 936:.\Generated_Source\PSoC5/USBFS_std.c ****     uint8 currentInterfacesNum;
 937:.\Generated_Source\PSoC5/USBFS_std.c **** 
 938:.\Generated_Source\PSoC5/USBFS_std.c ****     pTmp = USBFS_GetConfigTablePtr(USBFS_configuration - 1u);
 2042              		.loc 1 938 0
 2043 0006 40F20003 		movw	r3, #:lower16:USBFS_configuration
 2044 000a C0F20003 		movt	r3, #:upper16:USBFS_configuration
 2045 000e 1B78     		ldrb	r3, [r3, #0]
 2046 0010 DBB2     		uxtb	r3, r3
 2047 0012 03F1FF33 		add	r3, r3, #-1
 2048 0016 DBB2     		uxtb	r3, r3
 2049 0018 1846     		mov	r0, r3
 2050 001a FFF7FEFF 		bl	USBFS_GetConfigTablePtr
 2051 001e B860     		str	r0, [r7, #8]
 939:.\Generated_Source\PSoC5/USBFS_std.c ****     if( pTmp != NULL )
 2052              		.loc 1 939 0
 2053 0020 BB68     		ldr	r3, [r7, #8]
 2054 0022 002B     		cmp	r3, #0
 2055 0024 0FD0     		beq	.L116
 940:.\Generated_Source\PSoC5/USBFS_std.c ****     {
 941:.\Generated_Source\PSoC5/USBFS_std.c ****         currentInterfacesNum  = ((const uint8 *) pTmp->p_list)[USBFS_CONFIG_DESCR_NUM_INTERFACES];
 2056              		.loc 1 941 0
 2057 0026 BB68     		ldr	r3, [r7, #8]
 2058 0028 5B68     		ldr	r3, [r3, #4]
 2059 002a 1B79     		ldrb	r3, [r3, #4]
 2060 002c FB71     		strb	r3, [r7, #7]
 942:.\Generated_Source\PSoC5/USBFS_std.c ****         /* Third entry in the LUT starts the Interface Table pointers */
 943:.\Generated_Source\PSoC5/USBFS_std.c ****         /* The INTERFACE_CLASS table is located after all interfaces */
 944:.\Generated_Source\PSoC5/USBFS_std.c ****         pTmp = &pTmp[currentInterfacesNum + 2u];
 2061              		.loc 1 944 0
 2062 002e FB79     		ldrb	r3, [r7, #7]	@ zero_extendqisi2
 2063 0030 03F10203 		add	r3, r3, #2
 2064 0034 4FEAC303 		lsl	r3, r3, #3
 2065 0038 BA68     		ldr	r2, [r7, #8]
 2066 003a D318     		adds	r3, r2, r3
 2067 003c BB60     		str	r3, [r7, #8]
 945:.\Generated_Source\PSoC5/USBFS_std.c ****         pInterfaceClass = (const uint8 CYCODE *) pTmp->p_list;
 2068              		.loc 1 945 0
 2069 003e BB68     		ldr	r3, [r7, #8]
 2070 0040 5B68     		ldr	r3, [r3, #4]
ARM GAS  C:\Users\Robert\AppData\Local\Temp\ccvhms5a.s 			page 55


 2071 0042 FB60     		str	r3, [r7, #12]
 2072 0044 02E0     		b	.L117
 2073              	.L116:
 946:.\Generated_Source\PSoC5/USBFS_std.c ****     }
 947:.\Generated_Source\PSoC5/USBFS_std.c ****     else
 948:.\Generated_Source\PSoC5/USBFS_std.c ****     {
 949:.\Generated_Source\PSoC5/USBFS_std.c ****         pInterfaceClass = (const uint8 CYCODE *) NULL;
 2074              		.loc 1 949 0
 2075 0046 4FF00003 		mov	r3, #0
 2076 004a FB60     		str	r3, [r7, #12]
 2077              	.L117:
 950:.\Generated_Source\PSoC5/USBFS_std.c ****     }
 951:.\Generated_Source\PSoC5/USBFS_std.c ****     
 952:.\Generated_Source\PSoC5/USBFS_std.c ****     return( pInterfaceClass );
 2078              		.loc 1 952 0
 2079 004c FB68     		ldr	r3, [r7, #12]
 953:.\Generated_Source\PSoC5/USBFS_std.c **** }
 2080              		.loc 1 953 0
 2081 004e 1846     		mov	r0, r3
 2082 0050 07F11007 		add	r7, r7, #16
 2083 0054 BD46     		mov	sp, r7
 2084 0056 80BD     		pop	{r7, pc}
 2085              		.cfi_endproc
 2086              	.LFE6:
 2087              		.size	USBFS_GetInterfaceClassTablePtr, .-USBFS_GetInterfaceClassTablePtr
 2088              		.section	.text.USBFS_TerminateEP,"ax",%progbits
 2089              		.align	2
 2090              		.global	USBFS_TerminateEP
 2091              		.thumb
 2092              		.thumb_func
 2093              		.type	USBFS_TerminateEP, %function
 2094              	USBFS_TerminateEP:
 2095              	.LFB7:
 954:.\Generated_Source\PSoC5/USBFS_std.c **** 
 955:.\Generated_Source\PSoC5/USBFS_std.c **** 
 956:.\Generated_Source\PSoC5/USBFS_std.c **** /*******************************************************************************
 957:.\Generated_Source\PSoC5/USBFS_std.c **** * Function Name: USBFS_TerminateEP
 958:.\Generated_Source\PSoC5/USBFS_std.c **** ********************************************************************************
 959:.\Generated_Source\PSoC5/USBFS_std.c **** *
 960:.\Generated_Source\PSoC5/USBFS_std.c **** * Summary:
 961:.\Generated_Source\PSoC5/USBFS_std.c **** *  This function terminates the specified USBFS endpoint.
 962:.\Generated_Source\PSoC5/USBFS_std.c **** *  This function should be used before endpoint reconfiguration.
 963:.\Generated_Source\PSoC5/USBFS_std.c **** *
 964:.\Generated_Source\PSoC5/USBFS_std.c **** * Parameters:
 965:.\Generated_Source\PSoC5/USBFS_std.c **** *  Endpoint number.
 966:.\Generated_Source\PSoC5/USBFS_std.c **** *
 967:.\Generated_Source\PSoC5/USBFS_std.c **** * Return:
 968:.\Generated_Source\PSoC5/USBFS_std.c **** *  None.
 969:.\Generated_Source\PSoC5/USBFS_std.c **** *
 970:.\Generated_Source\PSoC5/USBFS_std.c **** * Reentrant:
 971:.\Generated_Source\PSoC5/USBFS_std.c **** *  No.
 972:.\Generated_Source\PSoC5/USBFS_std.c **** *
 973:.\Generated_Source\PSoC5/USBFS_std.c **** *******************************************************************************/
 974:.\Generated_Source\PSoC5/USBFS_std.c **** void USBFS_TerminateEP(uint8 ep) 
 975:.\Generated_Source\PSoC5/USBFS_std.c **** {
 2096              		.loc 1 975 0
 2097              		.cfi_startproc
ARM GAS  C:\Users\Robert\AppData\Local\Temp\ccvhms5a.s 			page 56


 2098              		@ args = 0, pretend = 0, frame = 16
 2099              		@ frame_needed = 1, uses_anonymous_args = 0
 2100              		@ link register save eliminated.
 2101 0000 80B4     		push	{r7}
 2102              	.LCFI20:
 2103              		.cfi_def_cfa_offset 4
 2104              		.cfi_offset 7, -4
 2105 0002 85B0     		sub	sp, sp, #20
 2106              	.LCFI21:
 2107              		.cfi_def_cfa_offset 24
 2108 0004 00AF     		add	r7, sp, #0
 2109              	.LCFI22:
 2110              		.cfi_def_cfa_register 7
 2111 0006 0346     		mov	r3, r0
 2112 0008 FB71     		strb	r3, [r7, #7]
 976:.\Generated_Source\PSoC5/USBFS_std.c ****     uint8 ri;
 977:.\Generated_Source\PSoC5/USBFS_std.c **** 
 978:.\Generated_Source\PSoC5/USBFS_std.c ****     ep &= USBFS_DIR_UNUSED;
 2113              		.loc 1 978 0
 2114 000a FB79     		ldrb	r3, [r7, #7]
 2115 000c 03F07F03 		and	r3, r3, #127
 2116 0010 FB71     		strb	r3, [r7, #7]
 979:.\Generated_Source\PSoC5/USBFS_std.c ****     ri = ((ep - USBFS_EP1) << USBFS_EPX_CNTX_ADDR_SHIFT);
 2117              		.loc 1 979 0
 2118 0012 FB79     		ldrb	r3, [r7, #7]
 2119 0014 03F1FF33 		add	r3, r3, #-1
 2120 0018 DBB2     		uxtb	r3, r3
 2121 001a 4FEA0313 		lsl	r3, r3, #4
 2122 001e FB73     		strb	r3, [r7, #15]
 980:.\Generated_Source\PSoC5/USBFS_std.c **** 
 981:.\Generated_Source\PSoC5/USBFS_std.c ****     if ((ep > USBFS_EP0) && (ep < USBFS_MAX_EP))
 2123              		.loc 1 981 0
 2124 0020 FB79     		ldrb	r3, [r7, #7]	@ zero_extendqisi2
 2125 0022 002B     		cmp	r3, #0
 2126 0024 64D0     		beq	.L119
 2127              		.loc 1 981 0 is_stmt 0 discriminator 1
 2128 0026 FB79     		ldrb	r3, [r7, #7]	@ zero_extendqisi2
 2129 0028 082B     		cmp	r3, #8
 2130 002a 61D8     		bhi	.L119
 982:.\Generated_Source\PSoC5/USBFS_std.c ****     {
 983:.\Generated_Source\PSoC5/USBFS_std.c ****         /* Set the endpoint Halt */
 984:.\Generated_Source\PSoC5/USBFS_std.c ****         USBFS_EP[ep].hwEpState |= (USBFS_ENDPOINT_STATUS_HALT);
 2131              		.loc 1 984 0 is_stmt 1
 2132 002c F979     		ldrb	r1, [r7, #7]	@ zero_extendqisi2
 2133 002e F879     		ldrb	r0, [r7, #7]	@ zero_extendqisi2
 2134 0030 40F20002 		movw	r2, #:lower16:USBFS_EP
 2135 0034 C0F20002 		movt	r2, #:upper16:USBFS_EP
 2136 0038 0346     		mov	r3, r0
 2137 003a 4FEA4303 		lsl	r3, r3, #1
 2138 003e 1B18     		adds	r3, r3, r0
 2139 0040 4FEA8303 		lsl	r3, r3, #2
 2140 0044 D318     		adds	r3, r2, r3
 2141 0046 9B78     		ldrb	r3, [r3, #2]
 2142 0048 DBB2     		uxtb	r3, r3
 2143 004a 43F00103 		orr	r3, r3, #1
 2144 004e D8B2     		uxtb	r0, r3
 2145 0050 40F20002 		movw	r2, #:lower16:USBFS_EP
ARM GAS  C:\Users\Robert\AppData\Local\Temp\ccvhms5a.s 			page 57


 2146 0054 C0F20002 		movt	r2, #:upper16:USBFS_EP
 2147 0058 0B46     		mov	r3, r1
 2148 005a 4FEA4303 		lsl	r3, r3, #1
 2149 005e 5B18     		adds	r3, r3, r1
 2150 0060 4FEA8303 		lsl	r3, r3, #2
 2151 0064 D318     		adds	r3, r2, r3
 2152 0066 0246     		mov	r2, r0
 2153 0068 9A70     		strb	r2, [r3, #2]
 985:.\Generated_Source\PSoC5/USBFS_std.c **** 
 986:.\Generated_Source\PSoC5/USBFS_std.c ****         /* Clear the data toggle */
 987:.\Generated_Source\PSoC5/USBFS_std.c ****         USBFS_EP[ep].epToggle = 0u;
 2154              		.loc 1 987 0
 2155 006a F979     		ldrb	r1, [r7, #7]	@ zero_extendqisi2
 2156 006c 40F20002 		movw	r2, #:lower16:USBFS_EP
 2157 0070 C0F20002 		movt	r2, #:upper16:USBFS_EP
 2158 0074 0B46     		mov	r3, r1
 2159 0076 4FEA4303 		lsl	r3, r3, #1
 2160 007a 5B18     		adds	r3, r3, r1
 2161 007c 4FEA8303 		lsl	r3, r3, #2
 2162 0080 D318     		adds	r3, r2, r3
 2163 0082 4FF00002 		mov	r2, #0
 2164 0086 DA70     		strb	r2, [r3, #3]
 988:.\Generated_Source\PSoC5/USBFS_std.c ****         USBFS_EP[ep].apiEpState = USBFS_NO_EVENT_ALLOWED;
 2165              		.loc 1 988 0
 2166 0088 F979     		ldrb	r1, [r7, #7]	@ zero_extendqisi2
 2167 008a 40F20002 		movw	r2, #:lower16:USBFS_EP
 2168 008e C0F20002 		movt	r2, #:upper16:USBFS_EP
 2169 0092 0B46     		mov	r3, r1
 2170 0094 4FEA4303 		lsl	r3, r3, #1
 2171 0098 5B18     		adds	r3, r3, r1
 2172 009a 4FEA8303 		lsl	r3, r3, #2
 2173 009e D318     		adds	r3, r2, r3
 2174 00a0 4FF00202 		mov	r2, #2
 2175 00a4 5A70     		strb	r2, [r3, #1]
 989:.\Generated_Source\PSoC5/USBFS_std.c **** 
 990:.\Generated_Source\PSoC5/USBFS_std.c ****         if ((USBFS_EP[ep].addr & USBFS_DIR_IN) != 0u)
 2176              		.loc 1 990 0
 2177 00a6 F979     		ldrb	r1, [r7, #7]	@ zero_extendqisi2
 2178 00a8 40F20002 		movw	r2, #:lower16:USBFS_EP
 2179 00ac C0F20002 		movt	r2, #:upper16:USBFS_EP
 2180 00b0 0B46     		mov	r3, r1
 2181 00b2 4FEA4303 		lsl	r3, r3, #1
 2182 00b6 5B18     		adds	r3, r3, r1
 2183 00b8 4FEA8303 		lsl	r3, r3, #2
 2184 00bc D318     		adds	r3, r2, r3
 2185 00be 1B79     		ldrb	r3, [r3, #4]
 2186 00c0 DBB2     		uxtb	r3, r3
 2187 00c2 DBB2     		uxtb	r3, r3
 2188 00c4 5BB2     		sxtb	r3, r3
 2189 00c6 002B     		cmp	r3, #0
 2190 00c8 09DA     		bge	.L121
 991:.\Generated_Source\PSoC5/USBFS_std.c ****         {
 992:.\Generated_Source\PSoC5/USBFS_std.c ****             /* IN Endpoint */
 993:.\Generated_Source\PSoC5/USBFS_std.c ****             CY_SET_REG8((reg8 *)(USBFS_SIE_EP1_CR0_IND + ri), USBFS_MODE_NAK_IN);
 2191              		.loc 1 993 0
 2192 00ca FA7B     		ldrb	r2, [r7, #15]	@ zero_extendqisi2
 2193 00cc 46F20E03 		movw	r3, #24590
ARM GAS  C:\Users\Robert\AppData\Local\Temp\ccvhms5a.s 			page 58


 2194 00d0 C4F20003 		movt	r3, 16384
 2195 00d4 D318     		adds	r3, r2, r3
 2196 00d6 4FF00C02 		mov	r2, #12
 2197 00da 1A70     		strb	r2, [r3, #0]
 2198 00dc 08E0     		b	.L119
 2199              	.L121:
 994:.\Generated_Source\PSoC5/USBFS_std.c ****         }
 995:.\Generated_Source\PSoC5/USBFS_std.c ****         else
 996:.\Generated_Source\PSoC5/USBFS_std.c ****         {
 997:.\Generated_Source\PSoC5/USBFS_std.c ****             /* OUT Endpoint */
 998:.\Generated_Source\PSoC5/USBFS_std.c ****             CY_SET_REG8((reg8 *)(USBFS_SIE_EP1_CR0_IND + ri), USBFS_MODE_NAK_OUT);
 2200              		.loc 1 998 0
 2201 00de FA7B     		ldrb	r2, [r7, #15]	@ zero_extendqisi2
 2202 00e0 46F20E03 		movw	r3, #24590
 2203 00e4 C4F20003 		movt	r3, 16384
 2204 00e8 D318     		adds	r3, r2, r3
 2205 00ea 4FF00802 		mov	r2, #8
 2206 00ee 1A70     		strb	r2, [r3, #0]
 2207              	.L119:
 999:.\Generated_Source\PSoC5/USBFS_std.c ****         }
1000:.\Generated_Source\PSoC5/USBFS_std.c ****     }
1001:.\Generated_Source\PSoC5/USBFS_std.c **** }
 2208              		.loc 1 1001 0
 2209 00f0 07F11407 		add	r7, r7, #20
 2210 00f4 BD46     		mov	sp, r7
 2211 00f6 80BC     		pop	{r7}
 2212 00f8 7047     		bx	lr
 2213              		.cfi_endproc
 2214              	.LFE7:
 2215              		.size	USBFS_TerminateEP, .-USBFS_TerminateEP
 2216 00fa 00BF     		.section	.text.USBFS_SetEndpointHalt,"ax",%progbits
 2217              		.align	2
 2218              		.global	USBFS_SetEndpointHalt
 2219              		.thumb
 2220              		.thumb_func
 2221              		.type	USBFS_SetEndpointHalt, %function
 2222              	USBFS_SetEndpointHalt:
 2223              	.LFB8:
1002:.\Generated_Source\PSoC5/USBFS_std.c **** 
1003:.\Generated_Source\PSoC5/USBFS_std.c **** 
1004:.\Generated_Source\PSoC5/USBFS_std.c **** /*******************************************************************************
1005:.\Generated_Source\PSoC5/USBFS_std.c **** * Function Name: USBFS_SetEndpointHalt
1006:.\Generated_Source\PSoC5/USBFS_std.c **** ********************************************************************************
1007:.\Generated_Source\PSoC5/USBFS_std.c **** *
1008:.\Generated_Source\PSoC5/USBFS_std.c **** * Summary:
1009:.\Generated_Source\PSoC5/USBFS_std.c **** *  This routine handles set endpoint halt.
1010:.\Generated_Source\PSoC5/USBFS_std.c **** *
1011:.\Generated_Source\PSoC5/USBFS_std.c **** * Parameters:
1012:.\Generated_Source\PSoC5/USBFS_std.c **** *  None.
1013:.\Generated_Source\PSoC5/USBFS_std.c **** *
1014:.\Generated_Source\PSoC5/USBFS_std.c **** * Return:
1015:.\Generated_Source\PSoC5/USBFS_std.c **** *  requestHandled.
1016:.\Generated_Source\PSoC5/USBFS_std.c **** *
1017:.\Generated_Source\PSoC5/USBFS_std.c **** * Reentrant:
1018:.\Generated_Source\PSoC5/USBFS_std.c **** *  No.
1019:.\Generated_Source\PSoC5/USBFS_std.c **** *
1020:.\Generated_Source\PSoC5/USBFS_std.c **** *******************************************************************************/
ARM GAS  C:\Users\Robert\AppData\Local\Temp\ccvhms5a.s 			page 59


1021:.\Generated_Source\PSoC5/USBFS_std.c **** uint8 USBFS_SetEndpointHalt(void) 
1022:.\Generated_Source\PSoC5/USBFS_std.c **** {
 2224              		.loc 1 1022 0
 2225              		.cfi_startproc
 2226              		@ args = 0, pretend = 0, frame = 8
 2227              		@ frame_needed = 1, uses_anonymous_args = 0
 2228 0000 80B5     		push	{r7, lr}
 2229              	.LCFI23:
 2230              		.cfi_def_cfa_offset 8
 2231              		.cfi_offset 7, -8
 2232              		.cfi_offset 14, -4
 2233 0002 82B0     		sub	sp, sp, #8
 2234              	.LCFI24:
 2235              		.cfi_def_cfa_offset 16
 2236 0004 00AF     		add	r7, sp, #0
 2237              	.LCFI25:
 2238              		.cfi_def_cfa_register 7
1023:.\Generated_Source\PSoC5/USBFS_std.c ****     uint8 ep;
1024:.\Generated_Source\PSoC5/USBFS_std.c ****     uint8 ri;
1025:.\Generated_Source\PSoC5/USBFS_std.c ****     uint8 requestHandled = USBFS_FALSE;
 2239              		.loc 1 1025 0
 2240 0006 4FF00003 		mov	r3, #0
 2241 000a FB71     		strb	r3, [r7, #7]
1026:.\Generated_Source\PSoC5/USBFS_std.c **** 
1027:.\Generated_Source\PSoC5/USBFS_std.c ****     /* Set endpoint halt */
1028:.\Generated_Source\PSoC5/USBFS_std.c ****     ep = CY_GET_REG8(USBFS_wIndexLo) & USBFS_DIR_UNUSED;
 2242              		.loc 1 1028 0
 2243 000c 46F20403 		movw	r3, #24580
 2244 0010 C4F20003 		movt	r3, 16384
 2245 0014 1B78     		ldrb	r3, [r3, #0]
 2246 0016 DBB2     		uxtb	r3, r3
 2247 0018 03F07F03 		and	r3, r3, #127
 2248 001c BB71     		strb	r3, [r7, #6]
1029:.\Generated_Source\PSoC5/USBFS_std.c ****     ri = ((ep - USBFS_EP1) << USBFS_EPX_CNTX_ADDR_SHIFT);
 2249              		.loc 1 1029 0
 2250 001e BB79     		ldrb	r3, [r7, #6]
 2251 0020 03F1FF33 		add	r3, r3, #-1
 2252 0024 DBB2     		uxtb	r3, r3
 2253 0026 4FEA0313 		lsl	r3, r3, #4
 2254 002a 7B71     		strb	r3, [r7, #5]
1030:.\Generated_Source\PSoC5/USBFS_std.c **** 
1031:.\Generated_Source\PSoC5/USBFS_std.c ****     if ((ep > USBFS_EP0) && (ep < USBFS_MAX_EP))
 2255              		.loc 1 1031 0
 2256 002c BB79     		ldrb	r3, [r7, #6]	@ zero_extendqisi2
 2257 002e 002B     		cmp	r3, #0
 2258 0030 78D0     		beq	.L123
 2259              		.loc 1 1031 0 is_stmt 0 discriminator 1
 2260 0032 BB79     		ldrb	r3, [r7, #6]	@ zero_extendqisi2
 2261 0034 082B     		cmp	r3, #8
 2262 0036 75D8     		bhi	.L123
1032:.\Generated_Source\PSoC5/USBFS_std.c ****     {
1033:.\Generated_Source\PSoC5/USBFS_std.c ****         /* Set the endpoint Halt */
1034:.\Generated_Source\PSoC5/USBFS_std.c ****         USBFS_EP[ep].hwEpState |= (USBFS_ENDPOINT_STATUS_HALT);
 2263              		.loc 1 1034 0 is_stmt 1
 2264 0038 B979     		ldrb	r1, [r7, #6]	@ zero_extendqisi2
 2265 003a B879     		ldrb	r0, [r7, #6]	@ zero_extendqisi2
 2266 003c 40F20002 		movw	r2, #:lower16:USBFS_EP
ARM GAS  C:\Users\Robert\AppData\Local\Temp\ccvhms5a.s 			page 60


 2267 0040 C0F20002 		movt	r2, #:upper16:USBFS_EP
 2268 0044 0346     		mov	r3, r0
 2269 0046 4FEA4303 		lsl	r3, r3, #1
 2270 004a 1B18     		adds	r3, r3, r0
 2271 004c 4FEA8303 		lsl	r3, r3, #2
 2272 0050 D318     		adds	r3, r2, r3
 2273 0052 9B78     		ldrb	r3, [r3, #2]
 2274 0054 DBB2     		uxtb	r3, r3
 2275 0056 43F00103 		orr	r3, r3, #1
 2276 005a D8B2     		uxtb	r0, r3
 2277 005c 40F20002 		movw	r2, #:lower16:USBFS_EP
 2278 0060 C0F20002 		movt	r2, #:upper16:USBFS_EP
 2279 0064 0B46     		mov	r3, r1
 2280 0066 4FEA4303 		lsl	r3, r3, #1
 2281 006a 5B18     		adds	r3, r3, r1
 2282 006c 4FEA8303 		lsl	r3, r3, #2
 2283 0070 D318     		adds	r3, r2, r3
 2284 0072 0246     		mov	r2, r0
 2285 0074 9A70     		strb	r2, [r3, #2]
1035:.\Generated_Source\PSoC5/USBFS_std.c **** 
1036:.\Generated_Source\PSoC5/USBFS_std.c ****         /* Clear the data toggle */
1037:.\Generated_Source\PSoC5/USBFS_std.c ****         USBFS_EP[ep].epToggle = 0u;
 2286              		.loc 1 1037 0
 2287 0076 B979     		ldrb	r1, [r7, #6]	@ zero_extendqisi2
 2288 0078 40F20002 		movw	r2, #:lower16:USBFS_EP
 2289 007c C0F20002 		movt	r2, #:upper16:USBFS_EP
 2290 0080 0B46     		mov	r3, r1
 2291 0082 4FEA4303 		lsl	r3, r3, #1
 2292 0086 5B18     		adds	r3, r3, r1
 2293 0088 4FEA8303 		lsl	r3, r3, #2
 2294 008c D318     		adds	r3, r2, r3
 2295 008e 4FF00002 		mov	r2, #0
 2296 0092 DA70     		strb	r2, [r3, #3]
1038:.\Generated_Source\PSoC5/USBFS_std.c ****         USBFS_EP[ep].apiEpState |= USBFS_NO_EVENT_ALLOWED;
 2297              		.loc 1 1038 0
 2298 0094 B979     		ldrb	r1, [r7, #6]	@ zero_extendqisi2
 2299 0096 B879     		ldrb	r0, [r7, #6]	@ zero_extendqisi2
 2300 0098 40F20002 		movw	r2, #:lower16:USBFS_EP
 2301 009c C0F20002 		movt	r2, #:upper16:USBFS_EP
 2302 00a0 0346     		mov	r3, r0
 2303 00a2 4FEA4303 		lsl	r3, r3, #1
 2304 00a6 1B18     		adds	r3, r3, r0
 2305 00a8 4FEA8303 		lsl	r3, r3, #2
 2306 00ac D318     		adds	r3, r2, r3
 2307 00ae 5B78     		ldrb	r3, [r3, #1]
 2308 00b0 DBB2     		uxtb	r3, r3
 2309 00b2 43F00203 		orr	r3, r3, #2
 2310 00b6 D8B2     		uxtb	r0, r3
 2311 00b8 40F20002 		movw	r2, #:lower16:USBFS_EP
 2312 00bc C0F20002 		movt	r2, #:upper16:USBFS_EP
 2313 00c0 0B46     		mov	r3, r1
 2314 00c2 4FEA4303 		lsl	r3, r3, #1
 2315 00c6 5B18     		adds	r3, r3, r1
 2316 00c8 4FEA8303 		lsl	r3, r3, #2
 2317 00cc D318     		adds	r3, r2, r3
 2318 00ce 0246     		mov	r2, r0
 2319 00d0 5A70     		strb	r2, [r3, #1]
ARM GAS  C:\Users\Robert\AppData\Local\Temp\ccvhms5a.s 			page 61


1039:.\Generated_Source\PSoC5/USBFS_std.c **** 
1040:.\Generated_Source\PSoC5/USBFS_std.c ****         if ((USBFS_EP[ep].addr & USBFS_DIR_IN) != 0u)
 2320              		.loc 1 1040 0
 2321 00d2 B979     		ldrb	r1, [r7, #6]	@ zero_extendqisi2
 2322 00d4 40F20002 		movw	r2, #:lower16:USBFS_EP
 2323 00d8 C0F20002 		movt	r2, #:upper16:USBFS_EP
 2324 00dc 0B46     		mov	r3, r1
 2325 00de 4FEA4303 		lsl	r3, r3, #1
 2326 00e2 5B18     		adds	r3, r3, r1
 2327 00e4 4FEA8303 		lsl	r3, r3, #2
 2328 00e8 D318     		adds	r3, r2, r3
 2329 00ea 1B79     		ldrb	r3, [r3, #4]
 2330 00ec DBB2     		uxtb	r3, r3
 2331 00ee DBB2     		uxtb	r3, r3
 2332 00f0 5BB2     		sxtb	r3, r3
 2333 00f2 002B     		cmp	r3, #0
 2334 00f4 09DA     		bge	.L124
1041:.\Generated_Source\PSoC5/USBFS_std.c ****         {
1042:.\Generated_Source\PSoC5/USBFS_std.c ****             /* IN Endpoint */
1043:.\Generated_Source\PSoC5/USBFS_std.c ****             CY_SET_REG8((reg8 *)(USBFS_SIE_EP1_CR0_IND + ri), USBFS_MODE_STALL_DATA_EP |
 2335              		.loc 1 1043 0
 2336 00f6 7A79     		ldrb	r2, [r7, #5]	@ zero_extendqisi2
 2337 00f8 46F20E03 		movw	r3, #24590
 2338 00fc C4F20003 		movt	r3, 16384
 2339 0100 D318     		adds	r3, r2, r3
 2340 0102 4FF08D02 		mov	r2, #141
 2341 0106 1A70     		strb	r2, [r3, #0]
 2342 0108 08E0     		b	.L125
 2343              	.L124:
1044:.\Generated_Source\PSoC5/USBFS_std.c ****                                                                USBFS_MODE_ACK_IN);
1045:.\Generated_Source\PSoC5/USBFS_std.c ****         }
1046:.\Generated_Source\PSoC5/USBFS_std.c ****         else
1047:.\Generated_Source\PSoC5/USBFS_std.c ****         {
1048:.\Generated_Source\PSoC5/USBFS_std.c ****             /* OUT Endpoint */
1049:.\Generated_Source\PSoC5/USBFS_std.c ****             CY_SET_REG8((reg8 *)(USBFS_SIE_EP1_CR0_IND + ri), USBFS_MODE_STALL_DATA_EP |
 2344              		.loc 1 1049 0
 2345 010a 7A79     		ldrb	r2, [r7, #5]	@ zero_extendqisi2
 2346 010c 46F20E03 		movw	r3, #24590
 2347 0110 C4F20003 		movt	r3, 16384
 2348 0114 D318     		adds	r3, r2, r3
 2349 0116 4FF08902 		mov	r2, #137
 2350 011a 1A70     		strb	r2, [r3, #0]
 2351              	.L125:
1050:.\Generated_Source\PSoC5/USBFS_std.c ****                                                                USBFS_MODE_ACK_OUT);
1051:.\Generated_Source\PSoC5/USBFS_std.c ****         }
1052:.\Generated_Source\PSoC5/USBFS_std.c ****         requestHandled = USBFS_InitNoDataControlTransfer();
 2352              		.loc 1 1052 0
 2353 011c FFF7FEFF 		bl	USBFS_InitNoDataControlTransfer
 2354 0120 0346     		mov	r3, r0
 2355 0122 FB71     		strb	r3, [r7, #7]
 2356              	.L123:
1053:.\Generated_Source\PSoC5/USBFS_std.c ****     }
1054:.\Generated_Source\PSoC5/USBFS_std.c **** 
1055:.\Generated_Source\PSoC5/USBFS_std.c ****     return(requestHandled);
 2357              		.loc 1 1055 0
 2358 0124 FB79     		ldrb	r3, [r7, #7]	@ zero_extendqisi2
1056:.\Generated_Source\PSoC5/USBFS_std.c **** }
ARM GAS  C:\Users\Robert\AppData\Local\Temp\ccvhms5a.s 			page 62


 2359              		.loc 1 1056 0
 2360 0126 1846     		mov	r0, r3
 2361 0128 07F10807 		add	r7, r7, #8
 2362 012c BD46     		mov	sp, r7
 2363 012e 80BD     		pop	{r7, pc}
 2364              		.cfi_endproc
 2365              	.LFE8:
 2366              		.size	USBFS_SetEndpointHalt, .-USBFS_SetEndpointHalt
 2367              		.section	.text.USBFS_ClearEndpointHalt,"ax",%progbits
 2368              		.align	2
 2369              		.global	USBFS_ClearEndpointHalt
 2370              		.thumb
 2371              		.thumb_func
 2372              		.type	USBFS_ClearEndpointHalt, %function
 2373              	USBFS_ClearEndpointHalt:
 2374              	.LFB9:
1057:.\Generated_Source\PSoC5/USBFS_std.c **** 
1058:.\Generated_Source\PSoC5/USBFS_std.c **** 
1059:.\Generated_Source\PSoC5/USBFS_std.c **** /*******************************************************************************
1060:.\Generated_Source\PSoC5/USBFS_std.c **** * Function Name: USBFS_ClearEndpointHalt
1061:.\Generated_Source\PSoC5/USBFS_std.c **** ********************************************************************************
1062:.\Generated_Source\PSoC5/USBFS_std.c **** *
1063:.\Generated_Source\PSoC5/USBFS_std.c **** * Summary:
1064:.\Generated_Source\PSoC5/USBFS_std.c **** *  This routine handles clear endpoint halt.
1065:.\Generated_Source\PSoC5/USBFS_std.c **** *
1066:.\Generated_Source\PSoC5/USBFS_std.c **** * Parameters:
1067:.\Generated_Source\PSoC5/USBFS_std.c **** *  None.
1068:.\Generated_Source\PSoC5/USBFS_std.c **** *
1069:.\Generated_Source\PSoC5/USBFS_std.c **** * Return:
1070:.\Generated_Source\PSoC5/USBFS_std.c **** *  requestHandled.
1071:.\Generated_Source\PSoC5/USBFS_std.c **** *
1072:.\Generated_Source\PSoC5/USBFS_std.c **** * Reentrant:
1073:.\Generated_Source\PSoC5/USBFS_std.c **** *  No.
1074:.\Generated_Source\PSoC5/USBFS_std.c **** *
1075:.\Generated_Source\PSoC5/USBFS_std.c **** *******************************************************************************/
1076:.\Generated_Source\PSoC5/USBFS_std.c **** uint8 USBFS_ClearEndpointHalt(void) 
1077:.\Generated_Source\PSoC5/USBFS_std.c **** {
 2375              		.loc 1 1077 0
 2376              		.cfi_startproc
 2377              		@ args = 0, pretend = 0, frame = 8
 2378              		@ frame_needed = 1, uses_anonymous_args = 0
 2379 0000 80B5     		push	{r7, lr}
 2380              	.LCFI26:
 2381              		.cfi_def_cfa_offset 8
 2382              		.cfi_offset 7, -8
 2383              		.cfi_offset 14, -4
 2384 0002 82B0     		sub	sp, sp, #8
 2385              	.LCFI27:
 2386              		.cfi_def_cfa_offset 16
 2387 0004 00AF     		add	r7, sp, #0
 2388              	.LCFI28:
 2389              		.cfi_def_cfa_register 7
1078:.\Generated_Source\PSoC5/USBFS_std.c ****     uint8 ep;
1079:.\Generated_Source\PSoC5/USBFS_std.c ****     uint8 ri;
1080:.\Generated_Source\PSoC5/USBFS_std.c ****     uint8 requestHandled = USBFS_FALSE;
 2390              		.loc 1 1080 0
 2391 0006 4FF00003 		mov	r3, #0
ARM GAS  C:\Users\Robert\AppData\Local\Temp\ccvhms5a.s 			page 63


 2392 000a FB71     		strb	r3, [r7, #7]
1081:.\Generated_Source\PSoC5/USBFS_std.c **** 
1082:.\Generated_Source\PSoC5/USBFS_std.c ****     /* Clear endpoint halt */
1083:.\Generated_Source\PSoC5/USBFS_std.c ****     ep = CY_GET_REG8(USBFS_wIndexLo) & USBFS_DIR_UNUSED;
 2393              		.loc 1 1083 0
 2394 000c 46F20403 		movw	r3, #24580
 2395 0010 C4F20003 		movt	r3, 16384
 2396 0014 1B78     		ldrb	r3, [r3, #0]
 2397 0016 DBB2     		uxtb	r3, r3
 2398 0018 03F07F03 		and	r3, r3, #127
 2399 001c BB71     		strb	r3, [r7, #6]
1084:.\Generated_Source\PSoC5/USBFS_std.c ****     ri = ((ep - USBFS_EP1) << USBFS_EPX_CNTX_ADDR_SHIFT);
 2400              		.loc 1 1084 0
 2401 001e BB79     		ldrb	r3, [r7, #6]
 2402 0020 03F1FF33 		add	r3, r3, #-1
 2403 0024 DBB2     		uxtb	r3, r3
 2404 0026 4FEA0313 		lsl	r3, r3, #4
 2405 002a 7B71     		strb	r3, [r7, #5]
1085:.\Generated_Source\PSoC5/USBFS_std.c **** 
1086:.\Generated_Source\PSoC5/USBFS_std.c ****     if ((ep > USBFS_EP0) && (ep < USBFS_MAX_EP))
 2406              		.loc 1 1086 0
 2407 002c BB79     		ldrb	r3, [r7, #6]	@ zero_extendqisi2
 2408 002e 002B     		cmp	r3, #0
 2409 0030 00F0C180 		beq	.L128
 2410              		.loc 1 1086 0 is_stmt 0 discriminator 1
 2411 0034 BB79     		ldrb	r3, [r7, #6]	@ zero_extendqisi2
 2412 0036 082B     		cmp	r3, #8
 2413 0038 00F2BD80 		bhi	.L128
1087:.\Generated_Source\PSoC5/USBFS_std.c ****     {
1088:.\Generated_Source\PSoC5/USBFS_std.c ****         /* Clear the endpoint Halt */
1089:.\Generated_Source\PSoC5/USBFS_std.c ****         USBFS_EP[ep].hwEpState &= (uint8)~(USBFS_ENDPOINT_STATUS_HALT);
 2414              		.loc 1 1089 0 is_stmt 1
 2415 003c B979     		ldrb	r1, [r7, #6]	@ zero_extendqisi2
 2416 003e B879     		ldrb	r0, [r7, #6]	@ zero_extendqisi2
 2417 0040 40F20002 		movw	r2, #:lower16:USBFS_EP
 2418 0044 C0F20002 		movt	r2, #:upper16:USBFS_EP
 2419 0048 0346     		mov	r3, r0
 2420 004a 4FEA4303 		lsl	r3, r3, #1
 2421 004e 1B18     		adds	r3, r3, r0
 2422 0050 4FEA8303 		lsl	r3, r3, #2
 2423 0054 D318     		adds	r3, r2, r3
 2424 0056 9B78     		ldrb	r3, [r3, #2]
 2425 0058 DBB2     		uxtb	r3, r3
 2426 005a 23F00103 		bic	r3, r3, #1
 2427 005e D8B2     		uxtb	r0, r3
 2428 0060 40F20002 		movw	r2, #:lower16:USBFS_EP
 2429 0064 C0F20002 		movt	r2, #:upper16:USBFS_EP
 2430 0068 0B46     		mov	r3, r1
 2431 006a 4FEA4303 		lsl	r3, r3, #1
 2432 006e 5B18     		adds	r3, r3, r1
 2433 0070 4FEA8303 		lsl	r3, r3, #2
 2434 0074 D318     		adds	r3, r2, r3
 2435 0076 0246     		mov	r2, r0
 2436 0078 9A70     		strb	r2, [r3, #2]
1090:.\Generated_Source\PSoC5/USBFS_std.c **** 
1091:.\Generated_Source\PSoC5/USBFS_std.c ****         /* Clear the data toggle */
1092:.\Generated_Source\PSoC5/USBFS_std.c ****         USBFS_EP[ep].epToggle = 0u;
ARM GAS  C:\Users\Robert\AppData\Local\Temp\ccvhms5a.s 			page 64


 2437              		.loc 1 1092 0
 2438 007a B979     		ldrb	r1, [r7, #6]	@ zero_extendqisi2
 2439 007c 40F20002 		movw	r2, #:lower16:USBFS_EP
 2440 0080 C0F20002 		movt	r2, #:upper16:USBFS_EP
 2441 0084 0B46     		mov	r3, r1
 2442 0086 4FEA4303 		lsl	r3, r3, #1
 2443 008a 5B18     		adds	r3, r3, r1
 2444 008c 4FEA8303 		lsl	r3, r3, #2
 2445 0090 D318     		adds	r3, r2, r3
 2446 0092 4FF00002 		mov	r2, #0
 2447 0096 DA70     		strb	r2, [r3, #3]
1093:.\Generated_Source\PSoC5/USBFS_std.c ****         /* Clear toggle bit for already armed packet */
1094:.\Generated_Source\PSoC5/USBFS_std.c ****         CY_SET_REG8((reg8 *)(USBFS_SIE_EP1_CNT0_IND + ri), CY_GET_REG8(
 2448              		.loc 1 1094 0
 2449 0098 7A79     		ldrb	r2, [r7, #5]	@ zero_extendqisi2
 2450 009a 46F20C03 		movw	r3, #24588
 2451 009e C4F20003 		movt	r3, 16384
 2452 00a2 D318     		adds	r3, r2, r3
 2453 00a4 1A46     		mov	r2, r3
 2454 00a6 7979     		ldrb	r1, [r7, #5]	@ zero_extendqisi2
 2455 00a8 46F20C03 		movw	r3, #24588
 2456 00ac C4F20003 		movt	r3, 16384
 2457 00b0 CB18     		adds	r3, r1, r3
 2458 00b2 1B78     		ldrb	r3, [r3, #0]
 2459 00b4 DBB2     		uxtb	r3, r3
 2460 00b6 03F07F03 		and	r3, r3, #127
 2461 00ba DBB2     		uxtb	r3, r3
 2462 00bc 1370     		strb	r3, [r2, #0]
1095:.\Generated_Source\PSoC5/USBFS_std.c ****                     (reg8 *)(USBFS_SIE_EP1_CNT0_IND + ri)) & (uint8)~USBFS_EPX_CNT_DATA_TOGGLE);
1096:.\Generated_Source\PSoC5/USBFS_std.c ****         /* Return API State as it was defined before */
1097:.\Generated_Source\PSoC5/USBFS_std.c ****         USBFS_EP[ep].apiEpState &= (uint8)~USBFS_NO_EVENT_ALLOWED;
 2463              		.loc 1 1097 0
 2464 00be B979     		ldrb	r1, [r7, #6]	@ zero_extendqisi2
 2465 00c0 B879     		ldrb	r0, [r7, #6]	@ zero_extendqisi2
 2466 00c2 40F20002 		movw	r2, #:lower16:USBFS_EP
 2467 00c6 C0F20002 		movt	r2, #:upper16:USBFS_EP
 2468 00ca 0346     		mov	r3, r0
 2469 00cc 4FEA4303 		lsl	r3, r3, #1
 2470 00d0 1B18     		adds	r3, r3, r0
 2471 00d2 4FEA8303 		lsl	r3, r3, #2
 2472 00d6 D318     		adds	r3, r2, r3
 2473 00d8 5B78     		ldrb	r3, [r3, #1]
 2474 00da DBB2     		uxtb	r3, r3
 2475 00dc 23F00203 		bic	r3, r3, #2
 2476 00e0 D8B2     		uxtb	r0, r3
 2477 00e2 40F20002 		movw	r2, #:lower16:USBFS_EP
 2478 00e6 C0F20002 		movt	r2, #:upper16:USBFS_EP
 2479 00ea 0B46     		mov	r3, r1
 2480 00ec 4FEA4303 		lsl	r3, r3, #1
 2481 00f0 5B18     		adds	r3, r3, r1
 2482 00f2 4FEA8303 		lsl	r3, r3, #2
 2483 00f6 D318     		adds	r3, r2, r3
 2484 00f8 0246     		mov	r2, r0
 2485 00fa 5A70     		strb	r2, [r3, #1]
1098:.\Generated_Source\PSoC5/USBFS_std.c **** 
1099:.\Generated_Source\PSoC5/USBFS_std.c ****         if ((USBFS_EP[ep].addr & USBFS_DIR_IN) != 0u)
 2486              		.loc 1 1099 0
ARM GAS  C:\Users\Robert\AppData\Local\Temp\ccvhms5a.s 			page 65


 2487 00fc B979     		ldrb	r1, [r7, #6]	@ zero_extendqisi2
 2488 00fe 40F20002 		movw	r2, #:lower16:USBFS_EP
 2489 0102 C0F20002 		movt	r2, #:upper16:USBFS_EP
 2490 0106 0B46     		mov	r3, r1
 2491 0108 4FEA4303 		lsl	r3, r3, #1
 2492 010c 5B18     		adds	r3, r3, r1
 2493 010e 4FEA8303 		lsl	r3, r3, #2
 2494 0112 D318     		adds	r3, r2, r3
 2495 0114 1B79     		ldrb	r3, [r3, #4]
 2496 0116 DBB2     		uxtb	r3, r3
 2497 0118 DBB2     		uxtb	r3, r3
 2498 011a 5BB2     		sxtb	r3, r3
 2499 011c 002B     		cmp	r3, #0
 2500 011e 23DA     		bge	.L129
1100:.\Generated_Source\PSoC5/USBFS_std.c ****         {
1101:.\Generated_Source\PSoC5/USBFS_std.c ****             /* IN Endpoint */
1102:.\Generated_Source\PSoC5/USBFS_std.c ****             if(USBFS_EP[ep].apiEpState == USBFS_IN_BUFFER_EMPTY)
 2501              		.loc 1 1102 0
 2502 0120 B979     		ldrb	r1, [r7, #6]	@ zero_extendqisi2
 2503 0122 40F20002 		movw	r2, #:lower16:USBFS_EP
 2504 0126 C0F20002 		movt	r2, #:upper16:USBFS_EP
 2505 012a 0B46     		mov	r3, r1
 2506 012c 4FEA4303 		lsl	r3, r3, #1
 2507 0130 5B18     		adds	r3, r3, r1
 2508 0132 4FEA8303 		lsl	r3, r3, #2
 2509 0136 D318     		adds	r3, r2, r3
 2510 0138 5B78     		ldrb	r3, [r3, #1]
 2511 013a DBB2     		uxtb	r3, r3
 2512 013c 012B     		cmp	r3, #1
 2513 013e 09D1     		bne	.L130
1103:.\Generated_Source\PSoC5/USBFS_std.c ****             {       /* Wait for next packet from application */
1104:.\Generated_Source\PSoC5/USBFS_std.c ****                 CY_SET_REG8((reg8 *)(USBFS_SIE_EP1_CR0_IND + ri), USBFS_MODE_NAK_IN);
 2514              		.loc 1 1104 0
 2515 0140 7A79     		ldrb	r2, [r7, #5]	@ zero_extendqisi2
 2516 0142 46F20E03 		movw	r3, #24590
 2517 0146 C4F20003 		movt	r3, 16384
 2518 014a D318     		adds	r3, r2, r3
 2519 014c 4FF00C02 		mov	r2, #12
 2520 0150 1A70     		strb	r2, [r3, #0]
 2521 0152 2CE0     		b	.L131
 2522              	.L130:
1105:.\Generated_Source\PSoC5/USBFS_std.c ****             }
1106:.\Generated_Source\PSoC5/USBFS_std.c ****             else    /* Continue armed transfer */
1107:.\Generated_Source\PSoC5/USBFS_std.c ****             {
1108:.\Generated_Source\PSoC5/USBFS_std.c ****                 CY_SET_REG8((reg8 *)(USBFS_SIE_EP1_CR0_IND + ri), USBFS_MODE_ACK_IN);
 2523              		.loc 1 1108 0
 2524 0154 7A79     		ldrb	r2, [r7, #5]	@ zero_extendqisi2
 2525 0156 46F20E03 		movw	r3, #24590
 2526 015a C4F20003 		movt	r3, 16384
 2527 015e D318     		adds	r3, r2, r3
 2528 0160 4FF00D02 		mov	r2, #13
 2529 0164 1A70     		strb	r2, [r3, #0]
 2530 0166 22E0     		b	.L131
 2531              	.L129:
1109:.\Generated_Source\PSoC5/USBFS_std.c ****             }
1110:.\Generated_Source\PSoC5/USBFS_std.c ****         }
1111:.\Generated_Source\PSoC5/USBFS_std.c ****         else
ARM GAS  C:\Users\Robert\AppData\Local\Temp\ccvhms5a.s 			page 66


1112:.\Generated_Source\PSoC5/USBFS_std.c ****         {
1113:.\Generated_Source\PSoC5/USBFS_std.c ****             /* OUT Endpoint */
1114:.\Generated_Source\PSoC5/USBFS_std.c ****             if(USBFS_EP[ep].apiEpState == USBFS_OUT_BUFFER_FULL)
 2532              		.loc 1 1114 0
 2533 0168 B979     		ldrb	r1, [r7, #6]	@ zero_extendqisi2
 2534 016a 40F20002 		movw	r2, #:lower16:USBFS_EP
 2535 016e C0F20002 		movt	r2, #:upper16:USBFS_EP
 2536 0172 0B46     		mov	r3, r1
 2537 0174 4FEA4303 		lsl	r3, r3, #1
 2538 0178 5B18     		adds	r3, r3, r1
 2539 017a 4FEA8303 		lsl	r3, r3, #2
 2540 017e D318     		adds	r3, r2, r3
 2541 0180 5B78     		ldrb	r3, [r3, #1]
 2542 0182 DBB2     		uxtb	r3, r3
 2543 0184 012B     		cmp	r3, #1
 2544 0186 09D1     		bne	.L132
1115:.\Generated_Source\PSoC5/USBFS_std.c ****             {       /* Allow application to read full buffer */
1116:.\Generated_Source\PSoC5/USBFS_std.c ****                 CY_SET_REG8((reg8 *)(USBFS_SIE_EP1_CR0_IND + ri), USBFS_MODE_NAK_OUT);
 2545              		.loc 1 1116 0
 2546 0188 7A79     		ldrb	r2, [r7, #5]	@ zero_extendqisi2
 2547 018a 46F20E03 		movw	r3, #24590
 2548 018e C4F20003 		movt	r3, 16384
 2549 0192 D318     		adds	r3, r2, r3
 2550 0194 4FF00802 		mov	r2, #8
 2551 0198 1A70     		strb	r2, [r3, #0]
 2552 019a 08E0     		b	.L131
 2553              	.L132:
1117:.\Generated_Source\PSoC5/USBFS_std.c ****             }
1118:.\Generated_Source\PSoC5/USBFS_std.c ****             else    /* Mark endpoint as empty, so it will be reloaded */
1119:.\Generated_Source\PSoC5/USBFS_std.c ****             {
1120:.\Generated_Source\PSoC5/USBFS_std.c ****                 CY_SET_REG8((reg8 *)(USBFS_SIE_EP1_CR0_IND + ri), USBFS_MODE_ACK_OUT);
 2554              		.loc 1 1120 0
 2555 019c 7A79     		ldrb	r2, [r7, #5]	@ zero_extendqisi2
 2556 019e 46F20E03 		movw	r3, #24590
 2557 01a2 C4F20003 		movt	r3, 16384
 2558 01a6 D318     		adds	r3, r2, r3
 2559 01a8 4FF00902 		mov	r2, #9
 2560 01ac 1A70     		strb	r2, [r3, #0]
 2561              	.L131:
1121:.\Generated_Source\PSoC5/USBFS_std.c ****             }
1122:.\Generated_Source\PSoC5/USBFS_std.c ****         }
1123:.\Generated_Source\PSoC5/USBFS_std.c ****         requestHandled = USBFS_InitNoDataControlTransfer();
 2562              		.loc 1 1123 0
 2563 01ae FFF7FEFF 		bl	USBFS_InitNoDataControlTransfer
 2564 01b2 0346     		mov	r3, r0
 2565 01b4 FB71     		strb	r3, [r7, #7]
 2566              	.L128:
1124:.\Generated_Source\PSoC5/USBFS_std.c ****     }
1125:.\Generated_Source\PSoC5/USBFS_std.c **** 
1126:.\Generated_Source\PSoC5/USBFS_std.c ****     return(requestHandled);
 2567              		.loc 1 1126 0
 2568 01b6 FB79     		ldrb	r3, [r7, #7]	@ zero_extendqisi2
1127:.\Generated_Source\PSoC5/USBFS_std.c **** }
 2569              		.loc 1 1127 0
 2570 01b8 1846     		mov	r0, r3
 2571 01ba 07F10807 		add	r7, r7, #8
 2572 01be BD46     		mov	sp, r7
ARM GAS  C:\Users\Robert\AppData\Local\Temp\ccvhms5a.s 			page 67


 2573 01c0 80BD     		pop	{r7, pc}
 2574              		.cfi_endproc
 2575              	.LFE9:
 2576              		.size	USBFS_ClearEndpointHalt, .-USBFS_ClearEndpointHalt
 2577 01c2 00BF     		.section	.text.USBFS_ValidateAlternateSetting,"ax",%progbits
 2578              		.align	2
 2579              		.global	USBFS_ValidateAlternateSetting
 2580              		.thumb
 2581              		.thumb_func
 2582              		.type	USBFS_ValidateAlternateSetting, %function
 2583              	USBFS_ValidateAlternateSetting:
 2584              	.LFB10:
1128:.\Generated_Source\PSoC5/USBFS_std.c **** 
1129:.\Generated_Source\PSoC5/USBFS_std.c **** 
1130:.\Generated_Source\PSoC5/USBFS_std.c **** /*******************************************************************************
1131:.\Generated_Source\PSoC5/USBFS_std.c **** * Function Name: USBFS_ValidateAlternateSetting
1132:.\Generated_Source\PSoC5/USBFS_std.c **** ********************************************************************************
1133:.\Generated_Source\PSoC5/USBFS_std.c **** *
1134:.\Generated_Source\PSoC5/USBFS_std.c **** * Summary:
1135:.\Generated_Source\PSoC5/USBFS_std.c **** *  Validates (and records) a SET INTERFACE request.
1136:.\Generated_Source\PSoC5/USBFS_std.c **** *
1137:.\Generated_Source\PSoC5/USBFS_std.c **** * Parameters:
1138:.\Generated_Source\PSoC5/USBFS_std.c **** *  None.
1139:.\Generated_Source\PSoC5/USBFS_std.c **** *
1140:.\Generated_Source\PSoC5/USBFS_std.c **** * Return:
1141:.\Generated_Source\PSoC5/USBFS_std.c **** *  requestHandled.
1142:.\Generated_Source\PSoC5/USBFS_std.c **** *
1143:.\Generated_Source\PSoC5/USBFS_std.c **** * Reentrant:
1144:.\Generated_Source\PSoC5/USBFS_std.c **** *  No.
1145:.\Generated_Source\PSoC5/USBFS_std.c **** *
1146:.\Generated_Source\PSoC5/USBFS_std.c **** *******************************************************************************/
1147:.\Generated_Source\PSoC5/USBFS_std.c **** uint8 USBFS_ValidateAlternateSetting(void) 
1148:.\Generated_Source\PSoC5/USBFS_std.c **** {
 2585              		.loc 1 1148 0
 2586              		.cfi_startproc
 2587              		@ args = 0, pretend = 0, frame = 16
 2588              		@ frame_needed = 1, uses_anonymous_args = 0
 2589 0000 80B5     		push	{r7, lr}
 2590              	.LCFI29:
 2591              		.cfi_def_cfa_offset 8
 2592              		.cfi_offset 7, -8
 2593              		.cfi_offset 14, -4
 2594 0002 84B0     		sub	sp, sp, #16
 2595              	.LCFI30:
 2596              		.cfi_def_cfa_offset 24
 2597 0004 00AF     		add	r7, sp, #0
 2598              	.LCFI31:
 2599              		.cfi_def_cfa_register 7
1149:.\Generated_Source\PSoC5/USBFS_std.c ****     uint8 requestHandled = USBFS_TRUE;
 2600              		.loc 1 1149 0
 2601 0006 4FF00103 		mov	r3, #1
 2602 000a FB73     		strb	r3, [r7, #15]
1150:.\Generated_Source\PSoC5/USBFS_std.c ****     uint8 interfaceNum;
1151:.\Generated_Source\PSoC5/USBFS_std.c ****     const T_USBFS_LUT CYCODE *pTmp;
1152:.\Generated_Source\PSoC5/USBFS_std.c ****     uint8 currentInterfacesNum;
1153:.\Generated_Source\PSoC5/USBFS_std.c **** 
1154:.\Generated_Source\PSoC5/USBFS_std.c ****     interfaceNum = CY_GET_REG8(USBFS_wIndexLo);
ARM GAS  C:\Users\Robert\AppData\Local\Temp\ccvhms5a.s 			page 68


 2603              		.loc 1 1154 0
 2604 000c 46F20403 		movw	r3, #24580
 2605 0010 C4F20003 		movt	r3, 16384
 2606 0014 1B78     		ldrb	r3, [r3, #0]
 2607 0016 BB73     		strb	r3, [r7, #14]
1155:.\Generated_Source\PSoC5/USBFS_std.c ****     /* Validate interface setting, stall if invalid. */
1156:.\Generated_Source\PSoC5/USBFS_std.c ****     pTmp = USBFS_GetConfigTablePtr(USBFS_configuration - 1u);
 2608              		.loc 1 1156 0
 2609 0018 40F20003 		movw	r3, #:lower16:USBFS_configuration
 2610 001c C0F20003 		movt	r3, #:upper16:USBFS_configuration
 2611 0020 1B78     		ldrb	r3, [r3, #0]
 2612 0022 DBB2     		uxtb	r3, r3
 2613 0024 03F1FF33 		add	r3, r3, #-1
 2614 0028 DBB2     		uxtb	r3, r3
 2615 002a 1846     		mov	r0, r3
 2616 002c FFF7FEFF 		bl	USBFS_GetConfigTablePtr
 2617 0030 B860     		str	r0, [r7, #8]
1157:.\Generated_Source\PSoC5/USBFS_std.c ****     currentInterfacesNum  = ((const uint8 *) pTmp->p_list)[USBFS_CONFIG_DESCR_NUM_INTERFACES];
 2618              		.loc 1 1157 0
 2619 0032 BB68     		ldr	r3, [r7, #8]
 2620 0034 5B68     		ldr	r3, [r3, #4]
 2621 0036 1B79     		ldrb	r3, [r3, #4]
 2622 0038 FB71     		strb	r3, [r7, #7]
1158:.\Generated_Source\PSoC5/USBFS_std.c **** 
1159:.\Generated_Source\PSoC5/USBFS_std.c ****     if((interfaceNum >= currentInterfacesNum) || (interfaceNum >= USBFS_MAX_INTERFACES_NUMBER))
 2623              		.loc 1 1159 0
 2624 003a BA7B     		ldrb	r2, [r7, #14]	@ zero_extendqisi2
 2625 003c FB79     		ldrb	r3, [r7, #7]	@ zero_extendqisi2
 2626 003e 9A42     		cmp	r2, r3
 2627 0040 02D2     		bcs	.L135
 2628              		.loc 1 1159 0 is_stmt 0 discriminator 1
 2629 0042 BB7B     		ldrb	r3, [r7, #14]	@ zero_extendqisi2
 2630 0044 002B     		cmp	r3, #0
 2631 0046 03D0     		beq	.L136
 2632              	.L135:
1160:.\Generated_Source\PSoC5/USBFS_std.c ****     {   /* Wrong interface number */
1161:.\Generated_Source\PSoC5/USBFS_std.c ****         requestHandled = USBFS_FALSE;
 2633              		.loc 1 1161 0 is_stmt 1
 2634 0048 4FF00003 		mov	r3, #0
 2635 004c FB73     		strb	r3, [r7, #15]
 2636 004e 18E0     		b	.L137
 2637              	.L136:
1162:.\Generated_Source\PSoC5/USBFS_std.c ****     }
1163:.\Generated_Source\PSoC5/USBFS_std.c ****     else
1164:.\Generated_Source\PSoC5/USBFS_std.c ****     {
1165:.\Generated_Source\PSoC5/USBFS_std.c ****         /* Save current Alt setting to find out the difference in Config() function */
1166:.\Generated_Source\PSoC5/USBFS_std.c ****         USBFS_interfaceSetting_last[interfaceNum] = USBFS_interfaceSetting[interfaceNum];
 2638              		.loc 1 1166 0
 2639 0050 BA7B     		ldrb	r2, [r7, #14]	@ zero_extendqisi2
 2640 0052 B97B     		ldrb	r1, [r7, #14]	@ zero_extendqisi2
 2641 0054 40F20003 		movw	r3, #:lower16:USBFS_interfaceSetting
 2642 0058 C0F20003 		movt	r3, #:upper16:USBFS_interfaceSetting
 2643 005c 5B5C     		ldrb	r3, [r3, r1]
 2644 005e D9B2     		uxtb	r1, r3
 2645 0060 40F20003 		movw	r3, #:lower16:USBFS_interfaceSetting_last
 2646 0064 C0F20003 		movt	r3, #:upper16:USBFS_interfaceSetting_last
 2647 0068 9954     		strb	r1, [r3, r2]
ARM GAS  C:\Users\Robert\AppData\Local\Temp\ccvhms5a.s 			page 69


1167:.\Generated_Source\PSoC5/USBFS_std.c ****         USBFS_interfaceSetting[interfaceNum] = CY_GET_REG8(USBFS_wValueLo);
 2648              		.loc 1 1167 0
 2649 006a BA7B     		ldrb	r2, [r7, #14]	@ zero_extendqisi2
 2650 006c 46F20203 		movw	r3, #24578
 2651 0070 C4F20003 		movt	r3, 16384
 2652 0074 1B78     		ldrb	r3, [r3, #0]
 2653 0076 D9B2     		uxtb	r1, r3
 2654 0078 40F20003 		movw	r3, #:lower16:USBFS_interfaceSetting
 2655 007c C0F20003 		movt	r3, #:upper16:USBFS_interfaceSetting
 2656 0080 9954     		strb	r1, [r3, r2]
 2657              	.L137:
1168:.\Generated_Source\PSoC5/USBFS_std.c ****     }
1169:.\Generated_Source\PSoC5/USBFS_std.c **** 
1170:.\Generated_Source\PSoC5/USBFS_std.c ****     return (requestHandled);
 2658              		.loc 1 1170 0
 2659 0082 FB7B     		ldrb	r3, [r7, #15]	@ zero_extendqisi2
1171:.\Generated_Source\PSoC5/USBFS_std.c **** }
 2660              		.loc 1 1171 0
 2661 0084 1846     		mov	r0, r3
 2662 0086 07F11007 		add	r7, r7, #16
 2663 008a BD46     		mov	sp, r7
 2664 008c 80BD     		pop	{r7, pc}
 2665              		.cfi_endproc
 2666              	.LFE10:
 2667              		.size	USBFS_ValidateAlternateSetting, .-USBFS_ValidateAlternateSetting
 2668              		.bss
 2669              		.align	2
 2670              	USBFS_tBuffer.5005:
 2671 0000 0000     		.space	2
 2672 0002 0000     		.text
 2673              	.Letext0:
 2674              		.file 2 ".\\Generated_Source\\PSoC5\\cytypes.h"
 2675              		.file 3 ".\\Generated_Source\\PSoC5\\USBFS.h"
 2676              		.file 4 ".\\Generated_Source\\PSoC5\\USBFS_pvt.h"