ARM GAS  C:\Users\Robert\AppData\Local\Temp\ccQqeyhO.s 			page 1


   1              		.syntax unified
   2              		.cpu cortex-m3
   3              		.fpu softvfp
   4              		.eabi_attribute 20, 1
   5              		.eabi_attribute 21, 1
   6              		.eabi_attribute 23, 3
   7              		.eabi_attribute 24, 1
   8              		.eabi_attribute 25, 1
   9              		.eabi_attribute 26, 1
  10              		.eabi_attribute 30, 6
  11              		.eabi_attribute 34, 1
  12              		.eabi_attribute 18, 4
  13              		.thumb
  14              		.file	"USBFS_drv.c"
  15              		.text
  16              	.Ltext0:
  17              		.cfi_sections	.debug_frame
  18              		.comm	USBFS_EP,108,4
  19              		.comm	USBFS_configuration,1,1
  20              		.comm	USBFS_interfaceNumber,1,1
  21              		.comm	USBFS_configurationChanged,1,1
  22              		.comm	USBFS_deviceAddress,1,1
  23              		.comm	USBFS_deviceStatus,1,1
  24              		.comm	USBFS_interfaceSetting,1,4
  25              		.comm	USBFS_interfaceSetting_last,1,4
  26              		.comm	USBFS_interfaceStatus,1,4
  27              		.comm	USBFS_device,1,1
  28              		.comm	USBFS_interfaceClass,4,4
  29              		.comm	USBFS_ep0Toggle,1,1
  30              		.comm	USBFS_lastPacketSize,1,1
  31              		.comm	USBFS_transferState,1,1
  32              		.comm	USBFS_currentTD,12,4
  33              		.comm	USBFS_ep0Mode,1,1
  34              		.comm	USBFS_ep0Count,1,1
  35              		.comm	USBFS_transferByteCount,2,2
  36              		.section	.text.USBFS_EP_0_ISR,"ax",%progbits
  37              		.align	2
  38              		.global	USBFS_EP_0_ISR
  39              		.thumb
  40              		.thumb_func
  41              		.type	USBFS_EP_0_ISR, %function
  42              	USBFS_EP_0_ISR:
  43              	.LFB0:
  44              		.file 1 ".\\Generated_Source\\PSoC5\\USBFS_drv.c"
   1:.\Generated_Source\PSoC5/USBFS_drv.c **** /*******************************************************************************
   2:.\Generated_Source\PSoC5/USBFS_drv.c **** * File Name: USBFS_drv.c
   3:.\Generated_Source\PSoC5/USBFS_drv.c **** * Version 2.70
   4:.\Generated_Source\PSoC5/USBFS_drv.c **** *
   5:.\Generated_Source\PSoC5/USBFS_drv.c **** * Description:
   6:.\Generated_Source\PSoC5/USBFS_drv.c **** *  Endpoint 0 Driver for the USBFS Component.
   7:.\Generated_Source\PSoC5/USBFS_drv.c **** *
   8:.\Generated_Source\PSoC5/USBFS_drv.c **** * Note:
   9:.\Generated_Source\PSoC5/USBFS_drv.c **** *
  10:.\Generated_Source\PSoC5/USBFS_drv.c **** ********************************************************************************
  11:.\Generated_Source\PSoC5/USBFS_drv.c **** * Copyright 2008-2013, Cypress Semiconductor Corporation.  All rights reserved.
  12:.\Generated_Source\PSoC5/USBFS_drv.c **** * You may use this file only in accordance with the license, terms, conditions,
  13:.\Generated_Source\PSoC5/USBFS_drv.c **** * disclaimers, and limitations in the end user license agreement accompanying
ARM GAS  C:\Users\Robert\AppData\Local\Temp\ccQqeyhO.s 			page 2


  14:.\Generated_Source\PSoC5/USBFS_drv.c **** * the software package with which this file was provided.
  15:.\Generated_Source\PSoC5/USBFS_drv.c **** *******************************************************************************/
  16:.\Generated_Source\PSoC5/USBFS_drv.c **** 
  17:.\Generated_Source\PSoC5/USBFS_drv.c **** #include "USBFS.h"
  18:.\Generated_Source\PSoC5/USBFS_drv.c **** #include "USBFS_pvt.h"
  19:.\Generated_Source\PSoC5/USBFS_drv.c **** 
  20:.\Generated_Source\PSoC5/USBFS_drv.c **** 
  21:.\Generated_Source\PSoC5/USBFS_drv.c **** /***************************************
  22:.\Generated_Source\PSoC5/USBFS_drv.c **** * Global data allocation
  23:.\Generated_Source\PSoC5/USBFS_drv.c **** ***************************************/
  24:.\Generated_Source\PSoC5/USBFS_drv.c **** 
  25:.\Generated_Source\PSoC5/USBFS_drv.c **** volatile T_USBFS_EP_CTL_BLOCK USBFS_EP[USBFS_MAX_EP];
  26:.\Generated_Source\PSoC5/USBFS_drv.c **** volatile uint8 USBFS_configuration;
  27:.\Generated_Source\PSoC5/USBFS_drv.c **** volatile uint8 USBFS_interfaceNumber;
  28:.\Generated_Source\PSoC5/USBFS_drv.c **** volatile uint8 USBFS_configurationChanged;
  29:.\Generated_Source\PSoC5/USBFS_drv.c **** volatile uint8 USBFS_deviceAddress;
  30:.\Generated_Source\PSoC5/USBFS_drv.c **** volatile uint8 USBFS_deviceStatus;
  31:.\Generated_Source\PSoC5/USBFS_drv.c **** volatile uint8 USBFS_interfaceSetting[USBFS_MAX_INTERFACES_NUMBER];
  32:.\Generated_Source\PSoC5/USBFS_drv.c **** volatile uint8 USBFS_interfaceSetting_last[USBFS_MAX_INTERFACES_NUMBER];
  33:.\Generated_Source\PSoC5/USBFS_drv.c **** volatile uint8 USBFS_interfaceStatus[USBFS_MAX_INTERFACES_NUMBER];
  34:.\Generated_Source\PSoC5/USBFS_drv.c **** volatile uint8 USBFS_device;
  35:.\Generated_Source\PSoC5/USBFS_drv.c **** const uint8 CYCODE *USBFS_interfaceClass;
  36:.\Generated_Source\PSoC5/USBFS_drv.c **** 
  37:.\Generated_Source\PSoC5/USBFS_drv.c **** 
  38:.\Generated_Source\PSoC5/USBFS_drv.c **** /***************************************
  39:.\Generated_Source\PSoC5/USBFS_drv.c **** * Local data allocation
  40:.\Generated_Source\PSoC5/USBFS_drv.c **** ***************************************/
  41:.\Generated_Source\PSoC5/USBFS_drv.c **** 
  42:.\Generated_Source\PSoC5/USBFS_drv.c **** volatile uint8 USBFS_ep0Toggle;
  43:.\Generated_Source\PSoC5/USBFS_drv.c **** volatile uint8 USBFS_lastPacketSize;
  44:.\Generated_Source\PSoC5/USBFS_drv.c **** volatile uint8 USBFS_transferState;
  45:.\Generated_Source\PSoC5/USBFS_drv.c **** volatile T_USBFS_TD USBFS_currentTD;
  46:.\Generated_Source\PSoC5/USBFS_drv.c **** volatile uint8 USBFS_ep0Mode;
  47:.\Generated_Source\PSoC5/USBFS_drv.c **** volatile uint8 USBFS_ep0Count;
  48:.\Generated_Source\PSoC5/USBFS_drv.c **** volatile uint16 USBFS_transferByteCount;
  49:.\Generated_Source\PSoC5/USBFS_drv.c **** 
  50:.\Generated_Source\PSoC5/USBFS_drv.c **** 
  51:.\Generated_Source\PSoC5/USBFS_drv.c **** /*******************************************************************************
  52:.\Generated_Source\PSoC5/USBFS_drv.c **** * Function Name: USBFS_ep_0_Interrupt
  53:.\Generated_Source\PSoC5/USBFS_drv.c **** ********************************************************************************
  54:.\Generated_Source\PSoC5/USBFS_drv.c **** *
  55:.\Generated_Source\PSoC5/USBFS_drv.c **** * Summary:
  56:.\Generated_Source\PSoC5/USBFS_drv.c **** *  This Interrupt Service Routine handles Endpoint 0 (Control Pipe) traffic.
  57:.\Generated_Source\PSoC5/USBFS_drv.c **** *  It dispatches setup requests and handles the data and status stages.
  58:.\Generated_Source\PSoC5/USBFS_drv.c **** *
  59:.\Generated_Source\PSoC5/USBFS_drv.c **** * Parameters:
  60:.\Generated_Source\PSoC5/USBFS_drv.c **** *  None.
  61:.\Generated_Source\PSoC5/USBFS_drv.c **** *
  62:.\Generated_Source\PSoC5/USBFS_drv.c **** * Return:
  63:.\Generated_Source\PSoC5/USBFS_drv.c **** *  None.
  64:.\Generated_Source\PSoC5/USBFS_drv.c **** *
  65:.\Generated_Source\PSoC5/USBFS_drv.c **** *******************************************************************************/
  66:.\Generated_Source\PSoC5/USBFS_drv.c **** CY_ISR(USBFS_EP_0_ISR)
  67:.\Generated_Source\PSoC5/USBFS_drv.c **** {
  45              		.loc 1 67 0
  46              		.cfi_startproc
  47              		@ args = 0, pretend = 0, frame = 8
ARM GAS  C:\Users\Robert\AppData\Local\Temp\ccQqeyhO.s 			page 3


  48              		@ frame_needed = 1, uses_anonymous_args = 0
  49 0000 80B5     		push	{r7, lr}
  50              	.LCFI0:
  51              		.cfi_def_cfa_offset 8
  52              		.cfi_offset 7, -8
  53              		.cfi_offset 14, -4
  54 0002 82B0     		sub	sp, sp, #8
  55              	.LCFI1:
  56              		.cfi_def_cfa_offset 16
  57 0004 00AF     		add	r7, sp, #0
  58              	.LCFI2:
  59              		.cfi_def_cfa_register 7
  68:.\Generated_Source\PSoC5/USBFS_drv.c ****     uint8 bRegTemp;
  69:.\Generated_Source\PSoC5/USBFS_drv.c ****     uint8 modifyReg;
  70:.\Generated_Source\PSoC5/USBFS_drv.c **** 
  71:.\Generated_Source\PSoC5/USBFS_drv.c **** 
  72:.\Generated_Source\PSoC5/USBFS_drv.c ****     bRegTemp = CY_GET_REG8(USBFS_EP0_CR_PTR);
  60              		.loc 1 72 0
  61 0006 46F22803 		movw	r3, #24616
  62 000a C4F20003 		movt	r3, 16384
  63 000e 1B78     		ldrb	r3, [r3, #0]
  64 0010 BB71     		strb	r3, [r7, #6]
  73:.\Generated_Source\PSoC5/USBFS_drv.c ****     if ((bRegTemp & USBFS_MODE_ACKD) != 0u)
  65              		.loc 1 73 0
  66 0012 BB79     		ldrb	r3, [r7, #6]	@ zero_extendqisi2
  67 0014 03F01003 		and	r3, r3, #16
  68 0018 002B     		cmp	r3, #0
  69 001a 00F08C80 		beq	.L1
  74:.\Generated_Source\PSoC5/USBFS_drv.c ****     {
  75:.\Generated_Source\PSoC5/USBFS_drv.c ****         modifyReg = 1u;
  70              		.loc 1 75 0
  71 001e 4FF00103 		mov	r3, #1
  72 0022 FB71     		strb	r3, [r7, #7]
  76:.\Generated_Source\PSoC5/USBFS_drv.c ****         if ((bRegTemp & USBFS_MODE_SETUP_RCVD) != 0u)
  73              		.loc 1 76 0
  74 0024 BB79     		ldrb	r3, [r7, #6]	@ zero_extendqisi2
  75 0026 5BB2     		sxtb	r3, r3
  76 0028 002B     		cmp	r3, #0
  77 002a 18DA     		bge	.L3
  77:.\Generated_Source\PSoC5/USBFS_drv.c ****         {
  78:.\Generated_Source\PSoC5/USBFS_drv.c ****             if((bRegTemp & USBFS_MODE_MASK) != USBFS_MODE_NAK_IN_OUT)
  78              		.loc 1 78 0
  79 002c BB79     		ldrb	r3, [r7, #6]	@ zero_extendqisi2
  80 002e 03F00F03 		and	r3, r3, #15
  81 0032 012B     		cmp	r3, #1
  82 0034 03D0     		beq	.L4
  79:.\Generated_Source\PSoC5/USBFS_drv.c ****             {
  80:.\Generated_Source\PSoC5/USBFS_drv.c ****                 modifyReg = 0u;                                     /* When mode not NAK_IN_OUT => 
  83              		.loc 1 80 0
  84 0036 4FF00003 		mov	r3, #0
  85 003a FB71     		strb	r3, [r7, #7]
  86 003c 22E0     		b	.L5
  87              	.L4:
  81:.\Generated_Source\PSoC5/USBFS_drv.c ****             }
  82:.\Generated_Source\PSoC5/USBFS_drv.c ****             else
  83:.\Generated_Source\PSoC5/USBFS_drv.c ****             {
  84:.\Generated_Source\PSoC5/USBFS_drv.c ****                 USBFS_HandleSetup();
ARM GAS  C:\Users\Robert\AppData\Local\Temp\ccQqeyhO.s 			page 4


  88              		.loc 1 84 0
  89 003e FFF7FEFF 		bl	USBFS_HandleSetup
  85:.\Generated_Source\PSoC5/USBFS_drv.c ****                 if((USBFS_ep0Mode & USBFS_MODE_SETUP_RCVD) != 0u)
  90              		.loc 1 85 0
  91 0042 40F20003 		movw	r3, #:lower16:USBFS_ep0Mode
  92 0046 C0F20003 		movt	r3, #:upper16:USBFS_ep0Mode
  93 004a 1B78     		ldrb	r3, [r3, #0]
  94 004c DBB2     		uxtb	r3, r3
  95 004e DBB2     		uxtb	r3, r3
  96 0050 5BB2     		sxtb	r3, r3
  97 0052 002B     		cmp	r3, #0
  98 0054 16DA     		bge	.L5
  86:.\Generated_Source\PSoC5/USBFS_drv.c ****                 {
  87:.\Generated_Source\PSoC5/USBFS_drv.c ****                     modifyReg = 0u;                         /* if SETUP bit set -> exit without mod
  99              		.loc 1 87 0
 100 0056 4FF00003 		mov	r3, #0
 101 005a FB71     		strb	r3, [r7, #7]
 102 005c 12E0     		b	.L5
 103              	.L3:
  88:.\Generated_Source\PSoC5/USBFS_drv.c ****                 }
  89:.\Generated_Source\PSoC5/USBFS_drv.c **** 
  90:.\Generated_Source\PSoC5/USBFS_drv.c ****             }
  91:.\Generated_Source\PSoC5/USBFS_drv.c ****         }
  92:.\Generated_Source\PSoC5/USBFS_drv.c ****         else if ((bRegTemp & USBFS_MODE_IN_RCVD) != 0u)
 104              		.loc 1 92 0
 105 005e BB79     		ldrb	r3, [r7, #6]	@ zero_extendqisi2
 106 0060 03F04003 		and	r3, r3, #64
 107 0064 002B     		cmp	r3, #0
 108 0066 02D0     		beq	.L6
  93:.\Generated_Source\PSoC5/USBFS_drv.c ****         {
  94:.\Generated_Source\PSoC5/USBFS_drv.c ****             USBFS_HandleIN();
 109              		.loc 1 94 0
 110 0068 FFF7FEFF 		bl	USBFS_HandleIN
 111 006c 0AE0     		b	.L5
 112              	.L6:
  95:.\Generated_Source\PSoC5/USBFS_drv.c ****         }
  96:.\Generated_Source\PSoC5/USBFS_drv.c ****         else if ((bRegTemp & USBFS_MODE_OUT_RCVD) != 0u)
 113              		.loc 1 96 0
 114 006e BB79     		ldrb	r3, [r7, #6]	@ zero_extendqisi2
 115 0070 03F02003 		and	r3, r3, #32
 116 0074 002B     		cmp	r3, #0
 117 0076 02D0     		beq	.L7
  97:.\Generated_Source\PSoC5/USBFS_drv.c ****         {
  98:.\Generated_Source\PSoC5/USBFS_drv.c ****             USBFS_HandleOUT();
 118              		.loc 1 98 0
 119 0078 FFF7FEFF 		bl	USBFS_HandleOUT
 120 007c 02E0     		b	.L5
 121              	.L7:
  99:.\Generated_Source\PSoC5/USBFS_drv.c ****         }
 100:.\Generated_Source\PSoC5/USBFS_drv.c ****         else
 101:.\Generated_Source\PSoC5/USBFS_drv.c ****         {
 102:.\Generated_Source\PSoC5/USBFS_drv.c ****             modifyReg = 0u;
 122              		.loc 1 102 0
 123 007e 4FF00003 		mov	r3, #0
 124 0082 FB71     		strb	r3, [r7, #7]
 125              	.L5:
 103:.\Generated_Source\PSoC5/USBFS_drv.c ****         }
ARM GAS  C:\Users\Robert\AppData\Local\Temp\ccQqeyhO.s 			page 5


 104:.\Generated_Source\PSoC5/USBFS_drv.c ****         if(modifyReg != 0u)
 126              		.loc 1 104 0
 127 0084 FB79     		ldrb	r3, [r7, #7]	@ zero_extendqisi2
 128 0086 002B     		cmp	r3, #0
 129 0088 55D0     		beq	.L1
 105:.\Generated_Source\PSoC5/USBFS_drv.c ****         {
 106:.\Generated_Source\PSoC5/USBFS_drv.c ****             bRegTemp = CY_GET_REG8(USBFS_EP0_CR_PTR);    /* unlock registers */
 130              		.loc 1 106 0
 131 008a 46F22803 		movw	r3, #24616
 132 008e C4F20003 		movt	r3, 16384
 133 0092 1B78     		ldrb	r3, [r3, #0]
 134 0094 BB71     		strb	r3, [r7, #6]
 107:.\Generated_Source\PSoC5/USBFS_drv.c ****             if((bRegTemp & USBFS_MODE_SETUP_RCVD) == 0u)  /* Check if SETUP bit is not set, otherwi
 135              		.loc 1 107 0
 136 0096 BB79     		ldrb	r3, [r7, #6]	@ zero_extendqisi2
 137 0098 5BB2     		sxtb	r3, r3
 138 009a 002B     		cmp	r3, #0
 139 009c 4BDB     		blt	.L1
 108:.\Generated_Source\PSoC5/USBFS_drv.c ****             {
 109:.\Generated_Source\PSoC5/USBFS_drv.c ****                 /* Update the count register */
 110:.\Generated_Source\PSoC5/USBFS_drv.c ****                 bRegTemp = USBFS_ep0Toggle | USBFS_ep0Count;
 140              		.loc 1 110 0
 141 009e 40F20003 		movw	r3, #:lower16:USBFS_ep0Toggle
 142 00a2 C0F20003 		movt	r3, #:upper16:USBFS_ep0Toggle
 143 00a6 1B78     		ldrb	r3, [r3, #0]
 144 00a8 DAB2     		uxtb	r2, r3
 145 00aa 40F20003 		movw	r3, #:lower16:USBFS_ep0Count
 146 00ae C0F20003 		movt	r3, #:upper16:USBFS_ep0Count
 147 00b2 1B78     		ldrb	r3, [r3, #0]
 148 00b4 DBB2     		uxtb	r3, r3
 149 00b6 1343     		orrs	r3, r3, r2
 150 00b8 BB71     		strb	r3, [r7, #6]
 111:.\Generated_Source\PSoC5/USBFS_drv.c ****                 CY_SET_REG8(USBFS_EP0_CNT_PTR, bRegTemp);
 151              		.loc 1 111 0
 152 00ba 46F22903 		movw	r3, #24617
 153 00be C4F20003 		movt	r3, 16384
 154 00c2 BA79     		ldrb	r2, [r7, #6]
 155 00c4 1A70     		strb	r2, [r3, #0]
 112:.\Generated_Source\PSoC5/USBFS_drv.c ****                 if(bRegTemp == CY_GET_REG8(USBFS_EP0_CNT_PTR))   /* continue if writing was success
 156              		.loc 1 112 0
 157 00c6 46F22903 		movw	r3, #24617
 158 00ca C4F20003 		movt	r3, 16384
 159 00ce 1B78     		ldrb	r3, [r3, #0]
 160 00d0 DBB2     		uxtb	r3, r3
 161 00d2 BA79     		ldrb	r2, [r7, #6]	@ zero_extendqisi2
 162 00d4 9A42     		cmp	r2, r3
 163 00d6 2ED1     		bne	.L1
 164              	.L9:
 113:.\Generated_Source\PSoC5/USBFS_drv.c ****                 {
 114:.\Generated_Source\PSoC5/USBFS_drv.c ****                     do
 115:.\Generated_Source\PSoC5/USBFS_drv.c ****                     {
 116:.\Generated_Source\PSoC5/USBFS_drv.c ****                         modifyReg = USBFS_ep0Mode;       /* Init temporary variable */
 165              		.loc 1 116 0
 166 00d8 40F20003 		movw	r3, #:lower16:USBFS_ep0Mode
 167 00dc C0F20003 		movt	r3, #:upper16:USBFS_ep0Mode
 168 00e0 1B78     		ldrb	r3, [r3, #0]
 169 00e2 FB71     		strb	r3, [r7, #7]
ARM GAS  C:\Users\Robert\AppData\Local\Temp\ccQqeyhO.s 			page 6


 117:.\Generated_Source\PSoC5/USBFS_drv.c ****                         /* Unlock registers */
 118:.\Generated_Source\PSoC5/USBFS_drv.c ****                         bRegTemp = CY_GET_REG8(USBFS_EP0_CR_PTR) & USBFS_MODE_SETUP_RCVD;
 170              		.loc 1 118 0
 171 00e4 46F22803 		movw	r3, #24616
 172 00e8 C4F20003 		movt	r3, 16384
 173 00ec 1B78     		ldrb	r3, [r3, #0]
 174 00ee DBB2     		uxtb	r3, r3
 175 00f0 23F07F03 		bic	r3, r3, #127
 176 00f4 BB71     		strb	r3, [r7, #6]
 119:.\Generated_Source\PSoC5/USBFS_drv.c ****                         if(bRegTemp == 0u)                          /* Check if SETUP bit is not se
 177              		.loc 1 119 0
 178 00f6 BB79     		ldrb	r3, [r7, #6]	@ zero_extendqisi2
 179 00f8 002B     		cmp	r3, #0
 180 00fa 13D1     		bne	.L8
 120:.\Generated_Source\PSoC5/USBFS_drv.c ****                         {
 121:.\Generated_Source\PSoC5/USBFS_drv.c ****                             /* Set the Mode Register  */
 122:.\Generated_Source\PSoC5/USBFS_drv.c ****                             CY_SET_REG8(USBFS_EP0_CR_PTR, USBFS_ep0Mode);
 181              		.loc 1 122 0
 182 00fc 46F22803 		movw	r3, #24616
 183 0100 C4F20003 		movt	r3, 16384
 184 0104 40F20002 		movw	r2, #:lower16:USBFS_ep0Mode
 185 0108 C0F20002 		movt	r2, #:upper16:USBFS_ep0Mode
 186 010c 1278     		ldrb	r2, [r2, #0]
 187 010e D2B2     		uxtb	r2, r2
 188 0110 1A70     		strb	r2, [r3, #0]
 123:.\Generated_Source\PSoC5/USBFS_drv.c ****                             /* Writing check */
 124:.\Generated_Source\PSoC5/USBFS_drv.c ****                             modifyReg = CY_GET_REG8(USBFS_EP0_CR_PTR) & USBFS_MODE_MASK;
 189              		.loc 1 124 0
 190 0112 46F22803 		movw	r3, #24616
 191 0116 C4F20003 		movt	r3, 16384
 192 011a 1B78     		ldrb	r3, [r3, #0]
 193 011c DBB2     		uxtb	r3, r3
 194 011e 03F00F03 		and	r3, r3, #15
 195 0122 FB71     		strb	r3, [r7, #7]
 196              	.L8:
 125:.\Generated_Source\PSoC5/USBFS_drv.c ****                         }
 126:.\Generated_Source\PSoC5/USBFS_drv.c ****                     }while(modifyReg != USBFS_ep0Mode);  /* Repeat if writing was not successful */
 197              		.loc 1 126 0
 198 0124 40F20003 		movw	r3, #:lower16:USBFS_ep0Mode
 199 0128 C0F20003 		movt	r3, #:upper16:USBFS_ep0Mode
 200 012c 1B78     		ldrb	r3, [r3, #0]
 201 012e DBB2     		uxtb	r3, r3
 202 0130 FA79     		ldrb	r2, [r7, #7]	@ zero_extendqisi2
 203 0132 9A42     		cmp	r2, r3
 204 0134 D0D1     		bne	.L9
 205              	.L1:
 127:.\Generated_Source\PSoC5/USBFS_drv.c ****                 }
 128:.\Generated_Source\PSoC5/USBFS_drv.c ****             }
 129:.\Generated_Source\PSoC5/USBFS_drv.c ****         }
 130:.\Generated_Source\PSoC5/USBFS_drv.c ****     }
 131:.\Generated_Source\PSoC5/USBFS_drv.c **** }
 206              		.loc 1 131 0
 207 0136 07F10807 		add	r7, r7, #8
 208 013a BD46     		mov	sp, r7
 209 013c 80BD     		pop	{r7, pc}
 210              		.cfi_endproc
 211              	.LFE0:
ARM GAS  C:\Users\Robert\AppData\Local\Temp\ccQqeyhO.s 			page 7


 212              		.size	USBFS_EP_0_ISR, .-USBFS_EP_0_ISR
 213 013e 00BF     		.section	.text.USBFS_HandleSetup,"ax",%progbits
 214              		.align	2
 215              		.global	USBFS_HandleSetup
 216              		.thumb
 217              		.thumb_func
 218              		.type	USBFS_HandleSetup, %function
 219              	USBFS_HandleSetup:
 220              	.LFB1:
 132:.\Generated_Source\PSoC5/USBFS_drv.c **** 
 133:.\Generated_Source\PSoC5/USBFS_drv.c **** 
 134:.\Generated_Source\PSoC5/USBFS_drv.c **** /*******************************************************************************
 135:.\Generated_Source\PSoC5/USBFS_drv.c **** * Function Name: USBFS_HandleSetup
 136:.\Generated_Source\PSoC5/USBFS_drv.c **** ********************************************************************************
 137:.\Generated_Source\PSoC5/USBFS_drv.c **** *
 138:.\Generated_Source\PSoC5/USBFS_drv.c **** * Summary:
 139:.\Generated_Source\PSoC5/USBFS_drv.c **** *  This Routine dispatches requests for the four USB request types
 140:.\Generated_Source\PSoC5/USBFS_drv.c **** *
 141:.\Generated_Source\PSoC5/USBFS_drv.c **** * Parameters:
 142:.\Generated_Source\PSoC5/USBFS_drv.c **** *  None.
 143:.\Generated_Source\PSoC5/USBFS_drv.c **** *
 144:.\Generated_Source\PSoC5/USBFS_drv.c **** * Return:
 145:.\Generated_Source\PSoC5/USBFS_drv.c **** *  None.
 146:.\Generated_Source\PSoC5/USBFS_drv.c **** *
 147:.\Generated_Source\PSoC5/USBFS_drv.c **** * Reentrant:
 148:.\Generated_Source\PSoC5/USBFS_drv.c **** *  No.
 149:.\Generated_Source\PSoC5/USBFS_drv.c **** *
 150:.\Generated_Source\PSoC5/USBFS_drv.c **** *******************************************************************************/
 151:.\Generated_Source\PSoC5/USBFS_drv.c **** void USBFS_HandleSetup(void) 
 152:.\Generated_Source\PSoC5/USBFS_drv.c **** {
 221              		.loc 1 152 0
 222              		.cfi_startproc
 223              		@ args = 0, pretend = 0, frame = 8
 224              		@ frame_needed = 1, uses_anonymous_args = 0
 225 0000 80B5     		push	{r7, lr}
 226              	.LCFI3:
 227              		.cfi_def_cfa_offset 8
 228              		.cfi_offset 7, -8
 229              		.cfi_offset 14, -4
 230 0002 82B0     		sub	sp, sp, #8
 231              	.LCFI4:
 232              		.cfi_def_cfa_offset 16
 233 0004 00AF     		add	r7, sp, #0
 234              	.LCFI5:
 235              		.cfi_def_cfa_register 7
 153:.\Generated_Source\PSoC5/USBFS_drv.c ****     uint8 requestHandled;
 154:.\Generated_Source\PSoC5/USBFS_drv.c **** 
 155:.\Generated_Source\PSoC5/USBFS_drv.c ****     requestHandled = CY_GET_REG8(USBFS_EP0_CR_PTR);      /* unlock registers */
 236              		.loc 1 155 0
 237 0006 46F22803 		movw	r3, #24616
 238 000a C4F20003 		movt	r3, 16384
 239 000e 1B78     		ldrb	r3, [r3, #0]
 240 0010 FB71     		strb	r3, [r7, #7]
 156:.\Generated_Source\PSoC5/USBFS_drv.c ****     CY_SET_REG8(USBFS_EP0_CR_PTR, requestHandled);       /* clear setup bit */
 241              		.loc 1 156 0
 242 0012 46F22803 		movw	r3, #24616
 243 0016 C4F20003 		movt	r3, 16384
ARM GAS  C:\Users\Robert\AppData\Local\Temp\ccQqeyhO.s 			page 8


 244 001a FA79     		ldrb	r2, [r7, #7]
 245 001c 1A70     		strb	r2, [r3, #0]
 157:.\Generated_Source\PSoC5/USBFS_drv.c ****     requestHandled = CY_GET_REG8(USBFS_EP0_CR_PTR);      /* reread register */
 246              		.loc 1 157 0
 247 001e 46F22803 		movw	r3, #24616
 248 0022 C4F20003 		movt	r3, 16384
 249 0026 1B78     		ldrb	r3, [r3, #0]
 250 0028 FB71     		strb	r3, [r7, #7]
 158:.\Generated_Source\PSoC5/USBFS_drv.c ****     if((requestHandled & USBFS_MODE_SETUP_RCVD) != 0u)
 251              		.loc 1 158 0
 252 002a FB79     		ldrb	r3, [r7, #7]	@ zero_extendqisi2
 253 002c 5BB2     		sxtb	r3, r3
 254 002e 002B     		cmp	r3, #0
 255 0030 06DA     		bge	.L11
 159:.\Generated_Source\PSoC5/USBFS_drv.c ****     {
 160:.\Generated_Source\PSoC5/USBFS_drv.c ****         USBFS_ep0Mode = requestHandled;        /* if SETUP bit set -> exit without modifying the mo
 256              		.loc 1 160 0
 257 0032 40F20003 		movw	r3, #:lower16:USBFS_ep0Mode
 258 0036 C0F20003 		movt	r3, #:upper16:USBFS_ep0Mode
 259 003a FA79     		ldrb	r2, [r7, #7]
 260 003c 1A70     		strb	r2, [r3, #0]
 261 003e 2EE0     		b	.L10
 262              	.L11:
 161:.\Generated_Source\PSoC5/USBFS_drv.c ****     }
 162:.\Generated_Source\PSoC5/USBFS_drv.c ****     else
 163:.\Generated_Source\PSoC5/USBFS_drv.c ****     {
 164:.\Generated_Source\PSoC5/USBFS_drv.c ****         /* In case the previous transfer did not complete, close it out */
 165:.\Generated_Source\PSoC5/USBFS_drv.c ****         USBFS_UpdateStatusBlock(USBFS_XFER_PREMATURE);
 263              		.loc 1 165 0
 264 0040 4FF00200 		mov	r0, #2
 265 0044 FFF7FEFF 		bl	USBFS_UpdateStatusBlock
 166:.\Generated_Source\PSoC5/USBFS_drv.c **** 
 167:.\Generated_Source\PSoC5/USBFS_drv.c ****         switch (CY_GET_REG8(USBFS_bmRequestType) & USBFS_RQST_TYPE_MASK)
 266              		.loc 1 167 0
 267 0048 4FF4C043 		mov	r3, #24576
 268 004c C4F20003 		movt	r3, 16384
 269 0050 1B78     		ldrb	r3, [r3, #0]
 270 0052 DBB2     		uxtb	r3, r3
 271 0054 03F06003 		and	r3, r3, #96
 272 0058 202B     		cmp	r3, #32
 273 005a 08D0     		beq	.L15
 274 005c 402B     		cmp	r3, #64
 275 005e 0BD0     		beq	.L16
 276 0060 002B     		cmp	r3, #0
 277 0062 0ED1     		bne	.L18
 278              	.L14:
 168:.\Generated_Source\PSoC5/USBFS_drv.c ****         {
 169:.\Generated_Source\PSoC5/USBFS_drv.c ****             case USBFS_RQST_TYPE_STD:
 170:.\Generated_Source\PSoC5/USBFS_drv.c ****                 requestHandled = USBFS_HandleStandardRqst();
 279              		.loc 1 170 0
 280 0064 FFF7FEFF 		bl	USBFS_HandleStandardRqst
 281 0068 0346     		mov	r3, r0
 282 006a FB71     		strb	r3, [r7, #7]
 171:.\Generated_Source\PSoC5/USBFS_drv.c ****                 break;
 283              		.loc 1 171 0
 284 006c 0DE0     		b	.L17
 285              	.L15:
ARM GAS  C:\Users\Robert\AppData\Local\Temp\ccQqeyhO.s 			page 9


 172:.\Generated_Source\PSoC5/USBFS_drv.c ****             case USBFS_RQST_TYPE_CLS:
 173:.\Generated_Source\PSoC5/USBFS_drv.c ****                 requestHandled = USBFS_DispatchClassRqst();
 286              		.loc 1 173 0
 287 006e FFF7FEFF 		bl	USBFS_DispatchClassRqst
 288 0072 0346     		mov	r3, r0
 289 0074 FB71     		strb	r3, [r7, #7]
 174:.\Generated_Source\PSoC5/USBFS_drv.c ****                 break;
 290              		.loc 1 174 0
 291 0076 08E0     		b	.L17
 292              	.L16:
 175:.\Generated_Source\PSoC5/USBFS_drv.c ****             case USBFS_RQST_TYPE_VND:
 176:.\Generated_Source\PSoC5/USBFS_drv.c ****                 requestHandled = USBFS_HandleVendorRqst();
 293              		.loc 1 176 0
 294 0078 FFF7FEFF 		bl	USBFS_HandleVendorRqst
 295 007c 0346     		mov	r3, r0
 296 007e FB71     		strb	r3, [r7, #7]
 177:.\Generated_Source\PSoC5/USBFS_drv.c ****                 break;
 297              		.loc 1 177 0
 298 0080 03E0     		b	.L17
 299              	.L18:
 178:.\Generated_Source\PSoC5/USBFS_drv.c ****             default:
 179:.\Generated_Source\PSoC5/USBFS_drv.c ****                 requestHandled = USBFS_FALSE;
 300              		.loc 1 179 0
 301 0082 4FF00003 		mov	r3, #0
 302 0086 FB71     		strb	r3, [r7, #7]
 180:.\Generated_Source\PSoC5/USBFS_drv.c ****                 break;
 303              		.loc 1 180 0
 304 0088 00BF     		nop
 305              	.L17:
 181:.\Generated_Source\PSoC5/USBFS_drv.c ****         }
 182:.\Generated_Source\PSoC5/USBFS_drv.c ****         if (requestHandled == USBFS_FALSE)
 306              		.loc 1 182 0
 307 008a FB79     		ldrb	r3, [r7, #7]	@ zero_extendqisi2
 308 008c 002B     		cmp	r3, #0
 309 008e 06D1     		bne	.L10
 183:.\Generated_Source\PSoC5/USBFS_drv.c ****         {
 184:.\Generated_Source\PSoC5/USBFS_drv.c ****             USBFS_ep0Mode = USBFS_MODE_STALL_IN_OUT;
 310              		.loc 1 184 0
 311 0090 40F20003 		movw	r3, #:lower16:USBFS_ep0Mode
 312 0094 C0F20003 		movt	r3, #:upper16:USBFS_ep0Mode
 313 0098 4FF00302 		mov	r2, #3
 314 009c 1A70     		strb	r2, [r3, #0]
 315              	.L10:
 185:.\Generated_Source\PSoC5/USBFS_drv.c ****         }
 186:.\Generated_Source\PSoC5/USBFS_drv.c ****     }
 187:.\Generated_Source\PSoC5/USBFS_drv.c **** }
 316              		.loc 1 187 0
 317 009e 07F10807 		add	r7, r7, #8
 318 00a2 BD46     		mov	sp, r7
 319 00a4 80BD     		pop	{r7, pc}
 320              		.cfi_endproc
 321              	.LFE1:
 322              		.size	USBFS_HandleSetup, .-USBFS_HandleSetup
 323              		.section	.text.USBFS_HandleIN,"ax",%progbits
 324              		.align	2
 325              		.global	USBFS_HandleIN
 326              		.thumb
ARM GAS  C:\Users\Robert\AppData\Local\Temp\ccQqeyhO.s 			page 10


 327              		.thumb_func
 328              		.type	USBFS_HandleIN, %function
 329              	USBFS_HandleIN:
 330              	.LFB2:
 188:.\Generated_Source\PSoC5/USBFS_drv.c **** 
 189:.\Generated_Source\PSoC5/USBFS_drv.c **** 
 190:.\Generated_Source\PSoC5/USBFS_drv.c **** /*******************************************************************************
 191:.\Generated_Source\PSoC5/USBFS_drv.c **** * Function Name: USBFS_HandleIN
 192:.\Generated_Source\PSoC5/USBFS_drv.c **** ********************************************************************************
 193:.\Generated_Source\PSoC5/USBFS_drv.c **** *
 194:.\Generated_Source\PSoC5/USBFS_drv.c **** * Summary:
 195:.\Generated_Source\PSoC5/USBFS_drv.c **** *  This routine handles EP0 IN transfers.
 196:.\Generated_Source\PSoC5/USBFS_drv.c **** *
 197:.\Generated_Source\PSoC5/USBFS_drv.c **** * Parameters:
 198:.\Generated_Source\PSoC5/USBFS_drv.c **** *  None.
 199:.\Generated_Source\PSoC5/USBFS_drv.c **** *
 200:.\Generated_Source\PSoC5/USBFS_drv.c **** * Return:
 201:.\Generated_Source\PSoC5/USBFS_drv.c **** *  None.
 202:.\Generated_Source\PSoC5/USBFS_drv.c **** *
 203:.\Generated_Source\PSoC5/USBFS_drv.c **** * Reentrant:
 204:.\Generated_Source\PSoC5/USBFS_drv.c **** *  No.
 205:.\Generated_Source\PSoC5/USBFS_drv.c **** *
 206:.\Generated_Source\PSoC5/USBFS_drv.c **** *******************************************************************************/
 207:.\Generated_Source\PSoC5/USBFS_drv.c **** void USBFS_HandleIN(void) 
 208:.\Generated_Source\PSoC5/USBFS_drv.c **** {
 331              		.loc 1 208 0
 332              		.cfi_startproc
 333              		@ args = 0, pretend = 0, frame = 0
 334              		@ frame_needed = 1, uses_anonymous_args = 0
 335 0000 80B5     		push	{r7, lr}
 336              	.LCFI6:
 337              		.cfi_def_cfa_offset 8
 338              		.cfi_offset 7, -8
 339              		.cfi_offset 14, -4
 340 0002 00AF     		add	r7, sp, #0
 341              	.LCFI7:
 342              		.cfi_def_cfa_register 7
 209:.\Generated_Source\PSoC5/USBFS_drv.c ****     switch (USBFS_transferState)
 343              		.loc 1 209 0
 344 0004 40F20003 		movw	r3, #:lower16:USBFS_transferState
 345 0008 C0F20003 		movt	r3, #:upper16:USBFS_transferState
 346 000c 1B78     		ldrb	r3, [r3, #0]
 347 000e DBB2     		uxtb	r3, r3
 348 0010 062B     		cmp	r3, #6
 349 0012 1AD8     		bhi	.L27
 350 0014 01A2     		adr	r2, .L25
 351 0016 52F823F0 		ldr	pc, [r2, r3, lsl #2]
 352 001a 00BF     		.align	2
 353              	.L25:
 354 001c 4B000000 		.word	.L27+1
 355 0020 4B000000 		.word	.L27+1
 356 0024 39000000 		.word	.L22+1
 357 0028 4B000000 		.word	.L27+1
 358 002c 3F000000 		.word	.L23+1
 359 0030 4B000000 		.word	.L27+1
 360 0034 45000000 		.word	.L24+1
 361              	.L22:
ARM GAS  C:\Users\Robert\AppData\Local\Temp\ccQqeyhO.s 			page 11


 210:.\Generated_Source\PSoC5/USBFS_drv.c ****     {
 211:.\Generated_Source\PSoC5/USBFS_drv.c ****         case USBFS_TRANS_STATE_IDLE:
 212:.\Generated_Source\PSoC5/USBFS_drv.c ****             break;
 213:.\Generated_Source\PSoC5/USBFS_drv.c ****         case USBFS_TRANS_STATE_CONTROL_READ:
 214:.\Generated_Source\PSoC5/USBFS_drv.c ****             USBFS_ControlReadDataStage();
 362              		.loc 1 214 0
 363 0038 FFF7FEFF 		bl	USBFS_ControlReadDataStage
 215:.\Generated_Source\PSoC5/USBFS_drv.c ****             break;
 364              		.loc 1 215 0
 365 003c 06E0     		b	.L19
 366              	.L23:
 216:.\Generated_Source\PSoC5/USBFS_drv.c ****         case USBFS_TRANS_STATE_CONTROL_WRITE:
 217:.\Generated_Source\PSoC5/USBFS_drv.c ****             USBFS_ControlWriteStatusStage();
 367              		.loc 1 217 0
 368 003e FFF7FEFF 		bl	USBFS_ControlWriteStatusStage
 218:.\Generated_Source\PSoC5/USBFS_drv.c ****             break;
 369              		.loc 1 218 0
 370 0042 03E0     		b	.L19
 371              	.L24:
 219:.\Generated_Source\PSoC5/USBFS_drv.c ****         case USBFS_TRANS_STATE_NO_DATA_CONTROL:
 220:.\Generated_Source\PSoC5/USBFS_drv.c ****             USBFS_NoDataControlStatusStage();
 372              		.loc 1 220 0
 373 0044 FFF7FEFF 		bl	USBFS_NoDataControlStatusStage
 221:.\Generated_Source\PSoC5/USBFS_drv.c ****             break;
 374              		.loc 1 221 0
 375 0048 00E0     		b	.L19
 376              	.L27:
 222:.\Generated_Source\PSoC5/USBFS_drv.c ****         default:    /* there are no more states */
 223:.\Generated_Source\PSoC5/USBFS_drv.c ****             break;
 377              		.loc 1 223 0
 378 004a 00BF     		nop
 379              	.L19:
 224:.\Generated_Source\PSoC5/USBFS_drv.c ****     }
 225:.\Generated_Source\PSoC5/USBFS_drv.c **** }
 380              		.loc 1 225 0
 381 004c 80BD     		pop	{r7, pc}
 382              		.cfi_endproc
 383              	.LFE2:
 384              		.size	USBFS_HandleIN, .-USBFS_HandleIN
 385 004e 00BF     		.section	.text.USBFS_HandleOUT,"ax",%progbits
 386              		.align	2
 387              		.global	USBFS_HandleOUT
 388              		.thumb
 389              		.thumb_func
 390              		.type	USBFS_HandleOUT, %function
 391              	USBFS_HandleOUT:
 392              	.LFB3:
 226:.\Generated_Source\PSoC5/USBFS_drv.c **** 
 227:.\Generated_Source\PSoC5/USBFS_drv.c **** 
 228:.\Generated_Source\PSoC5/USBFS_drv.c **** /*******************************************************************************
 229:.\Generated_Source\PSoC5/USBFS_drv.c **** * Function Name: USBFS_HandleOUT
 230:.\Generated_Source\PSoC5/USBFS_drv.c **** ********************************************************************************
 231:.\Generated_Source\PSoC5/USBFS_drv.c **** *
 232:.\Generated_Source\PSoC5/USBFS_drv.c **** * Summary:
 233:.\Generated_Source\PSoC5/USBFS_drv.c **** *  This routine handles EP0 OUT transfers.
 234:.\Generated_Source\PSoC5/USBFS_drv.c **** *
 235:.\Generated_Source\PSoC5/USBFS_drv.c **** * Parameters:
ARM GAS  C:\Users\Robert\AppData\Local\Temp\ccQqeyhO.s 			page 12


 236:.\Generated_Source\PSoC5/USBFS_drv.c **** *  None.
 237:.\Generated_Source\PSoC5/USBFS_drv.c **** *
 238:.\Generated_Source\PSoC5/USBFS_drv.c **** * Return:
 239:.\Generated_Source\PSoC5/USBFS_drv.c **** *  None.
 240:.\Generated_Source\PSoC5/USBFS_drv.c **** *
 241:.\Generated_Source\PSoC5/USBFS_drv.c **** * Reentrant:
 242:.\Generated_Source\PSoC5/USBFS_drv.c **** *  No.
 243:.\Generated_Source\PSoC5/USBFS_drv.c **** *
 244:.\Generated_Source\PSoC5/USBFS_drv.c **** *******************************************************************************/
 245:.\Generated_Source\PSoC5/USBFS_drv.c **** void USBFS_HandleOUT(void) 
 246:.\Generated_Source\PSoC5/USBFS_drv.c **** {
 393              		.loc 1 246 0
 394              		.cfi_startproc
 395              		@ args = 0, pretend = 0, frame = 0
 396              		@ frame_needed = 1, uses_anonymous_args = 0
 397 0000 80B5     		push	{r7, lr}
 398              	.LCFI8:
 399              		.cfi_def_cfa_offset 8
 400              		.cfi_offset 7, -8
 401              		.cfi_offset 14, -4
 402 0002 00AF     		add	r7, sp, #0
 403              	.LCFI9:
 404              		.cfi_def_cfa_register 7
 247:.\Generated_Source\PSoC5/USBFS_drv.c ****     switch (USBFS_transferState)
 405              		.loc 1 247 0
 406 0004 40F20003 		movw	r3, #:lower16:USBFS_transferState
 407 0008 C0F20003 		movt	r3, #:upper16:USBFS_transferState
 408 000c 1B78     		ldrb	r3, [r3, #0]
 409 000e DBB2     		uxtb	r3, r3
 410 0010 062B     		cmp	r3, #6
 411 0012 23D8     		bhi	.L36
 412 0014 01A2     		adr	r2, .L34
 413 0016 52F823F0 		ldr	pc, [r2, r3, lsl #2]
 414 001a 00BF     		.align	2
 415              	.L34:
 416 001c 5D000000 		.word	.L36+1
 417 0020 5D000000 		.word	.L36+1
 418 0024 39000000 		.word	.L31+1
 419 0028 5D000000 		.word	.L36+1
 420 002c 3F000000 		.word	.L32+1
 421 0030 5D000000 		.word	.L36+1
 422 0034 45000000 		.word	.L33+1
 423              	.L31:
 248:.\Generated_Source\PSoC5/USBFS_drv.c ****     {
 249:.\Generated_Source\PSoC5/USBFS_drv.c ****         case USBFS_TRANS_STATE_IDLE:
 250:.\Generated_Source\PSoC5/USBFS_drv.c ****             break;
 251:.\Generated_Source\PSoC5/USBFS_drv.c ****         case USBFS_TRANS_STATE_CONTROL_READ:
 252:.\Generated_Source\PSoC5/USBFS_drv.c ****             USBFS_ControlReadStatusStage();
 424              		.loc 1 252 0
 425 0038 FFF7FEFF 		bl	USBFS_ControlReadStatusStage
 253:.\Generated_Source\PSoC5/USBFS_drv.c ****             break;
 426              		.loc 1 253 0
 427 003c 0FE0     		b	.L28
 428              	.L32:
 254:.\Generated_Source\PSoC5/USBFS_drv.c ****         case USBFS_TRANS_STATE_CONTROL_WRITE:
 255:.\Generated_Source\PSoC5/USBFS_drv.c ****             USBFS_ControlWriteDataStage();
 429              		.loc 1 255 0
ARM GAS  C:\Users\Robert\AppData\Local\Temp\ccQqeyhO.s 			page 13


 430 003e FFF7FEFF 		bl	USBFS_ControlWriteDataStage
 256:.\Generated_Source\PSoC5/USBFS_drv.c ****             break;
 431              		.loc 1 256 0
 432 0042 0CE0     		b	.L28
 433              	.L33:
 257:.\Generated_Source\PSoC5/USBFS_drv.c ****         case USBFS_TRANS_STATE_NO_DATA_CONTROL:
 258:.\Generated_Source\PSoC5/USBFS_drv.c ****             /* Update the completion block */
 259:.\Generated_Source\PSoC5/USBFS_drv.c ****             USBFS_UpdateStatusBlock(USBFS_XFER_ERROR);
 434              		.loc 1 259 0
 435 0044 4FF00300 		mov	r0, #3
 436 0048 FFF7FEFF 		bl	USBFS_UpdateStatusBlock
 260:.\Generated_Source\PSoC5/USBFS_drv.c ****             /* We expect no more data, so stall INs and OUTs */
 261:.\Generated_Source\PSoC5/USBFS_drv.c ****             USBFS_ep0Mode = USBFS_MODE_STALL_IN_OUT;
 437              		.loc 1 261 0
 438 004c 40F20003 		movw	r3, #:lower16:USBFS_ep0Mode
 439 0050 C0F20003 		movt	r3, #:upper16:USBFS_ep0Mode
 440 0054 4FF00302 		mov	r2, #3
 441 0058 1A70     		strb	r2, [r3, #0]
 262:.\Generated_Source\PSoC5/USBFS_drv.c ****             break;
 442              		.loc 1 262 0
 443 005a 00E0     		b	.L28
 444              	.L36:
 263:.\Generated_Source\PSoC5/USBFS_drv.c ****         default:    /* There are no more states */
 264:.\Generated_Source\PSoC5/USBFS_drv.c ****             break;
 445              		.loc 1 264 0
 446 005c 00BF     		nop
 447              	.L28:
 265:.\Generated_Source\PSoC5/USBFS_drv.c ****     }
 266:.\Generated_Source\PSoC5/USBFS_drv.c **** }
 448              		.loc 1 266 0
 449 005e 80BD     		pop	{r7, pc}
 450              		.cfi_endproc
 451              	.LFE3:
 452              		.size	USBFS_HandleOUT, .-USBFS_HandleOUT
 453              		.section	.text.USBFS_LoadEP0,"ax",%progbits
 454              		.align	2
 455              		.global	USBFS_LoadEP0
 456              		.thumb
 457              		.thumb_func
 458              		.type	USBFS_LoadEP0, %function
 459              	USBFS_LoadEP0:
 460              	.LFB4:
 267:.\Generated_Source\PSoC5/USBFS_drv.c **** 
 268:.\Generated_Source\PSoC5/USBFS_drv.c **** 
 269:.\Generated_Source\PSoC5/USBFS_drv.c **** /*******************************************************************************
 270:.\Generated_Source\PSoC5/USBFS_drv.c **** * Function Name: USBFS_LoadEP0
 271:.\Generated_Source\PSoC5/USBFS_drv.c **** ********************************************************************************
 272:.\Generated_Source\PSoC5/USBFS_drv.c **** *
 273:.\Generated_Source\PSoC5/USBFS_drv.c **** * Summary:
 274:.\Generated_Source\PSoC5/USBFS_drv.c **** *  This routine loads the EP0 data registers for OUT transfers.  It uses the
 275:.\Generated_Source\PSoC5/USBFS_drv.c **** *  currentTD (previously initialized by the _InitControlWrite function and
 276:.\Generated_Source\PSoC5/USBFS_drv.c **** *  updated for each OUT transfer, and the bLastPacketSize) to determine how
 277:.\Generated_Source\PSoC5/USBFS_drv.c **** *  many uint8s to transfer on the current OUT.
 278:.\Generated_Source\PSoC5/USBFS_drv.c **** *
 279:.\Generated_Source\PSoC5/USBFS_drv.c **** *  If the number of uint8s remaining is zero and the last transfer was full,
 280:.\Generated_Source\PSoC5/USBFS_drv.c **** *  we need to send a zero length packet.  Otherwise we send the minimum
 281:.\Generated_Source\PSoC5/USBFS_drv.c **** *  of the control endpoint size (8) or remaining number of uint8s for the
ARM GAS  C:\Users\Robert\AppData\Local\Temp\ccQqeyhO.s 			page 14


 282:.\Generated_Source\PSoC5/USBFS_drv.c **** *  transaction.
 283:.\Generated_Source\PSoC5/USBFS_drv.c **** *
 284:.\Generated_Source\PSoC5/USBFS_drv.c **** * Parameters:
 285:.\Generated_Source\PSoC5/USBFS_drv.c **** *  None.
 286:.\Generated_Source\PSoC5/USBFS_drv.c **** *
 287:.\Generated_Source\PSoC5/USBFS_drv.c **** * Return:
 288:.\Generated_Source\PSoC5/USBFS_drv.c **** *  None.
 289:.\Generated_Source\PSoC5/USBFS_drv.c **** *
 290:.\Generated_Source\PSoC5/USBFS_drv.c **** * Global variables:
 291:.\Generated_Source\PSoC5/USBFS_drv.c **** *  USBFS_transferByteCount - Update the transfer byte count from the
 292:.\Generated_Source\PSoC5/USBFS_drv.c **** *     last transaction.
 293:.\Generated_Source\PSoC5/USBFS_drv.c **** *  USBFS_ep0Count - counts the data loaded to the SIE memory in
 294:.\Generated_Source\PSoC5/USBFS_drv.c **** *     current packet.
 295:.\Generated_Source\PSoC5/USBFS_drv.c **** *  USBFS_lastPacketSize - remembers the USBFS_ep0Count value for the
 296:.\Generated_Source\PSoC5/USBFS_drv.c **** *     next packet.
 297:.\Generated_Source\PSoC5/USBFS_drv.c **** *  USBFS_transferByteCount - sum of the previous bytes transferred
 298:.\Generated_Source\PSoC5/USBFS_drv.c **** *     on previous packets(sum of USBFS_lastPacketSize)
 299:.\Generated_Source\PSoC5/USBFS_drv.c **** *  USBFS_ep0Toggle - inverted
 300:.\Generated_Source\PSoC5/USBFS_drv.c **** *  USBFS_ep0Mode  - prepare for mode register content.
 301:.\Generated_Source\PSoC5/USBFS_drv.c **** *  USBFS_transferState - set to TRANS_STATE_CONTROL_READ
 302:.\Generated_Source\PSoC5/USBFS_drv.c **** *
 303:.\Generated_Source\PSoC5/USBFS_drv.c **** * Reentrant:
 304:.\Generated_Source\PSoC5/USBFS_drv.c **** *  No.
 305:.\Generated_Source\PSoC5/USBFS_drv.c **** *
 306:.\Generated_Source\PSoC5/USBFS_drv.c **** *******************************************************************************/
 307:.\Generated_Source\PSoC5/USBFS_drv.c **** void USBFS_LoadEP0(void) 
 308:.\Generated_Source\PSoC5/USBFS_drv.c **** {
 461              		.loc 1 308 0
 462              		.cfi_startproc
 463              		@ args = 0, pretend = 0, frame = 8
 464              		@ frame_needed = 1, uses_anonymous_args = 0
 465              		@ link register save eliminated.
 466 0000 80B4     		push	{r7}
 467              	.LCFI10:
 468              		.cfi_def_cfa_offset 4
 469              		.cfi_offset 7, -4
 470 0002 83B0     		sub	sp, sp, #12
 471              	.LCFI11:
 472              		.cfi_def_cfa_offset 16
 473 0004 00AF     		add	r7, sp, #0
 474              	.LCFI12:
 475              		.cfi_def_cfa_register 7
 309:.\Generated_Source\PSoC5/USBFS_drv.c ****     uint8 ep0Count = 0u;
 476              		.loc 1 309 0
 477 0006 4FF00003 		mov	r3, #0
 478 000a FB71     		strb	r3, [r7, #7]
 310:.\Generated_Source\PSoC5/USBFS_drv.c **** 
 311:.\Generated_Source\PSoC5/USBFS_drv.c ****     /* Update the transfer byte count from the last transaction */
 312:.\Generated_Source\PSoC5/USBFS_drv.c ****     USBFS_transferByteCount += USBFS_lastPacketSize;
 479              		.loc 1 312 0
 480 000c 40F20003 		movw	r3, #:lower16:USBFS_lastPacketSize
 481 0010 C0F20003 		movt	r3, #:upper16:USBFS_lastPacketSize
 482 0014 1B78     		ldrb	r3, [r3, #0]
 483 0016 DBB2     		uxtb	r3, r3
 484 0018 1A46     		mov	r2, r3
 485 001a 40F20003 		movw	r3, #:lower16:USBFS_transferByteCount
 486 001e C0F20003 		movt	r3, #:upper16:USBFS_transferByteCount
ARM GAS  C:\Users\Robert\AppData\Local\Temp\ccQqeyhO.s 			page 15


 487 0022 1B88     		ldrh	r3, [r3, #0]	@ movhi
 488 0024 9BB2     		uxth	r3, r3
 489 0026 D318     		adds	r3, r2, r3
 490 0028 9AB2     		uxth	r2, r3
 491 002a 40F20003 		movw	r3, #:lower16:USBFS_transferByteCount
 492 002e C0F20003 		movt	r3, #:upper16:USBFS_transferByteCount
 493 0032 1A80     		strh	r2, [r3, #0]	@ movhi
 313:.\Generated_Source\PSoC5/USBFS_drv.c ****     /* Now load the next transaction */
 314:.\Generated_Source\PSoC5/USBFS_drv.c ****     while ((USBFS_currentTD.count > 0u) && (ep0Count < 8u))
 494              		.loc 1 314 0
 495 0034 2BE0     		b	.L38
 496              	.L40:
 315:.\Generated_Source\PSoC5/USBFS_drv.c ****     {
 316:.\Generated_Source\PSoC5/USBFS_drv.c ****         CY_SET_REG8((reg8 *)(USBFS_EP0_DR0_IND + ep0Count), *USBFS_currentTD.pData);
 497              		.loc 1 316 0
 498 0036 FB79     		ldrb	r3, [r7, #7]	@ zero_extendqisi2
 499 0038 03F18043 		add	r3, r3, #1073741824
 500 003c 03F5C043 		add	r3, r3, #24576
 501 0040 1A46     		mov	r2, r3
 502 0042 40F20003 		movw	r3, #:lower16:USBFS_currentTD
 503 0046 C0F20003 		movt	r3, #:upper16:USBFS_currentTD
 504 004a 5B68     		ldr	r3, [r3, #4]
 505 004c 1B78     		ldrb	r3, [r3, #0]
 506 004e DBB2     		uxtb	r3, r3
 507 0050 1370     		strb	r3, [r2, #0]
 317:.\Generated_Source\PSoC5/USBFS_drv.c ****         USBFS_currentTD.pData = &USBFS_currentTD.pData[1u];
 508              		.loc 1 317 0
 509 0052 40F20003 		movw	r3, #:lower16:USBFS_currentTD
 510 0056 C0F20003 		movt	r3, #:upper16:USBFS_currentTD
 511 005a 5B68     		ldr	r3, [r3, #4]
 512 005c 03F10102 		add	r2, r3, #1
 513 0060 40F20003 		movw	r3, #:lower16:USBFS_currentTD
 514 0064 C0F20003 		movt	r3, #:upper16:USBFS_currentTD
 515 0068 5A60     		str	r2, [r3, #4]
 318:.\Generated_Source\PSoC5/USBFS_drv.c ****         ep0Count++;
 516              		.loc 1 318 0
 517 006a FB79     		ldrb	r3, [r7, #7]
 518 006c 03F10103 		add	r3, r3, #1
 519 0070 FB71     		strb	r3, [r7, #7]
 319:.\Generated_Source\PSoC5/USBFS_drv.c ****         USBFS_currentTD.count--;
 520              		.loc 1 319 0
 521 0072 40F20003 		movw	r3, #:lower16:USBFS_currentTD
 522 0076 C0F20003 		movt	r3, #:upper16:USBFS_currentTD
 523 007a 1B88     		ldrh	r3, [r3, #0]	@ movhi
 524 007c 9BB2     		uxth	r3, r3
 525 007e 03F1FF33 		add	r3, r3, #-1
 526 0082 9AB2     		uxth	r2, r3
 527 0084 40F20003 		movw	r3, #:lower16:USBFS_currentTD
 528 0088 C0F20003 		movt	r3, #:upper16:USBFS_currentTD
 529 008c 1A80     		strh	r2, [r3, #0]	@ movhi
 530              	.L38:
 314:.\Generated_Source\PSoC5/USBFS_drv.c ****     while ((USBFS_currentTD.count > 0u) && (ep0Count < 8u))
 531              		.loc 1 314 0 discriminator 1
 532 008e 40F20003 		movw	r3, #:lower16:USBFS_currentTD
 533 0092 C0F20003 		movt	r3, #:upper16:USBFS_currentTD
 534 0096 1B88     		ldrh	r3, [r3, #0]	@ movhi
 535 0098 9BB2     		uxth	r3, r3
ARM GAS  C:\Users\Robert\AppData\Local\Temp\ccQqeyhO.s 			page 16


 536 009a 002B     		cmp	r3, #0
 537 009c 02D0     		beq	.L39
 314:.\Generated_Source\PSoC5/USBFS_drv.c ****     while ((USBFS_currentTD.count > 0u) && (ep0Count < 8u))
 538              		.loc 1 314 0 is_stmt 0 discriminator 2
 539 009e FB79     		ldrb	r3, [r7, #7]	@ zero_extendqisi2
 540 00a0 072B     		cmp	r3, #7
 541 00a2 C8D9     		bls	.L40
 542              	.L39:
 320:.\Generated_Source\PSoC5/USBFS_drv.c ****     }
 321:.\Generated_Source\PSoC5/USBFS_drv.c ****     /* Support zero-length packet*/
 322:.\Generated_Source\PSoC5/USBFS_drv.c ****     if( (USBFS_lastPacketSize == 8u) || (ep0Count > 0u) )
 543              		.loc 1 322 0 is_stmt 1
 544 00a4 40F20003 		movw	r3, #:lower16:USBFS_lastPacketSize
 545 00a8 C0F20003 		movt	r3, #:upper16:USBFS_lastPacketSize
 546 00ac 1B78     		ldrb	r3, [r3, #0]
 547 00ae DBB2     		uxtb	r3, r3
 548 00b0 082B     		cmp	r3, #8
 549 00b2 02D0     		beq	.L41
 550              		.loc 1 322 0 is_stmt 0 discriminator 1
 551 00b4 FB79     		ldrb	r3, [r7, #7]	@ zero_extendqisi2
 552 00b6 002B     		cmp	r3, #0
 553 00b8 1ED0     		beq	.L42
 554              	.L41:
 323:.\Generated_Source\PSoC5/USBFS_drv.c ****     {
 324:.\Generated_Source\PSoC5/USBFS_drv.c ****         /* Update the data toggle */
 325:.\Generated_Source\PSoC5/USBFS_drv.c ****         USBFS_ep0Toggle ^= USBFS_EP0_CNT_DATA_TOGGLE;
 555              		.loc 1 325 0 is_stmt 1
 556 00ba 40F20003 		movw	r3, #:lower16:USBFS_ep0Toggle
 557 00be C0F20003 		movt	r3, #:upper16:USBFS_ep0Toggle
 558 00c2 1B78     		ldrb	r3, [r3, #0]
 559 00c4 DBB2     		uxtb	r3, r3
 560 00c6 83F07F03 		eor	r3, r3, #127
 561 00ca 6FEA0303 		mvn	r3, r3
 562 00ce DAB2     		uxtb	r2, r3
 563 00d0 40F20003 		movw	r3, #:lower16:USBFS_ep0Toggle
 564 00d4 C0F20003 		movt	r3, #:upper16:USBFS_ep0Toggle
 565 00d8 1A70     		strb	r2, [r3, #0]
 326:.\Generated_Source\PSoC5/USBFS_drv.c ****         /* Set the Mode Register  */
 327:.\Generated_Source\PSoC5/USBFS_drv.c ****         USBFS_ep0Mode = USBFS_MODE_ACK_IN_STATUS_OUT;
 566              		.loc 1 327 0
 567 00da 40F20003 		movw	r3, #:lower16:USBFS_ep0Mode
 568 00de C0F20003 		movt	r3, #:upper16:USBFS_ep0Mode
 569 00e2 4FF00F02 		mov	r2, #15
 570 00e6 1A70     		strb	r2, [r3, #0]
 328:.\Generated_Source\PSoC5/USBFS_drv.c ****         /* Update the state (or stay the same) */
 329:.\Generated_Source\PSoC5/USBFS_drv.c ****         USBFS_transferState = USBFS_TRANS_STATE_CONTROL_READ;
 571              		.loc 1 329 0
 572 00e8 40F20003 		movw	r3, #:lower16:USBFS_transferState
 573 00ec C0F20003 		movt	r3, #:upper16:USBFS_transferState
 574 00f0 4FF00202 		mov	r2, #2
 575 00f4 1A70     		strb	r2, [r3, #0]
 576 00f6 0DE0     		b	.L43
 577              	.L42:
 330:.\Generated_Source\PSoC5/USBFS_drv.c ****     }
 331:.\Generated_Source\PSoC5/USBFS_drv.c ****     else
 332:.\Generated_Source\PSoC5/USBFS_drv.c ****     {
 333:.\Generated_Source\PSoC5/USBFS_drv.c ****         /* Expect Status Stage Out */
ARM GAS  C:\Users\Robert\AppData\Local\Temp\ccQqeyhO.s 			page 17


 334:.\Generated_Source\PSoC5/USBFS_drv.c ****         USBFS_ep0Mode = USBFS_MODE_STATUS_OUT_ONLY;
 578              		.loc 1 334 0
 579 00f8 40F20003 		movw	r3, #:lower16:USBFS_ep0Mode
 580 00fc C0F20003 		movt	r3, #:upper16:USBFS_ep0Mode
 581 0100 4FF00202 		mov	r2, #2
 582 0104 1A70     		strb	r2, [r3, #0]
 335:.\Generated_Source\PSoC5/USBFS_drv.c ****         /* Update the state (or stay the same) */
 336:.\Generated_Source\PSoC5/USBFS_drv.c ****         USBFS_transferState = USBFS_TRANS_STATE_CONTROL_READ;
 583              		.loc 1 336 0
 584 0106 40F20003 		movw	r3, #:lower16:USBFS_transferState
 585 010a C0F20003 		movt	r3, #:upper16:USBFS_transferState
 586 010e 4FF00202 		mov	r2, #2
 587 0112 1A70     		strb	r2, [r3, #0]
 588              	.L43:
 337:.\Generated_Source\PSoC5/USBFS_drv.c ****     }
 338:.\Generated_Source\PSoC5/USBFS_drv.c **** 
 339:.\Generated_Source\PSoC5/USBFS_drv.c ****     /* Save the packet size for next time */
 340:.\Generated_Source\PSoC5/USBFS_drv.c ****     USBFS_lastPacketSize = ep0Count;
 589              		.loc 1 340 0
 590 0114 40F20003 		movw	r3, #:lower16:USBFS_lastPacketSize
 591 0118 C0F20003 		movt	r3, #:upper16:USBFS_lastPacketSize
 592 011c FA79     		ldrb	r2, [r7, #7]
 593 011e 1A70     		strb	r2, [r3, #0]
 341:.\Generated_Source\PSoC5/USBFS_drv.c ****     USBFS_ep0Count = ep0Count;
 594              		.loc 1 341 0
 595 0120 40F20003 		movw	r3, #:lower16:USBFS_ep0Count
 596 0124 C0F20003 		movt	r3, #:upper16:USBFS_ep0Count
 597 0128 FA79     		ldrb	r2, [r7, #7]
 598 012a 1A70     		strb	r2, [r3, #0]
 342:.\Generated_Source\PSoC5/USBFS_drv.c **** }
 599              		.loc 1 342 0
 600 012c 07F10C07 		add	r7, r7, #12
 601 0130 BD46     		mov	sp, r7
 602 0132 80BC     		pop	{r7}
 603 0134 7047     		bx	lr
 604              		.cfi_endproc
 605              	.LFE4:
 606              		.size	USBFS_LoadEP0, .-USBFS_LoadEP0
 607 0136 00BF     		.section	.text.USBFS_InitControlRead,"ax",%progbits
 608              		.align	2
 609              		.global	USBFS_InitControlRead
 610              		.thumb
 611              		.thumb_func
 612              		.type	USBFS_InitControlRead, %function
 613              	USBFS_InitControlRead:
 614              	.LFB5:
 343:.\Generated_Source\PSoC5/USBFS_drv.c **** 
 344:.\Generated_Source\PSoC5/USBFS_drv.c **** 
 345:.\Generated_Source\PSoC5/USBFS_drv.c **** /*******************************************************************************
 346:.\Generated_Source\PSoC5/USBFS_drv.c **** * Function Name: USBFS_InitControlRead
 347:.\Generated_Source\PSoC5/USBFS_drv.c **** ********************************************************************************
 348:.\Generated_Source\PSoC5/USBFS_drv.c **** *
 349:.\Generated_Source\PSoC5/USBFS_drv.c **** * Summary:
 350:.\Generated_Source\PSoC5/USBFS_drv.c **** *  Initialize a control read transaction, usable to send data to the host.
 351:.\Generated_Source\PSoC5/USBFS_drv.c **** *  The following global variables should be initialized before this function
 352:.\Generated_Source\PSoC5/USBFS_drv.c **** *  called. To send zero length packet use InitZeroLengthControlTransfer
 353:.\Generated_Source\PSoC5/USBFS_drv.c **** *  function.
ARM GAS  C:\Users\Robert\AppData\Local\Temp\ccQqeyhO.s 			page 18


 354:.\Generated_Source\PSoC5/USBFS_drv.c **** *
 355:.\Generated_Source\PSoC5/USBFS_drv.c **** * Parameters:
 356:.\Generated_Source\PSoC5/USBFS_drv.c **** *  None.
 357:.\Generated_Source\PSoC5/USBFS_drv.c **** *
 358:.\Generated_Source\PSoC5/USBFS_drv.c **** * Return:
 359:.\Generated_Source\PSoC5/USBFS_drv.c **** *  requestHandled state.
 360:.\Generated_Source\PSoC5/USBFS_drv.c **** *
 361:.\Generated_Source\PSoC5/USBFS_drv.c **** * Global variables:
 362:.\Generated_Source\PSoC5/USBFS_drv.c **** *  USBFS_currentTD.count - counts of data to be sent.
 363:.\Generated_Source\PSoC5/USBFS_drv.c **** *  USBFS_currentTD.pData - data pointer.
 364:.\Generated_Source\PSoC5/USBFS_drv.c **** *
 365:.\Generated_Source\PSoC5/USBFS_drv.c **** * Reentrant:
 366:.\Generated_Source\PSoC5/USBFS_drv.c **** *  No.
 367:.\Generated_Source\PSoC5/USBFS_drv.c **** *
 368:.\Generated_Source\PSoC5/USBFS_drv.c **** *******************************************************************************/
 369:.\Generated_Source\PSoC5/USBFS_drv.c **** uint8 USBFS_InitControlRead(void) 
 370:.\Generated_Source\PSoC5/USBFS_drv.c **** {
 615              		.loc 1 370 0
 616              		.cfi_startproc
 617              		@ args = 0, pretend = 0, frame = 8
 618              		@ frame_needed = 1, uses_anonymous_args = 0
 619 0000 80B5     		push	{r7, lr}
 620              	.LCFI13:
 621              		.cfi_def_cfa_offset 8
 622              		.cfi_offset 7, -8
 623              		.cfi_offset 14, -4
 624 0002 82B0     		sub	sp, sp, #8
 625              	.LCFI14:
 626              		.cfi_def_cfa_offset 16
 627 0004 00AF     		add	r7, sp, #0
 628              	.LCFI15:
 629              		.cfi_def_cfa_register 7
 371:.\Generated_Source\PSoC5/USBFS_drv.c ****     uint16 xferCount;
 372:.\Generated_Source\PSoC5/USBFS_drv.c ****     if(USBFS_currentTD.count == 0u)
 630              		.loc 1 372 0
 631 0006 40F20003 		movw	r3, #:lower16:USBFS_currentTD
 632 000a C0F20003 		movt	r3, #:upper16:USBFS_currentTD
 633 000e 1B88     		ldrh	r3, [r3, #0]	@ movhi
 634 0010 9BB2     		uxth	r3, r3
 635 0012 002B     		cmp	r3, #0
 636 0014 02D1     		bne	.L45
 373:.\Generated_Source\PSoC5/USBFS_drv.c ****     {
 374:.\Generated_Source\PSoC5/USBFS_drv.c ****         (void) USBFS_InitZeroLengthControlTransfer();
 637              		.loc 1 374 0
 638 0016 FFF7FEFF 		bl	USBFS_InitZeroLengthControlTransfer
 639 001a 32E0     		b	.L46
 640              	.L45:
 375:.\Generated_Source\PSoC5/USBFS_drv.c ****     }
 376:.\Generated_Source\PSoC5/USBFS_drv.c ****     else
 377:.\Generated_Source\PSoC5/USBFS_drv.c ****     {
 378:.\Generated_Source\PSoC5/USBFS_drv.c ****         /* Set up the state machine */
 379:.\Generated_Source\PSoC5/USBFS_drv.c ****         USBFS_transferState = USBFS_TRANS_STATE_CONTROL_READ;
 641              		.loc 1 379 0
 642 001c 40F20003 		movw	r3, #:lower16:USBFS_transferState
 643 0020 C0F20003 		movt	r3, #:upper16:USBFS_transferState
 644 0024 4FF00202 		mov	r2, #2
 645 0028 1A70     		strb	r2, [r3, #0]
ARM GAS  C:\Users\Robert\AppData\Local\Temp\ccQqeyhO.s 			page 19


 380:.\Generated_Source\PSoC5/USBFS_drv.c ****         /* Set the toggle, it gets updated in LoadEP */
 381:.\Generated_Source\PSoC5/USBFS_drv.c ****         USBFS_ep0Toggle = 0u;
 646              		.loc 1 381 0
 647 002a 40F20003 		movw	r3, #:lower16:USBFS_ep0Toggle
 648 002e C0F20003 		movt	r3, #:upper16:USBFS_ep0Toggle
 649 0032 4FF00002 		mov	r2, #0
 650 0036 1A70     		strb	r2, [r3, #0]
 382:.\Generated_Source\PSoC5/USBFS_drv.c ****         /* Initialize the Status Block */
 383:.\Generated_Source\PSoC5/USBFS_drv.c ****         USBFS_InitializeStatusBlock();
 651              		.loc 1 383 0
 652 0038 FFF7FEFF 		bl	USBFS_InitializeStatusBlock
 384:.\Generated_Source\PSoC5/USBFS_drv.c ****         xferCount = (((uint16)CY_GET_REG8(USBFS_lengthHi) << 8u) | (CY_GET_REG8(USBFS_lengthLo)));
 653              		.loc 1 384 0
 654 003c 46F20703 		movw	r3, #24583
 655 0040 C4F20003 		movt	r3, 16384
 656 0044 1B78     		ldrb	r3, [r3, #0]
 657 0046 DBB2     		uxtb	r3, r3
 658 0048 4FEA0323 		lsl	r3, r3, #8
 659 004c 9AB2     		uxth	r2, r3
 660 004e 46F20603 		movw	r3, #24582
 661 0052 C4F20003 		movt	r3, 16384
 662 0056 1B78     		ldrb	r3, [r3, #0]
 663 0058 DBB2     		uxtb	r3, r3
 664 005a 1343     		orrs	r3, r3, r2
 665 005c 9BB2     		uxth	r3, r3
 666 005e FB80     		strh	r3, [r7, #6]	@ movhi
 385:.\Generated_Source\PSoC5/USBFS_drv.c **** 
 386:.\Generated_Source\PSoC5/USBFS_drv.c ****         if (USBFS_currentTD.count > xferCount)
 667              		.loc 1 386 0
 668 0060 40F20003 		movw	r3, #:lower16:USBFS_currentTD
 669 0064 C0F20003 		movt	r3, #:upper16:USBFS_currentTD
 670 0068 1B88     		ldrh	r3, [r3, #0]	@ movhi
 671 006a 9BB2     		uxth	r3, r3
 672 006c FA88     		ldrh	r2, [r7, #6]
 673 006e 9A42     		cmp	r2, r3
 674 0070 05D2     		bcs	.L47
 387:.\Generated_Source\PSoC5/USBFS_drv.c ****         {
 388:.\Generated_Source\PSoC5/USBFS_drv.c ****             USBFS_currentTD.count = xferCount;
 675              		.loc 1 388 0
 676 0072 40F20003 		movw	r3, #:lower16:USBFS_currentTD
 677 0076 C0F20003 		movt	r3, #:upper16:USBFS_currentTD
 678 007a FA88     		ldrh	r2, [r7, #6]	@ movhi
 679 007c 1A80     		strh	r2, [r3, #0]	@ movhi
 680              	.L47:
 389:.\Generated_Source\PSoC5/USBFS_drv.c ****         }
 390:.\Generated_Source\PSoC5/USBFS_drv.c ****         USBFS_LoadEP0();
 681              		.loc 1 390 0
 682 007e FFF7FEFF 		bl	USBFS_LoadEP0
 683              	.L46:
 391:.\Generated_Source\PSoC5/USBFS_drv.c ****     }
 392:.\Generated_Source\PSoC5/USBFS_drv.c **** 
 393:.\Generated_Source\PSoC5/USBFS_drv.c ****     return(USBFS_TRUE);
 684              		.loc 1 393 0
 685 0082 4FF00103 		mov	r3, #1
 394:.\Generated_Source\PSoC5/USBFS_drv.c **** }
 686              		.loc 1 394 0
 687 0086 1846     		mov	r0, r3
ARM GAS  C:\Users\Robert\AppData\Local\Temp\ccQqeyhO.s 			page 20


 688 0088 07F10807 		add	r7, r7, #8
 689 008c BD46     		mov	sp, r7
 690 008e 80BD     		pop	{r7, pc}
 691              		.cfi_endproc
 692              	.LFE5:
 693              		.size	USBFS_InitControlRead, .-USBFS_InitControlRead
 694              		.section	.text.USBFS_InitZeroLengthControlTransfer,"ax",%progbits
 695              		.align	2
 696              		.global	USBFS_InitZeroLengthControlTransfer
 697              		.thumb
 698              		.thumb_func
 699              		.type	USBFS_InitZeroLengthControlTransfer, %function
 700              	USBFS_InitZeroLengthControlTransfer:
 701              	.LFB6:
 395:.\Generated_Source\PSoC5/USBFS_drv.c **** 
 396:.\Generated_Source\PSoC5/USBFS_drv.c **** 
 397:.\Generated_Source\PSoC5/USBFS_drv.c **** /*******************************************************************************
 398:.\Generated_Source\PSoC5/USBFS_drv.c **** * Function Name: USBFS_InitZeroLengthControlTransfer
 399:.\Generated_Source\PSoC5/USBFS_drv.c **** ********************************************************************************
 400:.\Generated_Source\PSoC5/USBFS_drv.c **** *
 401:.\Generated_Source\PSoC5/USBFS_drv.c **** * Summary:
 402:.\Generated_Source\PSoC5/USBFS_drv.c **** *  Initialize a zero length data IN transfer.
 403:.\Generated_Source\PSoC5/USBFS_drv.c **** *
 404:.\Generated_Source\PSoC5/USBFS_drv.c **** * Parameters:
 405:.\Generated_Source\PSoC5/USBFS_drv.c **** *  None.
 406:.\Generated_Source\PSoC5/USBFS_drv.c **** *
 407:.\Generated_Source\PSoC5/USBFS_drv.c **** * Return:
 408:.\Generated_Source\PSoC5/USBFS_drv.c **** *  requestHandled state.
 409:.\Generated_Source\PSoC5/USBFS_drv.c **** *
 410:.\Generated_Source\PSoC5/USBFS_drv.c **** * Global variables:
 411:.\Generated_Source\PSoC5/USBFS_drv.c **** *  USBFS_ep0Toggle - set to EP0_CNT_DATA_TOGGLE
 412:.\Generated_Source\PSoC5/USBFS_drv.c **** *  USBFS_ep0Mode  - prepare for mode register content.
 413:.\Generated_Source\PSoC5/USBFS_drv.c **** *  USBFS_transferState - set to TRANS_STATE_CONTROL_READ
 414:.\Generated_Source\PSoC5/USBFS_drv.c **** *  USBFS_ep0Count - cleared, means the zero-length packet.
 415:.\Generated_Source\PSoC5/USBFS_drv.c **** *  USBFS_lastPacketSize - cleared.
 416:.\Generated_Source\PSoC5/USBFS_drv.c **** *
 417:.\Generated_Source\PSoC5/USBFS_drv.c **** * Reentrant:
 418:.\Generated_Source\PSoC5/USBFS_drv.c **** *  No.
 419:.\Generated_Source\PSoC5/USBFS_drv.c **** *
 420:.\Generated_Source\PSoC5/USBFS_drv.c **** *******************************************************************************/
 421:.\Generated_Source\PSoC5/USBFS_drv.c **** uint8 USBFS_InitZeroLengthControlTransfer(void)
 422:.\Generated_Source\PSoC5/USBFS_drv.c ****                                                 
 423:.\Generated_Source\PSoC5/USBFS_drv.c **** {
 702              		.loc 1 423 0
 703              		.cfi_startproc
 704              		@ args = 0, pretend = 0, frame = 0
 705              		@ frame_needed = 1, uses_anonymous_args = 0
 706              		@ link register save eliminated.
 707 0000 80B4     		push	{r7}
 708              	.LCFI16:
 709              		.cfi_def_cfa_offset 4
 710              		.cfi_offset 7, -4
 711 0002 00AF     		add	r7, sp, #0
 712              	.LCFI17:
 713              		.cfi_def_cfa_register 7
 424:.\Generated_Source\PSoC5/USBFS_drv.c ****     /* Update the state */
 425:.\Generated_Source\PSoC5/USBFS_drv.c ****     USBFS_transferState = USBFS_TRANS_STATE_CONTROL_READ;
ARM GAS  C:\Users\Robert\AppData\Local\Temp\ccQqeyhO.s 			page 21


 714              		.loc 1 425 0
 715 0004 40F20003 		movw	r3, #:lower16:USBFS_transferState
 716 0008 C0F20003 		movt	r3, #:upper16:USBFS_transferState
 717 000c 4FF00202 		mov	r2, #2
 718 0010 1A70     		strb	r2, [r3, #0]
 426:.\Generated_Source\PSoC5/USBFS_drv.c ****     /* Set the data toggle */
 427:.\Generated_Source\PSoC5/USBFS_drv.c ****     USBFS_ep0Toggle = USBFS_EP0_CNT_DATA_TOGGLE;
 719              		.loc 1 427 0
 720 0012 40F20003 		movw	r3, #:lower16:USBFS_ep0Toggle
 721 0016 C0F20003 		movt	r3, #:upper16:USBFS_ep0Toggle
 722 001a 4FF08002 		mov	r2, #128
 723 001e 1A70     		strb	r2, [r3, #0]
 428:.\Generated_Source\PSoC5/USBFS_drv.c ****     /* Set the Mode Register  */
 429:.\Generated_Source\PSoC5/USBFS_drv.c ****     USBFS_ep0Mode = USBFS_MODE_ACK_IN_STATUS_OUT;
 724              		.loc 1 429 0
 725 0020 40F20003 		movw	r3, #:lower16:USBFS_ep0Mode
 726 0024 C0F20003 		movt	r3, #:upper16:USBFS_ep0Mode
 727 0028 4FF00F02 		mov	r2, #15
 728 002c 1A70     		strb	r2, [r3, #0]
 430:.\Generated_Source\PSoC5/USBFS_drv.c ****     /* Save the packet size for next time */
 431:.\Generated_Source\PSoC5/USBFS_drv.c ****     USBFS_lastPacketSize = 0u;
 729              		.loc 1 431 0
 730 002e 40F20003 		movw	r3, #:lower16:USBFS_lastPacketSize
 731 0032 C0F20003 		movt	r3, #:upper16:USBFS_lastPacketSize
 732 0036 4FF00002 		mov	r2, #0
 733 003a 1A70     		strb	r2, [r3, #0]
 432:.\Generated_Source\PSoC5/USBFS_drv.c ****     USBFS_ep0Count = 0u;
 734              		.loc 1 432 0
 735 003c 40F20003 		movw	r3, #:lower16:USBFS_ep0Count
 736 0040 C0F20003 		movt	r3, #:upper16:USBFS_ep0Count
 737 0044 4FF00002 		mov	r2, #0
 738 0048 1A70     		strb	r2, [r3, #0]
 433:.\Generated_Source\PSoC5/USBFS_drv.c **** 
 434:.\Generated_Source\PSoC5/USBFS_drv.c ****     return(USBFS_TRUE);
 739              		.loc 1 434 0
 740 004a 4FF00103 		mov	r3, #1
 435:.\Generated_Source\PSoC5/USBFS_drv.c **** }
 741              		.loc 1 435 0
 742 004e 1846     		mov	r0, r3
 743 0050 BD46     		mov	sp, r7
 744 0052 80BC     		pop	{r7}
 745 0054 7047     		bx	lr
 746              		.cfi_endproc
 747              	.LFE6:
 748              		.size	USBFS_InitZeroLengthControlTransfer, .-USBFS_InitZeroLengthControlTransfer
 749 0056 00BF     		.section	.text.USBFS_ControlReadDataStage,"ax",%progbits
 750              		.align	2
 751              		.global	USBFS_ControlReadDataStage
 752              		.thumb
 753              		.thumb_func
 754              		.type	USBFS_ControlReadDataStage, %function
 755              	USBFS_ControlReadDataStage:
 756              	.LFB7:
 436:.\Generated_Source\PSoC5/USBFS_drv.c **** 
 437:.\Generated_Source\PSoC5/USBFS_drv.c **** 
 438:.\Generated_Source\PSoC5/USBFS_drv.c **** /*******************************************************************************
 439:.\Generated_Source\PSoC5/USBFS_drv.c **** * Function Name: USBFS_ControlReadDataStage
ARM GAS  C:\Users\Robert\AppData\Local\Temp\ccQqeyhO.s 			page 22


 440:.\Generated_Source\PSoC5/USBFS_drv.c **** ********************************************************************************
 441:.\Generated_Source\PSoC5/USBFS_drv.c **** *
 442:.\Generated_Source\PSoC5/USBFS_drv.c **** * Summary:
 443:.\Generated_Source\PSoC5/USBFS_drv.c **** *  Handle the Data Stage of a control read transfer.
 444:.\Generated_Source\PSoC5/USBFS_drv.c **** *
 445:.\Generated_Source\PSoC5/USBFS_drv.c **** * Parameters:
 446:.\Generated_Source\PSoC5/USBFS_drv.c **** *  None.
 447:.\Generated_Source\PSoC5/USBFS_drv.c **** *
 448:.\Generated_Source\PSoC5/USBFS_drv.c **** * Return:
 449:.\Generated_Source\PSoC5/USBFS_drv.c **** *  None.
 450:.\Generated_Source\PSoC5/USBFS_drv.c **** *
 451:.\Generated_Source\PSoC5/USBFS_drv.c **** * Reentrant:
 452:.\Generated_Source\PSoC5/USBFS_drv.c **** *  No.
 453:.\Generated_Source\PSoC5/USBFS_drv.c **** *
 454:.\Generated_Source\PSoC5/USBFS_drv.c **** *******************************************************************************/
 455:.\Generated_Source\PSoC5/USBFS_drv.c **** void USBFS_ControlReadDataStage(void) 
 456:.\Generated_Source\PSoC5/USBFS_drv.c **** 
 457:.\Generated_Source\PSoC5/USBFS_drv.c **** {
 757              		.loc 1 457 0
 758              		.cfi_startproc
 759              		@ args = 0, pretend = 0, frame = 0
 760              		@ frame_needed = 1, uses_anonymous_args = 0
 761 0000 80B5     		push	{r7, lr}
 762              	.LCFI18:
 763              		.cfi_def_cfa_offset 8
 764              		.cfi_offset 7, -8
 765              		.cfi_offset 14, -4
 766 0002 00AF     		add	r7, sp, #0
 767              	.LCFI19:
 768              		.cfi_def_cfa_register 7
 458:.\Generated_Source\PSoC5/USBFS_drv.c ****     USBFS_LoadEP0();
 769              		.loc 1 458 0
 770 0004 FFF7FEFF 		bl	USBFS_LoadEP0
 459:.\Generated_Source\PSoC5/USBFS_drv.c **** }
 771              		.loc 1 459 0
 772 0008 80BD     		pop	{r7, pc}
 773              		.cfi_endproc
 774              	.LFE7:
 775              		.size	USBFS_ControlReadDataStage, .-USBFS_ControlReadDataStage
 776 000a 00BF     		.section	.text.USBFS_ControlReadStatusStage,"ax",%progbits
 777              		.align	2
 778              		.global	USBFS_ControlReadStatusStage
 779              		.thumb
 780              		.thumb_func
 781              		.type	USBFS_ControlReadStatusStage, %function
 782              	USBFS_ControlReadStatusStage:
 783              	.LFB8:
 460:.\Generated_Source\PSoC5/USBFS_drv.c **** 
 461:.\Generated_Source\PSoC5/USBFS_drv.c **** 
 462:.\Generated_Source\PSoC5/USBFS_drv.c **** /*******************************************************************************
 463:.\Generated_Source\PSoC5/USBFS_drv.c **** * Function Name: USBFS_ControlReadStatusStage
 464:.\Generated_Source\PSoC5/USBFS_drv.c **** ********************************************************************************
 465:.\Generated_Source\PSoC5/USBFS_drv.c **** *
 466:.\Generated_Source\PSoC5/USBFS_drv.c **** * Summary:
 467:.\Generated_Source\PSoC5/USBFS_drv.c **** *  Handle the Status Stage of a control read transfer.
 468:.\Generated_Source\PSoC5/USBFS_drv.c **** *
 469:.\Generated_Source\PSoC5/USBFS_drv.c **** * Parameters:
ARM GAS  C:\Users\Robert\AppData\Local\Temp\ccQqeyhO.s 			page 23


 470:.\Generated_Source\PSoC5/USBFS_drv.c **** *  None.
 471:.\Generated_Source\PSoC5/USBFS_drv.c **** *
 472:.\Generated_Source\PSoC5/USBFS_drv.c **** * Return:
 473:.\Generated_Source\PSoC5/USBFS_drv.c **** *  None.
 474:.\Generated_Source\PSoC5/USBFS_drv.c **** *
 475:.\Generated_Source\PSoC5/USBFS_drv.c **** * Global variables:
 476:.\Generated_Source\PSoC5/USBFS_drv.c **** *  USBFS_USBFS_transferByteCount - updated with last packet size.
 477:.\Generated_Source\PSoC5/USBFS_drv.c **** *  USBFS_transferState - set to TRANS_STATE_IDLE.
 478:.\Generated_Source\PSoC5/USBFS_drv.c **** *  USBFS_ep0Mode  - set to MODE_STALL_IN_OUT.
 479:.\Generated_Source\PSoC5/USBFS_drv.c **** *
 480:.\Generated_Source\PSoC5/USBFS_drv.c **** * Reentrant:
 481:.\Generated_Source\PSoC5/USBFS_drv.c **** *  No.
 482:.\Generated_Source\PSoC5/USBFS_drv.c **** *
 483:.\Generated_Source\PSoC5/USBFS_drv.c **** *******************************************************************************/
 484:.\Generated_Source\PSoC5/USBFS_drv.c **** void USBFS_ControlReadStatusStage(void) 
 485:.\Generated_Source\PSoC5/USBFS_drv.c **** {
 784              		.loc 1 485 0
 785              		.cfi_startproc
 786              		@ args = 0, pretend = 0, frame = 0
 787              		@ frame_needed = 1, uses_anonymous_args = 0
 788 0000 80B5     		push	{r7, lr}
 789              	.LCFI20:
 790              		.cfi_def_cfa_offset 8
 791              		.cfi_offset 7, -8
 792              		.cfi_offset 14, -4
 793 0002 00AF     		add	r7, sp, #0
 794              	.LCFI21:
 795              		.cfi_def_cfa_register 7
 486:.\Generated_Source\PSoC5/USBFS_drv.c ****     /* Update the transfer byte count */
 487:.\Generated_Source\PSoC5/USBFS_drv.c ****     USBFS_transferByteCount += USBFS_lastPacketSize;
 796              		.loc 1 487 0
 797 0004 40F20003 		movw	r3, #:lower16:USBFS_lastPacketSize
 798 0008 C0F20003 		movt	r3, #:upper16:USBFS_lastPacketSize
 799 000c 1B78     		ldrb	r3, [r3, #0]
 800 000e DBB2     		uxtb	r3, r3
 801 0010 1A46     		mov	r2, r3
 802 0012 40F20003 		movw	r3, #:lower16:USBFS_transferByteCount
 803 0016 C0F20003 		movt	r3, #:upper16:USBFS_transferByteCount
 804 001a 1B88     		ldrh	r3, [r3, #0]	@ movhi
 805 001c 9BB2     		uxth	r3, r3
 806 001e D318     		adds	r3, r2, r3
 807 0020 9AB2     		uxth	r2, r3
 808 0022 40F20003 		movw	r3, #:lower16:USBFS_transferByteCount
 809 0026 C0F20003 		movt	r3, #:upper16:USBFS_transferByteCount
 810 002a 1A80     		strh	r2, [r3, #0]	@ movhi
 488:.\Generated_Source\PSoC5/USBFS_drv.c ****     /* Go Idle */
 489:.\Generated_Source\PSoC5/USBFS_drv.c ****     USBFS_transferState = USBFS_TRANS_STATE_IDLE;
 811              		.loc 1 489 0
 812 002c 40F20003 		movw	r3, #:lower16:USBFS_transferState
 813 0030 C0F20003 		movt	r3, #:upper16:USBFS_transferState
 814 0034 4FF00002 		mov	r2, #0
 815 0038 1A70     		strb	r2, [r3, #0]
 490:.\Generated_Source\PSoC5/USBFS_drv.c ****     /* Update the completion block */
 491:.\Generated_Source\PSoC5/USBFS_drv.c ****     USBFS_UpdateStatusBlock(USBFS_XFER_STATUS_ACK);
 816              		.loc 1 491 0
 817 003a 4FF00100 		mov	r0, #1
 818 003e FFF7FEFF 		bl	USBFS_UpdateStatusBlock
ARM GAS  C:\Users\Robert\AppData\Local\Temp\ccQqeyhO.s 			page 24


 492:.\Generated_Source\PSoC5/USBFS_drv.c ****     /* We expect no more data, so stall INs and OUTs */
 493:.\Generated_Source\PSoC5/USBFS_drv.c ****     USBFS_ep0Mode =  USBFS_MODE_STALL_IN_OUT;
 819              		.loc 1 493 0
 820 0042 40F20003 		movw	r3, #:lower16:USBFS_ep0Mode
 821 0046 C0F20003 		movt	r3, #:upper16:USBFS_ep0Mode
 822 004a 4FF00302 		mov	r2, #3
 823 004e 1A70     		strb	r2, [r3, #0]
 494:.\Generated_Source\PSoC5/USBFS_drv.c **** }
 824              		.loc 1 494 0
 825 0050 80BD     		pop	{r7, pc}
 826              		.cfi_endproc
 827              	.LFE8:
 828              		.size	USBFS_ControlReadStatusStage, .-USBFS_ControlReadStatusStage
 829 0052 00BF     		.section	.text.USBFS_InitControlWrite,"ax",%progbits
 830              		.align	2
 831              		.global	USBFS_InitControlWrite
 832              		.thumb
 833              		.thumb_func
 834              		.type	USBFS_InitControlWrite, %function
 835              	USBFS_InitControlWrite:
 836              	.LFB9:
 495:.\Generated_Source\PSoC5/USBFS_drv.c **** 
 496:.\Generated_Source\PSoC5/USBFS_drv.c **** 
 497:.\Generated_Source\PSoC5/USBFS_drv.c **** /*******************************************************************************
 498:.\Generated_Source\PSoC5/USBFS_drv.c **** * Function Name: USBFS_InitControlWrite
 499:.\Generated_Source\PSoC5/USBFS_drv.c **** ********************************************************************************
 500:.\Generated_Source\PSoC5/USBFS_drv.c **** *
 501:.\Generated_Source\PSoC5/USBFS_drv.c **** * Summary:
 502:.\Generated_Source\PSoC5/USBFS_drv.c **** *  Initialize a control write transaction
 503:.\Generated_Source\PSoC5/USBFS_drv.c **** *
 504:.\Generated_Source\PSoC5/USBFS_drv.c **** * Parameters:
 505:.\Generated_Source\PSoC5/USBFS_drv.c **** *  None.
 506:.\Generated_Source\PSoC5/USBFS_drv.c **** *
 507:.\Generated_Source\PSoC5/USBFS_drv.c **** * Return:
 508:.\Generated_Source\PSoC5/USBFS_drv.c **** *  requestHandled state.
 509:.\Generated_Source\PSoC5/USBFS_drv.c **** *
 510:.\Generated_Source\PSoC5/USBFS_drv.c **** * Global variables:
 511:.\Generated_Source\PSoC5/USBFS_drv.c **** *  USBFS_USBFS_transferState - set to TRANS_STATE_CONTROL_WRITE
 512:.\Generated_Source\PSoC5/USBFS_drv.c **** *  USBFS_ep0Toggle - set to EP0_CNT_DATA_TOGGLE
 513:.\Generated_Source\PSoC5/USBFS_drv.c **** *  USBFS_ep0Mode  - set to MODE_ACK_OUT_STATUS_IN
 514:.\Generated_Source\PSoC5/USBFS_drv.c **** *
 515:.\Generated_Source\PSoC5/USBFS_drv.c **** * Reentrant:
 516:.\Generated_Source\PSoC5/USBFS_drv.c **** *  No.
 517:.\Generated_Source\PSoC5/USBFS_drv.c **** *
 518:.\Generated_Source\PSoC5/USBFS_drv.c **** *******************************************************************************/
 519:.\Generated_Source\PSoC5/USBFS_drv.c **** uint8 USBFS_InitControlWrite(void) 
 520:.\Generated_Source\PSoC5/USBFS_drv.c **** {
 837              		.loc 1 520 0
 838              		.cfi_startproc
 839              		@ args = 0, pretend = 0, frame = 8
 840              		@ frame_needed = 1, uses_anonymous_args = 0
 841 0000 80B5     		push	{r7, lr}
 842              	.LCFI22:
 843              		.cfi_def_cfa_offset 8
 844              		.cfi_offset 7, -8
 845              		.cfi_offset 14, -4
 846 0002 82B0     		sub	sp, sp, #8
ARM GAS  C:\Users\Robert\AppData\Local\Temp\ccQqeyhO.s 			page 25


 847              	.LCFI23:
 848              		.cfi_def_cfa_offset 16
 849 0004 00AF     		add	r7, sp, #0
 850              	.LCFI24:
 851              		.cfi_def_cfa_register 7
 521:.\Generated_Source\PSoC5/USBFS_drv.c ****     uint16 xferCount;
 522:.\Generated_Source\PSoC5/USBFS_drv.c **** 
 523:.\Generated_Source\PSoC5/USBFS_drv.c ****     /* Set up the state machine */
 524:.\Generated_Source\PSoC5/USBFS_drv.c ****     USBFS_transferState = USBFS_TRANS_STATE_CONTROL_WRITE;
 852              		.loc 1 524 0
 853 0006 40F20003 		movw	r3, #:lower16:USBFS_transferState
 854 000a C0F20003 		movt	r3, #:upper16:USBFS_transferState
 855 000e 4FF00402 		mov	r2, #4
 856 0012 1A70     		strb	r2, [r3, #0]
 525:.\Generated_Source\PSoC5/USBFS_drv.c ****     /* This might not be necessary */
 526:.\Generated_Source\PSoC5/USBFS_drv.c ****     USBFS_ep0Toggle = USBFS_EP0_CNT_DATA_TOGGLE;
 857              		.loc 1 526 0
 858 0014 40F20003 		movw	r3, #:lower16:USBFS_ep0Toggle
 859 0018 C0F20003 		movt	r3, #:upper16:USBFS_ep0Toggle
 860 001c 4FF08002 		mov	r2, #128
 861 0020 1A70     		strb	r2, [r3, #0]
 527:.\Generated_Source\PSoC5/USBFS_drv.c ****     /* Initialize the Status Block */
 528:.\Generated_Source\PSoC5/USBFS_drv.c ****     USBFS_InitializeStatusBlock();
 862              		.loc 1 528 0
 863 0022 FFF7FEFF 		bl	USBFS_InitializeStatusBlock
 529:.\Generated_Source\PSoC5/USBFS_drv.c **** 
 530:.\Generated_Source\PSoC5/USBFS_drv.c ****     xferCount = (((uint16)CY_GET_REG8(USBFS_lengthHi) << 8u) | (CY_GET_REG8(USBFS_lengthLo)));
 864              		.loc 1 530 0
 865 0026 46F20703 		movw	r3, #24583
 866 002a C4F20003 		movt	r3, 16384
 867 002e 1B78     		ldrb	r3, [r3, #0]
 868 0030 DBB2     		uxtb	r3, r3
 869 0032 4FEA0323 		lsl	r3, r3, #8
 870 0036 9AB2     		uxth	r2, r3
 871 0038 46F20603 		movw	r3, #24582
 872 003c C4F20003 		movt	r3, 16384
 873 0040 1B78     		ldrb	r3, [r3, #0]
 874 0042 DBB2     		uxtb	r3, r3
 875 0044 1343     		orrs	r3, r3, r2
 876 0046 9BB2     		uxth	r3, r3
 877 0048 FB80     		strh	r3, [r7, #6]	@ movhi
 531:.\Generated_Source\PSoC5/USBFS_drv.c **** 
 532:.\Generated_Source\PSoC5/USBFS_drv.c ****     if (USBFS_currentTD.count > xferCount)
 878              		.loc 1 532 0
 879 004a 40F20003 		movw	r3, #:lower16:USBFS_currentTD
 880 004e C0F20003 		movt	r3, #:upper16:USBFS_currentTD
 881 0052 1B88     		ldrh	r3, [r3, #0]	@ movhi
 882 0054 9BB2     		uxth	r3, r3
 883 0056 FA88     		ldrh	r2, [r7, #6]
 884 0058 9A42     		cmp	r2, r3
 885 005a 05D2     		bcs	.L54
 533:.\Generated_Source\PSoC5/USBFS_drv.c ****     {
 534:.\Generated_Source\PSoC5/USBFS_drv.c ****         USBFS_currentTD.count = xferCount;
 886              		.loc 1 534 0
 887 005c 40F20003 		movw	r3, #:lower16:USBFS_currentTD
 888 0060 C0F20003 		movt	r3, #:upper16:USBFS_currentTD
 889 0064 FA88     		ldrh	r2, [r7, #6]	@ movhi
ARM GAS  C:\Users\Robert\AppData\Local\Temp\ccQqeyhO.s 			page 26


 890 0066 1A80     		strh	r2, [r3, #0]	@ movhi
 891              	.L54:
 535:.\Generated_Source\PSoC5/USBFS_drv.c ****     }
 536:.\Generated_Source\PSoC5/USBFS_drv.c **** 
 537:.\Generated_Source\PSoC5/USBFS_drv.c ****     /* Expect Data or Status Stage */
 538:.\Generated_Source\PSoC5/USBFS_drv.c ****     USBFS_ep0Mode = USBFS_MODE_ACK_OUT_STATUS_IN;
 892              		.loc 1 538 0
 893 0068 40F20003 		movw	r3, #:lower16:USBFS_ep0Mode
 894 006c C0F20003 		movt	r3, #:upper16:USBFS_ep0Mode
 895 0070 4FF00B02 		mov	r2, #11
 896 0074 1A70     		strb	r2, [r3, #0]
 539:.\Generated_Source\PSoC5/USBFS_drv.c **** 
 540:.\Generated_Source\PSoC5/USBFS_drv.c ****     return(USBFS_TRUE);
 897              		.loc 1 540 0
 898 0076 4FF00103 		mov	r3, #1
 541:.\Generated_Source\PSoC5/USBFS_drv.c **** }
 899              		.loc 1 541 0
 900 007a 1846     		mov	r0, r3
 901 007c 07F10807 		add	r7, r7, #8
 902 0080 BD46     		mov	sp, r7
 903 0082 80BD     		pop	{r7, pc}
 904              		.cfi_endproc
 905              	.LFE9:
 906              		.size	USBFS_InitControlWrite, .-USBFS_InitControlWrite
 907              		.section	.text.USBFS_ControlWriteDataStage,"ax",%progbits
 908              		.align	2
 909              		.global	USBFS_ControlWriteDataStage
 910              		.thumb
 911              		.thumb_func
 912              		.type	USBFS_ControlWriteDataStage, %function
 913              	USBFS_ControlWriteDataStage:
 914              	.LFB10:
 542:.\Generated_Source\PSoC5/USBFS_drv.c **** 
 543:.\Generated_Source\PSoC5/USBFS_drv.c **** 
 544:.\Generated_Source\PSoC5/USBFS_drv.c **** /*******************************************************************************
 545:.\Generated_Source\PSoC5/USBFS_drv.c **** * Function Name: USBFS_ControlWriteDataStage
 546:.\Generated_Source\PSoC5/USBFS_drv.c **** ********************************************************************************
 547:.\Generated_Source\PSoC5/USBFS_drv.c **** *
 548:.\Generated_Source\PSoC5/USBFS_drv.c **** * Summary:
 549:.\Generated_Source\PSoC5/USBFS_drv.c **** *  Handle the Data Stage of a control write transfer
 550:.\Generated_Source\PSoC5/USBFS_drv.c **** *       1. Get the data (We assume the destination was validated previously)
 551:.\Generated_Source\PSoC5/USBFS_drv.c **** *       2. Update the count and data toggle
 552:.\Generated_Source\PSoC5/USBFS_drv.c **** *       3. Update the mode register for the next transaction
 553:.\Generated_Source\PSoC5/USBFS_drv.c **** *
 554:.\Generated_Source\PSoC5/USBFS_drv.c **** * Parameters:
 555:.\Generated_Source\PSoC5/USBFS_drv.c **** *  None.
 556:.\Generated_Source\PSoC5/USBFS_drv.c **** *
 557:.\Generated_Source\PSoC5/USBFS_drv.c **** * Return:
 558:.\Generated_Source\PSoC5/USBFS_drv.c **** *  None.
 559:.\Generated_Source\PSoC5/USBFS_drv.c **** *
 560:.\Generated_Source\PSoC5/USBFS_drv.c **** * Global variables:
 561:.\Generated_Source\PSoC5/USBFS_drv.c **** *  USBFS_transferByteCount - Update the transfer byte count from the
 562:.\Generated_Source\PSoC5/USBFS_drv.c **** *    last transaction.
 563:.\Generated_Source\PSoC5/USBFS_drv.c **** *  USBFS_ep0Count - counts the data loaded from the SIE memory
 564:.\Generated_Source\PSoC5/USBFS_drv.c **** *    in current packet.
 565:.\Generated_Source\PSoC5/USBFS_drv.c **** *  USBFS_transferByteCount - sum of the previous bytes transferred
 566:.\Generated_Source\PSoC5/USBFS_drv.c **** *    on previous packets(sum of USBFS_lastPacketSize)
ARM GAS  C:\Users\Robert\AppData\Local\Temp\ccQqeyhO.s 			page 27


 567:.\Generated_Source\PSoC5/USBFS_drv.c **** *  USBFS_ep0Toggle - inverted
 568:.\Generated_Source\PSoC5/USBFS_drv.c **** *  USBFS_ep0Mode  - set to MODE_ACK_OUT_STATUS_IN.
 569:.\Generated_Source\PSoC5/USBFS_drv.c **** *
 570:.\Generated_Source\PSoC5/USBFS_drv.c **** * Reentrant:
 571:.\Generated_Source\PSoC5/USBFS_drv.c **** *  No.
 572:.\Generated_Source\PSoC5/USBFS_drv.c **** *
 573:.\Generated_Source\PSoC5/USBFS_drv.c **** *******************************************************************************/
 574:.\Generated_Source\PSoC5/USBFS_drv.c **** void USBFS_ControlWriteDataStage(void) 
 575:.\Generated_Source\PSoC5/USBFS_drv.c **** {
 915              		.loc 1 575 0
 916              		.cfi_startproc
 917              		@ args = 0, pretend = 0, frame = 8
 918              		@ frame_needed = 1, uses_anonymous_args = 0
 919              		@ link register save eliminated.
 920 0000 80B4     		push	{r7}
 921              	.LCFI25:
 922              		.cfi_def_cfa_offset 4
 923              		.cfi_offset 7, -4
 924 0002 83B0     		sub	sp, sp, #12
 925              	.LCFI26:
 926              		.cfi_def_cfa_offset 16
 927 0004 00AF     		add	r7, sp, #0
 928              	.LCFI27:
 929              		.cfi_def_cfa_register 7
 576:.\Generated_Source\PSoC5/USBFS_drv.c ****     uint8 ep0Count;
 577:.\Generated_Source\PSoC5/USBFS_drv.c ****     uint8 regIndex = 0u;
 930              		.loc 1 577 0
 931 0006 4FF00003 		mov	r3, #0
 932 000a BB71     		strb	r3, [r7, #6]
 578:.\Generated_Source\PSoC5/USBFS_drv.c **** 
 579:.\Generated_Source\PSoC5/USBFS_drv.c ****     ep0Count = (CY_GET_REG8(USBFS_EP0_CNT_PTR) & USBFS_EPX_CNT0_MASK) -
 933              		.loc 1 579 0
 934 000c 46F22903 		movw	r3, #24617
 935 0010 C4F20003 		movt	r3, 16384
 936 0014 1B78     		ldrb	r3, [r3, #0]
 937 0016 DBB2     		uxtb	r3, r3
 938 0018 03F00F03 		and	r3, r3, #15
 939 001c DBB2     		uxtb	r3, r3
 940 001e A3F10203 		sub	r3, r3, #2
 941 0022 FB71     		strb	r3, [r7, #7]
 580:.\Generated_Source\PSoC5/USBFS_drv.c ****                USBFS_EPX_CNTX_CRC_COUNT;
 581:.\Generated_Source\PSoC5/USBFS_drv.c **** 
 582:.\Generated_Source\PSoC5/USBFS_drv.c ****     USBFS_transferByteCount += ep0Count;
 942              		.loc 1 582 0
 943 0024 FB79     		ldrb	r3, [r7, #7]	@ zero_extendqisi2
 944 0026 9AB2     		uxth	r2, r3
 945 0028 40F20003 		movw	r3, #:lower16:USBFS_transferByteCount
 946 002c C0F20003 		movt	r3, #:upper16:USBFS_transferByteCount
 947 0030 1B88     		ldrh	r3, [r3, #0]	@ movhi
 948 0032 9BB2     		uxth	r3, r3
 949 0034 D318     		adds	r3, r2, r3
 950 0036 9AB2     		uxth	r2, r3
 951 0038 40F20003 		movw	r3, #:lower16:USBFS_transferByteCount
 952 003c C0F20003 		movt	r3, #:upper16:USBFS_transferByteCount
 953 0040 1A80     		strh	r2, [r3, #0]	@ movhi
 583:.\Generated_Source\PSoC5/USBFS_drv.c **** 
 584:.\Generated_Source\PSoC5/USBFS_drv.c ****     while ((USBFS_currentTD.count > 0u) && (ep0Count > 0u))
ARM GAS  C:\Users\Robert\AppData\Local\Temp\ccQqeyhO.s 			page 28


 954              		.loc 1 584 0
 955 0042 2EE0     		b	.L57
 956              	.L59:
 585:.\Generated_Source\PSoC5/USBFS_drv.c ****     {
 586:.\Generated_Source\PSoC5/USBFS_drv.c ****         *USBFS_currentTD.pData = CY_GET_REG8((reg8 *)(USBFS_EP0_DR0_IND + regIndex));
 957              		.loc 1 586 0
 958 0044 40F20003 		movw	r3, #:lower16:USBFS_currentTD
 959 0048 C0F20003 		movt	r3, #:upper16:USBFS_currentTD
 960 004c 5A68     		ldr	r2, [r3, #4]
 961 004e BB79     		ldrb	r3, [r7, #6]	@ zero_extendqisi2
 962 0050 03F18043 		add	r3, r3, #1073741824
 963 0054 03F5C043 		add	r3, r3, #24576
 964 0058 1B78     		ldrb	r3, [r3, #0]
 965 005a DBB2     		uxtb	r3, r3
 966 005c 1370     		strb	r3, [r2, #0]
 587:.\Generated_Source\PSoC5/USBFS_drv.c ****         USBFS_currentTD.pData = &USBFS_currentTD.pData[1u];
 967              		.loc 1 587 0
 968 005e 40F20003 		movw	r3, #:lower16:USBFS_currentTD
 969 0062 C0F20003 		movt	r3, #:upper16:USBFS_currentTD
 970 0066 5B68     		ldr	r3, [r3, #4]
 971 0068 03F10102 		add	r2, r3, #1
 972 006c 40F20003 		movw	r3, #:lower16:USBFS_currentTD
 973 0070 C0F20003 		movt	r3, #:upper16:USBFS_currentTD
 974 0074 5A60     		str	r2, [r3, #4]
 588:.\Generated_Source\PSoC5/USBFS_drv.c ****         regIndex++;
 975              		.loc 1 588 0
 976 0076 BB79     		ldrb	r3, [r7, #6]
 977 0078 03F10103 		add	r3, r3, #1
 978 007c BB71     		strb	r3, [r7, #6]
 589:.\Generated_Source\PSoC5/USBFS_drv.c ****         ep0Count--;
 979              		.loc 1 589 0
 980 007e FB79     		ldrb	r3, [r7, #7]
 981 0080 03F1FF33 		add	r3, r3, #-1
 982 0084 FB71     		strb	r3, [r7, #7]
 590:.\Generated_Source\PSoC5/USBFS_drv.c ****         USBFS_currentTD.count--;
 983              		.loc 1 590 0
 984 0086 40F20003 		movw	r3, #:lower16:USBFS_currentTD
 985 008a C0F20003 		movt	r3, #:upper16:USBFS_currentTD
 986 008e 1B88     		ldrh	r3, [r3, #0]	@ movhi
 987 0090 9BB2     		uxth	r3, r3
 988 0092 03F1FF33 		add	r3, r3, #-1
 989 0096 9AB2     		uxth	r2, r3
 990 0098 40F20003 		movw	r3, #:lower16:USBFS_currentTD
 991 009c C0F20003 		movt	r3, #:upper16:USBFS_currentTD
 992 00a0 1A80     		strh	r2, [r3, #0]	@ movhi
 993              	.L57:
 584:.\Generated_Source\PSoC5/USBFS_drv.c ****     while ((USBFS_currentTD.count > 0u) && (ep0Count > 0u))
 994              		.loc 1 584 0 discriminator 1
 995 00a2 40F20003 		movw	r3, #:lower16:USBFS_currentTD
 996 00a6 C0F20003 		movt	r3, #:upper16:USBFS_currentTD
 997 00aa 1B88     		ldrh	r3, [r3, #0]	@ movhi
 998 00ac 9BB2     		uxth	r3, r3
 999 00ae 002B     		cmp	r3, #0
 1000 00b0 02D0     		beq	.L58
 584:.\Generated_Source\PSoC5/USBFS_drv.c ****     while ((USBFS_currentTD.count > 0u) && (ep0Count > 0u))
 1001              		.loc 1 584 0 is_stmt 0 discriminator 2
 1002 00b2 FB79     		ldrb	r3, [r7, #7]	@ zero_extendqisi2
ARM GAS  C:\Users\Robert\AppData\Local\Temp\ccQqeyhO.s 			page 29


 1003 00b4 002B     		cmp	r3, #0
 1004 00b6 C5D1     		bne	.L59
 1005              	.L58:
 591:.\Generated_Source\PSoC5/USBFS_drv.c ****     }
 592:.\Generated_Source\PSoC5/USBFS_drv.c ****     USBFS_ep0Count = ep0Count;
 1006              		.loc 1 592 0 is_stmt 1
 1007 00b8 40F20003 		movw	r3, #:lower16:USBFS_ep0Count
 1008 00bc C0F20003 		movt	r3, #:upper16:USBFS_ep0Count
 1009 00c0 FA79     		ldrb	r2, [r7, #7]
 1010 00c2 1A70     		strb	r2, [r3, #0]
 593:.\Generated_Source\PSoC5/USBFS_drv.c ****     /* Update the data toggle */
 594:.\Generated_Source\PSoC5/USBFS_drv.c ****     USBFS_ep0Toggle ^= USBFS_EP0_CNT_DATA_TOGGLE;
 1011              		.loc 1 594 0
 1012 00c4 40F20003 		movw	r3, #:lower16:USBFS_ep0Toggle
 1013 00c8 C0F20003 		movt	r3, #:upper16:USBFS_ep0Toggle
 1014 00cc 1B78     		ldrb	r3, [r3, #0]
 1015 00ce DBB2     		uxtb	r3, r3
 1016 00d0 83F07F03 		eor	r3, r3, #127
 1017 00d4 6FEA0303 		mvn	r3, r3
 1018 00d8 DAB2     		uxtb	r2, r3
 1019 00da 40F20003 		movw	r3, #:lower16:USBFS_ep0Toggle
 1020 00de C0F20003 		movt	r3, #:upper16:USBFS_ep0Toggle
 1021 00e2 1A70     		strb	r2, [r3, #0]
 595:.\Generated_Source\PSoC5/USBFS_drv.c ****     /* Expect Data or Status Stage */
 596:.\Generated_Source\PSoC5/USBFS_drv.c ****     USBFS_ep0Mode = USBFS_MODE_ACK_OUT_STATUS_IN;
 1022              		.loc 1 596 0
 1023 00e4 40F20003 		movw	r3, #:lower16:USBFS_ep0Mode
 1024 00e8 C0F20003 		movt	r3, #:upper16:USBFS_ep0Mode
 1025 00ec 4FF00B02 		mov	r2, #11
 1026 00f0 1A70     		strb	r2, [r3, #0]
 597:.\Generated_Source\PSoC5/USBFS_drv.c **** }
 1027              		.loc 1 597 0
 1028 00f2 07F10C07 		add	r7, r7, #12
 1029 00f6 BD46     		mov	sp, r7
 1030 00f8 80BC     		pop	{r7}
 1031 00fa 7047     		bx	lr
 1032              		.cfi_endproc
 1033              	.LFE10:
 1034              		.size	USBFS_ControlWriteDataStage, .-USBFS_ControlWriteDataStage
 1035              		.section	.text.USBFS_ControlWriteStatusStage,"ax",%progbits
 1036              		.align	2
 1037              		.global	USBFS_ControlWriteStatusStage
 1038              		.thumb
 1039              		.thumb_func
 1040              		.type	USBFS_ControlWriteStatusStage, %function
 1041              	USBFS_ControlWriteStatusStage:
 1042              	.LFB11:
 598:.\Generated_Source\PSoC5/USBFS_drv.c **** 
 599:.\Generated_Source\PSoC5/USBFS_drv.c **** 
 600:.\Generated_Source\PSoC5/USBFS_drv.c **** /*******************************************************************************
 601:.\Generated_Source\PSoC5/USBFS_drv.c **** * Function Name: USBFS_ControlWriteStatusStage
 602:.\Generated_Source\PSoC5/USBFS_drv.c **** ********************************************************************************
 603:.\Generated_Source\PSoC5/USBFS_drv.c **** *
 604:.\Generated_Source\PSoC5/USBFS_drv.c **** * Summary:
 605:.\Generated_Source\PSoC5/USBFS_drv.c **** *  Handle the Status Stage of a control write transfer
 606:.\Generated_Source\PSoC5/USBFS_drv.c **** *
 607:.\Generated_Source\PSoC5/USBFS_drv.c **** * Parameters:
ARM GAS  C:\Users\Robert\AppData\Local\Temp\ccQqeyhO.s 			page 30


 608:.\Generated_Source\PSoC5/USBFS_drv.c **** *  None.
 609:.\Generated_Source\PSoC5/USBFS_drv.c **** *
 610:.\Generated_Source\PSoC5/USBFS_drv.c **** * Return:
 611:.\Generated_Source\PSoC5/USBFS_drv.c **** *  None.
 612:.\Generated_Source\PSoC5/USBFS_drv.c **** *
 613:.\Generated_Source\PSoC5/USBFS_drv.c **** * Global variables:
 614:.\Generated_Source\PSoC5/USBFS_drv.c **** *  USBFS_transferState - set to TRANS_STATE_IDLE.
 615:.\Generated_Source\PSoC5/USBFS_drv.c **** *  USBFS_USBFS_ep0Mode  - set to MODE_STALL_IN_OUT.
 616:.\Generated_Source\PSoC5/USBFS_drv.c **** *
 617:.\Generated_Source\PSoC5/USBFS_drv.c **** * Reentrant:
 618:.\Generated_Source\PSoC5/USBFS_drv.c **** *  No.
 619:.\Generated_Source\PSoC5/USBFS_drv.c **** *
 620:.\Generated_Source\PSoC5/USBFS_drv.c **** *******************************************************************************/
 621:.\Generated_Source\PSoC5/USBFS_drv.c **** void USBFS_ControlWriteStatusStage(void) 
 622:.\Generated_Source\PSoC5/USBFS_drv.c **** {
 1043              		.loc 1 622 0
 1044              		.cfi_startproc
 1045              		@ args = 0, pretend = 0, frame = 0
 1046              		@ frame_needed = 1, uses_anonymous_args = 0
 1047 0000 80B5     		push	{r7, lr}
 1048              	.LCFI28:
 1049              		.cfi_def_cfa_offset 8
 1050              		.cfi_offset 7, -8
 1051              		.cfi_offset 14, -4
 1052 0002 00AF     		add	r7, sp, #0
 1053              	.LCFI29:
 1054              		.cfi_def_cfa_register 7
 623:.\Generated_Source\PSoC5/USBFS_drv.c ****     /* Go Idle */
 624:.\Generated_Source\PSoC5/USBFS_drv.c ****     USBFS_transferState = USBFS_TRANS_STATE_IDLE;
 1055              		.loc 1 624 0
 1056 0004 40F20003 		movw	r3, #:lower16:USBFS_transferState
 1057 0008 C0F20003 		movt	r3, #:upper16:USBFS_transferState
 1058 000c 4FF00002 		mov	r2, #0
 1059 0010 1A70     		strb	r2, [r3, #0]
 625:.\Generated_Source\PSoC5/USBFS_drv.c ****     /* Update the completion block */
 626:.\Generated_Source\PSoC5/USBFS_drv.c ****     USBFS_UpdateStatusBlock(USBFS_XFER_STATUS_ACK);
 1060              		.loc 1 626 0
 1061 0012 4FF00100 		mov	r0, #1
 1062 0016 FFF7FEFF 		bl	USBFS_UpdateStatusBlock
 627:.\Generated_Source\PSoC5/USBFS_drv.c ****     /* We expect no more data, so stall INs and OUTs */
 628:.\Generated_Source\PSoC5/USBFS_drv.c ****     USBFS_ep0Mode = USBFS_MODE_STALL_IN_OUT;
 1063              		.loc 1 628 0
 1064 001a 40F20003 		movw	r3, #:lower16:USBFS_ep0Mode
 1065 001e C0F20003 		movt	r3, #:upper16:USBFS_ep0Mode
 1066 0022 4FF00302 		mov	r2, #3
 1067 0026 1A70     		strb	r2, [r3, #0]
 629:.\Generated_Source\PSoC5/USBFS_drv.c **** }
 1068              		.loc 1 629 0
 1069 0028 80BD     		pop	{r7, pc}
 1070              		.cfi_endproc
 1071              	.LFE11:
 1072              		.size	USBFS_ControlWriteStatusStage, .-USBFS_ControlWriteStatusStage
 1073 002a 00BF     		.section	.text.USBFS_InitNoDataControlTransfer,"ax",%progbits
 1074              		.align	2
 1075              		.global	USBFS_InitNoDataControlTransfer
 1076              		.thumb
 1077              		.thumb_func
ARM GAS  C:\Users\Robert\AppData\Local\Temp\ccQqeyhO.s 			page 31


 1078              		.type	USBFS_InitNoDataControlTransfer, %function
 1079              	USBFS_InitNoDataControlTransfer:
 1080              	.LFB12:
 630:.\Generated_Source\PSoC5/USBFS_drv.c **** 
 631:.\Generated_Source\PSoC5/USBFS_drv.c **** 
 632:.\Generated_Source\PSoC5/USBFS_drv.c **** /*******************************************************************************
 633:.\Generated_Source\PSoC5/USBFS_drv.c **** * Function Name: USBFS_InitNoDataControlTransfer
 634:.\Generated_Source\PSoC5/USBFS_drv.c **** ********************************************************************************
 635:.\Generated_Source\PSoC5/USBFS_drv.c **** *
 636:.\Generated_Source\PSoC5/USBFS_drv.c **** * Summary:
 637:.\Generated_Source\PSoC5/USBFS_drv.c **** *  Initialize a no data control transfer
 638:.\Generated_Source\PSoC5/USBFS_drv.c **** *
 639:.\Generated_Source\PSoC5/USBFS_drv.c **** * Parameters:
 640:.\Generated_Source\PSoC5/USBFS_drv.c **** *  None.
 641:.\Generated_Source\PSoC5/USBFS_drv.c **** *
 642:.\Generated_Source\PSoC5/USBFS_drv.c **** * Return:
 643:.\Generated_Source\PSoC5/USBFS_drv.c **** *  requestHandled state.
 644:.\Generated_Source\PSoC5/USBFS_drv.c **** *
 645:.\Generated_Source\PSoC5/USBFS_drv.c **** * Global variables:
 646:.\Generated_Source\PSoC5/USBFS_drv.c **** *  USBFS_transferState - set to TRANS_STATE_NO_DATA_CONTROL.
 647:.\Generated_Source\PSoC5/USBFS_drv.c **** *  USBFS_ep0Mode  - set to MODE_STATUS_IN_ONLY.
 648:.\Generated_Source\PSoC5/USBFS_drv.c **** *  USBFS_ep0Count - cleared.
 649:.\Generated_Source\PSoC5/USBFS_drv.c **** *  USBFS_ep0Toggle - set to EP0_CNT_DATA_TOGGLE
 650:.\Generated_Source\PSoC5/USBFS_drv.c **** *
 651:.\Generated_Source\PSoC5/USBFS_drv.c **** * Reentrant:
 652:.\Generated_Source\PSoC5/USBFS_drv.c **** *  No.
 653:.\Generated_Source\PSoC5/USBFS_drv.c **** *
 654:.\Generated_Source\PSoC5/USBFS_drv.c **** *******************************************************************************/
 655:.\Generated_Source\PSoC5/USBFS_drv.c **** uint8 USBFS_InitNoDataControlTransfer(void) 
 656:.\Generated_Source\PSoC5/USBFS_drv.c **** {
 1081              		.loc 1 656 0
 1082              		.cfi_startproc
 1083              		@ args = 0, pretend = 0, frame = 0
 1084              		@ frame_needed = 1, uses_anonymous_args = 0
 1085              		@ link register save eliminated.
 1086 0000 80B4     		push	{r7}
 1087              	.LCFI30:
 1088              		.cfi_def_cfa_offset 4
 1089              		.cfi_offset 7, -4
 1090 0002 00AF     		add	r7, sp, #0
 1091              	.LCFI31:
 1092              		.cfi_def_cfa_register 7
 657:.\Generated_Source\PSoC5/USBFS_drv.c ****     USBFS_transferState = USBFS_TRANS_STATE_NO_DATA_CONTROL;
 1093              		.loc 1 657 0
 1094 0004 40F20003 		movw	r3, #:lower16:USBFS_transferState
 1095 0008 C0F20003 		movt	r3, #:upper16:USBFS_transferState
 1096 000c 4FF00602 		mov	r2, #6
 1097 0010 1A70     		strb	r2, [r3, #0]
 658:.\Generated_Source\PSoC5/USBFS_drv.c ****     USBFS_ep0Mode = USBFS_MODE_STATUS_IN_ONLY;
 1098              		.loc 1 658 0
 1099 0012 40F20003 		movw	r3, #:lower16:USBFS_ep0Mode
 1100 0016 C0F20003 		movt	r3, #:upper16:USBFS_ep0Mode
 1101 001a 4FF00602 		mov	r2, #6
 1102 001e 1A70     		strb	r2, [r3, #0]
 659:.\Generated_Source\PSoC5/USBFS_drv.c ****     USBFS_ep0Toggle = USBFS_EP0_CNT_DATA_TOGGLE;
 1103              		.loc 1 659 0
 1104 0020 40F20003 		movw	r3, #:lower16:USBFS_ep0Toggle
ARM GAS  C:\Users\Robert\AppData\Local\Temp\ccQqeyhO.s 			page 32


 1105 0024 C0F20003 		movt	r3, #:upper16:USBFS_ep0Toggle
 1106 0028 4FF08002 		mov	r2, #128
 1107 002c 1A70     		strb	r2, [r3, #0]
 660:.\Generated_Source\PSoC5/USBFS_drv.c ****     USBFS_ep0Count = 0u;
 1108              		.loc 1 660 0
 1109 002e 40F20003 		movw	r3, #:lower16:USBFS_ep0Count
 1110 0032 C0F20003 		movt	r3, #:upper16:USBFS_ep0Count
 1111 0036 4FF00002 		mov	r2, #0
 1112 003a 1A70     		strb	r2, [r3, #0]
 661:.\Generated_Source\PSoC5/USBFS_drv.c **** 
 662:.\Generated_Source\PSoC5/USBFS_drv.c ****     return(USBFS_TRUE);
 1113              		.loc 1 662 0
 1114 003c 4FF00103 		mov	r3, #1
 663:.\Generated_Source\PSoC5/USBFS_drv.c **** }
 1115              		.loc 1 663 0
 1116 0040 1846     		mov	r0, r3
 1117 0042 BD46     		mov	sp, r7
 1118 0044 80BC     		pop	{r7}
 1119 0046 7047     		bx	lr
 1120              		.cfi_endproc
 1121              	.LFE12:
 1122              		.size	USBFS_InitNoDataControlTransfer, .-USBFS_InitNoDataControlTransfer
 1123              		.section	.text.USBFS_NoDataControlStatusStage,"ax",%progbits
 1124              		.align	2
 1125              		.global	USBFS_NoDataControlStatusStage
 1126              		.thumb
 1127              		.thumb_func
 1128              		.type	USBFS_NoDataControlStatusStage, %function
 1129              	USBFS_NoDataControlStatusStage:
 1130              	.LFB13:
 664:.\Generated_Source\PSoC5/USBFS_drv.c **** 
 665:.\Generated_Source\PSoC5/USBFS_drv.c **** 
 666:.\Generated_Source\PSoC5/USBFS_drv.c **** /*******************************************************************************
 667:.\Generated_Source\PSoC5/USBFS_drv.c **** * Function Name: USBFS_NoDataControlStatusStage
 668:.\Generated_Source\PSoC5/USBFS_drv.c **** ********************************************************************************
 669:.\Generated_Source\PSoC5/USBFS_drv.c **** * Summary:
 670:.\Generated_Source\PSoC5/USBFS_drv.c **** *  Handle the Status Stage of a no data control transfer.
 671:.\Generated_Source\PSoC5/USBFS_drv.c **** *
 672:.\Generated_Source\PSoC5/USBFS_drv.c **** *  SET_ADDRESS is special, since we need to receive the status stage with
 673:.\Generated_Source\PSoC5/USBFS_drv.c **** *  the old address.
 674:.\Generated_Source\PSoC5/USBFS_drv.c **** *
 675:.\Generated_Source\PSoC5/USBFS_drv.c **** * Parameters:
 676:.\Generated_Source\PSoC5/USBFS_drv.c **** *  None.
 677:.\Generated_Source\PSoC5/USBFS_drv.c **** *
 678:.\Generated_Source\PSoC5/USBFS_drv.c **** * Return:
 679:.\Generated_Source\PSoC5/USBFS_drv.c **** *  None.
 680:.\Generated_Source\PSoC5/USBFS_drv.c **** *
 681:.\Generated_Source\PSoC5/USBFS_drv.c **** * Global variables:
 682:.\Generated_Source\PSoC5/USBFS_drv.c **** *  USBFS_transferState - set to TRANS_STATE_IDLE.
 683:.\Generated_Source\PSoC5/USBFS_drv.c **** *  USBFS_ep0Mode  - set to MODE_STALL_IN_OUT.
 684:.\Generated_Source\PSoC5/USBFS_drv.c **** *  USBFS_ep0Toggle - set to EP0_CNT_DATA_TOGGLE
 685:.\Generated_Source\PSoC5/USBFS_drv.c **** *  USBFS_deviceAddress - used to set new address and cleared
 686:.\Generated_Source\PSoC5/USBFS_drv.c **** *
 687:.\Generated_Source\PSoC5/USBFS_drv.c **** * Reentrant:
 688:.\Generated_Source\PSoC5/USBFS_drv.c **** *  No.
 689:.\Generated_Source\PSoC5/USBFS_drv.c **** *
 690:.\Generated_Source\PSoC5/USBFS_drv.c **** *******************************************************************************/
ARM GAS  C:\Users\Robert\AppData\Local\Temp\ccQqeyhO.s 			page 33


 691:.\Generated_Source\PSoC5/USBFS_drv.c **** void USBFS_NoDataControlStatusStage(void) 
 692:.\Generated_Source\PSoC5/USBFS_drv.c **** {
 1131              		.loc 1 692 0
 1132              		.cfi_startproc
 1133              		@ args = 0, pretend = 0, frame = 0
 1134              		@ frame_needed = 1, uses_anonymous_args = 0
 1135 0000 80B5     		push	{r7, lr}
 1136              	.LCFI32:
 1137              		.cfi_def_cfa_offset 8
 1138              		.cfi_offset 7, -8
 1139              		.cfi_offset 14, -4
 1140 0002 00AF     		add	r7, sp, #0
 1141              	.LCFI33:
 1142              		.cfi_def_cfa_register 7
 693:.\Generated_Source\PSoC5/USBFS_drv.c ****     /* Change the USB address register if we got a SET_ADDRESS. */
 694:.\Generated_Source\PSoC5/USBFS_drv.c ****     if (USBFS_deviceAddress != 0u)
 1143              		.loc 1 694 0
 1144 0004 40F20003 		movw	r3, #:lower16:USBFS_deviceAddress
 1145 0008 C0F20003 		movt	r3, #:upper16:USBFS_deviceAddress
 1146 000c 1B78     		ldrb	r3, [r3, #0]
 1147 000e DBB2     		uxtb	r3, r3
 1148 0010 002B     		cmp	r3, #0
 1149 0012 14D0     		beq	.L64
 695:.\Generated_Source\PSoC5/USBFS_drv.c ****     {
 696:.\Generated_Source\PSoC5/USBFS_drv.c ****         CY_SET_REG8(USBFS_CR0_PTR, USBFS_deviceAddress | USBFS_CR0_ENABLE);
 1150              		.loc 1 696 0
 1151 0014 46F20803 		movw	r3, #24584
 1152 0018 C4F20003 		movt	r3, 16384
 1153 001c 40F20002 		movw	r2, #:lower16:USBFS_deviceAddress
 1154 0020 C0F20002 		movt	r2, #:upper16:USBFS_deviceAddress
 1155 0024 1278     		ldrb	r2, [r2, #0]
 1156 0026 D2B2     		uxtb	r2, r2
 1157 0028 62F07F02 		orn	r2, r2, #127
 1158 002c D2B2     		uxtb	r2, r2
 1159 002e 1A70     		strb	r2, [r3, #0]
 697:.\Generated_Source\PSoC5/USBFS_drv.c ****         USBFS_deviceAddress = 0u;
 1160              		.loc 1 697 0
 1161 0030 40F20003 		movw	r3, #:lower16:USBFS_deviceAddress
 1162 0034 C0F20003 		movt	r3, #:upper16:USBFS_deviceAddress
 1163 0038 4FF00002 		mov	r2, #0
 1164 003c 1A70     		strb	r2, [r3, #0]
 1165              	.L64:
 698:.\Generated_Source\PSoC5/USBFS_drv.c ****     }
 699:.\Generated_Source\PSoC5/USBFS_drv.c ****     /* Go Idle */
 700:.\Generated_Source\PSoC5/USBFS_drv.c ****     USBFS_transferState = USBFS_TRANS_STATE_IDLE;
 1166              		.loc 1 700 0
 1167 003e 40F20003 		movw	r3, #:lower16:USBFS_transferState
 1168 0042 C0F20003 		movt	r3, #:upper16:USBFS_transferState
 1169 0046 4FF00002 		mov	r2, #0
 1170 004a 1A70     		strb	r2, [r3, #0]
 701:.\Generated_Source\PSoC5/USBFS_drv.c ****     /* Update the completion block */
 702:.\Generated_Source\PSoC5/USBFS_drv.c ****     USBFS_UpdateStatusBlock(USBFS_XFER_STATUS_ACK);
 1171              		.loc 1 702 0
 1172 004c 4FF00100 		mov	r0, #1
 1173 0050 FFF7FEFF 		bl	USBFS_UpdateStatusBlock
 703:.\Generated_Source\PSoC5/USBFS_drv.c ****      /* We expect no more data, so stall INs and OUTs */
 704:.\Generated_Source\PSoC5/USBFS_drv.c ****     USBFS_ep0Mode = USBFS_MODE_STALL_IN_OUT;
ARM GAS  C:\Users\Robert\AppData\Local\Temp\ccQqeyhO.s 			page 34


 1174              		.loc 1 704 0
 1175 0054 40F20003 		movw	r3, #:lower16:USBFS_ep0Mode
 1176 0058 C0F20003 		movt	r3, #:upper16:USBFS_ep0Mode
 1177 005c 4FF00302 		mov	r2, #3
 1178 0060 1A70     		strb	r2, [r3, #0]
 705:.\Generated_Source\PSoC5/USBFS_drv.c **** }
 1179              		.loc 1 705 0
 1180 0062 80BD     		pop	{r7, pc}
 1181              		.cfi_endproc
 1182              	.LFE13:
 1183              		.size	USBFS_NoDataControlStatusStage, .-USBFS_NoDataControlStatusStage
 1184              		.section	.text.USBFS_UpdateStatusBlock,"ax",%progbits
 1185              		.align	2
 1186              		.global	USBFS_UpdateStatusBlock
 1187              		.thumb
 1188              		.thumb_func
 1189              		.type	USBFS_UpdateStatusBlock, %function
 1190              	USBFS_UpdateStatusBlock:
 1191              	.LFB14:
 706:.\Generated_Source\PSoC5/USBFS_drv.c **** 
 707:.\Generated_Source\PSoC5/USBFS_drv.c **** 
 708:.\Generated_Source\PSoC5/USBFS_drv.c **** /*******************************************************************************
 709:.\Generated_Source\PSoC5/USBFS_drv.c **** * Function Name: USBFS_UpdateStatusBlock
 710:.\Generated_Source\PSoC5/USBFS_drv.c **** ********************************************************************************
 711:.\Generated_Source\PSoC5/USBFS_drv.c **** *
 712:.\Generated_Source\PSoC5/USBFS_drv.c **** * Summary:
 713:.\Generated_Source\PSoC5/USBFS_drv.c **** *  Update the Completion Status Block for a Request.  The block is updated
 714:.\Generated_Source\PSoC5/USBFS_drv.c **** *  with the completion code the USBFS_transferByteCount.  The
 715:.\Generated_Source\PSoC5/USBFS_drv.c **** *  StatusBlock Pointer is set to NULL.
 716:.\Generated_Source\PSoC5/USBFS_drv.c **** *
 717:.\Generated_Source\PSoC5/USBFS_drv.c **** * Parameters:
 718:.\Generated_Source\PSoC5/USBFS_drv.c **** *  completionCode - status.
 719:.\Generated_Source\PSoC5/USBFS_drv.c **** *
 720:.\Generated_Source\PSoC5/USBFS_drv.c **** * Return:
 721:.\Generated_Source\PSoC5/USBFS_drv.c **** *  None.
 722:.\Generated_Source\PSoC5/USBFS_drv.c **** *
 723:.\Generated_Source\PSoC5/USBFS_drv.c **** * Global variables:
 724:.\Generated_Source\PSoC5/USBFS_drv.c **** *  USBFS_currentTD.pStatusBlock->status - updated by the
 725:.\Generated_Source\PSoC5/USBFS_drv.c **** *    completionCode parameter.
 726:.\Generated_Source\PSoC5/USBFS_drv.c **** *  USBFS_currentTD.pStatusBlock->length - updated.
 727:.\Generated_Source\PSoC5/USBFS_drv.c **** *  USBFS_currentTD.pStatusBlock - cleared.
 728:.\Generated_Source\PSoC5/USBFS_drv.c **** *
 729:.\Generated_Source\PSoC5/USBFS_drv.c **** * Reentrant:
 730:.\Generated_Source\PSoC5/USBFS_drv.c **** *  No.
 731:.\Generated_Source\PSoC5/USBFS_drv.c **** *
 732:.\Generated_Source\PSoC5/USBFS_drv.c **** *******************************************************************************/
 733:.\Generated_Source\PSoC5/USBFS_drv.c **** void USBFS_UpdateStatusBlock(uint8 completionCode) 
 734:.\Generated_Source\PSoC5/USBFS_drv.c **** {
 1192              		.loc 1 734 0
 1193              		.cfi_startproc
 1194              		@ args = 0, pretend = 0, frame = 8
 1195              		@ frame_needed = 1, uses_anonymous_args = 0
 1196              		@ link register save eliminated.
 1197 0000 80B4     		push	{r7}
 1198              	.LCFI34:
 1199              		.cfi_def_cfa_offset 4
 1200              		.cfi_offset 7, -4
ARM GAS  C:\Users\Robert\AppData\Local\Temp\ccQqeyhO.s 			page 35


 1201 0002 83B0     		sub	sp, sp, #12
 1202              	.LCFI35:
 1203              		.cfi_def_cfa_offset 16
 1204 0004 00AF     		add	r7, sp, #0
 1205              	.LCFI36:
 1206              		.cfi_def_cfa_register 7
 1207 0006 0346     		mov	r3, r0
 1208 0008 FB71     		strb	r3, [r7, #7]
 735:.\Generated_Source\PSoC5/USBFS_drv.c ****     if (USBFS_currentTD.pStatusBlock != NULL)
 1209              		.loc 1 735 0
 1210 000a 40F20003 		movw	r3, #:lower16:USBFS_currentTD
 1211 000e C0F20003 		movt	r3, #:upper16:USBFS_currentTD
 1212 0012 9B68     		ldr	r3, [r3, #8]
 1213 0014 002B     		cmp	r3, #0
 1214 0016 19D0     		beq	.L65
 736:.\Generated_Source\PSoC5/USBFS_drv.c ****     {
 737:.\Generated_Source\PSoC5/USBFS_drv.c ****         USBFS_currentTD.pStatusBlock->status = completionCode;
 1215              		.loc 1 737 0
 1216 0018 40F20003 		movw	r3, #:lower16:USBFS_currentTD
 1217 001c C0F20003 		movt	r3, #:upper16:USBFS_currentTD
 1218 0020 9B68     		ldr	r3, [r3, #8]
 1219 0022 FA79     		ldrb	r2, [r7, #7]
 1220 0024 1A70     		strb	r2, [r3, #0]
 738:.\Generated_Source\PSoC5/USBFS_drv.c ****         USBFS_currentTD.pStatusBlock->length = USBFS_transferByteCount;
 1221              		.loc 1 738 0
 1222 0026 40F20003 		movw	r3, #:lower16:USBFS_currentTD
 1223 002a C0F20003 		movt	r3, #:upper16:USBFS_currentTD
 1224 002e 9A68     		ldr	r2, [r3, #8]
 1225 0030 40F20003 		movw	r3, #:lower16:USBFS_transferByteCount
 1226 0034 C0F20003 		movt	r3, #:upper16:USBFS_transferByteCount
 1227 0038 1B88     		ldrh	r3, [r3, #0]	@ movhi
 1228 003a 9BB2     		uxth	r3, r3
 1229 003c 5380     		strh	r3, [r2, #2]	@ movhi
 739:.\Generated_Source\PSoC5/USBFS_drv.c ****         USBFS_currentTD.pStatusBlock = NULL;
 1230              		.loc 1 739 0
 1231 003e 40F20003 		movw	r3, #:lower16:USBFS_currentTD
 1232 0042 C0F20003 		movt	r3, #:upper16:USBFS_currentTD
 1233 0046 4FF00002 		mov	r2, #0
 1234 004a 9A60     		str	r2, [r3, #8]
 1235              	.L65:
 740:.\Generated_Source\PSoC5/USBFS_drv.c ****     }
 741:.\Generated_Source\PSoC5/USBFS_drv.c **** }
 1236              		.loc 1 741 0
 1237 004c 07F10C07 		add	r7, r7, #12
 1238 0050 BD46     		mov	sp, r7
 1239 0052 80BC     		pop	{r7}
 1240 0054 7047     		bx	lr
 1241              		.cfi_endproc
 1242              	.LFE14:
 1243              		.size	USBFS_UpdateStatusBlock, .-USBFS_UpdateStatusBlock
 1244 0056 00BF     		.section	.text.USBFS_InitializeStatusBlock,"ax",%progbits
 1245              		.align	2
 1246              		.global	USBFS_InitializeStatusBlock
 1247              		.thumb
 1248              		.thumb_func
 1249              		.type	USBFS_InitializeStatusBlock, %function
 1250              	USBFS_InitializeStatusBlock:
ARM GAS  C:\Users\Robert\AppData\Local\Temp\ccQqeyhO.s 			page 36


 1251              	.LFB15:
 742:.\Generated_Source\PSoC5/USBFS_drv.c **** 
 743:.\Generated_Source\PSoC5/USBFS_drv.c **** 
 744:.\Generated_Source\PSoC5/USBFS_drv.c **** /*******************************************************************************
 745:.\Generated_Source\PSoC5/USBFS_drv.c **** * Function Name: USBFS_InitializeStatusBlock
 746:.\Generated_Source\PSoC5/USBFS_drv.c **** ********************************************************************************
 747:.\Generated_Source\PSoC5/USBFS_drv.c **** *
 748:.\Generated_Source\PSoC5/USBFS_drv.c **** * Summary:
 749:.\Generated_Source\PSoC5/USBFS_drv.c **** *  Initialize the Completion Status Block for a Request.  The completion
 750:.\Generated_Source\PSoC5/USBFS_drv.c **** *  code is set to USB_XFER_IDLE.
 751:.\Generated_Source\PSoC5/USBFS_drv.c **** *
 752:.\Generated_Source\PSoC5/USBFS_drv.c **** *  Also, initializes USBFS_transferByteCount.  Save some space,
 753:.\Generated_Source\PSoC5/USBFS_drv.c **** *  this is the only consumer.
 754:.\Generated_Source\PSoC5/USBFS_drv.c **** *
 755:.\Generated_Source\PSoC5/USBFS_drv.c **** * Parameters:
 756:.\Generated_Source\PSoC5/USBFS_drv.c **** *  None.
 757:.\Generated_Source\PSoC5/USBFS_drv.c **** *
 758:.\Generated_Source\PSoC5/USBFS_drv.c **** * Return:
 759:.\Generated_Source\PSoC5/USBFS_drv.c **** *  None.
 760:.\Generated_Source\PSoC5/USBFS_drv.c **** *
 761:.\Generated_Source\PSoC5/USBFS_drv.c **** * Global variables:
 762:.\Generated_Source\PSoC5/USBFS_drv.c **** *  USBFS_currentTD.pStatusBlock->status - set to XFER_IDLE.
 763:.\Generated_Source\PSoC5/USBFS_drv.c **** *  USBFS_currentTD.pStatusBlock->length - cleared.
 764:.\Generated_Source\PSoC5/USBFS_drv.c **** *  USBFS_transferByteCount - cleared.
 765:.\Generated_Source\PSoC5/USBFS_drv.c **** *
 766:.\Generated_Source\PSoC5/USBFS_drv.c **** * Reentrant:
 767:.\Generated_Source\PSoC5/USBFS_drv.c **** *  No.
 768:.\Generated_Source\PSoC5/USBFS_drv.c **** *
 769:.\Generated_Source\PSoC5/USBFS_drv.c **** *******************************************************************************/
 770:.\Generated_Source\PSoC5/USBFS_drv.c **** void USBFS_InitializeStatusBlock(void) 
 771:.\Generated_Source\PSoC5/USBFS_drv.c **** {
 1252              		.loc 1 771 0
 1253              		.cfi_startproc
 1254              		@ args = 0, pretend = 0, frame = 0
 1255              		@ frame_needed = 1, uses_anonymous_args = 0
 1256              		@ link register save eliminated.
 1257 0000 80B4     		push	{r7}
 1258              	.LCFI37:
 1259              		.cfi_def_cfa_offset 4
 1260              		.cfi_offset 7, -4
 1261 0002 00AF     		add	r7, sp, #0
 1262              	.LCFI38:
 1263              		.cfi_def_cfa_register 7
 772:.\Generated_Source\PSoC5/USBFS_drv.c ****     USBFS_transferByteCount = 0u;
 1264              		.loc 1 772 0
 1265 0004 40F20003 		movw	r3, #:lower16:USBFS_transferByteCount
 1266 0008 C0F20003 		movt	r3, #:upper16:USBFS_transferByteCount
 1267 000c 4FF00002 		mov	r2, #0
 1268 0010 1A80     		strh	r2, [r3, #0]	@ movhi
 773:.\Generated_Source\PSoC5/USBFS_drv.c ****     if(USBFS_currentTD.pStatusBlock != NULL)
 1269              		.loc 1 773 0
 1270 0012 40F20003 		movw	r3, #:lower16:USBFS_currentTD
 1271 0016 C0F20003 		movt	r3, #:upper16:USBFS_currentTD
 1272 001a 9B68     		ldr	r3, [r3, #8]
 1273 001c 002B     		cmp	r3, #0
 1274 001e 0FD0     		beq	.L67
 774:.\Generated_Source\PSoC5/USBFS_drv.c ****     {
ARM GAS  C:\Users\Robert\AppData\Local\Temp\ccQqeyhO.s 			page 37


 775:.\Generated_Source\PSoC5/USBFS_drv.c ****         USBFS_currentTD.pStatusBlock->status = USBFS_XFER_IDLE;
 1275              		.loc 1 775 0
 1276 0020 40F20003 		movw	r3, #:lower16:USBFS_currentTD
 1277 0024 C0F20003 		movt	r3, #:upper16:USBFS_currentTD
 1278 0028 9B68     		ldr	r3, [r3, #8]
 1279 002a 4FF00002 		mov	r2, #0
 1280 002e 1A70     		strb	r2, [r3, #0]
 776:.\Generated_Source\PSoC5/USBFS_drv.c ****         USBFS_currentTD.pStatusBlock->length = 0u;
 1281              		.loc 1 776 0
 1282 0030 40F20003 		movw	r3, #:lower16:USBFS_currentTD
 1283 0034 C0F20003 		movt	r3, #:upper16:USBFS_currentTD
 1284 0038 9B68     		ldr	r3, [r3, #8]
 1285 003a 4FF00002 		mov	r2, #0
 1286 003e 5A80     		strh	r2, [r3, #2]	@ movhi
 1287              	.L67:
 777:.\Generated_Source\PSoC5/USBFS_drv.c ****     }
 778:.\Generated_Source\PSoC5/USBFS_drv.c **** }
 1288              		.loc 1 778 0
 1289 0040 BD46     		mov	sp, r7
 1290 0042 80BC     		pop	{r7}
 1291 0044 7047     		bx	lr
 1292              		.cfi_endproc
 1293              	.LFE15:
 1294              		.size	USBFS_InitializeStatusBlock, .-USBFS_InitializeStatusBlock
 1295 0046 00BF     		.text
 1296              	.Letext0:
 1297              		.file 2 ".\\Generated_Source\\PSoC5\\cytypes.h"
 1298              		.file 3 ".\\Generated_Source\\PSoC5\\USBFS.h"
 1299              		.section	.debug_info,"",%progbits
 1300              	.Ldebug_info0:
 1301 0000 6A050000 		.4byte	0x56a
 1302 0004 0200     		.2byte	0x2
 1303 0006 00000000 		.4byte	.Ldebug_abbrev0
 1304 000a 04       		.byte	0x4
 1305 000b 01       		.uleb128 0x1
 1306 000c 2D030000 		.4byte	.LASF73
 1307 0010 01       		.byte	0x1
 1308 0011 12010000 		.4byte	.LASF74
 1309 0015 C2020000 		.4byte	.LASF75
 1310 0019 00000000 		.4byte	.Ldebug_ranges0+0
 1311 001d 00000000 		.4byte	0
 1312 0021 00000000 		.4byte	0
 1313 0025 00000000 		.4byte	.Ldebug_line0
 1314 0029 02       		.uleb128 0x2
 1315 002a 01       		.byte	0x1
 1316 002b 06       		.byte	0x6
 1317 002c AC000000 		.4byte	.LASF0
 1318 0030 02       		.uleb128 0x2
 1319 0031 01       		.byte	0x1
 1320 0032 08       		.byte	0x8
 1321 0033 8F030000 		.4byte	.LASF1
 1322 0037 02       		.uleb128 0x2
 1323 0038 02       		.byte	0x2
 1324 0039 05       		.byte	0x5
 1325 003a B9030000 		.4byte	.LASF2
 1326 003e 02       		.uleb128 0x2
 1327 003f 02       		.byte	0x2
ARM GAS  C:\Users\Robert\AppData\Local\Temp\ccQqeyhO.s 			page 38


 1328 0040 07       		.byte	0x7
 1329 0041 BC010000 		.4byte	.LASF3
 1330 0045 02       		.uleb128 0x2
 1331 0046 04       		.byte	0x4
 1332 0047 05       		.byte	0x5
 1333 0048 FA000000 		.4byte	.LASF4
 1334 004c 02       		.uleb128 0x2
 1335 004d 04       		.byte	0x4
 1336 004e 07       		.byte	0x7
 1337 004f 9C010000 		.4byte	.LASF5
 1338 0053 02       		.uleb128 0x2
 1339 0054 08       		.byte	0x8
 1340 0055 05       		.byte	0x5
 1341 0056 9E000000 		.4byte	.LASF6
 1342 005a 02       		.uleb128 0x2
 1343 005b 08       		.byte	0x8
 1344 005c 07       		.byte	0x7
 1345 005d 67000000 		.4byte	.LASF7
 1346 0061 03       		.uleb128 0x3
 1347 0062 04       		.byte	0x4
 1348 0063 05       		.byte	0x5
 1349 0064 696E7400 		.ascii	"int\000"
 1350 0068 02       		.uleb128 0x2
 1351 0069 04       		.byte	0x4
 1352 006a 07       		.byte	0x7
 1353 006b 85010000 		.4byte	.LASF8
 1354 006f 04       		.uleb128 0x4
 1355 0070 03010000 		.4byte	.LASF9
 1356 0074 02       		.byte	0x2
 1357 0075 5B       		.byte	0x5b
 1358 0076 30000000 		.4byte	0x30
 1359 007a 04       		.uleb128 0x4
 1360 007b 13000000 		.4byte	.LASF10
 1361 007f 02       		.byte	0x2
 1362 0080 5C       		.byte	0x5c
 1363 0081 3E000000 		.4byte	0x3e
 1364 0085 02       		.uleb128 0x2
 1365 0086 04       		.byte	0x4
 1366 0087 04       		.byte	0x4
 1367 0088 B1020000 		.4byte	.LASF11
 1368 008c 02       		.uleb128 0x2
 1369 008d 08       		.byte	0x8
 1370 008e 04       		.byte	0x4
 1371 008f 37010000 		.4byte	.LASF12
 1372 0093 02       		.uleb128 0x2
 1373 0094 01       		.byte	0x1
 1374 0095 08       		.byte	0x8
 1375 0096 8E040000 		.4byte	.LASF13
 1376 009a 04       		.uleb128 0x4
 1377 009b 76030000 		.4byte	.LASF14
 1378 009f 02       		.byte	0x2
 1379 00a0 F0       		.byte	0xf0
 1380 00a1 A5000000 		.4byte	0xa5
 1381 00a5 05       		.uleb128 0x5
 1382 00a6 6F000000 		.4byte	0x6f
 1383 00aa 05       		.uleb128 0x5
 1384 00ab 7A000000 		.4byte	0x7a
ARM GAS  C:\Users\Robert\AppData\Local\Temp\ccQqeyhO.s 			page 39


 1385 00af 02       		.uleb128 0x2
 1386 00b0 04       		.byte	0x4
 1387 00b1 07       		.byte	0x7
 1388 00b2 43020000 		.4byte	.LASF15
 1389 00b6 06       		.uleb128 0x6
 1390 00b7 0C       		.byte	0xc
 1391 00b8 03       		.byte	0x3
 1392 00b9 7F       		.byte	0x7f
 1393 00ba 3D010000 		.4byte	0x13d
 1394 00be 07       		.uleb128 0x7
 1395 00bf 6A020000 		.4byte	.LASF16
 1396 00c3 03       		.byte	0x3
 1397 00c4 81       		.byte	0x81
 1398 00c5 6F000000 		.4byte	0x6f
 1399 00c9 02       		.byte	0x2
 1400 00ca 23       		.byte	0x23
 1401 00cb 00       		.uleb128 0
 1402 00cc 07       		.uleb128 0x7
 1403 00cd B7020000 		.4byte	.LASF17
 1404 00d1 03       		.byte	0x3
 1405 00d2 82       		.byte	0x82
 1406 00d3 6F000000 		.4byte	0x6f
 1407 00d7 02       		.byte	0x2
 1408 00d8 23       		.byte	0x23
 1409 00d9 01       		.uleb128 0x1
 1410 00da 07       		.uleb128 0x7
 1411 00db 39020000 		.4byte	.LASF18
 1412 00df 03       		.byte	0x3
 1413 00e0 83       		.byte	0x83
 1414 00e1 6F000000 		.4byte	0x6f
 1415 00e5 02       		.byte	0x2
 1416 00e6 23       		.byte	0x23
 1417 00e7 02       		.uleb128 0x2
 1418 00e8 07       		.uleb128 0x7
 1419 00e9 09010000 		.4byte	.LASF19
 1420 00ed 03       		.byte	0x3
 1421 00ee 84       		.byte	0x84
 1422 00ef 6F000000 		.4byte	0x6f
 1423 00f3 02       		.byte	0x2
 1424 00f4 23       		.byte	0x23
 1425 00f5 03       		.uleb128 0x3
 1426 00f6 07       		.uleb128 0x7
 1427 00f7 7E000000 		.4byte	.LASF20
 1428 00fb 03       		.byte	0x3
 1429 00fc 85       		.byte	0x85
 1430 00fd 6F000000 		.4byte	0x6f
 1431 0101 02       		.byte	0x2
 1432 0102 23       		.byte	0x23
 1433 0103 04       		.uleb128 0x4
 1434 0104 07       		.uleb128 0x7
 1435 0105 61010000 		.4byte	.LASF21
 1436 0109 03       		.byte	0x3
 1437 010a 86       		.byte	0x86
 1438 010b 6F000000 		.4byte	0x6f
 1439 010f 02       		.byte	0x2
 1440 0110 23       		.byte	0x23
 1441 0111 05       		.uleb128 0x5
ARM GAS  C:\Users\Robert\AppData\Local\Temp\ccQqeyhO.s 			page 40


 1442 0112 07       		.uleb128 0x7
 1443 0113 AD040000 		.4byte	.LASF22
 1444 0117 03       		.byte	0x3
 1445 0118 87       		.byte	0x87
 1446 0119 7A000000 		.4byte	0x7a
 1447 011d 02       		.byte	0x2
 1448 011e 23       		.byte	0x23
 1449 011f 06       		.uleb128 0x6
 1450 0120 07       		.uleb128 0x7
 1451 0121 93040000 		.4byte	.LASF23
 1452 0125 03       		.byte	0x3
 1453 0126 88       		.byte	0x88
 1454 0127 7A000000 		.4byte	0x7a
 1455 012b 02       		.byte	0x2
 1456 012c 23       		.byte	0x23
 1457 012d 08       		.uleb128 0x8
 1458 012e 07       		.uleb128 0x7
 1459 012f FF010000 		.4byte	.LASF24
 1460 0133 03       		.byte	0x3
 1461 0134 89       		.byte	0x89
 1462 0135 6F000000 		.4byte	0x6f
 1463 0139 02       		.byte	0x2
 1464 013a 23       		.byte	0x23
 1465 013b 0A       		.uleb128 0xa
 1466 013c 00       		.byte	0
 1467 013d 04       		.uleb128 0x4
 1468 013e FA030000 		.4byte	.LASF25
 1469 0142 03       		.byte	0x3
 1470 0143 8A       		.byte	0x8a
 1471 0144 B6000000 		.4byte	0xb6
 1472 0148 06       		.uleb128 0x6
 1473 0149 04       		.byte	0x4
 1474 014a 03       		.byte	0x3
 1475 014b 96       		.byte	0x96
 1476 014c 6D010000 		.4byte	0x16d
 1477 0150 07       		.uleb128 0x7
 1478 0151 F9040000 		.4byte	.LASF26
 1479 0155 03       		.byte	0x3
 1480 0156 98       		.byte	0x98
 1481 0157 6F000000 		.4byte	0x6f
 1482 015b 02       		.byte	0x2
 1483 015c 23       		.byte	0x23
 1484 015d 00       		.uleb128 0
 1485 015e 07       		.uleb128 0x7
 1486 015f 87040000 		.4byte	.LASF27
 1487 0163 03       		.byte	0x3
 1488 0164 99       		.byte	0x99
 1489 0165 7A000000 		.4byte	0x7a
 1490 0169 02       		.byte	0x2
 1491 016a 23       		.byte	0x23
 1492 016b 02       		.uleb128 0x2
 1493 016c 00       		.byte	0
 1494 016d 04       		.uleb128 0x4
 1495 016e 80020000 		.4byte	.LASF28
 1496 0172 03       		.byte	0x3
 1497 0173 9A       		.byte	0x9a
 1498 0174 48010000 		.4byte	0x148
ARM GAS  C:\Users\Robert\AppData\Local\Temp\ccQqeyhO.s 			page 41


 1499 0178 06       		.uleb128 0x6
 1500 0179 0C       		.byte	0xc
 1501 017a 03       		.byte	0x3
 1502 017b 9C       		.byte	0x9c
 1503 017c AB010000 		.4byte	0x1ab
 1504 0180 07       		.uleb128 0x7
 1505 0181 0D000000 		.4byte	.LASF29
 1506 0185 03       		.byte	0x3
 1507 0186 9E       		.byte	0x9e
 1508 0187 7A000000 		.4byte	0x7a
 1509 018b 02       		.byte	0x2
 1510 018c 23       		.byte	0x23
 1511 018d 00       		.uleb128 0
 1512 018e 07       		.uleb128 0x7
 1513 018f 47010000 		.4byte	.LASF30
 1514 0193 03       		.byte	0x3
 1515 0194 9F       		.byte	0x9f
 1516 0195 AB010000 		.4byte	0x1ab
 1517 0199 02       		.byte	0x2
 1518 019a 23       		.byte	0x23
 1519 019b 04       		.uleb128 0x4
 1520 019c 07       		.uleb128 0x7
 1521 019d 00000000 		.4byte	.LASF31
 1522 01a1 03       		.byte	0x3
 1523 01a2 A0       		.byte	0xa0
 1524 01a3 B1010000 		.4byte	0x1b1
 1525 01a7 02       		.byte	0x2
 1526 01a8 23       		.byte	0x23
 1527 01a9 08       		.uleb128 0x8
 1528 01aa 00       		.byte	0
 1529 01ab 08       		.uleb128 0x8
 1530 01ac 04       		.byte	0x4
 1531 01ad A5000000 		.4byte	0xa5
 1532 01b1 08       		.uleb128 0x8
 1533 01b2 04       		.byte	0x4
 1534 01b3 6D010000 		.4byte	0x16d
 1535 01b7 04       		.uleb128 0x4
 1536 01b8 C3030000 		.4byte	.LASF32
 1537 01bc 03       		.byte	0x3
 1538 01bd A1       		.byte	0xa1
 1539 01be 78010000 		.4byte	0x178
 1540 01c2 09       		.uleb128 0x9
 1541 01c3 01       		.byte	0x1
 1542 01c4 1A000000 		.4byte	.LASF35
 1543 01c8 01       		.byte	0x1
 1544 01c9 42       		.byte	0x42
 1545 01ca 01       		.byte	0x1
 1546 01cb 00000000 		.4byte	.LFB0
 1547 01cf 3E010000 		.4byte	.LFE0
 1548 01d3 00000000 		.4byte	.LLST0
 1549 01d7 01       		.byte	0x1
 1550 01d8 F9010000 		.4byte	0x1f9
 1551 01dc 0A       		.uleb128 0xa
 1552 01dd 3E010000 		.4byte	.LASF33
 1553 01e1 01       		.byte	0x1
 1554 01e2 44       		.byte	0x44
 1555 01e3 6F000000 		.4byte	0x6f
ARM GAS  C:\Users\Robert\AppData\Local\Temp\ccQqeyhO.s 			page 42


 1556 01e7 02       		.byte	0x2
 1557 01e8 91       		.byte	0x91
 1558 01e9 76       		.sleb128 -10
 1559 01ea 0A       		.uleb128 0xa
 1560 01eb 92010000 		.4byte	.LASF34
 1561 01ef 01       		.byte	0x1
 1562 01f0 45       		.byte	0x45
 1563 01f1 6F000000 		.4byte	0x6f
 1564 01f5 02       		.byte	0x2
 1565 01f6 91       		.byte	0x91
 1566 01f7 77       		.sleb128 -9
 1567 01f8 00       		.byte	0
 1568 01f9 09       		.uleb128 0x9
 1569 01fa 01       		.byte	0x1
 1570 01fb E7040000 		.4byte	.LASF36
 1571 01ff 01       		.byte	0x1
 1572 0200 97       		.byte	0x97
 1573 0201 01       		.byte	0x1
 1574 0202 00000000 		.4byte	.LFB1
 1575 0206 A6000000 		.4byte	.LFE1
 1576 020a 38000000 		.4byte	.LLST1
 1577 020e 01       		.byte	0x1
 1578 020f 22020000 		.4byte	0x222
 1579 0213 0A       		.uleb128 0xa
 1580 0214 9E040000 		.4byte	.LASF37
 1581 0218 01       		.byte	0x1
 1582 0219 99       		.byte	0x99
 1583 021a 6F000000 		.4byte	0x6f
 1584 021e 02       		.byte	0x2
 1585 021f 91       		.byte	0x91
 1586 0220 77       		.sleb128 -9
 1587 0221 00       		.byte	0
 1588 0222 0B       		.uleb128 0xb
 1589 0223 01       		.byte	0x1
 1590 0224 CF010000 		.4byte	.LASF38
 1591 0228 01       		.byte	0x1
 1592 0229 CF       		.byte	0xcf
 1593 022a 01       		.byte	0x1
 1594 022b 00000000 		.4byte	.LFB2
 1595 022f 4E000000 		.4byte	.LFE2
 1596 0233 70000000 		.4byte	.LLST2
 1597 0237 01       		.byte	0x1
 1598 0238 0B       		.uleb128 0xb
 1599 0239 01       		.byte	0x1
 1600 023a 4C020000 		.4byte	.LASF39
 1601 023e 01       		.byte	0x1
 1602 023f F5       		.byte	0xf5
 1603 0240 01       		.byte	0x1
 1604 0241 00000000 		.4byte	.LFB3
 1605 0245 60000000 		.4byte	.LFE3
 1606 0249 9C000000 		.4byte	.LLST3
 1607 024d 01       		.byte	0x1
 1608 024e 0C       		.uleb128 0xc
 1609 024f 01       		.byte	0x1
 1610 0250 AE010000 		.4byte	.LASF40
 1611 0254 01       		.byte	0x1
 1612 0255 3301     		.2byte	0x133
ARM GAS  C:\Users\Robert\AppData\Local\Temp\ccQqeyhO.s 			page 43


 1613 0257 01       		.byte	0x1
 1614 0258 00000000 		.4byte	.LFB4
 1615 025c 36010000 		.4byte	.LFE4
 1616 0260 C8000000 		.4byte	.LLST4
 1617 0264 01       		.byte	0x1
 1618 0265 79020000 		.4byte	0x279
 1619 0269 0D       		.uleb128 0xd
 1620 026a DE010000 		.4byte	.LASF41
 1621 026e 01       		.byte	0x1
 1622 026f 3501     		.2byte	0x135
 1623 0271 6F000000 		.4byte	0x6f
 1624 0275 02       		.byte	0x2
 1625 0276 91       		.byte	0x91
 1626 0277 77       		.sleb128 -9
 1627 0278 00       		.byte	0
 1628 0279 0E       		.uleb128 0xe
 1629 027a 01       		.byte	0x1
 1630 027b 51000000 		.4byte	.LASF45
 1631 027f 01       		.byte	0x1
 1632 0280 7101     		.2byte	0x171
 1633 0282 01       		.byte	0x1
 1634 0283 6F000000 		.4byte	0x6f
 1635 0287 00000000 		.4byte	.LFB5
 1636 028b 90000000 		.4byte	.LFE5
 1637 028f 00010000 		.4byte	.LLST5
 1638 0293 01       		.byte	0x1
 1639 0294 A8020000 		.4byte	0x2a8
 1640 0298 0D       		.uleb128 0xd
 1641 0299 00050000 		.4byte	.LASF42
 1642 029d 01       		.byte	0x1
 1643 029e 7301     		.2byte	0x173
 1644 02a0 7A000000 		.4byte	0x7a
 1645 02a4 02       		.byte	0x2
 1646 02a5 91       		.byte	0x91
 1647 02a6 76       		.sleb128 -10
 1648 02a7 00       		.byte	0
 1649 02a8 0F       		.uleb128 0xf
 1650 02a9 01       		.byte	0x1
 1651 02aa 20050000 		.4byte	.LASF50
 1652 02ae 01       		.byte	0x1
 1653 02af A501     		.2byte	0x1a5
 1654 02b1 01       		.byte	0x1
 1655 02b2 6F000000 		.4byte	0x6f
 1656 02b6 00000000 		.4byte	.LFB6
 1657 02ba 56000000 		.4byte	.LFE6
 1658 02be 38010000 		.4byte	.LLST6
 1659 02c2 01       		.byte	0x1
 1660 02c3 10       		.uleb128 0x10
 1661 02c4 01       		.byte	0x1
 1662 02c5 83000000 		.4byte	.LASF43
 1663 02c9 01       		.byte	0x1
 1664 02ca C701     		.2byte	0x1c7
 1665 02cc 01       		.byte	0x1
 1666 02cd 00000000 		.4byte	.LFB7
 1667 02d1 0A000000 		.4byte	.LFE7
 1668 02d5 64010000 		.4byte	.LLST7
 1669 02d9 01       		.byte	0x1
ARM GAS  C:\Users\Robert\AppData\Local\Temp\ccQqeyhO.s 			page 44


 1670 02da 10       		.uleb128 0x10
 1671 02db 01       		.byte	0x1
 1672 02dc 68010000 		.4byte	.LASF44
 1673 02e0 01       		.byte	0x1
 1674 02e1 E401     		.2byte	0x1e4
 1675 02e3 01       		.byte	0x1
 1676 02e4 00000000 		.4byte	.LFB8
 1677 02e8 52000000 		.4byte	.LFE8
 1678 02ec 90010000 		.4byte	.LLST8
 1679 02f0 01       		.byte	0x1
 1680 02f1 0E       		.uleb128 0xe
 1681 02f2 01       		.byte	0x1
 1682 02f3 9A020000 		.4byte	.LASF46
 1683 02f7 01       		.byte	0x1
 1684 02f8 0702     		.2byte	0x207
 1685 02fa 01       		.byte	0x1
 1686 02fb 6F000000 		.4byte	0x6f
 1687 02ff 00000000 		.4byte	.LFB9
 1688 0303 84000000 		.4byte	.LFE9
 1689 0307 BC010000 		.4byte	.LLST9
 1690 030b 01       		.byte	0x1
 1691 030c 20030000 		.4byte	0x320
 1692 0310 0D       		.uleb128 0xd
 1693 0311 00050000 		.4byte	.LASF42
 1694 0315 01       		.byte	0x1
 1695 0316 0902     		.2byte	0x209
 1696 0318 7A000000 		.4byte	0x7a
 1697 031c 02       		.byte	0x2
 1698 031d 91       		.byte	0x91
 1699 031e 76       		.sleb128 -10
 1700 031f 00       		.byte	0
 1701 0320 0C       		.uleb128 0xc
 1702 0321 01       		.byte	0x1
 1703 0322 6B040000 		.4byte	.LASF47
 1704 0326 01       		.byte	0x1
 1705 0327 3E02     		.2byte	0x23e
 1706 0329 01       		.byte	0x1
 1707 032a 00000000 		.4byte	.LFB10
 1708 032e FC000000 		.4byte	.LFE10
 1709 0332 F4010000 		.4byte	.LLST10
 1710 0336 01       		.byte	0x1
 1711 0337 5A030000 		.4byte	0x35a
 1712 033b 0D       		.uleb128 0xd
 1713 033c DE010000 		.4byte	.LASF41
 1714 0340 01       		.byte	0x1
 1715 0341 4002     		.2byte	0x240
 1716 0343 6F000000 		.4byte	0x6f
 1717 0347 02       		.byte	0x2
 1718 0348 91       		.byte	0x91
 1719 0349 77       		.sleb128 -9
 1720 034a 0D       		.uleb128 0xd
 1721 034b 39000000 		.4byte	.LASF48
 1722 034f 01       		.byte	0x1
 1723 0350 4102     		.2byte	0x241
 1724 0352 6F000000 		.4byte	0x6f
 1725 0356 02       		.byte	0x2
 1726 0357 91       		.byte	0x91
ARM GAS  C:\Users\Robert\AppData\Local\Temp\ccQqeyhO.s 			page 45


 1727 0358 76       		.sleb128 -10
 1728 0359 00       		.byte	0
 1729 035a 10       		.uleb128 0x10
 1730 035b 01       		.byte	0x1
 1731 035c 44050000 		.4byte	.LASF49
 1732 0360 01       		.byte	0x1
 1733 0361 6D02     		.2byte	0x26d
 1734 0363 01       		.byte	0x1
 1735 0364 00000000 		.4byte	.LFB11
 1736 0368 2A000000 		.4byte	.LFE11
 1737 036c 2C020000 		.4byte	.LLST11
 1738 0370 01       		.byte	0x1
 1739 0371 0F       		.uleb128 0xf
 1740 0372 01       		.byte	0x1
 1741 0373 2E040000 		.4byte	.LASF51
 1742 0377 01       		.byte	0x1
 1743 0378 8F02     		.2byte	0x28f
 1744 037a 01       		.byte	0x1
 1745 037b 6F000000 		.4byte	0x6f
 1746 037f 00000000 		.4byte	.LFB12
 1747 0383 48000000 		.4byte	.LFE12
 1748 0387 58020000 		.4byte	.LLST12
 1749 038b 01       		.byte	0x1
 1750 038c 10       		.uleb128 0x10
 1751 038d 01       		.byte	0x1
 1752 038e 0F040000 		.4byte	.LASF52
 1753 0392 01       		.byte	0x1
 1754 0393 B302     		.2byte	0x2b3
 1755 0395 01       		.byte	0x1
 1756 0396 00000000 		.4byte	.LFB13
 1757 039a 64000000 		.4byte	.LFE13
 1758 039e 84020000 		.4byte	.LLST13
 1759 03a2 01       		.byte	0x1
 1760 03a3 0C       		.uleb128 0xc
 1761 03a4 01       		.byte	0x1
 1762 03a5 B8000000 		.4byte	.LASF53
 1763 03a9 01       		.byte	0x1
 1764 03aa DD02     		.2byte	0x2dd
 1765 03ac 01       		.byte	0x1
 1766 03ad 00000000 		.4byte	.LFB14
 1767 03b1 56000000 		.4byte	.LFE14
 1768 03b5 B0020000 		.4byte	.LLST14
 1769 03b9 01       		.byte	0x1
 1770 03ba CE030000 		.4byte	0x3ce
 1771 03be 11       		.uleb128 0x11
 1772 03bf 42000000 		.4byte	.LASF76
 1773 03c3 01       		.byte	0x1
 1774 03c4 DD02     		.2byte	0x2dd
 1775 03c6 6F000000 		.4byte	0x6f
 1776 03ca 02       		.byte	0x2
 1777 03cb 91       		.byte	0x91
 1778 03cc 77       		.sleb128 -9
 1779 03cd 00       		.byte	0
 1780 03ce 12       		.uleb128 0x12
 1781 03cf 01       		.byte	0x1
 1782 03d0 9D030000 		.4byte	.LASF54
 1783 03d4 01       		.byte	0x1
ARM GAS  C:\Users\Robert\AppData\Local\Temp\ccQqeyhO.s 			page 46


 1784 03d5 0203     		.2byte	0x302
 1785 03d7 01       		.byte	0x1
 1786 03d8 00000000 		.4byte	.LFB15
 1787 03dc 46000000 		.4byte	.LFE15
 1788 03e0 E8020000 		.4byte	.LLST15
 1789 03e4 01       		.byte	0x1
 1790 03e5 13       		.uleb128 0x13
 1791 03e6 4E040000 		.4byte	.LASF55
 1792 03ea 01       		.byte	0x1
 1793 03eb 22       		.byte	0x22
 1794 03ec A5000000 		.4byte	0xa5
 1795 03f0 01       		.byte	0x1
 1796 03f1 05       		.byte	0x5
 1797 03f2 03       		.byte	0x3
 1798 03f3 00000000 		.4byte	USBFS_device
 1799 03f7 13       		.uleb128 0x13
 1800 03f8 7B030000 		.4byte	.LASF56
 1801 03fc 01       		.byte	0x1
 1802 03fd 2C       		.byte	0x2c
 1803 03fe A5000000 		.4byte	0xa5
 1804 0402 01       		.byte	0x1
 1805 0403 05       		.byte	0x5
 1806 0404 03       		.byte	0x3
 1807 0405 00000000 		.4byte	USBFS_transferState
 1808 0409 13       		.uleb128 0x13
 1809 040a 4D010000 		.4byte	.LASF57
 1810 040e 01       		.byte	0x1
 1811 040f 1A       		.byte	0x1a
 1812 0410 A5000000 		.4byte	0xa5
 1813 0414 01       		.byte	0x1
 1814 0415 05       		.byte	0x5
 1815 0416 03       		.byte	0x3
 1816 0417 00000000 		.4byte	USBFS_configuration
 1817 041b 13       		.uleb128 0x13
 1818 041c 09020000 		.4byte	.LASF58
 1819 0420 01       		.byte	0x1
 1820 0421 1C       		.byte	0x1c
 1821 0422 A5000000 		.4byte	0xa5
 1822 0426 01       		.byte	0x1
 1823 0427 05       		.byte	0x5
 1824 0428 03       		.byte	0x3
 1825 0429 00000000 		.4byte	USBFS_configurationChanged
 1826 042d 13       		.uleb128 0x13
 1827 042e B8040000 		.4byte	.LASF59
 1828 0432 01       		.byte	0x1
 1829 0433 1E       		.byte	0x1e
 1830 0434 A5000000 		.4byte	0xa5
 1831 0438 01       		.byte	0x1
 1832 0439 05       		.byte	0x5
 1833 043a 03       		.byte	0x3
 1834 043b 00000000 		.4byte	USBFS_deviceStatus
 1835 043f 13       		.uleb128 0x13
 1836 0440 E4000000 		.4byte	.LASF60
 1837 0444 01       		.byte	0x1
 1838 0445 1B       		.byte	0x1b
 1839 0446 A5000000 		.4byte	0xa5
 1840 044a 01       		.byte	0x1
ARM GAS  C:\Users\Robert\AppData\Local\Temp\ccQqeyhO.s 			page 47


 1841 044b 05       		.byte	0x5
 1842 044c 03       		.byte	0x3
 1843 044d 00000000 		.4byte	USBFS_interfaceNumber
 1844 0451 14       		.uleb128 0x14
 1845 0452 6F000000 		.4byte	0x6f
 1846 0456 61040000 		.4byte	0x461
 1847 045a 15       		.uleb128 0x15
 1848 045b AF000000 		.4byte	0xaf
 1849 045f 00       		.byte	0
 1850 0460 00       		.byte	0
 1851 0461 13       		.uleb128 0x13
 1852 0462 E3030000 		.4byte	.LASF61
 1853 0466 01       		.byte	0x1
 1854 0467 1F       		.byte	0x1f
 1855 0468 73040000 		.4byte	0x473
 1856 046c 01       		.byte	0x1
 1857 046d 05       		.byte	0x5
 1858 046e 03       		.byte	0x3
 1859 046f 00000000 		.4byte	USBFS_interfaceSetting
 1860 0473 05       		.uleb128 0x5
 1861 0474 51040000 		.4byte	0x451
 1862 0478 13       		.uleb128 0x13
 1863 0479 CB040000 		.4byte	.LASF62
 1864 047d 01       		.byte	0x1
 1865 047e 20       		.byte	0x20
 1866 047f 8A040000 		.4byte	0x48a
 1867 0483 01       		.byte	0x1
 1868 0484 05       		.byte	0x5
 1869 0485 03       		.byte	0x3
 1870 0486 00000000 		.4byte	USBFS_interfaceSetting_last
 1871 048a 05       		.uleb128 0x5
 1872 048b 51040000 		.4byte	0x451
 1873 048f 13       		.uleb128 0x13
 1874 0490 D0000000 		.4byte	.LASF63
 1875 0494 01       		.byte	0x1
 1876 0495 1D       		.byte	0x1d
 1877 0496 A5000000 		.4byte	0xa5
 1878 049a 01       		.byte	0x1
 1879 049b 05       		.byte	0x5
 1880 049c 03       		.byte	0x3
 1881 049d 00000000 		.4byte	USBFS_deviceAddress
 1882 04a1 13       		.uleb128 0x13
 1883 04a2 0A050000 		.4byte	.LASF64
 1884 04a6 01       		.byte	0x1
 1885 04a7 21       		.byte	0x21
 1886 04a8 B3040000 		.4byte	0x4b3
 1887 04ac 01       		.byte	0x1
 1888 04ad 05       		.byte	0x5
 1889 04ae 03       		.byte	0x3
 1890 04af 00000000 		.4byte	USBFS_interfaceStatus
 1891 04b3 05       		.uleb128 0x5
 1892 04b4 51040000 		.4byte	0x451
 1893 04b8 13       		.uleb128 0x13
 1894 04b9 24020000 		.4byte	.LASF65
 1895 04bd 01       		.byte	0x1
 1896 04be 23       		.byte	0x23
 1897 04bf CA040000 		.4byte	0x4ca
ARM GAS  C:\Users\Robert\AppData\Local\Temp\ccQqeyhO.s 			page 48


 1898 04c3 01       		.byte	0x1
 1899 04c4 05       		.byte	0x5
 1900 04c5 03       		.byte	0x3
 1901 04c6 00000000 		.4byte	USBFS_interfaceClass
 1902 04ca 08       		.uleb128 0x8
 1903 04cb 04       		.byte	0x4
 1904 04cc D0040000 		.4byte	0x4d0
 1905 04d0 16       		.uleb128 0x16
 1906 04d1 6F000000 		.4byte	0x6f
 1907 04d5 14       		.uleb128 0x14
 1908 04d6 3D010000 		.4byte	0x13d
 1909 04da E5040000 		.4byte	0x4e5
 1910 04de 15       		.uleb128 0x15
 1911 04df AF000000 		.4byte	0xaf
 1912 04e3 08       		.byte	0x8
 1913 04e4 00       		.byte	0
 1914 04e5 13       		.uleb128 0x13
 1915 04e6 24030000 		.4byte	.LASF66
 1916 04ea 01       		.byte	0x1
 1917 04eb 19       		.byte	0x19
 1918 04ec F7040000 		.4byte	0x4f7
 1919 04f0 01       		.byte	0x1
 1920 04f1 05       		.byte	0x5
 1921 04f2 03       		.byte	0x3
 1922 04f3 00000000 		.4byte	USBFS_EP
 1923 04f7 05       		.uleb128 0x5
 1924 04f8 D5040000 		.4byte	0x4d5
 1925 04fc 13       		.uleb128 0x13
 1926 04fd 29000000 		.4byte	.LASF67
 1927 0501 01       		.byte	0x1
 1928 0502 2D       		.byte	0x2d
 1929 0503 0E050000 		.4byte	0x50e
 1930 0507 01       		.byte	0x1
 1931 0508 05       		.byte	0x5
 1932 0509 03       		.byte	0x3
 1933 050a 00000000 		.4byte	USBFS_currentTD
 1934 050e 05       		.uleb128 0x5
 1935 050f B7010000 		.4byte	0x1b7
 1936 0513 13       		.uleb128 0x13
 1937 0514 5B040000 		.4byte	.LASF68
 1938 0518 01       		.byte	0x1
 1939 0519 2A       		.byte	0x2a
 1940 051a A5000000 		.4byte	0xa5
 1941 051e 01       		.byte	0x1
 1942 051f 05       		.byte	0x5
 1943 0520 03       		.byte	0x3
 1944 0521 00000000 		.4byte	USBFS_ep0Toggle
 1945 0525 13       		.uleb128 0x13
 1946 0526 CE030000 		.4byte	.LASF69
 1947 052a 01       		.byte	0x1
 1948 052b 2B       		.byte	0x2b
 1949 052c A5000000 		.4byte	0xa5
 1950 0530 01       		.byte	0x1
 1951 0531 05       		.byte	0x5
 1952 0532 03       		.byte	0x3
 1953 0533 00000000 		.4byte	USBFS_lastPacketSize
 1954 0537 13       		.uleb128 0x13
ARM GAS  C:\Users\Robert\AppData\Local\Temp\ccQqeyhO.s 			page 49


 1955 0538 5C020000 		.4byte	.LASF70
 1956 053c 01       		.byte	0x1
 1957 053d 2E       		.byte	0x2e
 1958 053e A5000000 		.4byte	0xa5
 1959 0542 01       		.byte	0x1
 1960 0543 05       		.byte	0x5
 1961 0544 03       		.byte	0x3
 1962 0545 00000000 		.4byte	USBFS_ep0Mode
 1963 0549 13       		.uleb128 0x13
 1964 054a 71020000 		.4byte	.LASF71
 1965 054e 01       		.byte	0x1
 1966 054f 2F       		.byte	0x2f
 1967 0550 A5000000 		.4byte	0xa5
 1968 0554 01       		.byte	0x1
 1969 0555 05       		.byte	0x5
 1970 0556 03       		.byte	0x3
 1971 0557 00000000 		.4byte	USBFS_ep0Count
 1972 055b 13       		.uleb128 0x13
 1973 055c E7010000 		.4byte	.LASF72
 1974 0560 01       		.byte	0x1
 1975 0561 30       		.byte	0x30
 1976 0562 AA000000 		.4byte	0xaa
 1977 0566 01       		.byte	0x1
 1978 0567 05       		.byte	0x5
 1979 0568 03       		.byte	0x3
 1980 0569 00000000 		.4byte	USBFS_transferByteCount
 1981 056d 00       		.byte	0
 1982              		.section	.debug_abbrev,"",%progbits
 1983              	.Ldebug_abbrev0:
 1984 0000 01       		.uleb128 0x1
 1985 0001 11       		.uleb128 0x11
 1986 0002 01       		.byte	0x1
 1987 0003 25       		.uleb128 0x25
 1988 0004 0E       		.uleb128 0xe
 1989 0005 13       		.uleb128 0x13
 1990 0006 0B       		.uleb128 0xb
 1991 0007 03       		.uleb128 0x3
 1992 0008 0E       		.uleb128 0xe
 1993 0009 1B       		.uleb128 0x1b
 1994 000a 0E       		.uleb128 0xe
 1995 000b 55       		.uleb128 0x55
 1996 000c 06       		.uleb128 0x6
 1997 000d 11       		.uleb128 0x11
 1998 000e 01       		.uleb128 0x1
 1999 000f 52       		.uleb128 0x52
 2000 0010 01       		.uleb128 0x1
 2001 0011 10       		.uleb128 0x10
 2002 0012 06       		.uleb128 0x6
 2003 0013 00       		.byte	0
 2004 0014 00       		.byte	0
 2005 0015 02       		.uleb128 0x2
 2006 0016 24       		.uleb128 0x24
 2007 0017 00       		.byte	0
 2008 0018 0B       		.uleb128 0xb
 2009 0019 0B       		.uleb128 0xb
 2010 001a 3E       		.uleb128 0x3e
 2011 001b 0B       		.uleb128 0xb
ARM GAS  C:\Users\Robert\AppData\Local\Temp\ccQqeyhO.s 			page 50


 2012 001c 03       		.uleb128 0x3
 2013 001d 0E       		.uleb128 0xe
 2014 001e 00       		.byte	0
 2015 001f 00       		.byte	0
 2016 0020 03       		.uleb128 0x3
 2017 0021 24       		.uleb128 0x24
 2018 0022 00       		.byte	0
 2019 0023 0B       		.uleb128 0xb
 2020 0024 0B       		.uleb128 0xb
 2021 0025 3E       		.uleb128 0x3e
 2022 0026 0B       		.uleb128 0xb
 2023 0027 03       		.uleb128 0x3
 2024 0028 08       		.uleb128 0x8
 2025 0029 00       		.byte	0
 2026 002a 00       		.byte	0
 2027 002b 04       		.uleb128 0x4
 2028 002c 16       		.uleb128 0x16
 2029 002d 00       		.byte	0
 2030 002e 03       		.uleb128 0x3
 2031 002f 0E       		.uleb128 0xe
 2032 0030 3A       		.uleb128 0x3a
 2033 0031 0B       		.uleb128 0xb
 2034 0032 3B       		.uleb128 0x3b
 2035 0033 0B       		.uleb128 0xb
 2036 0034 49       		.uleb128 0x49
 2037 0035 13       		.uleb128 0x13
 2038 0036 00       		.byte	0
 2039 0037 00       		.byte	0
 2040 0038 05       		.uleb128 0x5
 2041 0039 35       		.uleb128 0x35
 2042 003a 00       		.byte	0
 2043 003b 49       		.uleb128 0x49
 2044 003c 13       		.uleb128 0x13
 2045 003d 00       		.byte	0
 2046 003e 00       		.byte	0
 2047 003f 06       		.uleb128 0x6
 2048 0040 13       		.uleb128 0x13
 2049 0041 01       		.byte	0x1
 2050 0042 0B       		.uleb128 0xb
 2051 0043 0B       		.uleb128 0xb
 2052 0044 3A       		.uleb128 0x3a
 2053 0045 0B       		.uleb128 0xb
 2054 0046 3B       		.uleb128 0x3b
 2055 0047 0B       		.uleb128 0xb
 2056 0048 01       		.uleb128 0x1
 2057 0049 13       		.uleb128 0x13
 2058 004a 00       		.byte	0
 2059 004b 00       		.byte	0
 2060 004c 07       		.uleb128 0x7
 2061 004d 0D       		.uleb128 0xd
 2062 004e 00       		.byte	0
 2063 004f 03       		.uleb128 0x3
 2064 0050 0E       		.uleb128 0xe
 2065 0051 3A       		.uleb128 0x3a
 2066 0052 0B       		.uleb128 0xb
 2067 0053 3B       		.uleb128 0x3b
 2068 0054 0B       		.uleb128 0xb
ARM GAS  C:\Users\Robert\AppData\Local\Temp\ccQqeyhO.s 			page 51


 2069 0055 49       		.uleb128 0x49
 2070 0056 13       		.uleb128 0x13
 2071 0057 38       		.uleb128 0x38
 2072 0058 0A       		.uleb128 0xa
 2073 0059 00       		.byte	0
 2074 005a 00       		.byte	0
 2075 005b 08       		.uleb128 0x8
 2076 005c 0F       		.uleb128 0xf
 2077 005d 00       		.byte	0
 2078 005e 0B       		.uleb128 0xb
 2079 005f 0B       		.uleb128 0xb
 2080 0060 49       		.uleb128 0x49
 2081 0061 13       		.uleb128 0x13
 2082 0062 00       		.byte	0
 2083 0063 00       		.byte	0
 2084 0064 09       		.uleb128 0x9
 2085 0065 2E       		.uleb128 0x2e
 2086 0066 01       		.byte	0x1
 2087 0067 3F       		.uleb128 0x3f
 2088 0068 0C       		.uleb128 0xc
 2089 0069 03       		.uleb128 0x3
 2090 006a 0E       		.uleb128 0xe
 2091 006b 3A       		.uleb128 0x3a
 2092 006c 0B       		.uleb128 0xb
 2093 006d 3B       		.uleb128 0x3b
 2094 006e 0B       		.uleb128 0xb
 2095 006f 27       		.uleb128 0x27
 2096 0070 0C       		.uleb128 0xc
 2097 0071 11       		.uleb128 0x11
 2098 0072 01       		.uleb128 0x1
 2099 0073 12       		.uleb128 0x12
 2100 0074 01       		.uleb128 0x1
 2101 0075 40       		.uleb128 0x40
 2102 0076 06       		.uleb128 0x6
 2103 0077 9642     		.uleb128 0x2116
 2104 0079 0C       		.uleb128 0xc
 2105 007a 01       		.uleb128 0x1
 2106 007b 13       		.uleb128 0x13
 2107 007c 00       		.byte	0
 2108 007d 00       		.byte	0
 2109 007e 0A       		.uleb128 0xa
 2110 007f 34       		.uleb128 0x34
 2111 0080 00       		.byte	0
 2112 0081 03       		.uleb128 0x3
 2113 0082 0E       		.uleb128 0xe
 2114 0083 3A       		.uleb128 0x3a
 2115 0084 0B       		.uleb128 0xb
 2116 0085 3B       		.uleb128 0x3b
 2117 0086 0B       		.uleb128 0xb
 2118 0087 49       		.uleb128 0x49
 2119 0088 13       		.uleb128 0x13
 2120 0089 02       		.uleb128 0x2
 2121 008a 0A       		.uleb128 0xa
 2122 008b 00       		.byte	0
 2123 008c 00       		.byte	0
 2124 008d 0B       		.uleb128 0xb
 2125 008e 2E       		.uleb128 0x2e
ARM GAS  C:\Users\Robert\AppData\Local\Temp\ccQqeyhO.s 			page 52


 2126 008f 00       		.byte	0
 2127 0090 3F       		.uleb128 0x3f
 2128 0091 0C       		.uleb128 0xc
 2129 0092 03       		.uleb128 0x3
 2130 0093 0E       		.uleb128 0xe
 2131 0094 3A       		.uleb128 0x3a
 2132 0095 0B       		.uleb128 0xb
 2133 0096 3B       		.uleb128 0x3b
 2134 0097 0B       		.uleb128 0xb
 2135 0098 27       		.uleb128 0x27
 2136 0099 0C       		.uleb128 0xc
 2137 009a 11       		.uleb128 0x11
 2138 009b 01       		.uleb128 0x1
 2139 009c 12       		.uleb128 0x12
 2140 009d 01       		.uleb128 0x1
 2141 009e 40       		.uleb128 0x40
 2142 009f 06       		.uleb128 0x6
 2143 00a0 9642     		.uleb128 0x2116
 2144 00a2 0C       		.uleb128 0xc
 2145 00a3 00       		.byte	0
 2146 00a4 00       		.byte	0
 2147 00a5 0C       		.uleb128 0xc
 2148 00a6 2E       		.uleb128 0x2e
 2149 00a7 01       		.byte	0x1
 2150 00a8 3F       		.uleb128 0x3f
 2151 00a9 0C       		.uleb128 0xc
 2152 00aa 03       		.uleb128 0x3
 2153 00ab 0E       		.uleb128 0xe
 2154 00ac 3A       		.uleb128 0x3a
 2155 00ad 0B       		.uleb128 0xb
 2156 00ae 3B       		.uleb128 0x3b
 2157 00af 05       		.uleb128 0x5
 2158 00b0 27       		.uleb128 0x27
 2159 00b1 0C       		.uleb128 0xc
 2160 00b2 11       		.uleb128 0x11
 2161 00b3 01       		.uleb128 0x1
 2162 00b4 12       		.uleb128 0x12
 2163 00b5 01       		.uleb128 0x1
 2164 00b6 40       		.uleb128 0x40
 2165 00b7 06       		.uleb128 0x6
 2166 00b8 9742     		.uleb128 0x2117
 2167 00ba 0C       		.uleb128 0xc
 2168 00bb 01       		.uleb128 0x1
 2169 00bc 13       		.uleb128 0x13
 2170 00bd 00       		.byte	0
 2171 00be 00       		.byte	0
 2172 00bf 0D       		.uleb128 0xd
 2173 00c0 34       		.uleb128 0x34
 2174 00c1 00       		.byte	0
 2175 00c2 03       		.uleb128 0x3
 2176 00c3 0E       		.uleb128 0xe
 2177 00c4 3A       		.uleb128 0x3a
 2178 00c5 0B       		.uleb128 0xb
 2179 00c6 3B       		.uleb128 0x3b
 2180 00c7 05       		.uleb128 0x5
 2181 00c8 49       		.uleb128 0x49
 2182 00c9 13       		.uleb128 0x13
ARM GAS  C:\Users\Robert\AppData\Local\Temp\ccQqeyhO.s 			page 53


 2183 00ca 02       		.uleb128 0x2
 2184 00cb 0A       		.uleb128 0xa
 2185 00cc 00       		.byte	0
 2186 00cd 00       		.byte	0
 2187 00ce 0E       		.uleb128 0xe
 2188 00cf 2E       		.uleb128 0x2e
 2189 00d0 01       		.byte	0x1
 2190 00d1 3F       		.uleb128 0x3f
 2191 00d2 0C       		.uleb128 0xc
 2192 00d3 03       		.uleb128 0x3
 2193 00d4 0E       		.uleb128 0xe
 2194 00d5 3A       		.uleb128 0x3a
 2195 00d6 0B       		.uleb128 0xb
 2196 00d7 3B       		.uleb128 0x3b
 2197 00d8 05       		.uleb128 0x5
 2198 00d9 27       		.uleb128 0x27
 2199 00da 0C       		.uleb128 0xc
 2200 00db 49       		.uleb128 0x49
 2201 00dc 13       		.uleb128 0x13
 2202 00dd 11       		.uleb128 0x11
 2203 00de 01       		.uleb128 0x1
 2204 00df 12       		.uleb128 0x12
 2205 00e0 01       		.uleb128 0x1
 2206 00e1 40       		.uleb128 0x40
 2207 00e2 06       		.uleb128 0x6
 2208 00e3 9642     		.uleb128 0x2116
 2209 00e5 0C       		.uleb128 0xc
 2210 00e6 01       		.uleb128 0x1
 2211 00e7 13       		.uleb128 0x13
 2212 00e8 00       		.byte	0
 2213 00e9 00       		.byte	0
 2214 00ea 0F       		.uleb128 0xf
 2215 00eb 2E       		.uleb128 0x2e
 2216 00ec 00       		.byte	0
 2217 00ed 3F       		.uleb128 0x3f
 2218 00ee 0C       		.uleb128 0xc
 2219 00ef 03       		.uleb128 0x3
 2220 00f0 0E       		.uleb128 0xe
 2221 00f1 3A       		.uleb128 0x3a
 2222 00f2 0B       		.uleb128 0xb
 2223 00f3 3B       		.uleb128 0x3b
 2224 00f4 05       		.uleb128 0x5
 2225 00f5 27       		.uleb128 0x27
 2226 00f6 0C       		.uleb128 0xc
 2227 00f7 49       		.uleb128 0x49
 2228 00f8 13       		.uleb128 0x13
 2229 00f9 11       		.uleb128 0x11
 2230 00fa 01       		.uleb128 0x1
 2231 00fb 12       		.uleb128 0x12
 2232 00fc 01       		.uleb128 0x1
 2233 00fd 40       		.uleb128 0x40
 2234 00fe 06       		.uleb128 0x6
 2235 00ff 9742     		.uleb128 0x2117
 2236 0101 0C       		.uleb128 0xc
 2237 0102 00       		.byte	0
 2238 0103 00       		.byte	0
 2239 0104 10       		.uleb128 0x10
ARM GAS  C:\Users\Robert\AppData\Local\Temp\ccQqeyhO.s 			page 54


 2240 0105 2E       		.uleb128 0x2e
 2241 0106 00       		.byte	0
 2242 0107 3F       		.uleb128 0x3f
 2243 0108 0C       		.uleb128 0xc
 2244 0109 03       		.uleb128 0x3
 2245 010a 0E       		.uleb128 0xe
 2246 010b 3A       		.uleb128 0x3a
 2247 010c 0B       		.uleb128 0xb
 2248 010d 3B       		.uleb128 0x3b
 2249 010e 05       		.uleb128 0x5
 2250 010f 27       		.uleb128 0x27
 2251 0110 0C       		.uleb128 0xc
 2252 0111 11       		.uleb128 0x11
 2253 0112 01       		.uleb128 0x1
 2254 0113 12       		.uleb128 0x12
 2255 0114 01       		.uleb128 0x1
 2256 0115 40       		.uleb128 0x40
 2257 0116 06       		.uleb128 0x6
 2258 0117 9642     		.uleb128 0x2116
 2259 0119 0C       		.uleb128 0xc
 2260 011a 00       		.byte	0
 2261 011b 00       		.byte	0
 2262 011c 11       		.uleb128 0x11
 2263 011d 05       		.uleb128 0x5
 2264 011e 00       		.byte	0
 2265 011f 03       		.uleb128 0x3
 2266 0120 0E       		.uleb128 0xe
 2267 0121 3A       		.uleb128 0x3a
 2268 0122 0B       		.uleb128 0xb
 2269 0123 3B       		.uleb128 0x3b
 2270 0124 05       		.uleb128 0x5
 2271 0125 49       		.uleb128 0x49
 2272 0126 13       		.uleb128 0x13
 2273 0127 02       		.uleb128 0x2
 2274 0128 0A       		.uleb128 0xa
 2275 0129 00       		.byte	0
 2276 012a 00       		.byte	0
 2277 012b 12       		.uleb128 0x12
 2278 012c 2E       		.uleb128 0x2e
 2279 012d 00       		.byte	0
 2280 012e 3F       		.uleb128 0x3f
 2281 012f 0C       		.uleb128 0xc
 2282 0130 03       		.uleb128 0x3
 2283 0131 0E       		.uleb128 0xe
 2284 0132 3A       		.uleb128 0x3a
 2285 0133 0B       		.uleb128 0xb
 2286 0134 3B       		.uleb128 0x3b
 2287 0135 05       		.uleb128 0x5
 2288 0136 27       		.uleb128 0x27
 2289 0137 0C       		.uleb128 0xc
 2290 0138 11       		.uleb128 0x11
 2291 0139 01       		.uleb128 0x1
 2292 013a 12       		.uleb128 0x12
 2293 013b 01       		.uleb128 0x1
 2294 013c 40       		.uleb128 0x40
 2295 013d 06       		.uleb128 0x6
 2296 013e 9742     		.uleb128 0x2117
ARM GAS  C:\Users\Robert\AppData\Local\Temp\ccQqeyhO.s 			page 55


 2297 0140 0C       		.uleb128 0xc
 2298 0141 00       		.byte	0
 2299 0142 00       		.byte	0
 2300 0143 13       		.uleb128 0x13
 2301 0144 34       		.uleb128 0x34
 2302 0145 00       		.byte	0
 2303 0146 03       		.uleb128 0x3
 2304 0147 0E       		.uleb128 0xe
 2305 0148 3A       		.uleb128 0x3a
 2306 0149 0B       		.uleb128 0xb
 2307 014a 3B       		.uleb128 0x3b
 2308 014b 0B       		.uleb128 0xb
 2309 014c 49       		.uleb128 0x49
 2310 014d 13       		.uleb128 0x13
 2311 014e 3F       		.uleb128 0x3f
 2312 014f 0C       		.uleb128 0xc
 2313 0150 02       		.uleb128 0x2
 2314 0151 0A       		.uleb128 0xa
 2315 0152 00       		.byte	0
 2316 0153 00       		.byte	0
 2317 0154 14       		.uleb128 0x14
 2318 0155 01       		.uleb128 0x1
 2319 0156 01       		.byte	0x1
 2320 0157 49       		.uleb128 0x49
 2321 0158 13       		.uleb128 0x13
 2322 0159 01       		.uleb128 0x1
 2323 015a 13       		.uleb128 0x13
 2324 015b 00       		.byte	0
 2325 015c 00       		.byte	0
 2326 015d 15       		.uleb128 0x15
 2327 015e 21       		.uleb128 0x21
 2328 015f 00       		.byte	0
 2329 0160 49       		.uleb128 0x49
 2330 0161 13       		.uleb128 0x13
 2331 0162 2F       		.uleb128 0x2f
 2332 0163 0B       		.uleb128 0xb
 2333 0164 00       		.byte	0
 2334 0165 00       		.byte	0
 2335 0166 16       		.uleb128 0x16
 2336 0167 26       		.uleb128 0x26
 2337 0168 00       		.byte	0
 2338 0169 49       		.uleb128 0x49
 2339 016a 13       		.uleb128 0x13
 2340 016b 00       		.byte	0
 2341 016c 00       		.byte	0
 2342 016d 00       		.byte	0
 2343              		.section	.debug_loc,"",%progbits
 2344              	.Ldebug_loc0:
 2345              	.LLST0:
 2346 0000 00000000 		.4byte	.LFB0
 2347 0004 02000000 		.4byte	.LCFI0
 2348 0008 0200     		.2byte	0x2
 2349 000a 7D       		.byte	0x7d
 2350 000b 00       		.sleb128 0
 2351 000c 02000000 		.4byte	.LCFI0
 2352 0010 04000000 		.4byte	.LCFI1
 2353 0014 0200     		.2byte	0x2
ARM GAS  C:\Users\Robert\AppData\Local\Temp\ccQqeyhO.s 			page 56


 2354 0016 7D       		.byte	0x7d
 2355 0017 08       		.sleb128 8
 2356 0018 04000000 		.4byte	.LCFI1
 2357 001c 06000000 		.4byte	.LCFI2
 2358 0020 0200     		.2byte	0x2
 2359 0022 7D       		.byte	0x7d
 2360 0023 10       		.sleb128 16
 2361 0024 06000000 		.4byte	.LCFI2
 2362 0028 3E010000 		.4byte	.LFE0
 2363 002c 0200     		.2byte	0x2
 2364 002e 77       		.byte	0x77
 2365 002f 10       		.sleb128 16
 2366 0030 00000000 		.4byte	0
 2367 0034 00000000 		.4byte	0
 2368              	.LLST1:
 2369 0038 00000000 		.4byte	.LFB1
 2370 003c 02000000 		.4byte	.LCFI3
 2371 0040 0200     		.2byte	0x2
 2372 0042 7D       		.byte	0x7d
 2373 0043 00       		.sleb128 0
 2374 0044 02000000 		.4byte	.LCFI3
 2375 0048 04000000 		.4byte	.LCFI4
 2376 004c 0200     		.2byte	0x2
 2377 004e 7D       		.byte	0x7d
 2378 004f 08       		.sleb128 8
 2379 0050 04000000 		.4byte	.LCFI4
 2380 0054 06000000 		.4byte	.LCFI5
 2381 0058 0200     		.2byte	0x2
 2382 005a 7D       		.byte	0x7d
 2383 005b 10       		.sleb128 16
 2384 005c 06000000 		.4byte	.LCFI5
 2385 0060 A6000000 		.4byte	.LFE1
 2386 0064 0200     		.2byte	0x2
 2387 0066 77       		.byte	0x77
 2388 0067 10       		.sleb128 16
 2389 0068 00000000 		.4byte	0
 2390 006c 00000000 		.4byte	0
 2391              	.LLST2:
 2392 0070 00000000 		.4byte	.LFB2
 2393 0074 02000000 		.4byte	.LCFI6
 2394 0078 0200     		.2byte	0x2
 2395 007a 7D       		.byte	0x7d
 2396 007b 00       		.sleb128 0
 2397 007c 02000000 		.4byte	.LCFI6
 2398 0080 04000000 		.4byte	.LCFI7
 2399 0084 0200     		.2byte	0x2
 2400 0086 7D       		.byte	0x7d
 2401 0087 08       		.sleb128 8
 2402 0088 04000000 		.4byte	.LCFI7
 2403 008c 4E000000 		.4byte	.LFE2
 2404 0090 0200     		.2byte	0x2
 2405 0092 77       		.byte	0x77
 2406 0093 08       		.sleb128 8
 2407 0094 00000000 		.4byte	0
 2408 0098 00000000 		.4byte	0
 2409              	.LLST3:
 2410 009c 00000000 		.4byte	.LFB3
ARM GAS  C:\Users\Robert\AppData\Local\Temp\ccQqeyhO.s 			page 57


 2411 00a0 02000000 		.4byte	.LCFI8
 2412 00a4 0200     		.2byte	0x2
 2413 00a6 7D       		.byte	0x7d
 2414 00a7 00       		.sleb128 0
 2415 00a8 02000000 		.4byte	.LCFI8
 2416 00ac 04000000 		.4byte	.LCFI9
 2417 00b0 0200     		.2byte	0x2
 2418 00b2 7D       		.byte	0x7d
 2419 00b3 08       		.sleb128 8
 2420 00b4 04000000 		.4byte	.LCFI9
 2421 00b8 60000000 		.4byte	.LFE3
 2422 00bc 0200     		.2byte	0x2
 2423 00be 77       		.byte	0x77
 2424 00bf 08       		.sleb128 8
 2425 00c0 00000000 		.4byte	0
 2426 00c4 00000000 		.4byte	0
 2427              	.LLST4:
 2428 00c8 00000000 		.4byte	.LFB4
 2429 00cc 02000000 		.4byte	.LCFI10
 2430 00d0 0200     		.2byte	0x2
 2431 00d2 7D       		.byte	0x7d
 2432 00d3 00       		.sleb128 0
 2433 00d4 02000000 		.4byte	.LCFI10
 2434 00d8 04000000 		.4byte	.LCFI11
 2435 00dc 0200     		.2byte	0x2
 2436 00de 7D       		.byte	0x7d
 2437 00df 04       		.sleb128 4
 2438 00e0 04000000 		.4byte	.LCFI11
 2439 00e4 06000000 		.4byte	.LCFI12
 2440 00e8 0200     		.2byte	0x2
 2441 00ea 7D       		.byte	0x7d
 2442 00eb 10       		.sleb128 16
 2443 00ec 06000000 		.4byte	.LCFI12
 2444 00f0 36010000 		.4byte	.LFE4
 2445 00f4 0200     		.2byte	0x2
 2446 00f6 77       		.byte	0x77
 2447 00f7 10       		.sleb128 16
 2448 00f8 00000000 		.4byte	0
 2449 00fc 00000000 		.4byte	0
 2450              	.LLST5:
 2451 0100 00000000 		.4byte	.LFB5
 2452 0104 02000000 		.4byte	.LCFI13
 2453 0108 0200     		.2byte	0x2
 2454 010a 7D       		.byte	0x7d
 2455 010b 00       		.sleb128 0
 2456 010c 02000000 		.4byte	.LCFI13
 2457 0110 04000000 		.4byte	.LCFI14
 2458 0114 0200     		.2byte	0x2
 2459 0116 7D       		.byte	0x7d
 2460 0117 08       		.sleb128 8
 2461 0118 04000000 		.4byte	.LCFI14
 2462 011c 06000000 		.4byte	.LCFI15
 2463 0120 0200     		.2byte	0x2
 2464 0122 7D       		.byte	0x7d
 2465 0123 10       		.sleb128 16
 2466 0124 06000000 		.4byte	.LCFI15
 2467 0128 90000000 		.4byte	.LFE5
ARM GAS  C:\Users\Robert\AppData\Local\Temp\ccQqeyhO.s 			page 58


 2468 012c 0200     		.2byte	0x2
 2469 012e 77       		.byte	0x77
 2470 012f 10       		.sleb128 16
 2471 0130 00000000 		.4byte	0
 2472 0134 00000000 		.4byte	0
 2473              	.LLST6:
 2474 0138 00000000 		.4byte	.LFB6
 2475 013c 02000000 		.4byte	.LCFI16
 2476 0140 0200     		.2byte	0x2
 2477 0142 7D       		.byte	0x7d
 2478 0143 00       		.sleb128 0
 2479 0144 02000000 		.4byte	.LCFI16
 2480 0148 04000000 		.4byte	.LCFI17
 2481 014c 0200     		.2byte	0x2
 2482 014e 7D       		.byte	0x7d
 2483 014f 04       		.sleb128 4
 2484 0150 04000000 		.4byte	.LCFI17
 2485 0154 56000000 		.4byte	.LFE6
 2486 0158 0200     		.2byte	0x2
 2487 015a 77       		.byte	0x77
 2488 015b 04       		.sleb128 4
 2489 015c 00000000 		.4byte	0
 2490 0160 00000000 		.4byte	0
 2491              	.LLST7:
 2492 0164 00000000 		.4byte	.LFB7
 2493 0168 02000000 		.4byte	.LCFI18
 2494 016c 0200     		.2byte	0x2
 2495 016e 7D       		.byte	0x7d
 2496 016f 00       		.sleb128 0
 2497 0170 02000000 		.4byte	.LCFI18
 2498 0174 04000000 		.4byte	.LCFI19
 2499 0178 0200     		.2byte	0x2
 2500 017a 7D       		.byte	0x7d
 2501 017b 08       		.sleb128 8
 2502 017c 04000000 		.4byte	.LCFI19
 2503 0180 0A000000 		.4byte	.LFE7
 2504 0184 0200     		.2byte	0x2
 2505 0186 77       		.byte	0x77
 2506 0187 08       		.sleb128 8
 2507 0188 00000000 		.4byte	0
 2508 018c 00000000 		.4byte	0
 2509              	.LLST8:
 2510 0190 00000000 		.4byte	.LFB8
 2511 0194 02000000 		.4byte	.LCFI20
 2512 0198 0200     		.2byte	0x2
 2513 019a 7D       		.byte	0x7d
 2514 019b 00       		.sleb128 0
 2515 019c 02000000 		.4byte	.LCFI20
 2516 01a0 04000000 		.4byte	.LCFI21
 2517 01a4 0200     		.2byte	0x2
 2518 01a6 7D       		.byte	0x7d
 2519 01a7 08       		.sleb128 8
 2520 01a8 04000000 		.4byte	.LCFI21
 2521 01ac 52000000 		.4byte	.LFE8
 2522 01b0 0200     		.2byte	0x2
 2523 01b2 77       		.byte	0x77
 2524 01b3 08       		.sleb128 8
ARM GAS  C:\Users\Robert\AppData\Local\Temp\ccQqeyhO.s 			page 59


 2525 01b4 00000000 		.4byte	0
 2526 01b8 00000000 		.4byte	0
 2527              	.LLST9:
 2528 01bc 00000000 		.4byte	.LFB9
 2529 01c0 02000000 		.4byte	.LCFI22
 2530 01c4 0200     		.2byte	0x2
 2531 01c6 7D       		.byte	0x7d
 2532 01c7 00       		.sleb128 0
 2533 01c8 02000000 		.4byte	.LCFI22
 2534 01cc 04000000 		.4byte	.LCFI23
 2535 01d0 0200     		.2byte	0x2
 2536 01d2 7D       		.byte	0x7d
 2537 01d3 08       		.sleb128 8
 2538 01d4 04000000 		.4byte	.LCFI23
 2539 01d8 06000000 		.4byte	.LCFI24
 2540 01dc 0200     		.2byte	0x2
 2541 01de 7D       		.byte	0x7d
 2542 01df 10       		.sleb128 16
 2543 01e0 06000000 		.4byte	.LCFI24
 2544 01e4 84000000 		.4byte	.LFE9
 2545 01e8 0200     		.2byte	0x2
 2546 01ea 77       		.byte	0x77
 2547 01eb 10       		.sleb128 16
 2548 01ec 00000000 		.4byte	0
 2549 01f0 00000000 		.4byte	0
 2550              	.LLST10:
 2551 01f4 00000000 		.4byte	.LFB10
 2552 01f8 02000000 		.4byte	.LCFI25
 2553 01fc 0200     		.2byte	0x2
 2554 01fe 7D       		.byte	0x7d
 2555 01ff 00       		.sleb128 0
 2556 0200 02000000 		.4byte	.LCFI25
 2557 0204 04000000 		.4byte	.LCFI26
 2558 0208 0200     		.2byte	0x2
 2559 020a 7D       		.byte	0x7d
 2560 020b 04       		.sleb128 4
 2561 020c 04000000 		.4byte	.LCFI26
 2562 0210 06000000 		.4byte	.LCFI27
 2563 0214 0200     		.2byte	0x2
 2564 0216 7D       		.byte	0x7d
 2565 0217 10       		.sleb128 16
 2566 0218 06000000 		.4byte	.LCFI27
 2567 021c FC000000 		.4byte	.LFE10
 2568 0220 0200     		.2byte	0x2
 2569 0222 77       		.byte	0x77
 2570 0223 10       		.sleb128 16
 2571 0224 00000000 		.4byte	0
 2572 0228 00000000 		.4byte	0
 2573              	.LLST11:
 2574 022c 00000000 		.4byte	.LFB11
 2575 0230 02000000 		.4byte	.LCFI28
 2576 0234 0200     		.2byte	0x2
 2577 0236 7D       		.byte	0x7d
 2578 0237 00       		.sleb128 0
 2579 0238 02000000 		.4byte	.LCFI28
 2580 023c 04000000 		.4byte	.LCFI29
 2581 0240 0200     		.2byte	0x2
ARM GAS  C:\Users\Robert\AppData\Local\Temp\ccQqeyhO.s 			page 60


 2582 0242 7D       		.byte	0x7d
 2583 0243 08       		.sleb128 8
 2584 0244 04000000 		.4byte	.LCFI29
 2585 0248 2A000000 		.4byte	.LFE11
 2586 024c 0200     		.2byte	0x2
 2587 024e 77       		.byte	0x77
 2588 024f 08       		.sleb128 8
 2589 0250 00000000 		.4byte	0
 2590 0254 00000000 		.4byte	0
 2591              	.LLST12:
 2592 0258 00000000 		.4byte	.LFB12
 2593 025c 02000000 		.4byte	.LCFI30
 2594 0260 0200     		.2byte	0x2
 2595 0262 7D       		.byte	0x7d
 2596 0263 00       		.sleb128 0
 2597 0264 02000000 		.4byte	.LCFI30
 2598 0268 04000000 		.4byte	.LCFI31
 2599 026c 0200     		.2byte	0x2
 2600 026e 7D       		.byte	0x7d
 2601 026f 04       		.sleb128 4
 2602 0270 04000000 		.4byte	.LCFI31
 2603 0274 48000000 		.4byte	.LFE12
 2604 0278 0200     		.2byte	0x2
 2605 027a 77       		.byte	0x77
 2606 027b 04       		.sleb128 4
 2607 027c 00000000 		.4byte	0
 2608 0280 00000000 		.4byte	0
 2609              	.LLST13:
 2610 0284 00000000 		.4byte	.LFB13
 2611 0288 02000000 		.4byte	.LCFI32
 2612 028c 0200     		.2byte	0x2
 2613 028e 7D       		.byte	0x7d
 2614 028f 00       		.sleb128 0
 2615 0290 02000000 		.4byte	.LCFI32
 2616 0294 04000000 		.4byte	.LCFI33
 2617 0298 0200     		.2byte	0x2
 2618 029a 7D       		.byte	0x7d
 2619 029b 08       		.sleb128 8
 2620 029c 04000000 		.4byte	.LCFI33
 2621 02a0 64000000 		.4byte	.LFE13
 2622 02a4 0200     		.2byte	0x2
 2623 02a6 77       		.byte	0x77
 2624 02a7 08       		.sleb128 8
 2625 02a8 00000000 		.4byte	0
 2626 02ac 00000000 		.4byte	0
 2627              	.LLST14:
 2628 02b0 00000000 		.4byte	.LFB14
 2629 02b4 02000000 		.4byte	.LCFI34
 2630 02b8 0200     		.2byte	0x2
 2631 02ba 7D       		.byte	0x7d
 2632 02bb 00       		.sleb128 0
 2633 02bc 02000000 		.4byte	.LCFI34
 2634 02c0 04000000 		.4byte	.LCFI35
 2635 02c4 0200     		.2byte	0x2
 2636 02c6 7D       		.byte	0x7d
 2637 02c7 04       		.sleb128 4
 2638 02c8 04000000 		.4byte	.LCFI35
ARM GAS  C:\Users\Robert\AppData\Local\Temp\ccQqeyhO.s 			page 61


 2639 02cc 06000000 		.4byte	.LCFI36
 2640 02d0 0200     		.2byte	0x2
 2641 02d2 7D       		.byte	0x7d
 2642 02d3 10       		.sleb128 16
 2643 02d4 06000000 		.4byte	.LCFI36
 2644 02d8 56000000 		.4byte	.LFE14
 2645 02dc 0200     		.2byte	0x2
 2646 02de 77       		.byte	0x77
 2647 02df 10       		.sleb128 16
 2648 02e0 00000000 		.4byte	0
 2649 02e4 00000000 		.4byte	0
 2650              	.LLST15:
 2651 02e8 00000000 		.4byte	.LFB15
 2652 02ec 02000000 		.4byte	.LCFI37
 2653 02f0 0200     		.2byte	0x2
 2654 02f2 7D       		.byte	0x7d
 2655 02f3 00       		.sleb128 0
 2656 02f4 02000000 		.4byte	.LCFI37
 2657 02f8 04000000 		.4byte	.LCFI38
 2658 02fc 0200     		.2byte	0x2
 2659 02fe 7D       		.byte	0x7d
 2660 02ff 04       		.sleb128 4
 2661 0300 04000000 		.4byte	.LCFI38
 2662 0304 46000000 		.4byte	.LFE15
 2663 0308 0200     		.2byte	0x2
 2664 030a 77       		.byte	0x77
 2665 030b 04       		.sleb128 4
 2666 030c 00000000 		.4byte	0
 2667 0310 00000000 		.4byte	0
 2668              		.section	.debug_aranges,"",%progbits
 2669 0000 94000000 		.4byte	0x94
 2670 0004 0200     		.2byte	0x2
 2671 0006 00000000 		.4byte	.Ldebug_info0
 2672 000a 04       		.byte	0x4
 2673 000b 00       		.byte	0
 2674 000c 0000     		.2byte	0
 2675 000e 0000     		.2byte	0
 2676 0010 00000000 		.4byte	.LFB0
 2677 0014 3E010000 		.4byte	.LFE0-.LFB0
 2678 0018 00000000 		.4byte	.LFB1
 2679 001c A6000000 		.4byte	.LFE1-.LFB1
 2680 0020 00000000 		.4byte	.LFB2
 2681 0024 4E000000 		.4byte	.LFE2-.LFB2
 2682 0028 00000000 		.4byte	.LFB3
 2683 002c 60000000 		.4byte	.LFE3-.LFB3
 2684 0030 00000000 		.4byte	.LFB4
 2685 0034 36010000 		.4byte	.LFE4-.LFB4
 2686 0038 00000000 		.4byte	.LFB5
 2687 003c 90000000 		.4byte	.LFE5-.LFB5
 2688 0040 00000000 		.4byte	.LFB6
 2689 0044 56000000 		.4byte	.LFE6-.LFB6
 2690 0048 00000000 		.4byte	.LFB7
 2691 004c 0A000000 		.4byte	.LFE7-.LFB7
 2692 0050 00000000 		.4byte	.LFB8
 2693 0054 52000000 		.4byte	.LFE8-.LFB8
 2694 0058 00000000 		.4byte	.LFB9
 2695 005c 84000000 		.4byte	.LFE9-.LFB9
ARM GAS  C:\Users\Robert\AppData\Local\Temp\ccQqeyhO.s 			page 62


 2696 0060 00000000 		.4byte	.LFB10
 2697 0064 FC000000 		.4byte	.LFE10-.LFB10
 2698 0068 00000000 		.4byte	.LFB11
 2699 006c 2A000000 		.4byte	.LFE11-.LFB11
 2700 0070 00000000 		.4byte	.LFB12
 2701 0074 48000000 		.4byte	.LFE12-.LFB12
 2702 0078 00000000 		.4byte	.LFB13
 2703 007c 64000000 		.4byte	.LFE13-.LFB13
 2704 0080 00000000 		.4byte	.LFB14
 2705 0084 56000000 		.4byte	.LFE14-.LFB14
 2706 0088 00000000 		.4byte	.LFB15
 2707 008c 46000000 		.4byte	.LFE15-.LFB15
 2708 0090 00000000 		.4byte	0
 2709 0094 00000000 		.4byte	0
 2710              		.section	.debug_ranges,"",%progbits
 2711              	.Ldebug_ranges0:
 2712 0000 00000000 		.4byte	.LFB0
 2713 0004 3E010000 		.4byte	.LFE0
 2714 0008 00000000 		.4byte	.LFB1
 2715 000c A6000000 		.4byte	.LFE1
 2716 0010 00000000 		.4byte	.LFB2
 2717 0014 4E000000 		.4byte	.LFE2
 2718 0018 00000000 		.4byte	.LFB3
 2719 001c 60000000 		.4byte	.LFE3
 2720 0020 00000000 		.4byte	.LFB4
 2721 0024 36010000 		.4byte	.LFE4
 2722 0028 00000000 		.4byte	.LFB5
 2723 002c 90000000 		.4byte	.LFE5
 2724 0030 00000000 		.4byte	.LFB6
 2725 0034 56000000 		.4byte	.LFE6
 2726 0038 00000000 		.4byte	.LFB7
 2727 003c 0A000000 		.4byte	.LFE7
 2728 0040 00000000 		.4byte	.LFB8
 2729 0044 52000000 		.4byte	.LFE8
 2730 0048 00000000 		.4byte	.LFB9
 2731 004c 84000000 		.4byte	.LFE9
 2732 0050 00000000 		.4byte	.LFB10
 2733 0054 FC000000 		.4byte	.LFE10
 2734 0058 00000000 		.4byte	.LFB11
 2735 005c 2A000000 		.4byte	.LFE11
 2736 0060 00000000 		.4byte	.LFB12
 2737 0064 48000000 		.4byte	.LFE12
 2738 0068 00000000 		.4byte	.LFB13
 2739 006c 64000000 		.4byte	.LFE13
 2740 0070 00000000 		.4byte	.LFB14
 2741 0074 56000000 		.4byte	.LFE14
 2742 0078 00000000 		.4byte	.LFB15
 2743 007c 46000000 		.4byte	.LFE15
 2744 0080 00000000 		.4byte	0
 2745 0084 00000000 		.4byte	0
 2746              		.section	.debug_line,"",%progbits
 2747              	.Ldebug_line0:
 2748 0000 1A020000 		.section	.debug_str,"MS",%progbits,1
 2748      02005300 
 2748      00000201 
 2748      FB0E0D00 
 2748      01010101 
ARM GAS  C:\Users\Robert\AppData\Local\Temp\ccQqeyhO.s 			page 63


 2749              	.LASF31:
 2750 0000 70537461 		.ascii	"pStatusBlock\000"
 2750      74757342 
 2750      6C6F636B 
 2750      00
 2751              	.LASF29:
 2752 000d 636F756E 		.ascii	"count\000"
 2752      7400
 2753              	.LASF10:
 2754 0013 75696E74 		.ascii	"uint16\000"
 2754      313600
 2755              	.LASF35:
 2756 001a 55534246 		.ascii	"USBFS_EP_0_ISR\000"
 2756      535F4550 
 2756      5F305F49 
 2756      535200
 2757              	.LASF67:
 2758 0029 55534246 		.ascii	"USBFS_currentTD\000"
 2758      535F6375 
 2758      7272656E 
 2758      74544400 
 2759              	.LASF48:
 2760 0039 72656749 		.ascii	"regIndex\000"
 2760      6E646578 
 2760      00
 2761              	.LASF76:
 2762 0042 636F6D70 		.ascii	"completionCode\000"
 2762      6C657469 
 2762      6F6E436F 
 2762      646500
 2763              	.LASF45:
 2764 0051 55534246 		.ascii	"USBFS_InitControlRead\000"
 2764      535F496E 
 2764      6974436F 
 2764      6E74726F 
 2764      6C526561 
 2765              	.LASF7:
 2766 0067 6C6F6E67 		.ascii	"long long unsigned int\000"
 2766      206C6F6E 
 2766      6720756E 
 2766      7369676E 
 2766      65642069 
 2767              	.LASF20:
 2768 007e 61646472 		.ascii	"addr\000"
 2768      00
 2769              	.LASF43:
 2770 0083 55534246 		.ascii	"USBFS_ControlReadDataStage\000"
 2770      535F436F 
 2770      6E74726F 
 2770      6C526561 
 2770      64446174 
 2771              	.LASF6:
 2772 009e 6C6F6E67 		.ascii	"long long int\000"
 2772      206C6F6E 
 2772      6720696E 
 2772      7400
 2773              	.LASF0:
ARM GAS  C:\Users\Robert\AppData\Local\Temp\ccQqeyhO.s 			page 64


 2774 00ac 7369676E 		.ascii	"signed char\000"
 2774      65642063 
 2774      68617200 
 2775              	.LASF53:
 2776 00b8 55534246 		.ascii	"USBFS_UpdateStatusBlock\000"
 2776      535F5570 
 2776      64617465 
 2776      53746174 
 2776      7573426C 
 2777              	.LASF63:
 2778 00d0 55534246 		.ascii	"USBFS_deviceAddress\000"
 2778      535F6465 
 2778      76696365 
 2778      41646472 
 2778      65737300 
 2779              	.LASF60:
 2780 00e4 55534246 		.ascii	"USBFS_interfaceNumber\000"
 2780      535F696E 
 2780      74657266 
 2780      6163654E 
 2780      756D6265 
 2781              	.LASF4:
 2782 00fa 6C6F6E67 		.ascii	"long int\000"
 2782      20696E74 
 2782      00
 2783              	.LASF9:
 2784 0103 75696E74 		.ascii	"uint8\000"
 2784      3800
 2785              	.LASF19:
 2786 0109 6570546F 		.ascii	"epToggle\000"
 2786      67676C65 
 2786      00
 2787              	.LASF74:
 2788 0112 2E5C4765 		.ascii	".\\Generated_Source\\PSoC5\\USBFS_drv.c\000"
 2788      6E657261 
 2788      7465645F 
 2788      536F7572 
 2788      63655C50 
 2789              	.LASF12:
 2790 0137 646F7562 		.ascii	"double\000"
 2790      6C6500
 2791              	.LASF33:
 2792 013e 62526567 		.ascii	"bRegTemp\000"
 2792      54656D70 
 2792      00
 2793              	.LASF30:
 2794 0147 70446174 		.ascii	"pData\000"
 2794      6100
 2795              	.LASF57:
 2796 014d 55534246 		.ascii	"USBFS_configuration\000"
 2796      535F636F 
 2796      6E666967 
 2796      75726174 
 2796      696F6E00 
 2797              	.LASF21:
 2798 0161 65704D6F 		.ascii	"epMode\000"
 2798      646500
ARM GAS  C:\Users\Robert\AppData\Local\Temp\ccQqeyhO.s 			page 65


 2799              	.LASF44:
 2800 0168 55534246 		.ascii	"USBFS_ControlReadStatusStage\000"
 2800      535F436F 
 2800      6E74726F 
 2800      6C526561 
 2800      64537461 
 2801              	.LASF8:
 2802 0185 756E7369 		.ascii	"unsigned int\000"
 2802      676E6564 
 2802      20696E74 
 2802      00
 2803              	.LASF34:
 2804 0192 6D6F6469 		.ascii	"modifyReg\000"
 2804      66795265 
 2804      6700
 2805              	.LASF5:
 2806 019c 6C6F6E67 		.ascii	"long unsigned int\000"
 2806      20756E73 
 2806      69676E65 
 2806      6420696E 
 2806      7400
 2807              	.LASF40:
 2808 01ae 55534246 		.ascii	"USBFS_LoadEP0\000"
 2808      535F4C6F 
 2808      61644550 
 2808      3000
 2809              	.LASF3:
 2810 01bc 73686F72 		.ascii	"short unsigned int\000"
 2810      7420756E 
 2810      7369676E 
 2810      65642069 
 2810      6E7400
 2811              	.LASF38:
 2812 01cf 55534246 		.ascii	"USBFS_HandleIN\000"
 2812      535F4861 
 2812      6E646C65 
 2812      494E00
 2813              	.LASF41:
 2814 01de 65703043 		.ascii	"ep0Count\000"
 2814      6F756E74 
 2814      00
 2815              	.LASF72:
 2816 01e7 55534246 		.ascii	"USBFS_transferByteCount\000"
 2816      535F7472 
 2816      616E7366 
 2816      65724279 
 2816      7465436F 
 2817              	.LASF24:
 2818 01ff 696E7465 		.ascii	"interface\000"
 2818      72666163 
 2818      6500
 2819              	.LASF58:
 2820 0209 55534246 		.ascii	"USBFS_configurationChanged\000"
 2820      535F636F 
 2820      6E666967 
 2820      75726174 
 2820      696F6E43 
ARM GAS  C:\Users\Robert\AppData\Local\Temp\ccQqeyhO.s 			page 66


 2821              	.LASF65:
 2822 0224 55534246 		.ascii	"USBFS_interfaceClass\000"
 2822      535F696E 
 2822      74657266 
 2822      61636543 
 2822      6C617373 
 2823              	.LASF18:
 2824 0239 68774570 		.ascii	"hwEpState\000"
 2824      53746174 
 2824      6500
 2825              	.LASF15:
 2826 0243 73697A65 		.ascii	"sizetype\000"
 2826      74797065 
 2826      00
 2827              	.LASF39:
 2828 024c 55534246 		.ascii	"USBFS_HandleOUT\000"
 2828      535F4861 
 2828      6E646C65 
 2828      4F555400 
 2829              	.LASF70:
 2830 025c 55534246 		.ascii	"USBFS_ep0Mode\000"
 2830      535F6570 
 2830      304D6F64 
 2830      6500
 2831              	.LASF16:
 2832 026a 61747472 		.ascii	"attrib\000"
 2832      696200
 2833              	.LASF71:
 2834 0271 55534246 		.ascii	"USBFS_ep0Count\000"
 2834      535F6570 
 2834      30436F75 
 2834      6E7400
 2835              	.LASF28:
 2836 0280 545F5553 		.ascii	"T_USBFS_XFER_STATUS_BLOCK\000"
 2836      4246535F 
 2836      58464552 
 2836      5F535441 
 2836      5455535F 
 2837              	.LASF46:
 2838 029a 55534246 		.ascii	"USBFS_InitControlWrite\000"
 2838      535F496E 
 2838      6974436F 
 2838      6E74726F 
 2838      6C577269 
 2839              	.LASF11:
 2840 02b1 666C6F61 		.ascii	"float\000"
 2840      7400
 2841              	.LASF17:
 2842 02b7 61706945 		.ascii	"apiEpState\000"
 2842      70537461 
 2842      746500
 2843              	.LASF75:
 2844 02c2 433A5C55 		.ascii	"C:\\Users\\Robert\\workspace\\embedit_git\\RPiSoC_B"
 2844      73657273 
 2844      5C526F62 
 2844      6572745C 
 2844      776F726B 
ARM GAS  C:\Users\Robert\AppData\Local\Temp\ccQqeyhO.s 			page 67


 2845 02f0 6F6F746C 		.ascii	"ootloader\\RPiSoC_Bootloader\\Bootloader_RPiSoC.cyd"
 2845      6F616465 
 2845      725C5250 
 2845      69536F43 
 2845      5F426F6F 
 2846 0321 736E00   		.ascii	"sn\000"
 2847              	.LASF66:
 2848 0324 55534246 		.ascii	"USBFS_EP\000"
 2848      535F4550 
 2848      00
 2849              	.LASF73:
 2850 032d 474E5520 		.ascii	"GNU C 4.7.3 20130312 (release) [ARM/embedded-4_7-br"
 2850      4320342E 
 2850      372E3320 
 2850      32303133 
 2850      30333132 
 2851 0360 616E6368 		.ascii	"anch revision 196615]\000"
 2851      20726576 
 2851      6973696F 
 2851      6E203139 
 2851      36363135 
 2852              	.LASF14:
 2853 0376 72656738 		.ascii	"reg8\000"
 2853      00
 2854              	.LASF56:
 2855 037b 55534246 		.ascii	"USBFS_transferState\000"
 2855      535F7472 
 2855      616E7366 
 2855      65725374 
 2855      61746500 
 2856              	.LASF1:
 2857 038f 756E7369 		.ascii	"unsigned char\000"
 2857      676E6564 
 2857      20636861 
 2857      7200
 2858              	.LASF54:
 2859 039d 55534246 		.ascii	"USBFS_InitializeStatusBlock\000"
 2859      535F496E 
 2859      69746961 
 2859      6C697A65 
 2859      53746174 
 2860              	.LASF2:
 2861 03b9 73686F72 		.ascii	"short int\000"
 2861      7420696E 
 2861      7400
 2862              	.LASF32:
 2863 03c3 545F5553 		.ascii	"T_USBFS_TD\000"
 2863      4246535F 
 2863      544400
 2864              	.LASF69:
 2865 03ce 55534246 		.ascii	"USBFS_lastPacketSize\000"
 2865      535F6C61 
 2865      73745061 
 2865      636B6574 
 2865      53697A65 
 2866              	.LASF61:
 2867 03e3 55534246 		.ascii	"USBFS_interfaceSetting\000"
ARM GAS  C:\Users\Robert\AppData\Local\Temp\ccQqeyhO.s 			page 68


 2867      535F696E 
 2867      74657266 
 2867      61636553 
 2867      65747469 
 2868              	.LASF25:
 2869 03fa 545F5553 		.ascii	"T_USBFS_EP_CTL_BLOCK\000"
 2869      4246535F 
 2869      45505F43 
 2869      544C5F42 
 2869      4C4F434B 
 2870              	.LASF52:
 2871 040f 55534246 		.ascii	"USBFS_NoDataControlStatusStage\000"
 2871      535F4E6F 
 2871      44617461 
 2871      436F6E74 
 2871      726F6C53 
 2872              	.LASF51:
 2873 042e 55534246 		.ascii	"USBFS_InitNoDataControlTransfer\000"
 2873      535F496E 
 2873      69744E6F 
 2873      44617461 
 2873      436F6E74 
 2874              	.LASF55:
 2875 044e 55534246 		.ascii	"USBFS_device\000"
 2875      535F6465 
 2875      76696365 
 2875      00
 2876              	.LASF68:
 2877 045b 55534246 		.ascii	"USBFS_ep0Toggle\000"
 2877      535F6570 
 2877      30546F67 
 2877      676C6500 
 2878              	.LASF47:
 2879 046b 55534246 		.ascii	"USBFS_ControlWriteDataStage\000"
 2879      535F436F 
 2879      6E74726F 
 2879      6C577269 
 2879      74654461 
 2880              	.LASF27:
 2881 0487 6C656E67 		.ascii	"length\000"
 2881      746800
 2882              	.LASF13:
 2883 048e 63686172 		.ascii	"char\000"
 2883      00
 2884              	.LASF23:
 2885 0493 62756666 		.ascii	"bufferSize\000"
 2885      65725369 
 2885      7A6500
 2886              	.LASF37:
 2887 049e 72657175 		.ascii	"requestHandled\000"
 2887      65737448 
 2887      616E646C 
 2887      656400
 2888              	.LASF22:
 2889 04ad 62756666 		.ascii	"buffOffset\000"
 2889      4F666673 
 2889      657400
ARM GAS  C:\Users\Robert\AppData\Local\Temp\ccQqeyhO.s 			page 69


 2890              	.LASF59:
 2891 04b8 55534246 		.ascii	"USBFS_deviceStatus\000"
 2891      535F6465 
 2891      76696365 
 2891      53746174 
 2891      757300
 2892              	.LASF62:
 2893 04cb 55534246 		.ascii	"USBFS_interfaceSetting_last\000"
 2893      535F696E 
 2893      74657266 
 2893      61636553 
 2893      65747469 
 2894              	.LASF36:
 2895 04e7 55534246 		.ascii	"USBFS_HandleSetup\000"
 2895      535F4861 
 2895      6E646C65 
 2895      53657475 
 2895      7000
 2896              	.LASF26:
 2897 04f9 73746174 		.ascii	"status\000"
 2897      757300
 2898              	.LASF42:
 2899 0500 78666572 		.ascii	"xferCount\000"
 2899      436F756E 
 2899      7400
 2900              	.LASF64:
 2901 050a 55534246 		.ascii	"USBFS_interfaceStatus\000"
 2901      535F696E 
 2901      74657266 
 2901      61636553 
 2901      74617475 
 2902              	.LASF50:
 2903 0520 55534246 		.ascii	"USBFS_InitZeroLengthControlTransfer\000"
 2903      535F496E 
 2903      69745A65 
 2903      726F4C65 
 2903      6E677468 
 2904              	.LASF49:
 2905 0544 55534246 		.ascii	"USBFS_ControlWriteStatusStage\000"
 2905      535F436F 
 2905      6E74726F 
 2905      6C577269 
 2905      74655374 
 2906              		.ident	"GCC: (GNU Tools for ARM Embedded Processors) 4.7.3 20130312 (release) [ARM/embedded-4_7-br
