ARM GAS  C:\Users\Robert\AppData\Local\Temp\ccQqeyhO.s 			page 1


   1              		.syntax unified
   2              		.cpu cortex-m3
   3              		.fpu softvfp
   4              		.eabi_attribute 20, 1
   5              		.eabi_attribute 21, 1
   6              		.eabi_attribute 23, 3
   7              		.eabi_attribute 24, 1
   8              		.eabi_attribute 25, 1
   9              		.eabi_attribute 26, 1
  10              		.eabi_attribute 30, 6
  11              		.eabi_attribute 34, 1
  12              		.eabi_attribute 18, 4
  13              		.thumb
  14              		.file	"USBFS_drv.c"
  15              		.text
  16              	.Ltext0:
  17              		.cfi_sections	.debug_frame
  18              		.comm	USBFS_EP,108,4
  19              		.comm	USBFS_configuration,1,1
  20              		.comm	USBFS_interfaceNumber,1,1
  21              		.comm	USBFS_configurationChanged,1,1
  22              		.comm	USBFS_deviceAddress,1,1
  23              		.comm	USBFS_deviceStatus,1,1
  24              		.comm	USBFS_interfaceSetting,1,4
  25              		.comm	USBFS_interfaceSetting_last,1,4
  26              		.comm	USBFS_interfaceStatus,1,4
  27              		.comm	USBFS_device,1,1
  28              		.comm	USBFS_interfaceClass,4,4
  29              		.comm	USBFS_ep0Toggle,1,1
  30              		.comm	USBFS_lastPacketSize,1,1
  31              		.comm	USBFS_transferState,1,1
  32              		.comm	USBFS_currentTD,12,4
  33              		.comm	USBFS_ep0Mode,1,1
  34              		.comm	USBFS_ep0Count,1,1
  35              		.comm	USBFS_transferByteCount,2,2
  36              		.section	.text.USBFS_EP_0_ISR,"ax",%progbits
  37              		.align	2
  38              		.global	USBFS_EP_0_ISR
  39              		.thumb
  40              		.thumb_func
  41              		.type	USBFS_EP_0_ISR, %function
  42              	USBFS_EP_0_ISR:
  43              	.LFB0:
  44              		.file 1 ".\\Generated_Source\\PSoC5\\USBFS_drv.c"
   1:.\Generated_Source\PSoC5/USBFS_drv.c **** /*******************************************************************************
   2:.\Generated_Source\PSoC5/USBFS_drv.c **** * File Name: USBFS_drv.c
   3:.\Generated_Source\PSoC5/USBFS_drv.c **** * Version 2.70
   4:.\Generated_Source\PSoC5/USBFS_drv.c **** *
   5:.\Generated_Source\PSoC5/USBFS_drv.c **** * Description:
   6:.\Generated_Source\PSoC5/USBFS_drv.c **** *  Endpoint 0 Driver for the USBFS Component.
   7:.\Generated_Source\PSoC5/USBFS_drv.c **** *
   8:.\Generated_Source\PSoC5/USBFS_drv.c **** * Note:
   9:.\Generated_Source\PSoC5/USBFS_drv.c **** *
  10:.\Generated_Source\PSoC5/USBFS_drv.c **** ********************************************************************************
  11:.\Generated_Source\PSoC5/USBFS_drv.c **** * Copyright 2008-2013, Cypress Semiconductor Corporation.  All rights reserved.
  12:.\Generated_Source\PSoC5/USBFS_drv.c **** * You may use this file only in accordance with the license, terms, conditions,
  13:.\Generated_Source\PSoC5/USBFS_drv.c **** * disclaimers, and limitations in the end user license agreement accompanying
ARM GAS  C:\Users\Robert\AppData\Local\Temp\ccQqeyhO.s 			page 2


  14:.\Generated_Source\PSoC5/USBFS_drv.c **** * the software package with which this file was provided.
  15:.\Generated_Source\PSoC5/USBFS_drv.c **** *******************************************************************************/
  16:.\Generated_Source\PSoC5/USBFS_drv.c **** 
  17:.\Generated_Source\PSoC5/USBFS_drv.c **** #include "USBFS.h"
  18:.\Generated_Source\PSoC5/USBFS_drv.c **** #include "USBFS_pvt.h"
  19:.\Generated_Source\PSoC5/USBFS_drv.c **** 
  20:.\Generated_Source\PSoC5/USBFS_drv.c **** 
  21:.\Generated_Source\PSoC5/USBFS_drv.c **** /***************************************
  22:.\Generated_Source\PSoC5/USBFS_drv.c **** * Global data allocation
  23:.\Generated_Source\PSoC5/USBFS_drv.c **** ***************************************/
  24:.\Generated_Source\PSoC5/USBFS_drv.c **** 
  25:.\Generated_Source\PSoC5/USBFS_drv.c **** volatile T_USBFS_EP_CTL_BLOCK USBFS_EP[USBFS_MAX_EP];
  26:.\Generated_Source\PSoC5/USBFS_drv.c **** volatile uint8 USBFS_configuration;
  27:.\Generated_Source\PSoC5/USBFS_drv.c **** volatile uint8 USBFS_interfaceNumber;
  28:.\Generated_Source\PSoC5/USBFS_drv.c **** volatile uint8 USBFS_configurationChanged;
  29:.\Generated_Source\PSoC5/USBFS_drv.c **** volatile uint8 USBFS_deviceAddress;
  30:.\Generated_Source\PSoC5/USBFS_drv.c **** volatile uint8 USBFS_deviceStatus;
  31:.\Generated_Source\PSoC5/USBFS_drv.c **** volatile uint8 USBFS_interfaceSetting[USBFS_MAX_INTERFACES_NUMBER];
  32:.\Generated_Source\PSoC5/USBFS_drv.c **** volatile uint8 USBFS_interfaceSetting_last[USBFS_MAX_INTERFACES_NUMBER];
  33:.\Generated_Source\PSoC5/USBFS_drv.c **** volatile uint8 USBFS_interfaceStatus[USBFS_MAX_INTERFACES_NUMBER];
  34:.\Generated_Source\PSoC5/USBFS_drv.c **** volatile uint8 USBFS_device;
  35:.\Generated_Source\PSoC5/USBFS_drv.c **** const uint8 CYCODE *USBFS_interfaceClass;
  36:.\Generated_Source\PSoC5/USBFS_drv.c **** 
  37:.\Generated_Source\PSoC5/USBFS_drv.c **** 
  38:.\Generated_Source\PSoC5/USBFS_drv.c **** /***************************************
  39:.\Generated_Source\PSoC5/USBFS_drv.c **** * Local data allocation
  40:.\Generated_Source\PSoC5/USBFS_drv.c **** ***************************************/
  41:.\Generated_Source\PSoC5/USBFS_drv.c **** 
  42:.\Generated_Source\PSoC5/USBFS_drv.c **** volatile uint8 USBFS_ep0Toggle;
  43:.\Generated_Source\PSoC5/USBFS_drv.c **** volatile uint8 USBFS_lastPacketSize;
  44:.\Generated_Source\PSoC5/USBFS_drv.c **** volatile uint8 USBFS_transferState;
  45:.\Generated_Source\PSoC5/USBFS_drv.c **** volatile T_USBFS_TD USBFS_currentTD;
  46:.\Generated_Source\PSoC5/USBFS_drv.c **** volatile uint8 USBFS_ep0Mode;
  47:.\Generated_Source\PSoC5/USBFS_drv.c **** volatile uint8 USBFS_ep0Count;
  48:.\Generated_Source\PSoC5/USBFS_drv.c **** volatile uint16 USBFS_transferByteCount;
  49:.\Generated_Source\PSoC5/USBFS_drv.c **** 
  50:.\Generated_Source\PSoC5/USBFS_drv.c **** 
  51:.\Generated_Source\PSoC5/USBFS_drv.c **** /*******************************************************************************
  52:.\Generated_Source\PSoC5/USBFS_drv.c **** * Function Name: USBFS_ep_0_Interrupt
  53:.\Generated_Source\PSoC5/USBFS_drv.c **** ********************************************************************************
  54:.\Generated_Source\PSoC5/USBFS_drv.c **** *
  55:.\Generated_Source\PSoC5/USBFS_drv.c **** * Summary:
  56:.\Generated_Source\PSoC5/USBFS_drv.c **** *  This Interrupt Service Routine handles Endpoint 0 (Control Pipe) traffic.
  57:.\Generated_Source\PSoC5/USBFS_drv.c **** *  It dispatches setup requests and handles the data and status stages.
  58:.\Generated_Source\PSoC5/USBFS_drv.c **** *
  59:.\Generated_Source\PSoC5/USBFS_drv.c **** * Parameters:
  60:.\Generated_Source\PSoC5/USBFS_drv.c **** *  None.
  61:.\Generated_Source\PSoC5/USBFS_drv.c **** *
  62:.\Generated_Source\PSoC5/USBFS_drv.c **** * Return:
  63:.\Generated_Source\PSoC5/USBFS_drv.c **** *  None.
  64:.\Generated_Source\PSoC5/USBFS_drv.c **** *
  65:.\Generated_Source\PSoC5/USBFS_drv.c **** *******************************************************************************/
  66:.\Generated_Source\PSoC5/USBFS_drv.c **** CY_ISR(USBFS_EP_0_ISR)
  67:.\Generated_Source\PSoC5/USBFS_drv.c **** {
  45              		.loc 1 67 0
  46              		.cfi_startproc
  47              		@ args = 0, pretend = 0, frame = 8
ARM GAS  C:\Users\Robert\AppData\Local\Temp\ccQqeyhO.s 			page 3


  48              		@ frame_needed = 1, uses_anonymous_args = 0
  49 0000 80B5     		push	{r7, lr}
  50              	.LCFI0:
  51              		.cfi_def_cfa_offset 8
  52              		.cfi_offset 7, -8
  53              		.cfi_offset 14, -4
  54 0002 82B0     		sub	sp, sp, #8
  55              	.LCFI1:
  56              		.cfi_def_cfa_offset 16
  57 0004 00AF     		add	r7, sp, #0
  58              	.LCFI2:
  59              		.cfi_def_cfa_register 7
  68:.\Generated_Source\PSoC5/USBFS_drv.c ****     uint8 bRegTemp;
  69:.\Generated_Source\PSoC5/USBFS_drv.c ****     uint8 modifyReg;
  70:.\Generated_Source\PSoC5/USBFS_drv.c **** 
  71:.\Generated_Source\PSoC5/USBFS_drv.c **** 
  72:.\Generated_Source\PSoC5/USBFS_drv.c ****     bRegTemp = CY_GET_REG8(USBFS_EP0_CR_PTR);
  60              		.loc 1 72 0
  61 0006 46F22803 		movw	r3, #24616
  62 000a C4F20003 		movt	r3, 16384
  63 000e 1B78     		ldrb	r3, [r3, #0]
  64 0010 BB71     		strb	r3, [r7, #6]
  73:.\Generated_Source\PSoC5/USBFS_drv.c ****     if ((bRegTemp & USBFS_MODE_ACKD) != 0u)
  65              		.loc 1 73 0
  66 0012 BB79     		ldrb	r3, [r7, #6]	@ zero_extendqisi2
  67 0014 03F01003 		and	r3, r3, #16
  68 0018 002B     		cmp	r3, #0
  69 001a 00F08C80 		beq	.L1
  74:.\Generated_Source\PSoC5/USBFS_drv.c ****     {
  75:.\Generated_Source\PSoC5/USBFS_drv.c ****         modifyReg = 1u;
  70              		.loc 1 75 0
  71 001e 4FF00103 		mov	r3, #1
  72 0022 FB71     		strb	r3, [r7, #7]
  76:.\Generated_Source\PSoC5/USBFS_drv.c ****         if ((bRegTemp & USBFS_MODE_SETUP_RCVD) != 0u)
  73              		.loc 1 76 0
  74 0024 BB79     		ldrb	r3, [r7, #6]	@ zero_extendqisi2
  75 0026 5BB2     		sxtb	r3, r3
  76 0028 002B     		cmp	r3, #0
  77 002a 18DA     		bge	.L3
  77:.\Generated_Source\PSoC5/USBFS_drv.c ****         {
  78:.\Generated_Source\PSoC5/USBFS_drv.c ****             if((bRegTemp & USBFS_MODE_MASK) != USBFS_MODE_NAK_IN_OUT)
  78              		.loc 1 78 0
  79 002c BB79     		ldrb	r3, [r7, #6]	@ zero_extendqisi2
  80 002e 03F00F03 		and	r3, r3, #15
  81 0032 012B     		cmp	r3, #1
  82 0034 03D0     		beq	.L4
  79:.\Generated_Source\PSoC5/USBFS_drv.c ****             {
  80:.\Generated_Source\PSoC5/USBFS_drv.c ****                 modifyReg = 0u;                                     /* When mode not NAK_IN_OUT => 
  83              		.loc 1 80 0
  84 0036 4FF00003 		mov	r3, #0
  85 003a FB71     		strb	r3, [r7, #7]
  86 003c 22E0     		b	.L5
  87              	.L4:
  81:.\Generated_Source\PSoC5/USBFS_drv.c ****             }
  82:.\Generated_Source\PSoC5/USBFS_drv.c ****             else
  83:.\Generated_Source\PSoC5/USBFS_drv.c ****             {
  84:.\Generated_Source\PSoC5/USBFS_drv.c ****                 USBFS_HandleSetup();
ARM GAS  C:\Users\Robert\AppData\Local\Temp\ccQqeyhO.s 			page 4


  88              		.loc 1 84 0
  89 003e FFF7FEFF 		bl	USBFS_HandleSetup
  85:.\Generated_Source\PSoC5/USBFS_drv.c ****                 if((USBFS_ep0Mode & USBFS_MODE_SETUP_RCVD) != 0u)
  90              		.loc 1 85 0
  91 0042 40F20003 		movw	r3, #:lower16:USBFS_ep0Mode
  92 0046 C0F20003 		movt	r3, #:upper16:USBFS_ep0Mode
  93 004a 1B78     		ldrb	r3, [r3, #0]
  94 004c DBB2     		uxtb	r3, r3
  95 004e DBB2     		uxtb	r3, r3
  96 0050 5BB2     		sxtb	r3, r3
  97 0052 002B     		cmp	r3, #0
  98 0054 16DA     		bge	.L5
  86:.\Generated_Source\PSoC5/USBFS_drv.c ****                 {
  87:.\Generated_Source\PSoC5/USBFS_drv.c ****                     modifyReg = 0u;                         /* if SETUP bit set -> exit without mod
  99              		.loc 1 87 0
 100 0056 4FF00003 		mov	r3, #0
 101 005a FB71     		strb	r3, [r7, #7]
 102 005c 12E0     		b	.L5
 103              	.L3:
  88:.\Generated_Source\PSoC5/USBFS_drv.c ****                 }
  89:.\Generated_Source\PSoC5/USBFS_drv.c **** 
  90:.\Generated_Source\PSoC5/USBFS_drv.c ****             }
  91:.\Generated_Source\PSoC5/USBFS_drv.c ****         }
  92:.\Generated_Source\PSoC5/USBFS_drv.c ****         else if ((bRegTemp & USBFS_MODE_IN_RCVD) != 0u)
 104              		.loc 1 92 0
 105 005e BB79     		ldrb	r3, [r7, #6]	@ zero_extendqisi2
 106 0060 03F04003 		and	r3, r3, #64
 107 0064 002B     		cmp	r3, #0
 108 0066 02D0     		beq	.L6
  93:.\Generated_Source\PSoC5/USBFS_drv.c ****         {
  94:.\Generated_Source\PSoC5/USBFS_drv.c ****             USBFS_HandleIN();
 109              		.loc 1 94 0
 110 0068 FFF7FEFF 		bl	USBFS_HandleIN
 111 006c 0AE0     		b	.L5
 112              	.L6:
  95:.\Generated_Source\PSoC5/USBFS_drv.c ****         }
  96:.\Generated_Source\PSoC5/USBFS_drv.c ****         else if ((bRegTemp & USBFS_MODE_OUT_RCVD) != 0u)
 113              		.loc 1 96 0
 114 006e BB79     		ldrb	r3, [r7, #6]	@ zero_extendqisi2
 115 0070 03F02003 		and	r3, r3, #32
 116 0074 002B     		cmp	r3, #0
 117 0076 02D0     		beq	.L7
  97:.\Generated_Source\PSoC5/USBFS_drv.c ****         {
  98:.\Generated_Source\PSoC5/USBFS_drv.c ****             USBFS_HandleOUT();
 118              		.loc 1 98 0
 119 0078 FFF7FEFF 		bl	USBFS_HandleOUT
 120 007c 02E0     		b	.L5
 121              	.L7:
  99:.\Generated_Source\PSoC5/USBFS_drv.c ****         }
 100:.\Generated_Source\PSoC5/USBFS_drv.c ****         else
 101:.\Generated_Source\PSoC5/USBFS_drv.c ****         {
 102:.\Generated_Source\PSoC5/USBFS_drv.c ****             modifyReg = 0u;
 122              		.loc 1 102 0
 123 007e 4FF00003 		mov	r3, #0
 124 0082 FB71     		strb	r3, [r7, #7]
 125              	.L5:
 103:.\Generated_Source\PSoC5/USBFS_drv.c ****         }
ARM GAS  C:\Users\Robert\AppData\Local\Temp\ccQqeyhO.s 			page 5


 104:.\Generated_Source\PSoC5/USBFS_drv.c ****         if(modifyReg != 0u)
 126              		.loc 1 104 0
 127 0084 FB79     		ldrb	r3, [r7, #7]	@ zero_extendqisi2
 128 0086 002B     		cmp	r3, #0
 129 0088 55D0     		beq	.L1
 105:.\Generated_Source\PSoC5/USBFS_drv.c ****         {
 106:.\Generated_Source\PSoC5/USBFS_drv.c ****             bRegTemp = CY_GET_REG8(USBFS_EP0_CR_PTR);    /* unlock registers */
 130              		.loc 1 106 0
 131 008a 46F22803 		movw	r3, #24616
 132 008e C4F20003 		movt	r3, 16384
 133 0092 1B78     		ldrb	r3, [r3, #0]
 134 0094 BB71     		strb	r3, [r7, #6]
 107:.\Generated_Source\PSoC5/USBFS_drv.c ****             if((bRegTemp & USBFS_MODE_SETUP_RCVD) == 0u)  /* Check if SETUP bit is not set, otherwi
 135              		.loc 1 107 0
 136 0096 BB79     		ldrb	r3, [r7, #6]	@ zero_extendqisi2
 137 0098 5BB2     		sxtb	r3, r3
 138 009a 002B     		cmp	r3, #0
 139 009c 4BDB     		blt	.L1
 108:.\Generated_Source\PSoC5/USBFS_drv.c ****             {
 109:.\Generated_Source\PSoC5/USBFS_drv.c ****                 /* Update the count register */
 110:.\Generated_Source\PSoC5/USBFS_drv.c ****                 bRegTemp = USBFS_ep0Toggle | USBFS_ep0Count;
 140              		.loc 1 110 0
 141 009e 40F20003 		movw	r3, #:lower16:USBFS_ep0Toggle
 142 00a2 C0F20003 		movt	r3, #:upper16:USBFS_ep0Toggle
 143 00a6 1B78     		ldrb	r3, [r3, #0]
 144 00a8 DAB2     		uxtb	r2, r3
 145 00aa 40F20003 		movw	r3, #:lower16:USBFS_ep0Count
 146 00ae C0F20003 		movt	r3, #:upper16:USBFS_ep0Count
 147 00b2 1B78     		ldrb	r3, [r3, #0]
 148 00b4 DBB2     		uxtb	r3, r3
 149 00b6 1343     		orrs	r3, r3, r2
 150 00b8 BB71     		strb	r3, [r7, #6]
 111:.\Generated_Source\PSoC5/USBFS_drv.c ****                 CY_SET_REG8(USBFS_EP0_CNT_PTR, bRegTemp);
 151              		.loc 1 111 0
 152 00ba 46F22903 		movw	r3, #24617
 153 00be C4F20003 		movt	r3, 16384
 154 00c2 BA79     		ldrb	r2, [r7, #6]
 155 00c4 1A70     		strb	r2, [r3, #0]
 112:.\Generated_Source\PSoC5/USBFS_drv.c ****                 if(bRegTemp == CY_GET_REG8(USBFS_EP0_CNT_PTR))   /* continue if writing was success
 156              		.loc 1 112 0
 157 00c6 46F22903 		movw	r3, #24617
 158 00ca C4F20003 		movt	r3, 16384
 159 00ce 1B78     		ldrb	r3, [r3, #0]
 160 00d0 DBB2     		uxtb	r3, r3
 161 00d2 BA79     		ldrb	r2, [r7, #6]	@ zero_extendqisi2
 162 00d4 9A42     		cmp	r2, r3
 163 00d6 2ED1     		bne	.L1
 164              	.L9:
 113:.\Generated_Source\PSoC5/USBFS_drv.c ****                 {
 114:.\Generated_Source\PSoC5/USBFS_drv.c ****                     do
 115:.\Generated_Source\PSoC5/USBFS_drv.c ****                     {
 116:.\Generated_Source\PSoC5/USBFS_drv.c ****                         modifyReg = USBFS_ep0Mode;       /* Init temporary variable */
 165              		.loc 1 116 0
 166 00d8 40F20003 		movw	r3, #:lower16:USBFS_ep0Mode
 167 00dc C0F20003 		movt	r3, #:upper16:USBFS_ep0Mode
 168 00e0 1B78     		ldrb	r3, [r3, #0]
 169 00e2 FB71     		strb	r3, [r7, #7]
ARM GAS  C:\Users\Robert\AppData\Local\Temp\ccQqeyhO.s 			page 6


 117:.\Generated_Source\PSoC5/USBFS_drv.c ****                         /* Unlock registers */
 118:.\Generated_Source\PSoC5/USBFS_drv.c ****                         bRegTemp = CY_GET_REG8(USBFS_EP0_CR_PTR) & USBFS_MODE_SETUP_RCVD;
 170              		.loc 1 118 0
 171 00e4 46F22803 		movw	r3, #24616
 172 00e8 C4F20003 		movt	r3, 16384
 173 00ec 1B78     		ldrb	r3, [r3, #0]
 174 00ee DBB2     		uxtb	r3, r3
 175 00f0 23F07F03 		bic	r3, r3, #127
 176 00f4 BB71     		strb	r3, [r7, #6]
 119:.\Generated_Source\PSoC5/USBFS_drv.c ****                         if(bRegTemp == 0u)                          /* Check if SETUP bit is not se
 177              		.loc 1 119 0
 178 00f6 BB79     		ldrb	r3, [r7, #6]	@ zero_extendqisi2
 179 00f8 002B     		cmp	r3, #0
 180 00fa 13D1     		bne	.L8
 120:.\Generated_Source\PSoC5/USBFS_drv.c ****                         {
 121:.\Generated_Source\PSoC5/USBFS_drv.c ****                             /* Set the Mode Register  */
 122:.\Generated_Source\PSoC5/USBFS_drv.c ****                             CY_SET_REG8(USBFS_EP0_CR_PTR, USBFS_ep0Mode);
 181              		.loc 1 122 0
 182 00fc 46F22803 		movw	r3, #24616
 183 0100 C4F20003 		movt	r3, 16384
 184 0104 40F20002 		movw	r2, #:lower16:USBFS_ep0Mode
 185 0108 C0F20002 		movt	r2, #:upper16:USBFS_ep0Mode
 186 010c 1278     		ldrb	r2, [r2, #0]
 187 010e D2B2     		uxtb	r2, r2
 188 0110 1A70     		strb	r2, [r3, #0]
 123:.\Generated_Source\PSoC5/USBFS_drv.c ****                             /* Writing check */
 124:.\Generated_Source\PSoC5/USBFS_drv.c ****                             modifyReg = CY_GET_REG8(USBFS_EP0_CR_PTR) & USBFS_MODE_MASK;
 189              		.loc 1 124 0
 190 0112 46F22803 		movw	r3, #24616
 191 0116 C4F20003 		movt	r3, 16384
 192 011a 1B78     		ldrb	r3, [r3, #0]
 193 011c DBB2     		uxtb	r3, r3
 194 011e 03F00F03 		and	r3, r3, #15
 195 0122 FB71     		strb	r3, [r7, #7]
 196              	.L8:
 125:.\Generated_Source\PSoC5/USBFS_drv.c ****                         }
 126:.\Generated_Source\PSoC5/USBFS_drv.c ****                     }while(modifyReg != USBFS_ep0Mode);  /* Repeat if writing was not successful */
 197              		.loc 1 126 0
 198 0124 40F20003 		movw	r3, #:lower16:USBFS_ep0Mode
 199 0128 C0F20003 		movt	r3, #:upper16:USBFS_ep0Mode
 200 012c 1B78     		ldrb	r3, [r3, #0]
 201 012e DBB2     		uxtb	r3, r3
 202 0130 FA79     		ldrb	r2, [r7, #7]	@ zero_extendqisi2
 203 0132 9A42     		cmp	r2, r3
 204 0134 D0D1     		bne	.L9
 205              	.L1:
 127:.\Generated_Source\PSoC5/USBFS_drv.c ****                 }
 128:.\Generated_Source\PSoC5/USBFS_drv.c ****             }
 129:.\Generated_Source\PSoC5/USBFS_drv.c ****         }
 130:.\Generated_Source\PSoC5/USBFS_drv.c ****     }
 131:.\Generated_Source\PSoC5/USBFS_drv.c **** }
 206              		.loc 1 131 0
 207 0136 07F10807 		add	r7, r7, #8
 208 013a BD46     		mov	sp, r7
 209 013c 80BD     		pop	{r7, pc}
 210              		.cfi_endproc
 211              	.LFE0:
ARM GAS  C:\Users\Robert\AppData\Local\Temp\ccQqeyhO.s 			page 7


 212              		.size	USBFS_EP_0_ISR, .-USBFS_EP_0_ISR
 213 013e 00BF     		.section	.text.USBFS_HandleSetup,"ax",%progbits
 214              		.align	2
 215              		.global	USBFS_HandleSetup
 216              		.thumb
 217              		.thumb_func
 218              		.type	USBFS_HandleSetup, %function
 219              	USBFS_HandleSetup:
 220              	.LFB1:
 132:.\Generated_Source\PSoC5/USBFS_drv.c **** 
 133:.\Generated_Source\PSoC5/USBFS_drv.c **** 
 134:.\Generated_Source\PSoC5/USBFS_drv.c **** /*******************************************************************************
 135:.\Generated_Source\PSoC5/USBFS_drv.c **** * Function Name: USBFS_HandleSetup
 136:.\Generated_Source\PSoC5/USBFS_drv.c **** ********************************************************************************
 137:.\Generated_Source\PSoC5/USBFS_drv.c **** *
 138:.\Generated_Source\PSoC5/USBFS_drv.c **** * Summary:
 139:.\Generated_Source\PSoC5/USBFS_drv.c **** *  This Routine dispatches requests for the four USB request types
 140:.\Generated_Source\PSoC5/USBFS_drv.c **** *
 141:.\Generated_Source\PSoC5/USBFS_drv.c **** * Parameters:
 142:.\Generated_Source\PSoC5/USBFS_drv.c **** *  None.
 143:.\Generated_Source\PSoC5/USBFS_drv.c **** *
 144:.\Generated_Source\PSoC5/USBFS_drv.c **** * Return:
 145:.\Generated_Source\PSoC5/USBFS_drv.c **** *  None.
 146:.\Generated_Source\PSoC5/USBFS_drv.c **** *
 147:.\Generated_Source\PSoC5/USBFS_drv.c **** * Reentrant:
 148:.\Generated_Source\PSoC5/USBFS_drv.c **** *  No.
 149:.\Generated_Source\PSoC5/USBFS_drv.c **** *
 150:.\Generated_Source\PSoC5/USBFS_drv.c **** *******************************************************************************/
 151:.\Generated_Source\PSoC5/USBFS_drv.c **** void USBFS_HandleSetup(void) 
 152:.\Generated_Source\PSoC5/USBFS_drv.c **** {
 221              		.loc 1 152 0
 222              		.cfi_startproc
 223              		@ args = 0, pretend = 0, frame = 8
 224              		@ frame_needed = 1, uses_anonymous_args = 0
 225 0000 80B5     		push	{r7, lr}
 226              	.LCFI3:
 227              		.cfi_def_cfa_offset 8
 228              		.cfi_offset 7, -8
 229              		.cfi_offset 14, -4
 230 0002 82B0     		sub	sp, sp, #8
 231              	.LCFI4:
 232              		.cfi_def_cfa_offset 16
 233 0004 00AF     		add	r7, sp, #0
 234              	.LCFI5:
 235              		.cfi_def_cfa_register 7
 153:.\Generated_Source\PSoC5/USBFS_drv.c ****     uint8 requestHandled;
 154:.\Generated_Source\PSoC5/USBFS_drv.c **** 
 155:.\Generated_Source\PSoC5/USBFS_drv.c ****     requestHandled = CY_GET_REG8(USBFS_EP0_CR_PTR);      /* unlock registers */
 236              		.loc 1 155 0
 237 0006 46F22803 		movw	r3, #24616
 238 000a C4F20003 		movt	r3, 16384
 239 000e 1B78     		ldrb	r3, [r3, #0]
 240 0010 FB71     		strb	r3, [r7, #7]
 156:.\Generated_Source\PSoC5/USBFS_drv.c ****     CY_SET_REG8(USBFS_EP0_CR_PTR, requestHandled);       /* clear setup bit */
 241              		.loc 1 156 0
 242 0012 46F22803 		movw	r3, #24616
 243 0016 C4F20003 		movt	r3, 16384
ARM GAS  C:\Users\Robert\AppData\Local\Temp\ccQqeyhO.s 			page 8


 244 001a FA79     		ldrb	r2, [r7, #7]
 245 001c 1A70     		strb	r2, [r3, #0]
 157:.\Generated_Source\PSoC5/USBFS_drv.c ****     requestHandled = CY_GET_REG8(USBFS_EP0_CR_PTR);      /* reread register */
 246              		.loc 1 157 0
 247 001e 46F22803 		movw	r3, #24616
 248 0022 C4F20003 		movt	r3, 16384
 249 0026 1B78     		ldrb	r3, [r3, #0]
 250 0028 FB71     		strb	r3, [r7, #7]
 158:.\Generated_Source\PSoC5/USBFS_drv.c ****     if((requestHandled & USBFS_MODE_SETUP_RCVD) != 0u)
 251              		.loc 1 158 0
 252 002a FB79     		ldrb	r3, [r7, #7]	@ zero_extendqisi2
 253 002c 5BB2     		sxtb	r3, r3
 254 002e 002B     		cmp	r3, #0
 255 0030 06DA     		bge	.L11
 159:.\Generated_Source\PSoC5/USBFS_drv.c ****     {
 160:.\Generated_Source\PSoC5/USBFS_drv.c ****         USBFS_ep0Mode = requestHandled;        /* if SETUP bit set -> exit without modifying the mo
 256              		.loc 1 160 0
 257 0032 40F20003 		movw	r3, #:lower16:USBFS_ep0Mode
 258 0036 C0F20003 		movt	r3, #:upper16:USBFS_ep0Mode
 259 003a FA79     		ldrb	r2, [r7, #7]
 260 003c 1A70     		strb	r2, [r3, #0]
 261 003e 2EE0     		b	.L10
 262              	.L11:
 161:.\Generated_Source\PSoC5/USBFS_drv.c ****     }
 162:.\Generated_Source\PSoC5/USBFS_drv.c ****     else
 163:.\Generated_Source\PSoC5/USBFS_drv.c ****     {
 164:.\Generated_Source\PSoC5/USBFS_drv.c ****         /* In case the previous transfer did not complete, close it out */
 165:.\Generated_Source\PSoC5/USBFS_drv.c ****         USBFS_UpdateStatusBlock(USBFS_XFER_PREMATURE);
 263              		.loc 1 165 0
 264 0040 4FF00200 		mov	r0, #2
 265 0044 FFF7FEFF 		bl	USBFS_UpdateStatusBlock
 166:.\Generated_Source\PSoC5/USBFS_drv.c **** 
 167:.\Generated_Source\PSoC5/USBFS_drv.c ****         switch (CY_GET_REG8(USBFS_bmRequestType) & USBFS_RQST_TYPE_MASK)
 266              		.loc 1 167 0
 267 0048 4FF4C043 		mov	r3, #24576
 268 004c C4F20003 		movt	r3, 16384
 269 0050 1B78     		ldrb	r3, [r3, #0]
 270 0052 DBB2     		uxtb	r3, r3
 271 0054 03F06003 		and	r3, r3, #96
 272 0058 202B     		cmp	r3, #32
 273 005a 08D0     		beq	.L15
 274 005c 402B     		cmp	r3, #64
 275 005e 0BD0     		beq	.L16
 276 0060 002B     		cmp	r3, #0
 277 0062 0ED1     		bne	.L18
 278              	.L14:
 168:.\Generated_Source\PSoC5/USBFS_drv.c ****         {
 169:.\Generated_Source\PSoC5/USBFS_drv.c ****             case USBFS_RQST_TYPE_STD:
 170:.\Generated_Source\PSoC5/USBFS_drv.c ****                 requestHandled = USBFS_HandleStandardRqst();
 279              		.loc 1 170 0
 280 0064 FFF7FEFF 		bl	USBFS_HandleStandardRqst
 281 0068 0346     		mov	r3, r0
 282 006a FB71     		strb	r3, [r7, #7]
 171:.\Generated_Source\PSoC5/USBFS_drv.c ****                 break;
 283              		.loc 1 171 0
 284 006c 0DE0     		b	.L17
 285              	.L15:
ARM GAS  C:\Users\Robert\AppData\Local\Temp\ccQqeyhO.s 			page 9


 172:.\Generated_Source\PSoC5/USBFS_drv.c ****             case USBFS_RQST_TYPE_CLS:
 173:.\Generated_Source\PSoC5/USBFS_drv.c ****                 requestHandled = USBFS_DispatchClassRqst();
 286              		.loc 1 173 0
 287 006e FFF7FEFF 		bl	USBFS_DispatchClassRqst
 288 0072 0346     		mov	r3, r0
 289 0074 FB71     		strb	r3, [r7, #7]
 174:.\Generated_Source\PSoC5/USBFS_drv.c ****                 break;
 290              		.loc 1 174 0
 291 0076 08E0     		b	.L17
 292              	.L16:
 175:.\Generated_Source\PSoC5/USBFS_drv.c ****             case USBFS_RQST_TYPE_VND:
 176:.\Generated_Source\PSoC5/USBFS_drv.c ****                 requestHandled = USBFS_HandleVendorRqst();
 293              		.loc 1 176 0
 294 0078 FFF7FEFF 		bl	USBFS_HandleVendorRqst
 295 007c 0346     		mov	r3, r0
 296 007e FB71     		strb	r3, [r7, #7]
 177:.\Generated_Source\PSoC5/USBFS_drv.c ****                 break;
 297              		.loc 1 177 0
 298 0080 03E0     		b	.L17
 299              	.L18:
 178:.\Generated_Source\PSoC5/USBFS_drv.c ****             default:
 179:.\Generated_Source\PSoC5/USBFS_drv.c ****                 requestHandled = USBFS_FALSE;
 300              		.loc 1 179 0
 301 0082 4FF00003 		mov	r3, #0
 302 0086 FB71     		strb	r3, [r7, #7]
 180:.\Generated_Source\PSoC5/USBFS_drv.c ****                 break;
 303              		.loc 1 180 0
 304 0088 00BF     		nop
 305              	.L17:
 181:.\Generated_Source\PSoC5/USBFS_drv.c ****         }
 182:.\Generated_Source\PSoC5/USBFS_drv.c ****         if (requestHandled == USBFS_FALSE)
 306              		.loc 1 182 0
 307 008a FB79     		ldrb	r3, [r7, #7]	@ zero_extendqisi2
 308 008c 002B     		cmp	r3, #0
 309 008e 06D1     		bne	.L10
 183:.\Generated_Source\PSoC5/USBFS_drv.c ****         {
 184:.\Generated_Source\PSoC5/USBFS_drv.c ****             USBFS_ep0Mode = USBFS_MODE_STALL_IN_OUT;
 310              		.loc 1 184 0
 311 0090 40F20003 		movw	r3, #:lower16:USBFS_ep0Mode
 312 0094 C0F20003 		movt	r3, #:upper16:USBFS_ep0Mode
 313 0098 4FF00302 		mov	r2, #3
 314 009c 1A70     		strb	r2, [r3, #0]
 315              	.L10:
 185:.\Generated_Source\PSoC5/USBFS_drv.c ****         }
 186:.\Generated_Source\PSoC5/USBFS_drv.c ****     }
 187:.\Generated_Source\PSoC5/USBFS_drv.c **** }
 316              		.loc 1 187 0
 317 009e 07F10807 		add	r7, r7, #8
 318 00a2 BD46     		mov	sp, r7
 319 00a4 80BD     		pop	{r7, pc}
 320              		.cfi_endproc
 321              	.LFE1:
 322              		.size	USBFS_HandleSetup, .-USBFS_HandleSetup
 323              		.section	.text.USBFS_HandleIN,"ax",%progbits
 324              		.align	2
 325              		.global	USBFS_HandleIN
 326              		.thumb
ARM GAS  C:\Users\Robert\AppData\Local\Temp\ccQqeyhO.s 			page 10


 327              		.thumb_func
 328              		.type	USBFS_HandleIN, %function
 329              	USBFS_HandleIN:
 330              	.LFB2:
 188:.\Generated_Source\PSoC5/USBFS_drv.c **** 
 189:.\Generated_Source\PSoC5/USBFS_drv.c **** 
 190:.\Generated_Source\PSoC5/USBFS_drv.c **** /*******************************************************************************
 191:.\Generated_Source\PSoC5/USBFS_drv.c **** * Function Name: USBFS_HandleIN
 192:.\Generated_Source\PSoC5/USBFS_drv.c **** ********************************************************************************
 193:.\Generated_Source\PSoC5/USBFS_drv.c **** *
 194:.\Generated_Source\PSoC5/USBFS_drv.c **** * Summary:
 195:.\Generated_Source\PSoC5/USBFS_drv.c **** *  This routine handles EP0 IN transfers.
 196:.\Generated_Source\PSoC5/USBFS_drv.c **** *
 197:.\Generated_Source\PSoC5/USBFS_drv.c **** * Parameters:
 198:.\Generated_Source\PSoC5/USBFS_drv.c **** *  None.
 199:.\Generated_Source\PSoC5/USBFS_drv.c **** *
 200:.\Generated_Source\PSoC5/USBFS_drv.c **** * Return:
 201:.\Generated_Source\PSoC5/USBFS_drv.c **** *  None.
 202:.\Generated_Source\PSoC5/USBFS_drv.c **** *
 203:.\Generated_Source\PSoC5/USBFS_drv.c **** * Reentrant:
 204:.\Generated_Source\PSoC5/USBFS_drv.c **** *  No.
 205:.\Generated_Source\PSoC5/USBFS_drv.c **** *
 206:.\Generated_Source\PSoC5/USBFS_drv.c **** *******************************************************************************/
 207:.\Generated_Source\PSoC5/USBFS_drv.c **** void USBFS_HandleIN(void) 
 208:.\Generated_Source\PSoC5/USBFS_drv.c **** {
 331              		.loc 1 208 0
 332              		.cfi_startproc
 333              		@ args = 0, pretend = 0, frame = 0
 334              		@ frame_needed = 1, uses_anonymous_args = 0
 335 0000 80B5     		push	{r7, lr}
 336              	.LCFI6:
 337              		.cfi_def_cfa_offset 8
 338              		.cfi_offset 7, -8
 339              		.cfi_offset 14, -4
 340 0002 00AF     		add	r7, sp, #0
 341              	.LCFI7:
 342              		.cfi_def_cfa_register 7
 209:.\Generated_Source\PSoC5/USBFS_drv.c ****     switch (USBFS_transferState)
 343              		.loc 1 209 0
 344 0004 40F20003 		movw	r3, #:lower16:USBFS_transferState
 345 0008 C0F20003 		movt	r3, #:upper16:USBFS_transferState
 346 000c 1B78     		ldrb	r3, [r3, #0]
 347 000e DBB2     		uxtb	r3, r3
 348 0010 062B     		cmp	r3, #6
 349 0012 1AD8     		bhi	.L27
 350 0014 01A2     		adr	r2, .L25
 351 0016 52F823F0 		ldr	pc, [r2, r3, lsl #2]
 352 001a 00BF     		.align	2
 353              	.L25:
 354 001c 4B000000 		.word	.L27+1
 355 0020 4B000000 		.word	.L27+1
 356 0024 39000000 		.word	.L22+1
 357 0028 4B000000 		.word	.L27+1
 358 002c 3F000000 		.word	.L23+1
 359 0030 4B000000 		.word	.L27+1
 360 0034 45000000 		.word	.L24+1
 361              	.L22:
ARM GAS  C:\Users\Robert\AppData\Local\Temp\ccQqeyhO.s 			page 11


 210:.\Generated_Source\PSoC5/USBFS_drv.c ****     {
 211:.\Generated_Source\PSoC5/USBFS_drv.c ****         case USBFS_TRANS_STATE_IDLE:
 212:.\Generated_Source\PSoC5/USBFS_drv.c ****             break;
 213:.\Generated_Source\PSoC5/USBFS_drv.c ****         case USBFS_TRANS_STATE_CONTROL_READ:
 214:.\Generated_Source\PSoC5/USBFS_drv.c ****             USBFS_ControlReadDataStage();
 362              		.loc 1 214 0
 363 0038 FFF7FEFF 		bl	USBFS_ControlReadDataStage
 215:.\Generated_Source\PSoC5/USBFS_drv.c ****             break;
 364              		.loc 1 215 0
 365 003c 06E0     		b	.L19
 366              	.L23:
 216:.\Generated_Source\PSoC5/USBFS_drv.c ****         case USBFS_TRANS_STATE_CONTROL_WRITE:
 217:.\Generated_Source\PSoC5/USBFS_drv.c ****             USBFS_ControlWriteStatusStage();
 367              		.loc 1 217 0
 368 003e FFF7FEFF 		bl	USBFS_ControlWriteStatusStage
 218:.\Generated_Source\PSoC5/USBFS_drv.c ****             break;
 369              		.loc 1 218 0
 370 0042 03E0     		b	.L19
 371              	.L24:
 219:.\Generated_Source\PSoC5/USBFS_drv.c ****         case USBFS_TRANS_STATE_NO_DATA_CONTROL:
 220:.\Generated_Source\PSoC5/USBFS_drv.c ****             USBFS_NoDataControlStatusStage();
 372              		.loc 1 220 0
 373 0044 FFF7FEFF 		bl	USBFS_NoDataControlStatusStage
 221:.\Generated_Source\PSoC5/USBFS_drv.c ****             break;
 374              		.loc 1 221 0
 375 0048 00E0     		b	.L19
 376              	.L27:
 222:.\Generated_Source\PSoC5/USBFS_drv.c ****         default:    /* there are no more states */
 223:.\Generated_Source\PSoC5/USBFS_drv.c ****             break;
 377              		.loc 1 223 0
 378 004a 00BF     		nop
 379              	.L19:
 224:.\Generated_Source\PSoC5/USBFS_drv.c ****     }
 225:.\Generated_Source\PSoC5/USBFS_drv.c **** }
 380              		.loc 1 225 0
 381 004c 80BD     		pop	{r7, pc}
 382              		.cfi_endproc
 383              	.LFE2:
 384              		.size	USBFS_HandleIN, .-USBFS_HandleIN
 385 004e 00BF     		.section	.text.USBFS_HandleOUT,"ax",%progbits
 386              		.align	2
 387              		.global	USBFS_HandleOUT
 388              		.thumb
 389              		.thumb_func
 390              		.type	USBFS_HandleOUT, %function
 391              	USBFS_HandleOUT:
 392              	.LFB3:
 226:.\Generated_Source\PSoC5/USBFS_drv.c **** 
 227:.\Generated_Source\PSoC5/USBFS_drv.c **** 
 228:.\Generated_Source\PSoC5/USBFS_drv.c **** /*******************************************************************************
 229:.\Generated_Source\PSoC5/USBFS_drv.c **** * Function Name: USBFS_HandleOUT
 230:.\Generated_Source\PSoC5/USBFS_drv.c **** ********************************************************************************
 231:.\Generated_Source\PSoC5/USBFS_drv.c **** *
 232:.\Generated_Source\PSoC5/USBFS_drv.c **** * Summary:
 233:.\Generated_Source\PSoC5/USBFS_drv.c **** *  This routine handles EP0 OUT transfers.
 234:.\Generated_Source\PSoC5/USBFS_drv.c **** *
 235:.\Generated_Source\PSoC5/USBFS_drv.c **** * Parameters:
ARM GAS  C:\Users\Robert\AppData\Local\Temp\ccQqeyhO.s 			page 12


 236:.\Generated_Source\PSoC5/USBFS_drv.c **** *  None.
 237:.\Generated_Source\PSoC5/USBFS_drv.c **** *
 238:.\Generated_Source\PSoC5/USBFS_drv.c **** * Return:
 239:.\Generated_Source\PSoC5/USBFS_drv.c **** *  None.
 240:.\Generated_Source\PSoC5/USBFS_drv.c **** *
 241:.\Generated_Source\PSoC5/USBFS_drv.c **** * Reentrant:
 242:.\Generated_Source\PSoC5/USBFS_drv.c **** *  No.
 243:.\Generated_Source\PSoC5/USBFS_drv.c **** *
 244:.\Generated_Source\PSoC5/USBFS_drv.c **** *******************************************************************************/
 245:.\Generated_Source\PSoC5/USBFS_drv.c **** void USBFS_HandleOUT(void) 
 246:.\Generated_Source\PSoC5/USBFS_drv.c **** {
 393              		.loc 1 246 0
 394              		.cfi_startproc
 395              		@ args = 0, pretend = 0, frame = 0
 396              		@ frame_needed = 1, uses_anonymous_args = 0
 397 0000 80B5     		push	{r7, lr}
 398              	.LCFI8:
 399              		.cfi_def_cfa_offset 8
 400              		.cfi_offset 7, -8
 401              		.cfi_offset 14, -4
 402 0002 00AF     		add	r7, sp, #0
 403              	.LCFI9:
 404              		.cfi_def_cfa_register 7
 247:.\Generated_Source\PSoC5/USBFS_drv.c ****     switch (USBFS_transferState)
 405              		.loc 1 247 0
 406 0004 40F20003 		movw	r3, #:lower16:USBFS_transferState
 407 0008 C0F20003 		movt	r3, #:upper16:USBFS_transferState
 408 000c 1B78     		ldrb	r3, [r3, #0]
 409 000e DBB2     		uxtb	r3, r3
 410 0010 062B     		cmp	r3, #6
 411 0012 23D8     		bhi	.L36
 412 0014 01A2     		adr	r2, .L34
 413 0016 52F823F0 		ldr	pc, [r2, r3, lsl #2]
 414 001a 00BF     		.align	2
 415              	.L34:
 416 001c 5D000000 		.word	.L36+1
 417 0020 5D000000 		.word	.L36+1
 418 0024 39000000 		.word	.L31+1
 419 0028 5D000000 		.word	.L36+1
 420 002c 3F000000 		.word	.L32+1
 421 0030 5D000000 		.word	.L36+1
 422 0034 45000000 		.word	.L33+1
 423              	.L31:
 248:.\Generated_Source\PSoC5/USBFS_drv.c ****     {
 249:.\Generated_Source\PSoC5/USBFS_drv.c ****         case USBFS_TRANS_STATE_IDLE:
 250:.\Generated_Source\PSoC5/USBFS_drv.c ****             break;
 251:.\Generated_Source\PSoC5/USBFS_drv.c ****         case USBFS_TRANS_STATE_CONTROL_READ:
 252:.\Generated_Source\PSoC5/USBFS_drv.c ****             USBFS_ControlReadStatusStage();
 424              		.loc 1 252 0
 425 0038 FFF7FEFF 		bl	USBFS_ControlReadStatusStage
 253:.\Generated_Source\PSoC5/USBFS_drv.c ****             break;
 426              		.loc 1 253 0
 427 003c 0FE0     		b	.L28
 428              	.L32:
 254:.\Generated_Source\PSoC5/USBFS_drv.c ****         case USBFS_TRANS_STATE_CONTROL_WRITE:
 255:.\Generated_Source\PSoC5/USBFS_drv.c ****             USBFS_ControlWriteDataStage();
 429              		.loc 1 255 0
ARM GAS  C:\Users\Robert\AppData\Local\Temp\ccQqeyhO.s 			page 13


 430 003e FFF7FEFF 		bl	USBFS_ControlWriteDataStage
 256:.\Generated_Source\PSoC5/USBFS_drv.c ****             break;
 431              		.loc 1 256 0
 432 0042 0CE0     		b	.L28
 433              	.L33:
 257:.\Generated_Source\PSoC5/USBFS_drv.c ****         case USBFS_TRANS_STATE_NO_DATA_CONTROL:
 258:.\Generated_Source\PSoC5/USBFS_drv.c ****             /* Update the completion block */
 259:.\Generated_Source\PSoC5/USBFS_drv.c ****             USBFS_UpdateStatusBlock(USBFS_XFER_ERROR);
 434              		.loc 1 259 0
 435 0044 4FF00300 		mov	r0, #3
 436 0048 FFF7FEFF 		bl	USBFS_UpdateStatusBlock
 260:.\Generated_Source\PSoC5/USBFS_drv.c ****             /* We expect no more data, so stall INs and OUTs */
 261:.\Generated_Source\PSoC5/USBFS_drv.c ****             USBFS_ep0Mode = USBFS_MODE_STALL_IN_OUT;
 437              		.loc 1 261 0
 438 004c 40F20003 		movw	r3, #:lower16:USBFS_ep0Mode
 439 0050 C0F20003 		movt	r3, #:upper16:USBFS_ep0Mode
 440 0054 4FF00302 		mov	r2, #3
 441 0058 1A70     		strb	r2, [r3, #0]
 262:.\Generated_Source\PSoC5/USBFS_drv.c ****             break;
 442              		.loc 1 262 0
 443 005a 00E0     		b	.L28
 444              	.L36:
 263:.\Generated_Source\PSoC5/USBFS_drv.c ****         default:    /* There are no more states */
 264:.\Generated_Source\PSoC5/USBFS_drv.c ****             break;
 445              		.loc 1 264 0
 446 005c 00BF     		nop
 447              	.L28:
 265:.\Generated_Source\PSoC5/USBFS_drv.c ****     }
 266:.\Generated_Source\PSoC5/USBFS_drv.c **** }
 448              		.loc 1 266 0
 449 005e 80BD     		pop	{r7, pc}
 450              		.cfi_endproc
 451              	.LFE3:
 452              		.size	USBFS_HandleOUT, .-USBFS_HandleOUT
 453              		.section	.text.USBFS_LoadEP0,"ax",%progbits
 454              		.align	2
 455              		.global	USBFS_LoadEP0
 456              		.thumb
 457              		.thumb_func
 458              		.type	USBFS_LoadEP0, %function
 459              	USBFS_LoadEP0:
 460              	.LFB4:
 267:.\Generated_Source\PSoC5/USBFS_drv.c **** 
 268:.\Generated_Source\PSoC5/USBFS_drv.c **** 
 269:.\Generated_Source\PSoC5/USBFS_drv.c **** /*******************************************************************************
 270:.\Generated_Source\PSoC5/USBFS_drv.c **** * Function Name: USBFS_LoadEP0
 271:.\Generated_Source\PSoC5/USBFS_drv.c **** ********************************************************************************
 272:.\Generated_Source\PSoC5/USBFS_drv.c **** *
 273:.\Generated_Source\PSoC5/USBFS_drv.c **** * Summary:
 274:.\Generated_Source\PSoC5/USBFS_drv.c **** *  This routine loads the EP0 data registers for OUT transfers.  It uses the
 275:.\Generated_Source\PSoC5/USBFS_drv.c **** *  currentTD (previously initialized by the _InitControlWrite function and
 276:.\Generated_Source\PSoC5/USBFS_drv.c **** *  updated for each OUT transfer, and the bLastPacketSize) to determine how
 277:.\Generated_Source\PSoC5/USBFS_drv.c **** *  many uint8s to transfer on the current OUT.
 278:.\Generated_Source\PSoC5/USBFS_drv.c **** *
 279:.\Generated_Source\PSoC5/USBFS_drv.c **** *  If the number of uint8s remaining is zero and the last transfer was full,
 280:.\Generated_Source\PSoC5/USBFS_drv.c **** *  we need to send a zero length packet.  Otherwise we send the minimum
 281:.\Generated_Source\PSoC5/USBFS_drv.c **** *  of the control endpoint size (8) or remaining number of uint8s for the
ARM GAS  C:\Users\Robert\AppData\Local\Temp\ccQqeyhO.s 			page 14


 282:.\Generated_Source\PSoC5/USBFS_drv.c **** *  transaction.
 283:.\Generated_Source\PSoC5/USBFS_drv.c **** *
 284:.\Generated_Source\PSoC5/USBFS_drv.c **** * Parameters:
 285:.\Generated_Source\PSoC5/USBFS_drv.c **** *  None.
 286:.\Generated_Source\PSoC5/USBFS_drv.c **** *
 287:.\Generated_Source\PSoC5/USBFS_drv.c **** * Return:
 288:.\Generated_Source\PSoC5/USBFS_drv.c **** *  None.
 289:.\Generated_Source\PSoC5/USBFS_drv.c **** *
 290:.\Generated_Source\PSoC5/USBFS_drv.c **** * Global variables:
 291:.\Generated_Source\PSoC5/USBFS_drv.c **** *  USBFS_transferByteCount - Update the transfer byte count from the
 292:.\Generated_Source\PSoC5/USBFS_drv.c **** *     last transaction.
 293:.\Generated_Source\PSoC5/USBFS_drv.c **** *  USBFS_ep0Count - counts the data loaded to the SIE memory in
 294:.\Generated_Source\PSoC5/USBFS_drv.c **** *     current packet.
 295:.\Generated_Source\PSoC5/USBFS_drv.c **** *  USBFS_lastPacketSize - remembers the USBFS_ep0Count value for the
 296:.\Generated_Source\PSoC5/USBFS_drv.c **** *     next packet.
 297:.\Generated_Source\PSoC5/USBFS_drv.c **** *  USBFS_transferByteCount - sum of the previous bytes transferred
 298:.\Generated_Source\PSoC5/USBFS_drv.c **** *     on previous packets(sum of USBFS_lastPacketSize)
 299:.\Generated_Source\PSoC5/USBFS_drv.c **** *  USBFS_ep0Toggle - inverted
 300:.\Generated_Source\PSoC5/USBFS_drv.c **** *  USBFS_ep0Mode  - prepare for mode register content.
 301:.\Generated_Source\PSoC5/USBFS_drv.c **** *  USBFS_transferState - set to TRANS_STATE_CONTROL_READ
 302:.\Generated_Source\PSoC5/USBFS_drv.c **** *
 303:.\Generated_Source\PSoC5/USBFS_drv.c **** * Reentrant:
 304:.\Generated_Source\PSoC5/USBFS_drv.c **** *  No.
 305:.\Generated_Source\PSoC5/USBFS_drv.c **** *
 306:.\Generated_Source\PSoC5/USBFS_drv.c **** *******************************************************************************/
 307:.\Generated_Source\PSoC5/USBFS_drv.c **** void USBFS_LoadEP0(void) 
 308:.\Generated_Source\PSoC5/USBFS_drv.c **** {
 461              		.loc 1 308 0
 462              		.cfi_startproc
 463              		@ args = 0, pretend = 0, frame = 8
 464              		@ frame_needed = 1, uses_anonymous_args = 0
 465              		@ link register save eliminated.
 466 0000 80B4     		push	{r7}
 467              	.LCFI10:
 468              		.cfi_def_cfa_offset 4
 469              		.cfi_offset 7, -4
 470 0002 83B0     		sub	sp, sp, #12
 471              	.LCFI11:
 472              		.cfi_def_cfa_offset 16
 473 0004 00AF     		add	r7, sp, #0
 474              	.LCFI12:
 475              		.cfi_def_cfa_register 7
 309:.\Generated_Source\PSoC5/USBFS_drv.c ****     uint8 ep0Count = 0u;
 476              		.loc 1 309 0
 477 0006 4FF00003 		mov	r3, #0
 478 000a FB71     		strb	r3, [r7, #7]
 310:.\Generated_Source\PSoC5/USBFS_drv.c **** 
 311:.\Generated_Source\PSoC5/USBFS_drv.c ****     /* Update the transfer byte count from the last transaction */
 312:.\Generated_Source\PSoC5/USBFS_drv.c ****     USBFS_transferByteCount += USBFS_lastPacketSize;
 479              		.loc 1 312 0
 480 000c 40F20003 		movw	r3, #:lower16:USBFS_lastPacketSize
 481 0010 C0F20003 		movt	r3, #:upper16:USBFS_lastPacketSize
 482 0014 1B78     		ldrb	r3, [r3, #0]
 483 0016 DBB2     		uxtb	r3, r3
 484 0018 1A46     		mov	r2, r3
 485 001a 40F20003 		movw	r3, #:lower16:USBFS_transferByteCount
 486 001e C0F20003 		movt	r3, #:upper16:USBFS_transferByteCount
ARM GAS  C:\Users\Robert\AppData\Local\Temp\ccQqeyhO.s 			page 15


 487 0022 1B88     		ldrh	r3, [r3, #0]	@ movhi
 488 0024 9BB2     		uxth	r3, r3
 489 0026 D318     		adds	r3, r2, r3
 490 0028 9AB2     		uxth	r2, r3
 491 002a 40F20003 		movw	r3, #:lower16:USBFS_transferByteCount
 492 002e C0F20003 		movt	r3, #:upper16:USBFS_transferByteCount
 493 0032 1A80     		strh	r2, [r3, #0]	@ movhi
 313:.\Generated_Source\PSoC5/USBFS_drv.c ****     /* Now load the next transaction */
 314:.\Generated_Source\PSoC5/USBFS_drv.c ****     while ((USBFS_currentTD.count > 0u) && (ep0Count < 8u))
 494              		.loc 1 314 0
 495 0034 2BE0     		b	.L38
 496              	.L40:
 315:.\Generated_Source\PSoC5/USBFS_drv.c ****     {
 316:.\Generated_Source\PSoC5/USBFS_drv.c ****         CY_SET_REG8((reg8 *)(USBFS_EP0_DR0_IND + ep0Count), *USBFS_currentTD.pData);
 497              		.loc 1 316 0
 498 0036 FB79     		ldrb	r3, [r7, #7]	@ zero_extendqisi2
 499 0038 03F18043 		add	r3, r3, #1073741824
 500 003c 03F5C043 		add	r3, r3, #24576
 501 0040 1A46     		mov	r2, r3
 502 0042 40F20003 		movw	r3, #:lower16:USBFS_currentTD
 503 0046 C0F20003 		movt	r3, #:upper16:USBFS_currentTD
 504 004a 5B68     		ldr	r3, [r3, #4]
 505 004c 1B78     		ldrb	r3, [r3, #0]
 506 004e DBB2     		uxtb	r3, r3
 507 0050 1370     		strb	r3, [r2, #0]
 317:.\Generated_Source\PSoC5/USBFS_drv.c ****         USBFS_currentTD.pData = &USBFS_currentTD.pData[1u];
 508              		.loc 1 317 0
 509 0052 40F20003 		movw	r3, #:lower16:USBFS_currentTD
 510 0056 C0F20003 		movt	r3, #:upper16:USBFS_currentTD
 511 005a 5B68     		ldr	r3, [r3, #4]
 512 005c 03F10102 		add	r2, r3, #1
 513 0060 40F20003 		movw	r3, #:lower16:USBFS_currentTD
 514 0064 C0F20003 		movt	r3, #:upper16:USBFS_currentTD
 515 0068 5A60     		str	r2, [r3, #4]
 318:.\Generated_Source\PSoC5/USBFS_drv.c ****         ep0Count++;
 516              		.loc 1 318 0
 517 006a FB79     		ldrb	r3, [r7, #7]
 518 006c 03F10103 		add	r3, r3, #1
 519 0070 FB71     		strb	r3, [r7, #7]
 319:.\Generated_Source\PSoC5/USBFS_drv.c ****         USBFS_currentTD.count--;
 520              		.loc 1 319 0
 521 0072 40F20003 		movw	r3, #:lower16:USBFS_currentTD
 522 0076 C0F20003 		movt	r3, #:upper16:USBFS_currentTD
 523 007a 1B88     		ldrh	r3, [r3, #0]	@ movhi
 524 007c 9BB2     		uxth	r3, r3
 525 007e 03F1FF33 		add	r3, r3, #-1
 526 0082 9AB2     		uxth	r2, r3
 527 0084 40F20003 		movw	r3, #:lower16:USBFS_currentTD
 528 0088 C0F20003 		movt	r3, #:upper16:USBFS_currentTD
 529 008c 1A80     		strh	r2, [r3, #0]	@ movhi
 530              	.L38:
 314:.\Generated_Source\PSoC5/USBFS_drv.c ****     while ((USBFS_currentTD.count > 0u) && (ep0Count < 8u))
 531              		.loc 1 314 0 discriminator 1
 532 008e 40F20003 		movw	r3, #:lower16:USBFS_currentTD
 533 0092 C0F20003 		movt	r3, #:upper16:USBFS_currentTD
 534 0096 1B88     		ldrh	r3, [r3, #0]	@ movhi
 535 0098 9BB2     		uxth	r3, r3
ARM GAS  C:\Users\Robert\AppData\Local\Temp\ccQqeyhO.s 			page 16


 536 009a 002B     		cmp	r3, #0
 537 009c 02D0     		beq	.L39
 314:.\Generated_Source\PSoC5/USBFS_drv.c ****     while ((USBFS_currentTD.count > 0u) && (ep0Count < 8u))
 538              		.loc 1 314 0 is_stmt 0 discriminator 2
 539 009e FB79     		ldrb	r3, [r7, #7]	@ zero_extendqisi2
 540 00a0 072B     		cmp	r3, #7
 541 00a2 C8D9     		bls	.L40
 542              	.L39:
 320:.\Generated_Source\PSoC5/USBFS_drv.c ****     }
 321:.\Generated_Source\PSoC5/USBFS_drv.c ****     /* Support zero-length packet*/
 322:.\Generated_Source\PSoC5/USBFS_drv.c ****     if( (USBFS_lastPacketSize == 8u) || (ep0Count > 0u) )
 543              		.loc 1 322 0 is_stmt 1
 544 00a4 40F20003 		movw	r3, #:lower16:USBFS_lastPacketSize
 545 00a8 C0F20003 		movt	r3, #:upper16:USBFS_lastPacketSize
 546 00ac 1B78     		ldrb	r3, [r3, #0]
 547 00ae DBB2     		uxtb	r3, r3
 548 00b0 082B     		cmp	r3, #8
 549 00b2 02D0     		beq	.L41
 550              		.loc 1 322 0 is_stmt 0 discriminator 1
 551 00b4 FB79     		ldrb	r3, [r7, #7]	@ zero_extendqisi2
 552 00b6 002B     		cmp	r3, #0
 553 00b8 1ED0     		beq	.L42
 554              	.L41:
 323:.\Generated_Source\PSoC5/USBFS_drv.c ****     {
 324:.\Generated_Source\PSoC5/USBFS_drv.c ****         /* Update the data toggle */
 325:.\Generated_Source\PSoC5/USBFS_drv.c ****         USBFS_ep0Toggle ^= USBFS_EP0_CNT_DATA_TOGGLE;
 555              		.loc 1 325 0 is_stmt 1
 556 00ba 40F20003 		movw	r3, #:lower16:USBFS_ep0Toggle
 557 00be C0F20003 		movt	r3, #:upper16:USBFS_ep0Toggle
 558 00c2 1B78     		ldrb	r3, [r3, #0]
 559 00c4 DBB2     		uxtb	r3, r3
 560 00c6 83F07F03 		eor	r3, r3, #127
 561 00ca 6FEA0303 		mvn	r3, r3
 562 00ce DAB2     		uxtb	r2, r3
 563 00d0 40F20003 		movw	r3, #:lower16:USBFS_ep0Toggle
 564 00d4 C0F20003 		movt	r3, #:upper16:USBFS_ep0Toggle
 565 00d8 1A70     		strb	r2, [r3, #0]
 326:.\Generated_Source\PSoC5/USBFS_drv.c ****         /* Set the Mode Register  */
 327:.\Generated_Source\PSoC5/USBFS_drv.c ****         USBFS_ep0Mode = USBFS_MODE_ACK_IN_STATUS_OUT;
 566              		.loc 1 327 0
 567 00da 40F20003 		movw	r3, #:lower16:USBFS_ep0Mode
 568 00de C0F20003 		movt	r3, #:upper16:USBFS_ep0Mode
 569 00e2 4FF00F02 		mov	r2, #15
 570 00e6 1A70     		strb	r2, [r3, #0]
 328:.\Generated_Source\PSoC5/USBFS_drv.c ****         /* Update the state (or stay the same) */
 329:.\Generated_Source\PSoC5/USBFS_drv.c ****         USBFS_transferState = USBFS_TRANS_STATE_CONTROL_READ;
 571              		.loc 1 329 0
 572 00e8 40F20003 		movw	r3, #:lower16:USBFS_transferState
 573 00ec C0F20003 		movt	r3, #:upper16:USBFS_transferState
 574 00f0 4FF00202 		mov	r2, #2
 575 00f4 1A70     		strb	r2, [r3, #0]
 576 00f6 0DE0     		b	.L43
 577              	.L42:
 330:.\Generated_Source\PSoC5/USBFS_drv.c ****     }
 331:.\Generated_Source\PSoC5/USBFS_drv.c ****     else
 332:.\Generated_Source\PSoC5/USBFS_drv.c ****     {
 333:.\Generated_Source\PSoC5/USBFS_drv.c ****         /* Expect Status Stage Out */
ARM GAS  C:\Users\Robert\AppData\Local\Temp\ccQqeyhO.s 			page 17


 334:.\Generated_Source\PSoC5/USBFS_drv.c ****         USBFS_ep0Mode = USBFS_MODE_STATUS_OUT_ONLY;
 578              		.loc 1 334 0
 579 00f8 40F20003 		movw	r3, #:lower16:USBFS_ep0Mode
 580 00fc C0F20003 		movt	r3, #:upper16:USBFS_ep0Mode
 581 0100 4FF00202 		mov	r2, #2
 582 0104 1A70     		strb	r2, [r3, #0]
 335:.\Generated_Source\PSoC5/USBFS_drv.c ****         /* Update the state (or stay the same) */
 336:.\Generated_Source\PSoC5/USBFS_drv.c ****         USBFS_transferState = USBFS_TRANS_STATE_CONTROL_READ;
 583              		.loc 1 336 0
 584 0106 40F20003 		movw	r3, #:lower16:USBFS_transferState
 585 010a C0F20003 		movt	r3, #:upper16:USBFS_transferState
 586 010e 4FF00202 		mov	r2, #2
 587 0112 1A70     		strb	r2, [r3, #0]
 588              	.L43:
 337:.\Generated_Source\PSoC5/USBFS_drv.c ****     }
 338:.\Generated_Source\PSoC5/USBFS_drv.c **** 
 339:.\Generated_Source\PSoC5/USBFS_drv.c ****     /* Save the packet size for next time */
 340:.\Generated_Source\PSoC5/USBFS_drv.c ****     USBFS_lastPacketSize = ep0Count;
 589              		.loc 1 340 0
 590 0114 40F20003 		movw	r3, #:lower16:USBFS_lastPacketSize
 591 0118 C0F20003 		movt	r3, #:upper16:USBFS_lastPacketSize
 592 011c FA79     		ldrb	r2, [r7, #7]
 593 011e 1A70     		strb	r2, [r3, #0]
 341:.\Generated_Source\PSoC5/USBFS_drv.c ****     USBFS_ep0Count = ep0Count;
 594              		.loc 1 341 0
 595 0120 40F20003 		movw	r3, #:lower16:USBFS_ep0Count
 596 0124 C0F20003 		movt	r3, #:upper16:USBFS_ep0Count
 597 0128 FA79     		ldrb	r2, [r7, #7]
 598 012a 1A70     		strb	r2, [r3, #0]
 342:.\Generated_Source\PSoC5/USBFS_drv.c **** }
 599              		.loc 1 342 0
 600 012c 07F10C07 		add	r7, r7, #12
 601 0130 BD46     		mov	sp, r7
 602 0132 80BC     		pop	{r7}
 603 0134 7047     		bx	lr
 604              		.cfi_endproc
 605              	.LFE4:
 606              		.size	USBFS_LoadEP0, .-USBFS_LoadEP0
 607 0136 00BF     		.section	.text.USBFS_InitControlRead,"ax",%progbits
 608              		.align	2
 609              		.global	USBFS_InitControlRead
 610              		.thumb
 611              		.thumb_func
 612              		.type	USBFS_InitControlRead, %function
 613              	USBFS_InitControlRead:
 614              	.LFB5:
 343:.\Generated_Source\PSoC5/USBFS_drv.c **** 
 344:.\Generated_Source\PSoC5/USBFS_drv.c **** 
 345:.\Generated_Source\PSoC5/USBFS_drv.c **** /*******************************************************************************
 346:.\Generated_Source\PSoC5/USBFS_drv.c **** * Function Name: USBFS_InitControlRead
 347:.\Generated_Source\PSoC5/USBFS_drv.c **** ********************************************************************************
 348:.\Generated_Source\PSoC5/USBFS_drv.c **** *
 349:.\Generated_Source\PSoC5/USBFS_drv.c **** * Summary:
 350:.\Generated_Source\PSoC5/USBFS_drv.c **** *  Initialize a control read transaction, usable to send data to the host.
 351:.\Generated_Source\PSoC5/USBFS_drv.c **** *  The following global variables should be initialized before this function
 352:.\Generated_Source\PSoC5/USBFS_drv.c **** *  called. To send zero length packet use InitZeroLengthControlTransfer
 353:.\Generated_Source\PSoC5/USBFS_drv.c **** *  function.
ARM GAS  C:\Users\Robert\AppData\Local\Temp\ccQqeyhO.s 			page 18


 354:.\Generated_Source\PSoC5/USBFS_drv.c **** *
 355:.\Generated_Source\PSoC5/USBFS_drv.c **** * Parameters:
 356:.\Generated_Source\PSoC5/USBFS_drv.c **** *  None.
 357:.\Generated_Source\PSoC5/USBFS_drv.c **** *
 358:.\Generated_Source\PSoC5/USBFS_drv.c **** * Return:
 359:.\Generated_Source\PSoC5/USBFS_drv.c **** *  requestHandled state.
 360:.\Generated_Source\PSoC5/USBFS_drv.c **** *
 361:.\Generated_Source\PSoC5/USBFS_drv.c **** * Global variables:
 362:.\Generated_Source\PSoC5/USBFS_drv.c **** *  USBFS_currentTD.count - counts of data to be sent.
 363:.\Generated_Source\PSoC5/USBFS_drv.c **** *  USBFS_currentTD.pData - data pointer.
 364:.\Generated_Source\PSoC5/USBFS_drv.c **** *
 365:.\Generated_Source\PSoC5/USBFS_drv.c **** * Reentrant:
 366:.\Generated_Source\PSoC5/USBFS_drv.c **** *  No.
 367:.\Generated_Source\PSoC5/USBFS_drv.c **** *
 368:.\Generated_Source\PSoC5/USBFS_drv.c **** *******************************************************************************/
 369:.\Generated_Source\PSoC5/USBFS_drv.c **** uint8 USBFS_InitControlRead(void) 
 370:.\Generated_Source\PSoC5/USBFS_drv.c **** {
 615              		.loc 1 370 0
 616              		.cfi_startproc
 617              		@ args = 0, pretend = 0, frame = 8
 618              		@ frame_needed = 1, uses_anonymous_args = 0
 619 0000 80B5     		push	{r7, lr}
 620              	.LCFI13:
 621              		.cfi_def_cfa_offset 8
 622              		.cfi_offset 7, -8
 623              		.cfi_offset 14, -4
 624 0002 82B0     		sub	sp, sp, #8
 625              	.LCFI14:
 626              		.cfi_def_cfa_offset 16
 627 0004 00AF     		add	r7, sp, #0
 628              	.LCFI15:
 629              		.cfi_def_cfa_register 7
 371:.\Generated_Source\PSoC5/USBFS_drv.c ****     uint16 xferCount;
 372:.\Generated_Source\PSoC5/USBFS_drv.c ****     if(USBFS_currentTD.count == 0u)
 630              		.loc 1 372 0
 631 0006 40F20003 		movw	r3, #:lower16:USBFS_currentTD
 632 000a C0F20003 		movt	r3, #:upper16:USBFS_currentTD
 633 000e 1B88     		ldrh	r3, [r3, #0]	@ movhi
 634 0010 9BB2     		uxth	r3, r3
 635 0012 002B     		cmp	r3, #0
 636 0014 02D1     		bne	.L45
 373:.\Generated_Source\PSoC5/USBFS_drv.c ****     {
 374:.\Generated_Source\PSoC5/USBFS_drv.c ****         (void) USBFS_InitZeroLengthControlTransfer();
 637              		.loc 1 374 0
 638 0016 FFF7FEFF 		bl	USBFS_InitZeroLengthControlTransfer
 639 001a 32E0     		b	.L46
 640              	.L45:
 375:.\Generated_Source\PSoC5/USBFS_drv.c ****     }
 376:.\Generated_Source\PSoC5/USBFS_drv.c ****     else
 377:.\Generated_Source\PSoC5/USBFS_drv.c ****     {
 378:.\Generated_Source\PSoC5/USBFS_drv.c ****         /* Set up the state machine */
 379:.\Generated_Source\PSoC5/USBFS_drv.c ****         USBFS_transferState = USBFS_TRANS_STATE_CONTROL_READ;
 641              		.loc 1 379 0
 642 001c 40F20003 		movw	r3, #:lower16:USBFS_transferState
 643 0020 C0F20003 		movt	r3, #:upper16:USBFS_transferState
 644 0024 4FF00202 		mov	r2, #2
 645 0028 1A70     		strb	r2, [r3, #0]
ARM GAS  C:\Users\Robert\AppData\Local\Temp\ccQqeyhO.s 			page 19


 380:.\Generated_Source\PSoC5/USBFS_drv.c ****         /* Set the toggle, it gets updated in LoadEP */
 381:.\Generated_Source\PSoC5/USBFS_drv.c ****         USBFS_ep0Toggle = 0u;
 646              		.loc 1 381 0
 647 002a 40F20003 		movw	r3, #:lower16:USBFS_ep0Toggle
 648 002e C0F20003 		movt	r3, #:upper16:USBFS_ep0Toggle
 649 0032 4FF00002 		mov	r2, #0
 650 0036 1A70     		strb	r2, [r3, #0]
 382:.\Generated_Source\PSoC5/USBFS_drv.c ****         /* Initialize the Status Block */
 383:.\Generated_Source\PSoC5/USBFS_drv.c ****         USBFS_InitializeStatusBlock();
 651              		.loc 1 383 0
 652 0038 FFF7FEFF 		bl	USBFS_InitializeStatusBlock
 384:.\Generated_Source\PSoC5/USBFS_drv.c ****         xferCount = (((uint16)CY_GET_REG8(USBFS_lengthHi) << 8u) | (CY_GET_REG8(USBFS_lengthLo)));
 653              		.loc 1 384 0
 654 003c 46F20703 		movw	r3, #24583
 655 0040 C4F20003 		movt	r3, 16384
 656 0044 1B78     		ldrb	r3, [r3, #0]
 657 0046 DBB2     		uxtb	r3, r3
 658 0048 4FEA0323 		lsl	r3, r3, #8
 659 004c 9AB2     		uxth	r2, r3
 660 004e 46F20603 		movw	r3, #24582
 661 0052 C4F20003 		movt	r3, 16384
 662 0056 1B78     		ldrb	r3, [r3, #0]
 663 0058 DBB2     		uxtb	r3, r3
 664 005a 1343     		orrs	r3, r3, r2
 665 005c 9BB2     		uxth	r3, r3
 666 005e FB80     		strh	r3, [r7, #6]	@ movhi
 385:.\Generated_Source\PSoC5/USBFS_drv.c **** 
 386:.\Generated_Source\PSoC5/USBFS_drv.c ****         if (USBFS_currentTD.count > xferCount)
 667              		.loc 1 386 0
 668 0060 40F20003 		movw	r3, #:lower16:USBFS_currentTD
 669 0064 C0F20003 		movt	r3, #:upper16:USBFS_currentTD
 670 0068 1B88     		ldrh	r3, [r3, #0]	@ movhi
 671 006a 9BB2     		uxth	r3, r3
 672 006c FA88     		ldrh	r2, [r7, #6]
 673 006e 9A42     		cmp	r2, r3
 674 0070 05D2     		bcs	.L47
 387:.\Generated_Source\PSoC5/USBFS_drv.c ****         {
 388:.\Generated_Source\PSoC5/USBFS_drv.c ****             USBFS_currentTD.count = xferCount;
 675              		.loc 1 388 0
 676 0072 40F20003 		movw	r3, #:lower16:USBFS_currentTD
 677 0076 C0F20003 		movt	r3, #:upper16:USBFS_currentTD
 678 007a FA88     		ldrh	r2, [r7, #6]	@ movhi
 679 007c 1A80     		strh	r2, [r3, #0]	@ movhi
 680              	.L47:
 389:.\Generated_Source\PSoC5/USBFS_drv.c ****         }
 390:.\Generated_Source\PSoC5/USBFS_drv.c ****         USBFS_LoadEP0();
 681              		.loc 1 390 0
 682 007e FFF7FEFF 		bl	USBFS_LoadEP0
 683              	.L46:
 391:.\Generated_Source\PSoC5/USBFS_drv.c ****     }
 392:.\Generated_Source\PSoC5/USBFS_drv.c **** 
 393:.\Generated_Source\PSoC5/USBFS_drv.c ****     return(USBFS_TRUE);
 684              		.loc 1 393 0
 685 0082 4FF00103 		mov	r3, #1
 394:.\Generated_Source\PSoC5/USBFS_drv.c **** }
 686              		.loc 1 394 0
 687 0086 1846     		mov	r0, r3
ARM GAS  C:\Users\Robert\AppData\Local\Temp\ccQqeyhO.s 			page 20


 688 0088 07F10807 		add	r7, r7, #8
 689 008c BD46     		mov	sp, r7
 690 008e 80BD     		pop	{r7, pc}
 691              		.cfi_endproc
 692              	.LFE5:
 693              		.size	USBFS_InitControlRead, .-USBFS_InitControlRead
 694              		.section	.text.USBFS_InitZeroLengthControlTransfer,"ax",%progbits
 695              		.align	2
 696              		.global	USBFS_InitZeroLengthControlTransfer
 697              		.thumb
 698              		.thumb_func
 699              		.type	USBFS_InitZeroLengthControlTransfer, %function
 700              	USBFS_InitZeroLengthControlTransfer:
 701              	.LFB6:
 395:.\Generated_Source\PSoC5/USBFS_drv.c **** 
 396:.\Generated_Source\PSoC5/USBFS_drv.c **** 
 397:.\Generated_Source\PSoC5/USBFS_drv.c **** /*******************************************************************************
 398:.\Generated_Source\PSoC5/USBFS_drv.c **** * Function Name: USBFS_InitZeroLengthControlTransfer
 399:.\Generated_Source\PSoC5/USBFS_drv.c **** ********************************************************************************
 400:.\Generated_Source\PSoC5/USBFS_drv.c **** *
 401:.\Generated_Source\PSoC5/USBFS_drv.c **** * Summary:
 402:.\Generated_Source\PSoC5/USBFS_drv.c **** *  Initialize a zero length data IN transfer.
 403:.\Generated_Source\PSoC5/USBFS_drv.c **** *
 404:.\Generated_Source\PSoC5/USBFS_drv.c **** * Parameters:
 405:.\Generated_Source\PSoC5/USBFS_drv.c **** *  None.
 406:.\Generated_Source\PSoC5/USBFS_drv.c **** *
 407:.\Generated_Source\PSoC5/USBFS_drv.c **** * Return:
 408:.\Generated_Source\PSoC5/USBFS_drv.c **** *  requestHandled state.
 409:.\Generated_Source\PSoC5/USBFS_drv.c **** *
 410:.\Generated_Source\PSoC5/USBFS_drv.c **** * Global variables:
 411:.\Generated_Source\PSoC5/USBFS_drv.c **** *  USBFS_ep0Toggle - set to EP0_CNT_DATA_TOGGLE
 412:.\Generated_Source\PSoC5/USBFS_drv.c **** *  USBFS_ep0Mode  - prepare for mode register content.
 413:.\Generated_Source\PSoC5/USBFS_drv.c **** *  USBFS_transferState - set to TRANS_STATE_CONTROL_READ
 414:.\Generated_Source\PSoC5/USBFS_drv.c **** *  USBFS_ep0Count - cleared, means the zero-length packet.
 415:.\Generated_Source\PSoC5/USBFS_drv.c **** *  USBFS_lastPacketSize - cleared.
 416:.\Generated_Source\PSoC5/USBFS_drv.c **** *
 417:.\Generated_Source\PSoC5/USBFS_drv.c **** * Reentrant:
 418:.\Generated_Source\PSoC5/USBFS_drv.c **** *  No.
 419:.\Generated_Source\PSoC5/USBFS_drv.c **** *
 420:.\Generated_Source\PSoC5/USBFS_drv.c **** *******************************************************************************/
 421:.\Generated_Source\PSoC5/USBFS_drv.c **** uint8 USBFS_InitZeroLengthControlTransfer(void)
 422:.\Generated_Source\PSoC5/USBFS_drv.c ****                                                 
 423:.\Generated_Source\PSoC5/USBFS_drv.c **** {
 702              		.loc 1 423 0
 703              		.cfi_startproc
 704              		@ args = 0, pretend = 0, frame = 0
 705              		@ frame_needed = 1, uses_anonymous_args = 0
 706              		@ link register save eliminated.
 707 0000 80B4     		push	{r7}
 708              	.LCFI16:
 709              		.cfi_def_cfa_offset 4
 710              		.cfi_offset 7, -4
 711 0002 00AF     		add	r7, sp, #0
 712              	.LCFI17:
 713              		.cfi_def_cfa_register 7
 424:.\Generated_Source\PSoC5/USBFS_drv.c ****     /* Update the state */
 425:.\Generated_Source\PSoC5/USBFS_drv.c ****     USBFS_transferState = USBFS_TRANS_STATE_CONTROL_READ;
ARM GAS  C:\Users\Robert\AppData\Local\Temp\ccQqeyhO.s 			page 21


 714              		.loc 1 425 0
 715 0004 40F20003 		movw	r3, #:lower16:USBFS_transferState
 716 0008 C0F20003 		movt	r3, #:upper16:USBFS_transferState
 717 000c 4FF00202 		mov	r2, #2
 718 0010 1A70     		strb	r2, [r3, #0]
 426:.\Generated_Source\PSoC5/USBFS_drv.c ****     /* Set the data toggle */
 427:.\Generated_Source\PSoC5/USBFS_drv.c ****     USBFS_ep0Toggle = USBFS_EP0_CNT_DATA_TOGGLE;
 719              		.loc 1 427 0
 720 0012 40F20003 		movw	r3, #:lower16:USBFS_ep0Toggle
 721 0016 C0F20003 		movt	r3, #:upper16:USBFS_ep0Toggle
 722 001a 4FF08002 		mov	r2, #128
 723 001e 1A70     		strb	r2, [r3, #0]
 428:.\Generated_Source\PSoC5/USBFS_drv.c ****     /* Set the Mode Register  */
 429:.\Generated_Source\PSoC5/USBFS_drv.c ****     USBFS_ep0Mode = USBFS_MODE_ACK_IN_STATUS_OUT;
 724              		.loc 1 429 0
 725 0020 40F20003 		movw	r3, #:lower16:USBFS_ep0Mode
 726 0024 C0F20003 		movt	r3, #:upper16:USBFS_ep0Mode
 727 0028 4FF00F02 		mov	r2, #15
 728 002c 1A70     		strb	r2, [r3, #0]
 430:.\Generated_Source\PSoC5/USBFS_drv.c ****     /* Save the packet size for next time */
 431:.\Generated_Source\PSoC5/USBFS_drv.c ****     USBFS_lastPacketSize = 0u;
 729              		.loc 1 431 0
 730 002e 40F20003 		movw	r3, #:lower16:USBFS_lastPacketSize
 731 0032 C0F20003 		movt	r3, #:upper16:USBFS_lastPacketSize
 732 0036 4FF00002 		mov	r2, #0
 733 003a 1A70     		strb	r2, [r3, #0]
 432:.\Generated_Source\PSoC5/USBFS_drv.c ****     USBFS_ep0Count = 0u;
 734              		.loc 1 432 0
 735 003c 40F20003 		movw	r3, #:lower16:USBFS_ep0Count
 736 0040 C0F20003 		movt	r3, #:upper16:USBFS_ep0Count
 737 0044 4FF00002 		mov	r2, #0
 738 0048 1A70     		strb	r2, [r3, #0]
 433:.\Generated_Source\PSoC5/USBFS_drv.c **** 
 434:.\Generated_Source\PSoC5/USBFS_drv.c ****     return(USBFS_TRUE);
 739              		.loc 1 434 0
 740 004a 4FF00103 		mov	r3, #1
 435:.\Generated_Source\PSoC5/USBFS_drv.c **** }
 741              		.loc 1 435 0
 742 004e 1846     		mov	r0, r3
 743 0050 BD46     		mov	sp, r7
 744 0052 80BC     		pop	{r7}
 745 0054 7047     		bx	lr
 746              		.cfi_endproc
 747              	.LFE6:
 748              		.size	USBFS_InitZeroLengthControlTransfer, .-USBFS_InitZeroLengthControlTransfer
 749 0056 00BF     		.section	.text.USBFS_ControlReadDataStage,"ax",%progbits
 750              		.align	2
 751              		.global	USBFS_ControlReadDataStage
 752              		.thumb
 753              		.thumb_func
 754              		.type	USBFS_ControlReadDataStage, %function
 755              	USBFS_ControlReadDataStage:
 756              	.LFB7:
 436:.\Generated_Source\PSoC5/USBFS_drv.c **** 
 437:.\Generated_Source\PSoC5/USBFS_drv.c **** 
 438:.\Generated_Source\PSoC5/USBFS_drv.c **** /*******************************************************************************
 439:.\Generated_Source\PSoC5/USBFS_drv.c **** * Function Name: USBFS_ControlReadDataStage
ARM GAS  C:\Users\Robert\AppData\Local\Temp\ccQqeyhO.s 			page 22


 440:.\Generated_Source\PSoC5/USBFS_drv.c **** ********************************************************************************
 441:.\Generated_Source\PSoC5/USBFS_drv.c **** *
 442:.\Generated_Source\PSoC5/USBFS_drv.c **** * Summary:
 443:.\Generated_Source\PSoC5/USBFS_drv.c **** *  Handle the Data Stage of a control read transfer.
 444:.\Generated_Source\PSoC5/USBFS_drv.c **** *
 445:.\Generated_Source\PSoC5/USBFS_drv.c **** * Parameters:
 446:.\Generated_Source\PSoC5/USBFS_drv.c **** *  None.
 447:.\Generated_Source\PSoC5/USBFS_drv.c **** *
 448:.\Generated_Source\PSoC5/USBFS_drv.c **** * Return:
 449:.\Generated_Source\PSoC5/USBFS_drv.c **** *  None.
 450:.\Generated_Source\PSoC5/USBFS_drv.c **** *
 451:.\Generated_Source\PSoC5/USBFS_drv.c **** * Reentrant:
 452:.\Generated_Source\PSoC5/USBFS_drv.c **** *  No.
 453:.\Generated_Source\PSoC5/USBFS_drv.c **** *
 454:.\Generated_Source\PSoC5/USBFS_drv.c **** *******************************************************************************/
 455:.\Generated_Source\PSoC5/USBFS_drv.c **** void USBFS_ControlReadDataStage(void) 
 456:.\Generated_Source\PSoC5/USBFS_drv.c **** 
 457:.\Generated_Source\PSoC5/USBFS_drv.c **** {
 757              		.loc 1 457 0
 758              		.cfi_startproc
 759              		@ args = 0, pretend = 0, frame = 0
 760              		@ frame_needed = 1, uses_anonymous_args = 0
 761 0000 80B5     		push	{r7, lr}
 762              	.LCFI18:
 763              		.cfi_def_cfa_offset 8
 764              		.cfi_offset 7, -8
 765              		.cfi_offset 14, -4
 766 0002 00AF     		add	r7, sp, #0
 767              	.LCFI19:
 768              		.cfi_def_cfa_register 7
 458:.\Generated_Source\PSoC5/USBFS_drv.c ****     USBFS_LoadEP0();
 769              		.loc 1 458 0
 770 0004 FFF7FEFF 		bl	USBFS_LoadEP0
 459:.\Generated_Source\PSoC5/USBFS_drv.c **** }
 771              		.loc 1 459 0
 772 0008 80BD     		pop	{r7, pc}
 773              		.cfi_endproc
 774              	.LFE7:
 775              		.size	USBFS_ControlReadDataStage, .-USBFS_ControlReadDataStage
 776 000a 00BF     		.section	.text.USBFS_ControlReadStatusStage,"ax",%progbits
 777              		.align	2
 778              		.global	USBFS_ControlReadStatusStage
 779              		.thumb
 780              		.thumb_func
 781              		.type	USBFS_ControlReadStatusStage, %function
 782              	USBFS_ControlReadStatusStage:
 783              	.LFB8:
 460:.\Generated_Source\PSoC5/USBFS_drv.c **** 
 461:.\Generated_Source\PSoC5/USBFS_drv.c **** 
 462:.\Generated_Source\PSoC5/USBFS_drv.c **** /*******************************************************************************
 463:.\Generated_Source\PSoC5/USBFS_drv.c **** * Function Name: USBFS_ControlReadStatusStage
 464:.\Generated_Source\PSoC5/USBFS_drv.c **** ********************************************************************************
 465:.\Generated_Source\PSoC5/USBFS_drv.c **** *
 466:.\Generated_Source\PSoC5/USBFS_drv.c **** * Summary:
 467:.\Generated_Source\PSoC5/USBFS_drv.c **** *  Handle the Status Stage of a control read transfer.
 468:.\Generated_Source\PSoC5/USBFS_drv.c **** *
 469:.\Generated_Source\PSoC5/USBFS_drv.c **** * Parameters:
ARM GAS  C:\Users\Robert\AppData\Local\Temp\ccQqeyhO.s 			page 23


 470:.\Generated_Source\PSoC5/USBFS_drv.c **** *  None.
 471:.\Generated_Source\PSoC5/USBFS_drv.c **** *
 472:.\Generated_Source\PSoC5/USBFS_drv.c **** * Return:
 473:.\Generated_Source\PSoC5/USBFS_drv.c **** *  None.
 474:.\Generated_Source\PSoC5/USBFS_drv.c **** *
 475:.\Generated_Source\PSoC5/USBFS_drv.c **** * Global variables:
 476:.\Generated_Source\PSoC5/USBFS_drv.c **** *  USBFS_USBFS_transferByteCount - updated with last packet size.
 477:.\Generated_Source\PSoC5/USBFS_drv.c **** *  USBFS_transferState - set to TRANS_STATE_IDLE.
 478:.\Generated_Source\PSoC5/USBFS_drv.c **** *  USBFS_ep0Mode  - set to MODE_STALL_IN_OUT.
 479:.\Generated_Source\PSoC5/USBFS_drv.c **** *
 480:.\Generated_Source\PSoC5/USBFS_drv.c **** * Reentrant:
 481:.\Generated_Source\PSoC5/USBFS_drv.c **** *  No.
 482:.\Generated_Source\PSoC5/USBFS_drv.c **** *
 483:.\Generated_Source\PSoC5/USBFS_drv.c **** *******************************************************************************/
 484:.\Generated_Source\PSoC5/USBFS_drv.c **** void USBFS_ControlReadStatusStage(void) 
 485:.\Generated_Source\PSoC5/USBFS_drv.c **** {
 784              		.loc 1 485 0
 785              		.cfi_startproc
 786              		@ args = 0, pretend = 0, frame = 0
 787              		@ frame_needed = 1, uses_anonymous_args = 0
 788 0000 80B5     		push	{r7, lr}
 789              	.LCFI20:
 790              		.cfi_def_cfa_offset 8
 791              		.cfi_offset 7, -8
 792              		.cfi_offset 14, -4
 793 0002 00AF     		add	r7, sp, #0
 794              	.LCFI21:
 795              		.cfi_def_cfa_register 7
 486:.\Generated_Source\PSoC5/USBFS_drv.c ****     /* Update the transfer byte count */
 487:.\Generated_Source\PSoC5/USBFS_drv.c ****     USBFS_transferByteCount += USBFS_lastPacketSize;
 796              		.loc 1 487 0
 797 0004 40F20003 		movw	r3, #:lower16:USBFS_lastPacketSize
 798 0008 C0F20003 		movt	r3, #:upper16:USBFS_lastPacketSize
 799 000c 1B78     		ldrb	r3, [r3, #0]
 800 000e DBB2     		uxtb	r3, r3
 801 0010 1A46     		mov	r2, r3
 802 0012 40F20003 		movw	r3, #:lower16:USBFS_transferByteCount
 803 0016 C0F20003 		movt	r3, #:upper16:USBFS_transferByteCount
 804 001a 1B88     		ldrh	r3, [r3, #0]	@ movhi
 805 001c 9BB2     		uxth	r3, r3
 806 001e D318     		adds	r3, r2, r3
 807 0020 9AB2     		uxth	r2, r3
 808 0022 40F20003 		movw	r3, #:lower16:USBFS_transferByteCount
 809 0026 C0F20003 		movt	r3, #:upper16:USBFS_transferByteCount
 810 002a 1A80     		strh	r2, [r3, #0]	@ movhi
 488:.\Generated_Source\PSoC5/USBFS_drv.c ****     /* Go Idle */
 489:.\Generated_Source\PSoC5/USBFS_drv.c ****     USBFS_transferState = USBFS_TRANS_STATE_IDLE;
 811              		.loc 1 489 0
 812 002c 40F20003 		movw	r3, #:lower16:USBFS_transferState
 813 0030 C0F20003 		movt	r3, #:upper16:USBFS_transferState
 814 0034 4FF00002 		mov	r2, #0
 815 0038 1A70     		strb	r2, [r3, #0]
 490:.\Generated_Source\PSoC5/USBFS_drv.c ****     /* Update the completion block */
 491:.\Generated_Source\PSoC5/USBFS_drv.c ****     USBFS_UpdateStatusBlock(USBFS_XFER_STATUS_ACK);
 816              		.loc 1 491 0
 817 003a 4FF00100 		mov	r0, #1
 818 003e FFF7FEFF 		bl	USBFS_UpdateStatusBlock
ARM GAS  C:\Users\Robert\AppData\Local\Temp\ccQqeyhO.s 			page 24


 492:.\Generated_Source\PSoC5/USBFS_drv.c ****     /* We expect no more data, so stall INs and OUTs */
 493:.\Generated_Source\PSoC5/USBFS_drv.c ****     USBFS_ep0Mode =  USBFS_MODE_STALL_IN_OUT;
 819              		.loc 1 493 0
 820 0042 40F20003 		movw	r3, #:lower16:USBFS_ep0Mode
 821 0046 C0F20003 		movt	r3, #:upper16:USBFS_ep0Mode
 822 004a 4FF00302 		mov	r2, #3
 823 004e 1A70     		strb	r2, [r3, #0]
 494:.\Generated_Source\PSoC5/USBFS_drv.c **** }
 824              		.loc 1 494 0
 825 0050 80BD     		pop	{r7, pc}
 826              		.cfi_endproc
 827              	.LFE8:
 828              		.size	USBFS_ControlReadStatusStage, .-USBFS_ControlReadStatusStage
 829 0052 00BF     		.section	.text.USBFS_InitControlWrite,"ax",%progbits
 830              		.align	2
 831              		.global	USBFS_InitControlWrite
 832              		.thumb
 833              		.thumb_func
 834              		.type	USBFS_InitControlWrite, %function
 835              	USBFS_InitControlWrite:
 836              	.LFB9:
 495:.\Generated_Source\PSoC5/USBFS_drv.c **** 
 496:.\Generated_Source\PSoC5/USBFS_drv.c **** 
 497:.\Generated_Source\PSoC5/USBFS_drv.c **** /*******************************************************************************
 498:.\Generated_Source\PSoC5/USBFS_drv.c **** * Function Name: USBFS_InitControlWrite
 499:.\Generated_Source\PSoC5/USBFS_drv.c **** ********************************************************************************
 500:.\Generated_Source\PSoC5/USBFS_drv.c **** *
 501:.\Generated_Source\PSoC5/USBFS_drv.c **** * Summary:
 502:.\Generated_Source\PSoC5/USBFS_drv.c **** *  Initialize a control write transaction
 503:.\Generated_Source\PSoC5/USBFS_drv.c **** *
 504:.\Generated_Source\PSoC5/USBFS_drv.c **** * Parameters:
 505:.\Generated_Source\PSoC5/USBFS_drv.c **** *  None.
 506:.\Generated_Source\PSoC5/USBFS_drv.c **** *
 507:.\Generated_Source\PSoC5/USBFS_drv.c **** * Return:
 508:.\Generated_Source\PSoC5/USBFS_drv.c **** *  requestHandled state.
 509:.\Generated_Source\PSoC5/USBFS_drv.c **** *
 510:.\Generated_Source\PSoC5/USBFS_drv.c **** * Global variables:
 511:.\Generated_Source\PSoC5/USBFS_drv.c **** *  USBFS_USBFS_transferState - set to TRANS_STATE_CONTROL_WRITE
 512:.\Generated_Source\PSoC5/USBFS_drv.c **** *  USBFS_ep0Toggle - set to EP0_CNT_DATA_TOGGLE
 513:.\Generated_Source\PSoC5/USBFS_drv.c **** *  USBFS_ep0Mode  - set to MODE_ACK_OUT_STATUS_IN
 514:.\Generated_Source\PSoC5/USBFS_drv.c **** *
 515:.\Generated_Source\PSoC5/USBFS_drv.c **** * Reentrant:
 516:.\Generated_Source\PSoC5/USBFS_drv.c **** *  No.
 517:.\Generated_Source\PSoC5/USBFS_drv.c **** *
 518:.\Generated_Source\PSoC5/USBFS_drv.c **** *******************************************************************************/
 519:.\Generated_Source\PSoC5/USBFS_drv.c **** uint8 USBFS_InitControlWrite(void) 
 520:.\Generated_Source\PSoC5/USBFS_drv.c **** {
 837              		.loc 1 520 0
 838              		.cfi_startproc
 839              		@ args = 0, pretend = 0, frame = 8
 840              		@ frame_needed = 1, uses_anonymous_args = 0
 841 0000 80B5     		push	{r7, lr}
 842              	.LCFI22:
 843              		.cfi_def_cfa_offset 8
 844              		.cfi_offset 7, -8
 845              		.cfi_offset 14, -4
 846 0002 82B0     		sub	sp, sp, #8
ARM GAS  C:\Users\Robert\AppData\Local\Temp\ccQqeyhO.s 			page 25


 847              	.LCFI23:
 848              		.cfi_def_cfa_offset 16
 849 0004 00AF     		add	r7, sp, #0
 850              	.LCFI24:
 851              		.cfi_def_cfa_register 7
 521:.\Generated_Source\PSoC5/USBFS_drv.c ****     uint16 xferCount;
 522:.\Generated_Source\PSoC5/USBFS_drv.c **** 
 523:.\Generated_Source\PSoC5/USBFS_drv.c ****     /* Set up the state machine */
 524:.\Generated_Source\PSoC5/USBFS_drv.c ****     USBFS_transferState = USBFS_TRANS_STATE_CONTROL_WRITE;
 852              		.loc 1 524 0
 853 0006 40F20003 		movw	r3, #:lower16:USBFS_transferState
 854 000a C0F20003 		movt	r3, #:upper16:USBFS_transferState
 855 000e 4FF00402 		mov	r2, #4
 856 0012 1A70     		strb	r2, [r3, #0]
 525:.\Generated_Source\PSoC5/USBFS_drv.c ****     /* This might not be necessary */
 526:.\Generated_Source\PSoC5/USBFS_drv.c ****     USBFS_ep0Toggle = USBFS_EP0_CNT_DATA_TOGGLE;
 857              		.loc 1 526 0
 858 0014 40F20003 		movw	r3, #:lower16:USBFS_ep0Toggle
 859 0018 C0F20003 		movt	r3, #:upper16:USBFS_ep0Toggle
 860 001c 4FF08002 		mov	r2, #128
 861 0020 1A70     		strb	r2, [r3, #0]
 527:.\Generated_Source\PSoC5/USBFS_drv.c ****     /* Initialize the Status Block */
 528:.\Generated_Source\PSoC5/USBFS_drv.c ****     USBFS_InitializeStatusBlock();
 862              		.loc 1 528 0
 863 0022 FFF7FEFF 		bl	USBFS_InitializeStatusBlock
 529:.\Generated_Source\PSoC5/USBFS_drv.c **** 
 530:.\Generated_Source\PSoC5/USBFS_drv.c ****     xferCount = (((uint16)CY_GET_REG8(USBFS_lengthHi) << 8u) | (CY_GET_REG8(USBFS_lengthLo)));
 864              		.loc 1 530 0
 865 0026 46F20703 		movw	r3, #24583
 866 002a C4F20003 		movt	r3, 16384
 867 002e 1B78     		ldrb	r3, [r3, #0]
 868 0030 DBB2     		uxtb	r3, r3
 869 0032 4FEA0323 		lsl	r3, r3, #8
 870 0036 9AB2     		uxth	r2, r3
 871 0038 46F20603 		movw	r3, #24582
 872 003c C4F20003 		movt	r3, 16384
 873 0040 1B78     		ldrb	r3, [r3, #0]
 874 0042 DBB2     		uxtb	r3, r3
 875 0044 1343     		orrs	r3, r3, r2
 876 0046 9BB2     		uxth	r3, r3
 877 0048 FB80     		strh	r3, [r7, #6]	@ movhi
 531:.\Generated_Source\PSoC5/USBFS_drv.c **** 
 532:.\Generated_Source\PSoC5/USBFS_drv.c ****     if (USBFS_currentTD.count > xferCount)
 878              		.loc 1 532 0
 879 004a 40F20003 		movw	r3, #:lower16:USBFS_currentTD
 880 004e C0F20003 		movt	r3, #:upper16:USBFS_currentTD
 881 0052 1B88     		ldrh	r3, [r3, #0]	@ movhi
 882 0054 9BB2     		uxth	r3, r3
 883 0056 FA88     		ldrh	r2, [r7, #6]
 884 0058 9A42     		cmp	r2, r3
 885 005a 05D2     		bcs	.L54
 533:.\Generated_Source\PSoC5/USBFS_drv.c ****     {
 534:.\Generated_Source\PSoC5/USBFS_drv.c ****         USBFS_currentTD.count = xferCount;
 886              		.loc 1 534 0
 887 005c 40F20003 		movw	r3, #:lower16:USBFS_currentTD
 888 0060 C0F20003 		movt	r3, #:upper16:USBFS_currentTD
 889 0064 FA88     		ldrh	r2, [r7, #6]	@ movhi
ARM GAS  C:\Users\Robert\AppData\Local\Temp\ccQqeyhO.s 			page 26


 890 0066 1A80     		strh	r2, [r3, #0]	@ movhi
 891              	.L54:
 535:.\Generated_Source\PSoC5/USBFS_drv.c ****     }
 536:.\Generated_Source\PSoC5/USBFS_drv.c **** 
 537:.\Generated_Source\PSoC5/USBFS_drv.c ****     /* Expect Data or Status Stage */
 538:.\Generated_Source\PSoC5/USBFS_drv.c ****     USBFS_ep0Mode = USBFS_MODE_ACK_OUT_STATUS_IN;
 892              		.loc 1 538 0
 893 0068 40F20003 		movw	r3, #:lower16:USBFS_ep0Mode
 894 006c C0F20003 		movt	r3, #:upper16:USBFS_ep0Mode
 895 0070 4FF00B02 		mov	r2, #11
 896 0074 1A70     		strb	r2, [r3, #0]
 539:.\Generated_Source\PSoC5/USBFS_drv.c **** 
 540:.\Generated_Source\PSoC5/USBFS_drv.c ****     return(USBFS_TRUE);
 897              		.loc 1 540 0
 898 0076 4FF00103 		mov	r3, #1
 541:.\Generated_Source\PSoC5/USBFS_drv.c **** }
 899              		.loc 1 541 0
 900 007a 1846     		mov	r0, r3
 901 007c 07F10807 		add	r7, r7, #8
 902 0080 BD46     		mov	sp, r7
 903 0082 80BD     		pop	{r7, pc}
 904              		.cfi_endproc
 905              	.LFE9:
 906              		.size	USBFS_InitControlWrite, .-USBFS_InitControlWrite
 907              		.section	.text.USBFS_ControlWriteDataStage,"ax",%progbits
 908              		.align	2
 909              		.global	USBFS_ControlWriteDataStage
 910              		.thumb
 911              		.thumb_func
 912              		.type	USBFS_ControlWriteDataStage, %function
 913              	USBFS_ControlWriteDataStage:
 914              	.LFB10:
 542:.\Generated_Source\PSoC5/USBFS_drv.c **** 
 543:.\Generated_Source\PSoC5/USBFS_drv.c **** 
 544:.\Generated_Source\PSoC5/USBFS_drv.c **** /*******************************************************************************
 545:.\Generated_Source\PSoC5/USBFS_drv.c **** * Function Name: USBFS_ControlWriteDataStage
 546:.\Generated_Source\PSoC5/USBFS_drv.c **** ********************************************************************************
 547:.\Generated_Source\PSoC5/USBFS_drv.c **** *
 548:.\Generated_Source\PSoC5/USBFS_drv.c **** * Summary:
 549:.\Generated_Source\PSoC5/USBFS_drv.c **** *  Handle the Data Stage of a control write transfer
 550:.\Generated_Source\PSoC5/USBFS_drv.c **** *       1. Get the data (We assume the destination was validated previously)
 551:.\Generated_Source\PSoC5/USBFS_drv.c **** *       2. Update the count and data toggle
 552:.\Generated_Source\PSoC5/USBFS_drv.c **** *       3. Update the mode register for the next transaction
 553:.\Generated_Source\PSoC5/USBFS_drv.c **** *
 554:.\Generated_Source\PSoC5/USBFS_drv.c **** * Parameters:
 555:.\Generated_Source\PSoC5/USBFS_drv.c **** *  None.
 556:.\Generated_Source\PSoC5/USBFS_drv.c **** *
 557:.\Generated_Source\PSoC5/USBFS_drv.c **** * Return:
 558:.\Generated_Source\PSoC5/USBFS_drv.c **** *  None.
 559:.\Generated_Source\PSoC5/USBFS_drv.c **** *
 560:.\Generated_Source\PSoC5/USBFS_drv.c **** * Global variables:
 561:.\Generated_Source\PSoC5/USBFS_drv.c **** *  USBFS_transferByteCount - Update the transfer byte count from the
 562:.\Generated_Source\PSoC5/USBFS_drv.c **** *    last transaction.
 563:.\Generated_Source\PSoC5/USBFS_drv.c **** *  USBFS_ep0Count - counts the data loaded from the SIE memory
 564:.\Generated_Source\PSoC5/USBFS_drv.c **** *    in current packet.
 565:.\Generated_Source\PSoC5/USBFS_drv.c **** *  USBFS_transferByteCount - sum of the previous bytes transferred
 566:.\Generated_Source\PSoC5/USBFS_drv.c **** *    on previous packets(sum of USBFS_lastPacketSize)
ARM GAS  C:\Users\Robert\AppData\Local\Temp\ccQqeyhO.s 			page 27


 567:.\Generated_Source\PSoC5/USBFS_drv.c **** *  USBFS_ep0Toggle - inverted
 568:.\Generated_Source\PSoC5/USBFS_drv.c **** *  USBFS_ep0Mode  - set to MODE_ACK_OUT_STATUS_IN.
 569:.\Generated_Source\PSoC5/USBFS_drv.c **** *
 570:.\Generated_Source\PSoC5/USBFS_drv.c **** * Reentrant:
 571:.\Generated_Source\PSoC5/USBFS_drv.c **** *  No.
 572:.\Generated_Source\PSoC5/USBFS_drv.c **** *
 573:.\Generated_Source\PSoC5/USBFS_drv.c **** *******************************************************************************/
 574:.\Generated_Source\PSoC5/USBFS_drv.c **** void USBFS_ControlWriteDataStage(void) 
 575:.\Generated_Source\PSoC5/USBFS_drv.c **** {
 915              		.loc 1 575 0
 916              		.cfi_startproc
 917              		@ args = 0, pretend = 0, frame = 8
 918              		@ frame_needed = 1, uses_anonymous_args = 0
 919              		@ link register save eliminated.
 920 0000 80B4     		push	{r7}
 921              	.LCFI25:
 922              		.cfi_def_cfa_offset 4
 923              		.cfi_offset 7, -4
 924 0002 83B0     		sub	sp, sp, #12
 925              	.LCFI26:
 926              		.cfi_def_cfa_offset 16
 927 0004 00AF     		add	r7, sp, #0
 928              	.LCFI27:
 929              		.cfi_def_cfa_register 7
 576:.\Generated_Source\PSoC5/USBFS_drv.c ****     uint8 ep0Count;
 577:.\Generated_Source\PSoC5/USBFS_drv.c ****     uint8 regIndex = 0u;
 930              		.loc 1 577 0
 931 0006 4FF00003 		mov	r3, #0
 932 000a BB71     		strb	r3, [r7, #6]
 578:.\Generated_Source\PSoC5/USBFS_drv.c **** 
 579:.\Generated_Source\PSoC5/USBFS_drv.c ****     ep0Count = (CY_GET_REG8(USBFS_EP0_CNT_PTR) & USBFS_EPX_CNT0_MASK) -
 933              		.loc 1 579 0
 934 000c 46F22903 		movw	r3, #24617
 935 0010 C4F20003 		movt	r3, 16384
 936 0014 1B78     		ldrb	r3, [r3, #0]
 937 0016 DBB2     		uxtb	r3, r3
 938 0018 03F00F03 		and	r3, r3, #15
 939 001c DBB2     		uxtb	r3, r3
 940 001e A3F10203 		sub	r3, r3, #2
 941 0022 FB71     		strb	r3, [r7, #7]
 580:.\Generated_Source\PSoC5/USBFS_drv.c ****                USBFS_EPX_CNTX_CRC_COUNT;
 581:.\Generated_Source\PSoC5/USBFS_drv.c **** 
 582:.\Generated_Source\PSoC5/USBFS_drv.c ****     USBFS_transferByteCount += ep0Count;
 942              		.loc 1 582 0
 943 0024 FB79     		ldrb	r3, [r7, #7]	@ zero_extendqisi2
 944 0026 9AB2     		uxth	r2, r3
 945 0028 40F20003 		movw	r3, #:lower16:USBFS_transferByteCount
 946 002c C0F20003 		movt	r3, #:upper16:USBFS_transferByteCount
 947 0030 1B88     		ldrh	r3, [r3, #0]	@ movhi
 948 0032 9BB2     		uxth	r3, r3
 949 0034 D318     		adds	r3, r2, r3
 950 0036 9AB2     		uxth	r2, r3
 951 0038 40F20003 		movw	r3, #:lower16:USBFS_transferByteCount
 952 003c C0F20003 		movt	r3, #:upper16:USBFS_transferByteCount
 953 0040 1A80     		strh	r2, [r3, #0]	@ movhi
 583:.\Generated_Source\PSoC5/USBFS_drv.c **** 
 584:.\Generated_Source\PSoC5/USBFS_drv.c ****     while ((USBFS_currentTD.count > 0u) && (ep0Count > 0u))
ARM GAS  C:\Users\Robert\AppData\Local\Temp\ccQqeyhO.s 			page 28


 954              		.loc 1 584 0
 955 0042 2EE0     		b	.L57
 956              	.L59:
 585:.\Generated_Source\PSoC5/USBFS_drv.c ****     {
 586:.\Generated_Source\PSoC5/USBFS_drv.c ****         *USBFS_currentTD.pData = CY_GET_REG8((reg8 *)(USBFS_EP0_DR0_IND + regIndex));
 957              		.loc 1 586 0
 958 0044 40F20003 		movw	r3, #:lower16:USBFS_currentTD
 959 0048 C0F20003 		movt	r3, #:upper16:USBFS_currentTD
 960 004c 5A68     		ldr	r2, [r3, #4]
 961 004e BB79     		ldrb	r3, [r7, #6]	@ zero_extendqisi2
 962 0050 03F18043 		add	r3, r3, #1073741824
 963 0054 03F5C043 		add	r3, r3, #24576
 964 0058 1B78     		ldrb	r3, [r3, #0]
 965 005a DBB2     		uxtb	r3, r3
 966 005c 1370     		strb	r3, [r2, #0]
 587:.\Generated_Source\PSoC5/USBFS_drv.c ****         USBFS_currentTD.pData = &USBFS_currentTD.pData[1u];
 967              		.loc 1 587 0
 968 005e 40F20003 		movw	r3, #:lower16:USBFS_currentTD
 969 0062 C0F20003 		movt	r3, #:upper16:USBFS_currentTD
 970 0066 5B68     		ldr	r3, [r3, #4]
 971 0068 03F10102 		add	r2, r3, #1
 972 006c 40F20003 		movw	r3, #:lower16:USBFS_currentTD
 973 0070 C0F20003 		movt	r3, #:upper16:USBFS_currentTD
 974 0074 5A60     		str	r2, [r3, #4]
 588:.\Generated_Source\PSoC5/USBFS_drv.c ****         regIndex++;
 975              		.loc 1 588 0
 976 0076 BB79     		ldrb	r3, [r7, #6]
 977 0078 03F10103 		add	r3, r3, #1
 978 007c BB71     		strb	r3, [r7, #6]
 589:.\Generated_Source\PSoC5/USBFS_drv.c ****         ep0Count--;
 979              		.loc 1 589 0
 980 007e FB79     		ldrb	r3, [r7, #7]
 981 0080 03F1FF33 		add	r3, r3, #-1
 982 0084 FB71     		strb	r3, [r7, #7]
 590:.\Generated_Source\PSoC5/USBFS_drv.c ****         USBFS_currentTD.count--;
 983              		.loc 1 590 0
 984 0086 40F20003 		movw	r3, #:lower16:USBFS_currentTD
 985 008a C0F20003 		movt	r3, #:upper16:USBFS_currentTD
 986 008e 1B88     		ldrh	r3, [r3, #0]	@ movhi
 987 0090 9BB2     		uxth	r3, r3
 988 0092 03F1FF33 		add	r3, r3, #-1
 989 0096 9AB2     		uxth	r2, r3
 990 0098 40F20003 		movw	r3, #:lower16:USBFS_currentTD
 991 009c C0F20003 		movt	r3, #:upper16:USBFS_currentTD
 992 00a0 1A80     		strh	r2, [r3, #0]	@ movhi
 993              	.L57:
 584:.\Generated_Source\PSoC5/USBFS_drv.c ****     while ((USBFS_currentTD.count > 0u) && (ep0Count > 0u))
 994              		.loc 1 584 0 discriminator 1
 995 00a2 40F20003 		movw	r3, #:lower16:USBFS_currentTD
 996 00a6 C0F20003 		movt	r3, #:upper16:USBFS_currentTD
 997 00aa 1B88     		ldrh	r3, [r3, #0]	@ movhi
 998 00ac 9BB2     		uxth	r3, r3
 999 00ae 002B     		cmp	r3, #0
 1000 00b0 02D0     		beq	.L58
 584:.\Generated_Source\PSoC5/USBFS_drv.c ****     while ((USBFS_currentTD.count > 0u) && (ep0Count > 0u))
 1001              		.loc 1 584 0 is_stmt 0 discriminator 2
 1002 00b2 FB79     		ldrb	r3, [r7, #7]	@ zero_extendqisi2
ARM GAS  C:\Users\Robert\AppData\Local\Temp\ccQqeyhO.s 			page 29


 1003 00b4 002B     		cmp	r3, #0
 1004 00b6 C5D1     		bne	.L59
 1005              	.L58:
 591:.\Generated_Source\PSoC5/USBFS_drv.c ****     }
 592:.\Generated_Source\PSoC5/USBFS_drv.c ****     USBFS_ep0Count = ep0Count;
 1006              		.loc 1 592 0 is_stmt 1
 1007 00b8 40F20003 		movw	r3, #:lower16:USBFS_ep0Count
 1008 00bc C0F20003 		movt	r3, #:upper16:USBFS_ep0Count
 1009 00c0 FA79     		ldrb	r2, [r7, #7]
 1010 00c2 1A70     		strb	r2, [r3, #0]
 593:.\Generated_Source\PSoC5/USBFS_drv.c ****     /* Update the data toggle */
 594:.\Generated_Source\PSoC5/USBFS_drv.c ****     USBFS_ep0Toggle ^= USBFS_EP0_CNT_DATA_TOGGLE;
 1011              		.loc 1 594 0
 1012 00c4 40F20003 		movw	r3, #:lower16:USBFS_ep0Toggle
 1013 00c8 C0F20003 		movt	r3, #:upper16:USBFS_ep0Toggle
 1014 00cc 1B78     		ldrb	r3, [r3, #0]
 1015 00ce DBB2     		uxtb	r3, r3
 1016 00d0 83F07F03 		eor	r3, r3, #127
 1017 00d4 6FEA0303 		mvn	r3, r3
 1018 00d8 DAB2     		uxtb	r2, r3
 1019 00da 40F20003 		movw	r3, #:lower16:USBFS_ep0Toggle
 1020 00de C0F20003 		movt	r3, #:upper16:USBFS_ep0Toggle
 1021 00e2 1A70     		strb	r2, [r3, #0]
 595:.\Generated_Source\PSoC5/USBFS_drv.c ****     /* Expect Data or Status Stage */
 596:.\Generated_Source\PSoC5/USBFS_drv.c ****     USBFS_ep0Mode = USBFS_MODE_ACK_OUT_STATUS_IN;
 1022              		.loc 1 596 0
 1023 00e4 40F20003 		movw	r3, #:lower16:USBFS_ep0Mode
 1024 00e8 C0F20003 		movt	r3, #:upper16:USBFS_ep0Mode
 1025 00ec 4FF00B02 		mov	r2, #11
 1026 00f0 1A70     		strb	r2, [r3, #0]
 597:.\Generated_Source\PSoC5/USBFS_drv.c **** }
 1027              		.loc 1 597 0
 1028 00f2 07F10C07 		add	r7, r7, #12
 1029 00f6 BD46     		mov	sp, r7
 1030 00f8 80BC     		pop	{r7}
 1031 00fa 7047     		bx	lr
 1032              		.cfi_endproc
 1033              	.LFE10:
 1034              		.size	USBFS_ControlWriteDataStage, .-USBFS_ControlWriteDataStage
 1035              		.section	.text.USBFS_ControlWriteStatusStage,"ax",%progbits
 1036              		.align	2
 1037              		.global	USBFS_ControlWriteStatusStage
 1038              		.thumb
 1039              		.thumb_func
 1040              		.type	USBFS_ControlWriteStatusStage, %function
 1041              	USBFS_ControlWriteStatusStage:
 1042              	.LFB11:
 598:.\Generated_Source\PSoC5/USBFS_drv.c **** 
 599:.\Generated_Source\PSoC5/USBFS_drv.c **** 
 600:.\Generated_Source\PSoC5/USBFS_drv.c **** /*******************************************************************************
 601:.\Generated_Source\PSoC5/USBFS_drv.c **** * Function Name: USBFS_ControlWriteStatusStage
 602:.\Generated_Source\PSoC5/USBFS_drv.c **** ********************************************************************************
 603:.\Generated_Source\PSoC5/USBFS_drv.c **** *
 604:.\Generated_Source\PSoC5/USBFS_drv.c **** * Summary:
 605:.\Generated_Source\PSoC5/USBFS_drv.c **** *  Handle the Status Stage of a control write transfer
 606:.\Generated_Source\PSoC5/USBFS_drv.c **** *
 607:.\Generated_Source\PSoC5/USBFS_drv.c **** * Parameters:
ARM GAS  C:\Users\Robert\AppData\Local\Temp\ccQqeyhO.s 			page 30


 608:.\Generated_Source\PSoC5/USBFS_drv.c **** *  None.
 609:.\Generated_Source\PSoC5/USBFS_drv.c **** *
 610:.\Generated_Source\PSoC5/USBFS_drv.c **** * Return:
 611:.\Generated_Source\PSoC5/USBFS_drv.c **** *  None.
 612:.\Generated_Source\PSoC5/USBFS_drv.c **** *
 613:.\Generated_Source\PSoC5/USBFS_drv.c **** * Global variables:
 614:.\Generated_Source\PSoC5/USBFS_drv.c **** *  USBFS_transferState - set to TRANS_STATE_IDLE.
 615:.\Generated_Source\PSoC5/USBFS_drv.c **** *  USBFS_USBFS_ep0Mode  - set to MODE_STALL_IN_OUT.
 616:.\Generated_Source\PSoC5/USBFS_drv.c **** *
 617:.\Generated_Source\PSoC5/USBFS_drv.c **** * Reentrant:
 618:.\Generated_Source\PSoC5/USBFS_drv.c **** *  No.
 619:.\Generated_Source\PSoC5/USBFS_drv.c **** *
 620:.\Generated_Source\PSoC5/USBFS_drv.c **** *******************************************************************************/
 621:.\Generated_Source\PSoC5/USBFS_drv.c **** void USBFS_ControlWriteStatusStage(void) 
 622:.\Generated_Source\PSoC5/USBFS_drv.c **** {
 1043              		.loc 1 622 0
 1044              		.cfi_startproc
 1045              		@ args = 0, pretend = 0, frame = 0
 1046              		@ frame_needed = 1, uses_anonymous_args = 0
 1047 0000 80B5     		push	{r7, lr}
 1048              	.LCFI28:
 1049              		.cfi_def_cfa_offset 8
 1050              		.cfi_offset 7, -8
 1051              		.cfi_offset 14, -4
 1052 0002 00AF     		add	r7, sp, #0
 1053              	.LCFI29:
 1054              		.cfi_def_cfa_register 7
 623:.\Generated_Source\PSoC5/USBFS_drv.c ****     /* Go Idle */
 624:.\Generated_Source\PSoC5/USBFS_drv.c ****     USBFS_transferState = USBFS_TRANS_STATE_IDLE;
 1055              		.loc 1 624 0
 1056 0004 40F20003 		movw	r3, #:lower16:USBFS_transferState
 1057 0008 C0F20003 		movt	r3, #:upper16:USBFS_transferState
 1058 000c 4FF00002 		mov	r2, #0
 1059 0010 1A70     		strb	r2, [r3, #0]
 625:.\Generated_Source\PSoC5/USBFS_drv.c ****     /* Update the completion block */
 626:.\Generated_Source\PSoC5/USBFS_drv.c ****     USBFS_UpdateStatusBlock(USBFS_XFER_STATUS_ACK);
 1060              		.loc 1 626 0
 1061 0012 4FF00100 		mov	r0, #1
 1062 0016 FFF7FEFF 		bl	USBFS_UpdateStatusBlock
 627:.\Generated_Source\PSoC5/USBFS_drv.c ****     /* We expect no more data, so stall INs and OUTs */
 628:.\Generated_Source\PSoC5/USBFS_drv.c ****     USBFS_ep0Mode = USBFS_MODE_STALL_IN_OUT;
 1063              		.loc 1 628 0
 1064 001a 40F20003 		movw	r3, #:lower16:USBFS_ep0Mode
 1065 001e C0F20003 		movt	r3, #:upper16:USBFS_ep0Mode
 1066 0022 4FF00302 		mov	r2, #3
 1067 0026 1A70     		strb	r2, [r3, #0]
 629:.\Generated_Source\PSoC5/USBFS_drv.c **** }
 1068              		.loc 1 629 0
 1069 0028 80BD     		pop	{r7, pc}
 1070              		.cfi_endproc
 1071              	.LFE11:
 1072              		.size	USBFS_ControlWriteStatusStage, .-USBFS_ControlWriteStatusStage
 1073 002a 00BF     		.section	.text.USBFS_InitNoDataControlTransfer,"ax",%progbits
 1074              		.align	2
 1075              		.global	USBFS_InitNoDataControlTransfer
 1076              		.thumb
 1077              		.thumb_func
ARM GAS  C:\Users\Robert\AppData\Local\Temp\ccQqeyhO.s 			page 31


 1078              		.type	USBFS_InitNoDataControlTransfer, %function
 1079              	USBFS_InitNoDataControlTransfer:
 1080              	.LFB12:
 630:.\Generated_Source\PSoC5/USBFS_drv.c **** 
 631:.\Generated_Source\PSoC5/USBFS_drv.c **** 
 632:.\Generated_Source\PSoC5/USBFS_drv.c **** /*******************************************************************************
 633:.\Generated_Source\PSoC5/USBFS_drv.c **** * Function Name: USBFS_InitNoDataControlTransfer
 634:.\Generated_Source\PSoC5/USBFS_drv.c **** ********************************************************************************
 635:.\Generated_Source\PSoC5/USBFS_drv.c **** *
 636:.\Generated_Source\PSoC5/USBFS_drv.c **** * Summary:
 637:.\Generated_Source\PSoC5/USBFS_drv.c **** *  Initialize a no data control transfer
 638:.\Generated_Source\PSoC5/USBFS_drv.c **** *
 639:.\Generated_Source\PSoC5/USBFS_drv.c **** * Parameters:
 640:.\Generated_Source\PSoC5/USBFS_drv.c **** *  None.
 641:.\Generated_Source\PSoC5/USBFS_drv.c **** *
 642:.\Generated_Source\PSoC5/USBFS_drv.c **** * Return:
 643:.\Generated_Source\PSoC5/USBFS_drv.c **** *  requestHandled state.
 644:.\Generated_Source\PSoC5/USBFS_drv.c **** *
 645:.\Generated_Source\PSoC5/USBFS_drv.c **** * Global variables:
 646:.\Generated_Source\PSoC5/USBFS_drv.c **** *  USBFS_transferState - set to TRANS_STATE_NO_DATA_CONTROL.
 647:.\Generated_Source\PSoC5/USBFS_drv.c **** *  USBFS_ep0Mode  - set to MODE_STATUS_IN_ONLY.
 648:.\Generated_Source\PSoC5/USBFS_drv.c **** *  USBFS_ep0Count - cleared.
 649:.\Generated_Source\PSoC5/USBFS_drv.c **** *  USBFS_ep0Toggle - set to EP0_CNT_DATA_TOGGLE
 650:.\Generated_Source\PSoC5/USBFS_drv.c **** *
 651:.\Generated_Source\PSoC5/USBFS_drv.c **** * Reentrant:
 652:.\Generated_Source\PSoC5/USBFS_drv.c **** *  No.
 653:.\Generated_Source\PSoC5/USBFS_drv.c **** *
 654:.\Generated_Source\PSoC5/USBFS_drv.c **** *******************************************************************************/
 655:.\Generated_Source\PSoC5/USBFS_drv.c **** uint8 USBFS_InitNoDataControlTransfer(void) 
 656:.\Generated_Source\PSoC5/USBFS_drv.c **** {
 1081              		.loc 1 656 0
 1082              		.cfi_startproc
 1083              		@ args = 0, pretend = 0, frame = 0
 1084              		@ frame_needed = 1, uses_anonymous_args = 0
 1085              		@ link register save eliminated.
 1086 0000 80B4     		push	{r7}
 1087              	.LCFI30:
 1088              		.cfi_def_cfa_offset 4
 1089              		.cfi_offset 7, -4
 1090 0002 00AF     		add	r7, sp, #0
 1091              	.LCFI31:
 1092              		.cfi_def_cfa_register 7
 657:.\Generated_Source\PSoC5/USBFS_drv.c ****     USBFS_transferState = USBFS_TRANS_STATE_NO_DATA_CONTROL;
 1093              		.loc 1 657 0
 1094 0004 40F20003 		movw	r3, #:lower16:USBFS_transferState
 1095 0008 C0F20003 		movt	r3, #:upper16:USBFS_transferState
 1096 000c 4FF00602 		mov	r2, #6
 1097 0010 1A70     		strb	r2, [r3, #0]
 658:.\Generated_Source\PSoC5/USBFS_drv.c ****     USBFS_ep0Mode = USBFS_MODE_STATUS_IN_ONLY;
 1098              		.loc 1 658 0
 1099 0012 40F20003 		movw	r3, #:lower16:USBFS_ep0Mode
 1100 0016 C0F20003 		movt	r3, #:upper16:USBFS_ep0Mode
 1101 001a 4FF00602 		mov	r2, #6
 1102 001e 1A70     		strb	r2, [r3, #0]
 659:.\Generated_Source\PSoC5/USBFS_drv.c ****     USBFS_ep0Toggle = USBFS_EP0_CNT_DATA_TOGGLE;
 1103              		.loc 1 659 0
 1104 0020 40F20003 		movw	r3, #:lower16:USBFS_ep0Toggle
ARM GAS  C:\Users\Robert\AppData\Local\Temp\ccQqeyhO.s 			page 32


 1105 0024 C0F20003 		movt	r3, #:upper16:USBFS_ep0Toggle
 1106 0028 4FF08002 		mov	r2, #128
 1107 002c 1A70     		strb	r2, [r3, #0]
 660:.\Generated_Source\PSoC5/USBFS_drv.c ****     USBFS_ep0Count = 0u;
 1108              		.loc 1 660 0
 1109 002e 40F20003 		movw	r3, #:lower16:USBFS_ep0Count
 1110 0032 C0F20003 		movt	r3, #:upper16:USBFS_ep0Count
 1111 0036 4FF00002 		mov	r2, #0
 1112 003a 1A70     		strb	r2, [r3, #0]
 661:.\Generated_Source\PSoC5/USBFS_drv.c **** 
 662:.\Generated_Source\PSoC5/USBFS_drv.c ****     return(USBFS_TRUE);
 1113              		.loc 1 662 0
 1114 003c 4FF00103 		mov	r3, #1
 663:.\Generated_Source\PSoC5/USBFS_drv.c **** }
 1115              		.loc 1 663 0
 1116 0040 1846     		mov	r0, r3
 1117 0042 BD46     		mov	sp, r7
 1118 0044 80BC     		pop	{r7}
 1119 0046 7047     		bx	lr
 1120              		.cfi_endproc
 1121              	.LFE12:
 1122              		.size	USBFS_InitNoDataControlTransfer, .-USBFS_InitNoDataControlTransfer
 1123              		.section	.text.USBFS_NoDataControlStatusStage,"ax",%progbits
 1124              		.align	2
 1125              		.global	USBFS_NoDataControlStatusStage
 1126              		.thumb
 1127              		.thumb_func
 1128              		.type	USBFS_NoDataControlStatusStage, %function
 1129              	USBFS_NoDataControlStatusStage:
 1130              	.LFB13:
 664:.\Generated_Source\PSoC5/USBFS_drv.c **** 
 665:.\Generated_Source\PSoC5/USBFS_drv.c **** 
 666:.\Generated_Source\PSoC5/USBFS_drv.c **** /*******************************************************************************
 667:.\Generated_Source\PSoC5/USBFS_drv.c **** * Function Name: USBFS_NoDataControlStatusStage
 668:.\Generated_Source\PSoC5/USBFS_drv.c **** ********************************************************************************
 669:.\Generated_Source\PSoC5/USBFS_drv.c **** * Summary:
 670:.\Generated_Source\PSoC5/USBFS_drv.c **** *  Handle the Status Stage of a no data control transfer.
 671:.\Generated_Source\PSoC5/USBFS_drv.c **** *
 672:.\Generated_Source\PSoC5/USBFS_drv.c **** *  SET_ADDRESS is special, since we need to receive the status stage with
 673:.\Generated_Source\PSoC5/USBFS_drv.c **** *  the old address.
 674:.\Generated_Source\PSoC5/USBFS_drv.c **** *
 675:.\Generated_Source\PSoC5/USBFS_drv.c **** * Parameters:
 676:.\Generated_Source\PSoC5/USBFS_drv.c **** *  None.
 677:.\Generated_Source\PSoC5/USBFS_drv.c **** *
 678:.\Generated_Source\PSoC5/USBFS_drv.c **** * Return:
 679:.\Generated_Source\PSoC5/USBFS_drv.c **** *  None.
 680:.\Generated_Source\PSoC5/USBFS_drv.c **** *
 681:.\Generated_Source\PSoC5/USBFS_drv.c **** * Global variables:
 682:.\Generated_Source\PSoC5/USBFS_drv.c **** *  USBFS_transferState - set to TRANS_STATE_IDLE.
 683:.\Generated_Source\PSoC5/USBFS_drv.c **** *  USBFS_ep0Mode  - set to MODE_STALL_IN_OUT.
 684:.\Generated_Source\PSoC5/USBFS_drv.c **** *  USBFS_ep0Toggle - set to EP0_CNT_DATA_TOGGLE
 685:.\Generated_Source\PSoC5/USBFS_drv.c **** *  USBFS_deviceAddress - used to set new address and cleared
 686:.\Generated_Source\PSoC5/USBFS_drv.c **** *
 687:.\Generated_Source\PSoC5/USBFS_drv.c **** * Reentrant:
 688:.\Generated_Source\PSoC5/USBFS_drv.c **** *  No.
 689:.\Generated_Source\PSoC5/USBFS_drv.c **** *
 690:.\Generated_Source\PSoC5/USBFS_drv.c **** *******************************************************************************/
ARM GAS  C:\Users\Robert\AppData\Local\Temp\ccQqeyhO.s 			page 33


 691:.\Generated_Source\PSoC5/USBFS_drv.c **** void USBFS_NoDataControlStatusStage(void) 
 692:.\Generated_Source\PSoC5/USBFS_drv.c **** {
 1131              		.loc 1 692 0
 1132              		.cfi_startproc
 1133              		@ args = 0, pretend = 0, frame = 0
 1134              		@ frame_needed = 1, uses_anonymous_args = 0
 1135 0000 80B5     		push	{r7, lr}
 1136              	.LCFI32:
 1137              		.cfi_def_cfa_offset 8
 1138              		.cfi_offset 7, -8
 1139              		.cfi_offset 14, -4
 1140 0002 00AF     		add	r7, sp, #0
 1141              	.LCFI33:
 1142              		.cfi_def_cfa_register 7
 693:.\Generated_Source\PSoC5/USBFS_drv.c ****     /* Change the USB address register if we got a SET_ADDRESS. */
 694:.\Generated_Source\PSoC5/USBFS_drv.c ****     if (USBFS_deviceAddress != 0u)
 1143              		.loc 1 694 0
 1144 0004 40F20003 		movw	r3, #:lower16:USBFS_deviceAddress
 1145 0008 C0F20003 		movt	r3, #:upper16:USBFS_deviceAddress
 1146 000c 1B78     		ldrb	r3, [r3, #0]
 1147 000e DBB2     		uxtb	r3, r3
 1148 0010 002B     		cmp	r3, #0
 1149 0012 14D0     		beq	.L64
 695:.\Generated_Source\PSoC5/USBFS_drv.c ****     {
 696:.\Generated_Source\PSoC5/USBFS_drv.c ****         CY_SET_REG8(USBFS_CR0_PTR, USBFS_deviceAddress | USBFS_CR0_ENABLE);
 1150              		.loc 1 696 0
 1151 0014 46F20803 		movw	r3, #24584
 1152 0018 C4F20003 		movt	r3, 16384
 1153 001c 40F20002 		movw	r2, #:lower16:USBFS_deviceAddress
 1154 0020 C0F20002 		movt	r2, #:upper16:USBFS_deviceAddress
 1155 0024 1278     		ldrb	r2, [r2, #0]
 1156 0026 D2B2     		uxtb	r2, r2
 1157 0028 62F07F02 		orn	r2, r2, #127
 1158 002c D2B2     		uxtb	r2, r2
 1159 002e 1A70     		strb	r2, [r3, #0]
 697:.\Generated_Source\PSoC5/USBFS_drv.c ****         USBFS_deviceAddress = 0u;
 1160              		.loc 1 697 0
 1161 0030 40F20003 		movw	r3, #:lower16:USBFS_deviceAddress
 1162 0034 C0F20003 		movt	r3, #:upper16:USBFS_deviceAddress
 1163 0038 4FF00002 		mov	r2, #0
 1164 003c 1A70     		strb	r2, [r3, #0]
 1165              	.L64:
 698:.\Generated_Source\PSoC5/USBFS_drv.c ****     }
 699:.\Generated_Source\PSoC5/USBFS_drv.c ****     /* Go Idle */
 700:.\Generated_Source\PSoC5/USBFS_drv.c ****     USBFS_transferState = USBFS_TRANS_STATE_IDLE;
 1166              		.loc 1 700 0
 1167 003e 40F20003 		movw	r3, #:lower16:USBFS_transferState
 1168 0042 C0F20003 		movt	r3, #:upper16:USBFS_transferState
 1169 0046 4FF00002 		mov	r2, #0
 1170 004a 1A70     		strb	r2, [r3, #0]
 701:.\Generated_Source\PSoC5/USBFS_drv.c ****     /* Update the completion block */
 702:.\Generated_Source\PSoC5/USBFS_drv.c ****     USBFS_UpdateStatusBlock(USBFS_XFER_STATUS_ACK);
 1171              		.loc 1 702 0
 1172 004c 4FF00100 		mov	r0, #1
 1173 0050 FFF7FEFF 		bl	USBFS_UpdateStatusBlock
 703:.\Generated_Source\PSoC5/USBFS_drv.c ****      /* We expect no more data, so stall INs and OUTs */
 704:.\Generated_Source\PSoC5/USBFS_drv.c ****     USBFS_ep0Mode = USBFS_MODE_STALL_IN_OUT;
ARM GAS  C:\Users\Robert\AppData\Local\Temp\ccQqeyhO.s 			page 34


 1174              		.loc 1 704 0
 1175 0054 40F20003 		movw	r3, #:lower16:USBFS_ep0Mode
 1176 0058 C0F20003 		movt	r3, #:upper16:USBFS_ep0Mode
 1177 005c 4FF00302 		mov	r2, #3
 1178 0060 1A70     		strb	r2, [r3, #0]
 705:.\Generated_Source\PSoC5/USBFS_drv.c **** }
 1179              		.loc 1 705 0
 1180 0062 80BD     		pop	{r7, pc}
 1181              		.cfi_endproc
 1182              	.LFE13:
 1183              		.size	USBFS_NoDataControlStatusStage, .-USBFS_NoDataControlStatusStage
 1184              		.section	.text.USBFS_UpdateStatusBlock,"ax",%progbits
 1185              		.align	2
 1186              		.global	USBFS_UpdateStatusBlock
 1187              		.thumb
 1188              		.thumb_func
 1189              		.type	USBFS_UpdateStatusBlock, %function
 1190              	USBFS_UpdateStatusBlock:
 1191              	.LFB14:
 706:.\Generated_Source\PSoC5/USBFS_drv.c **** 
 707:.\Generated_Source\PSoC5/USBFS_drv.c **** 
 708:.\Generated_Source\PSoC5/USBFS_drv.c **** /*******************************************************************************
 709:.\Generated_Source\PSoC5/USBFS_drv.c **** * Function Name: USBFS_UpdateStatusBlock
 710:.\Generated_Source\PSoC5/USBFS_drv.c **** ********************************************************************************
 711:.\Generated_Source\PSoC5/USBFS_drv.c **** *
 712:.\Generated_Source\PSoC5/USBFS_drv.c **** * Summary:
 713:.\Generated_Source\PSoC5/USBFS_drv.c **** *  Update the Completion Status Block for a Request.  The block is updated
 714:.\Generated_Source\PSoC5/USBFS_drv.c **** *  with the completion code the USBFS_transferByteCount.  The
 715:.\Generated_Source\PSoC5/USBFS_drv.c **** *  StatusBlock Pointer is set to NULL.
 716:.\Generated_Source\PSoC5/USBFS_drv.c **** *
 717:.\Generated_Source\PSoC5/USBFS_drv.c **** * Parameters:
 718:.\Generated_Source\PSoC5/USBFS_drv.c **** *  completionCode - status.
 719:.\Generated_Source\PSoC5/USBFS_drv.c **** *
 720:.\Generated_Source\PSoC5/USBFS_drv.c **** * Return:
 721:.\Generated_Source\PSoC5/USBFS_drv.c **** *  None.
 722:.\Generated_Source\PSoC5/USBFS_drv.c **** *
 723:.\Generated_Source\PSoC5/USBFS_drv.c **** * Global variables:
 724:.\Generated_Source\PSoC5/USBFS_drv.c **** *  USBFS_currentTD.pStatusBlock->status - updated by the
 725:.\Generated_Source\PSoC5/USBFS_drv.c **** *    completionCode parameter.
 726:.\Generated_Source\PSoC5/USBFS_drv.c **** *  USBFS_currentTD.pStatusBlock->length - updated.
 727:.\Generated_Source\PSoC5/USBFS_drv.c **** *  USBFS_currentTD.pStatusBlock - cleared.
 728:.\Generated_Source\PSoC5/USBFS_drv.c **** *
 729:.\Generated_Source\PSoC5/USBFS_drv.c **** * Reentrant:
 730:.\Generated_Source\PSoC5/USBFS_drv.c **** *  No.
 731:.\Generated_Source\PSoC5/USBFS_drv.c **** *
 732:.\Generated_Source\PSoC5/USBFS_drv.c **** *******************************************************************************/
 733:.\Generated_Source\PSoC5/USBFS_drv.c **** void USBFS_UpdateStatusBlock(uint8 completionCode) 
 734:.\Generated_Source\PSoC5/USBFS_drv.c **** {
 1192              		.loc 1 734 0
 1193              		.cfi_startproc
 1194              		@ args = 0, pretend = 0, frame = 8
 1195              		@ frame_needed = 1, uses_anonymous_args = 0
 1196              		@ link register save eliminated.
 1197 0000 80B4     		push	{r7}
 1198              	.LCFI34:
 1199              		.cfi_def_cfa_offset 4
 1200              		.cfi_offset 7, -4
ARM GAS  C:\Users\Robert\AppData\Local\Temp\ccQqeyhO.s 			page 35


 1201 0002 83B0     		sub	sp, sp, #12
 1202              	.LCFI35:
 1203              		.cfi_def_cfa_offset 16
 1204 0004 00AF     		add	r7, sp, #0
 1205              	.LCFI36:
 1206              		.cfi_def_cfa_register 7
 1207 0006 0346     		mov	r3, r0
 1208 0008 FB71     		strb	r3, [r7, #7]
 735:.\Generated_Source\PSoC5/USBFS_drv.c ****     if (USBFS_currentTD.pStatusBlock != NULL)
 1209              		.loc 1 735 0
 1210 000a 40F20003 		movw	r3, #:lower16:USBFS_currentTD
 1211 000e C0F20003 		movt	r3, #:upper16:USBFS_currentTD
 1212 0012 9B68     		ldr	r3, [r3, #8]
 1213 0014 002B     		cmp	r3, #0
 1214 0016 19D0     		beq	.L65
 736:.\Generated_Source\PSoC5/USBFS_drv.c ****     {
 737:.\Generated_Source\PSoC5/USBFS_drv.c ****         USBFS_currentTD.pStatusBlock->status = completionCode;
 1215              		.loc 1 737 0
 1216 0018 40F20003 		movw	r3, #:lower16:USBFS_currentTD
 1217 001c C0F20003 		movt	r3, #:upper16:USBFS_currentTD
 1218 0020 9B68     		ldr	r3, [r3, #8]
 1219 0022 FA79     		ldrb	r2, [r7, #7]
 1220 0024 1A70     		strb	r2, [r3, #0]
 738:.\Generated_Source\PSoC5/USBFS_drv.c ****         USBFS_currentTD.pStatusBlock->length = USBFS_transferByteCount;
 1221              		.loc 1 738 0
 1222 0026 40F20003 		movw	r3, #:lower16:USBFS_currentTD
 1223 002a C0F20003 		movt	r3, #:upper16:USBFS_currentTD
 1224 002e 9A68     		ldr	r2, [r3, #8]
 1225 0030 40F20003 		movw	r3, #:lower16:USBFS_transferByteCount
 1226 0034 C0F20003 		movt	r3, #:upper16:USBFS_transferByteCount
 1227 0038 1B88     		ldrh	r3, [r3, #0]	@ movhi
 1228 003a 9BB2     		uxth	r3, r3
 1229 003c 5380     		strh	r3, [r2, #2]	@ movhi
 739:.\Generated_Source\PSoC5/USBFS_drv.c ****         USBFS_currentTD.pStatusBlock = NULL;
 1230              		.loc 1 739 0
 1231 003e 40F20003 		movw	r3, #:lower16:USBFS_currentTD
 1232 0042 C0F20003 		movt	r3, #:upper16:USBFS_currentTD
 1233 0046 4FF00002 		mov	r2, #0
 1234 004a 9A60     		str	r2, [r3, #8]
 1235              	.L65:
 740:.\Generated_Source\PSoC5/USBFS_drv.c ****     }
 741:.\Generated_Source\PSoC5/USBFS_drv.c **** }
 1236              		.loc 1 741 0
 1237 004c 07F10C07 		add	r7, r7, #12
 1238 0050 BD46     		mov	sp, r7
 1239 0052 80BC     		pop	{r7}
 1240 0054 7047     		bx	lr
 1241              		.cfi_endproc
 1242              	.LFE14:
 1243              		.size	USBFS_UpdateStatusBlock, .-USBFS_UpdateStatusBlock
 1244 0056 00BF     		.section	.text.USBFS_InitializeStatusBlock,"ax",%progbits
 1245              		.align	2
 1246              		.global	USBFS_InitializeStatusBlock
 1247              		.thumb
 1248              		.thumb_func
 1249              		.type	USBFS_InitializeStatusBlock, %function
 1250              	USBFS_InitializeStatusBlock:
ARM GAS  C:\Users\Robert\AppData\Local\Temp\ccQqeyhO.s 			page 36


 1251              	.LFB15:
 742:.\Generated_Source\PSoC5/USBFS_drv.c **** 
 743:.\Generated_Source\PSoC5/USBFS_drv.c **** 
 744:.\Generated_Source\PSoC5/USBFS_drv.c **** /*******************************************************************************
 745:.\Generated_Source\PSoC5/USBFS_drv.c **** * Function Name: USBFS_InitializeStatusBlock
 746:.\Generated_Source\PSoC5/USBFS_drv.c **** ********************************************************************************
 747:.\Generated_Source\PSoC5/USBFS_drv.c **** *
 748:.\Generated_Source\PSoC5/USBFS_drv.c **** * Summary:
 749:.\Generated_Source\PSoC5/USBFS_drv.c **** *  Initialize the Completion Status Block for a Request.  The completion
 750:.\Generated_Source\PSoC5/USBFS_drv.c **** *  code is set to USB_XFER_IDLE.
 751:.\Generated_Source\PSoC5/USBFS_drv.c **** *
 752:.\Generated_Source\PSoC5/USBFS_drv.c **** *  Also, initializes USBFS_transferByteCount.  Save some space,
 753:.\Generated_Source\PSoC5/USBFS_drv.c **** *  this is the only consumer.
 754:.\Generated_Source\PSoC5/USBFS_drv.c **** *
 755:.\Generated_Source\PSoC5/USBFS_drv.c **** * Parameters:
 756:.\Generated_Source\PSoC5/USBFS_drv.c **** *  None.
 757:.\Generated_Source\PSoC5/USBFS_drv.c **** *
 758:.\Generated_Source\PSoC5/USBFS_drv.c **** * Return:
 759:.\Generated_Source\PSoC5/USBFS_drv.c **** *  None.
 760:.\Generated_Source\PSoC5/USBFS_drv.c **** *
 761:.\Generated_Source\PSoC5/USBFS_drv.c **** * Global variables:
 762:.\Generated_Source\PSoC5/USBFS_drv.c **** *  USBFS_currentTD.pStatusBlock->status - set to XFER_IDLE.
 763:.\Generated_Source\PSoC5/USBFS_drv.c **** *  USBFS_currentTD.pStatusBlock->length - cleared.
 764:.\Generated_Source\PSoC5/USBFS_drv.c **** *  USBFS_transferByteCount - cleared.
 765:.\Generated_Source\PSoC5/USBFS_drv.c **** *
 766:.\Generated_Source\PSoC5/USBFS_drv.c **** * Reentrant:
 767:.\Generated_Source\PSoC5/USBFS_drv.c **** *  No.
 768:.\Generated_Source\PSoC5/USBFS_drv.c **** *
 769:.\Generated_Source\PSoC5/USBFS_drv.c **** *******************************************************************************/
 770:.\Generated_Source\PSoC5/USBFS_drv.c **** void USBFS_InitializeStatusBlock(void) 
 771:.\Generated_Source\PSoC5/USBFS_drv.c **** {
 1252              		.loc 1 771 0
 1253              		.cfi_startproc
 1254              		@ args = 0, pretend = 0, frame = 0
 1255              		@ frame_needed = 1, uses_anonymous_args = 0
 1256              		@ link register save eliminated.
 1257 0000 80B4     		push	{r7}
 1258              	.LCFI37:
 1259              		.cfi_def_cfa_offset 4
 1260              		.cfi_offset 7, -4
 1261 0002 00AF     		add	r7, sp, #0
 1262              	.LCFI38:
 1263              		.cfi_def_cfa_register 7
 772:.\Generated_Source\PSoC5/USBFS_drv.c ****     USBFS_transferByteCount = 0u;
 1264              		.loc 1 772 0
 1265 0004 40F20003 		movw	r3, #:lower16:USBFS_transferByteCount
 1266 0008 C0F20003 		movt	r3, #:upper16:USBFS_transferByteCount
 1267 000c 4FF00002 		mov	r2, #0
 1268 0010 1A80     		strh	r2, [r3, #0]	@ movhi
 773:.\Generated_Source\PSoC5/USBFS_drv.c ****     if(USBFS_currentTD.pStatusBlock != NULL)
 1269              		.loc 1 773 0
 1270 0012 40F20003 		movw	r3, #:lower16:USBFS_currentTD
 1271 0016 C0F20003 		movt	r3, #:upper16:USBFS_currentTD
 1272 001a 9B68     		ldr	r3, [r3, #8]
 1273 001c 002B     		cmp	r3, #0
 1274 001e 0FD0     		beq	.L67
 774:.\Generated_Source\PSoC5/USBFS_drv.c ****     {
ARM GAS  C:\Users\Robert\AppData\Local\Temp\ccQqeyhO.s 			page 37


 775:.\Generated_Source\PSoC5/USBFS_drv.c ****         USBFS_currentTD.pStatusBlock->status = USBFS_XFER_IDLE;
 1275              		.loc 1 775 0
 1276 0020 40F20003 		movw	r3, #:lower16:USBFS_currentTD
 1277 0024 C0F20003 		movt	r3, #:upper16:USBFS_currentTD
 1278 0028 9B68     		ldr	r3, [r3, #8]
 1279 002a 4FF00002 		mov	r2, #0
 1280 002e 1A70     		strb	r2, [r3, #0]
 776:.\Generated_Source\PSoC5/USBFS_drv.c ****         USBFS_currentTD.pStatusBlock->length = 0u;
 1281              		.loc 1 776 0
 1282 0030 40F20003 		movw	r3, #:lower16:USBFS_currentTD
 1283 0034 C0F20003 		movt	r3, #:upper16:USBFS_currentTD
 1284 0038 9B68     		ldr	r3, [r3, #8]
 1285 003a 4FF00002 		mov	r2, #0
 1286 003e 5A80     		strh	r2, [r3, #2]	@ movhi
 1287              	.L67:
 777:.\Generated_Source\PSoC5/USBFS_drv.c ****     }
 778:.\Generated_Source\PSoC5/USBFS_drv.c **** }
 1288              		.loc 1 778 0
 1289 0040 BD46     		mov	sp, r7
 1290 0042 80BC     		pop	{r7}
 1291 0044 7047     		bx	lr
 1292              		.cfi_endproc
 1293              	.LFE15:
 1294              		.size	USBFS_InitializeStatusBlock, .-USBFS_InitializeStatusBlock
 1295 0046 00BF     		.text
 1296              	.Letext0:
 1297              		.file 2 ".\\Generated_Source\\PSoC5\\cytypes.h"
 1298              		.file 3 ".\\Generated_Source\\PSoC5\\USBFS.h"