ARM GAS  C:\Users\Robert\AppData\Local\Temp\cckkjh3f.s 			page 1


   1              		.syntax unified
   2              		.cpu cortex-m3
   3              		.fpu softvfp
   4              		.eabi_attribute 20, 1
   5              		.eabi_attribute 21, 1
   6              		.eabi_attribute 23, 3
   7              		.eabi_attribute 24, 1
   8              		.eabi_attribute 25, 1
   9              		.eabi_attribute 26, 1
  10              		.eabi_attribute 30, 6
  11              		.eabi_attribute 34, 1
  12              		.eabi_attribute 18, 4
  13              		.thumb
  14              		.file	"USBFS_pm.c"
  15              		.text
  16              	.Ltext0:
  17              		.cfi_sections	.debug_frame
  18              		.bss
  19              		.align	2
  20              	USBFS_backup:
  21 0000 0000     		.space	2
  22 0002 0000     		.section	.text.USBFS_DP_ISR,"ax",%progbits
  23              		.align	2
  24              		.global	USBFS_DP_ISR
  25              		.thumb
  26              		.thumb_func
  27              		.type	USBFS_DP_ISR, %function
  28              	USBFS_DP_ISR:
  29              	.LFB56:
  30              		.file 1 ".\\Generated_Source\\PSoC5\\USBFS_pm.c"
   1:.\Generated_Source\PSoC5/USBFS_pm.c **** /*******************************************************************************
   2:.\Generated_Source\PSoC5/USBFS_pm.c **** * File Name: USBFS_pm.c
   3:.\Generated_Source\PSoC5/USBFS_pm.c **** * Version 2.70
   4:.\Generated_Source\PSoC5/USBFS_pm.c **** *
   5:.\Generated_Source\PSoC5/USBFS_pm.c **** * Description:
   6:.\Generated_Source\PSoC5/USBFS_pm.c **** *  This file provides Suspend/Resume APIs functionality.
   7:.\Generated_Source\PSoC5/USBFS_pm.c **** *
   8:.\Generated_Source\PSoC5/USBFS_pm.c **** * Note:
   9:.\Generated_Source\PSoC5/USBFS_pm.c **** *
  10:.\Generated_Source\PSoC5/USBFS_pm.c **** ********************************************************************************
  11:.\Generated_Source\PSoC5/USBFS_pm.c **** * Copyright 2008-2013, Cypress Semiconductor Corporation.  All rights reserved.
  12:.\Generated_Source\PSoC5/USBFS_pm.c **** * You may use this file only in accordance with the license, terms, conditions,
  13:.\Generated_Source\PSoC5/USBFS_pm.c **** * disclaimers, and limitations in the end user license agreement accompanying
  14:.\Generated_Source\PSoC5/USBFS_pm.c **** * the software package with which this file was provided.
  15:.\Generated_Source\PSoC5/USBFS_pm.c **** *******************************************************************************/
  16:.\Generated_Source\PSoC5/USBFS_pm.c **** 
  17:.\Generated_Source\PSoC5/USBFS_pm.c **** #include "project.h"
  18:.\Generated_Source\PSoC5/USBFS_pm.c **** #include "USBFS.h"
  19:.\Generated_Source\PSoC5/USBFS_pm.c **** #include "USBFS_pvt.h"
  20:.\Generated_Source\PSoC5/USBFS_pm.c **** 
  21:.\Generated_Source\PSoC5/USBFS_pm.c **** 
  22:.\Generated_Source\PSoC5/USBFS_pm.c **** /***************************************
  23:.\Generated_Source\PSoC5/USBFS_pm.c **** * Custom Declarations
  24:.\Generated_Source\PSoC5/USBFS_pm.c **** ***************************************/
  25:.\Generated_Source\PSoC5/USBFS_pm.c **** /* `#START PM_CUSTOM_DECLARATIONS` Place your declaration here */
  26:.\Generated_Source\PSoC5/USBFS_pm.c **** 
  27:.\Generated_Source\PSoC5/USBFS_pm.c **** /* `#END` */
ARM GAS  C:\Users\Robert\AppData\Local\Temp\cckkjh3f.s 			page 2


  28:.\Generated_Source\PSoC5/USBFS_pm.c **** 
  29:.\Generated_Source\PSoC5/USBFS_pm.c **** 
  30:.\Generated_Source\PSoC5/USBFS_pm.c **** /***************************************
  31:.\Generated_Source\PSoC5/USBFS_pm.c **** * Local data allocation
  32:.\Generated_Source\PSoC5/USBFS_pm.c **** ***************************************/
  33:.\Generated_Source\PSoC5/USBFS_pm.c **** 
  34:.\Generated_Source\PSoC5/USBFS_pm.c **** static USBFS_BACKUP_STRUCT  USBFS_backup;
  35:.\Generated_Source\PSoC5/USBFS_pm.c **** 
  36:.\Generated_Source\PSoC5/USBFS_pm.c **** 
  37:.\Generated_Source\PSoC5/USBFS_pm.c **** #if(USBFS_DP_ISR_REMOVE == 0u)
  38:.\Generated_Source\PSoC5/USBFS_pm.c **** 
  39:.\Generated_Source\PSoC5/USBFS_pm.c ****     /*******************************************************************************
  40:.\Generated_Source\PSoC5/USBFS_pm.c ****     * Function Name: USBFS_DP_Interrupt
  41:.\Generated_Source\PSoC5/USBFS_pm.c ****     ********************************************************************************
  42:.\Generated_Source\PSoC5/USBFS_pm.c ****     *
  43:.\Generated_Source\PSoC5/USBFS_pm.c ****     * Summary:
  44:.\Generated_Source\PSoC5/USBFS_pm.c ****     *  This Interrupt Service Routine handles DP pin changes for wake-up from
  45:.\Generated_Source\PSoC5/USBFS_pm.c ****     *  the sleep mode.
  46:.\Generated_Source\PSoC5/USBFS_pm.c ****     *
  47:.\Generated_Source\PSoC5/USBFS_pm.c ****     * Parameters:
  48:.\Generated_Source\PSoC5/USBFS_pm.c ****     *  None.
  49:.\Generated_Source\PSoC5/USBFS_pm.c ****     *
  50:.\Generated_Source\PSoC5/USBFS_pm.c ****     * Return:
  51:.\Generated_Source\PSoC5/USBFS_pm.c ****     *  None.
  52:.\Generated_Source\PSoC5/USBFS_pm.c ****     *
  53:.\Generated_Source\PSoC5/USBFS_pm.c ****     *******************************************************************************/
  54:.\Generated_Source\PSoC5/USBFS_pm.c ****     CY_ISR(USBFS_DP_ISR)
  55:.\Generated_Source\PSoC5/USBFS_pm.c ****     {
  31              		.loc 1 55 0
  32              		.cfi_startproc
  33              		@ args = 0, pretend = 0, frame = 0
  34              		@ frame_needed = 1, uses_anonymous_args = 0
  35              		@ link register save eliminated.
  36 0000 80B4     		push	{r7}
  37              	.LCFI0:
  38              		.cfi_def_cfa_offset 4
  39              		.cfi_offset 7, -4
  40 0002 00AF     		add	r7, sp, #0
  41              	.LCFI1:
  42              		.cfi_def_cfa_register 7
  56:.\Generated_Source\PSoC5/USBFS_pm.c ****         /* `#START DP_USER_CODE` Place your code here */
  57:.\Generated_Source\PSoC5/USBFS_pm.c **** 
  58:.\Generated_Source\PSoC5/USBFS_pm.c ****         /* `#END` */
  59:.\Generated_Source\PSoC5/USBFS_pm.c **** 
  60:.\Generated_Source\PSoC5/USBFS_pm.c ****         /* Clears active interrupt */
  61:.\Generated_Source\PSoC5/USBFS_pm.c ****         CY_GET_REG8(USBFS_DP_INTSTAT_PTR);
  43              		.loc 1 61 0
  44 0004 44F28F53 		movw	r3, #17807
  45 0008 C4F20003 		movt	r3, 16384
  46 000c 1B78     		ldrb	r3, [r3, #0]
  62:.\Generated_Source\PSoC5/USBFS_pm.c ****     }
  47              		.loc 1 62 0
  48 000e BD46     		mov	sp, r7
  49 0010 80BC     		pop	{r7}
  50 0012 7047     		bx	lr
  51              		.cfi_endproc
  52              	.LFE56:
ARM GAS  C:\Users\Robert\AppData\Local\Temp\cckkjh3f.s 			page 3


  53              		.size	USBFS_DP_ISR, .-USBFS_DP_ISR
  54              		.section	.text.USBFS_SaveConfig,"ax",%progbits
  55              		.align	2
  56              		.global	USBFS_SaveConfig
  57              		.thumb
  58              		.thumb_func
  59              		.type	USBFS_SaveConfig, %function
  60              	USBFS_SaveConfig:
  61              	.LFB57:
  63:.\Generated_Source\PSoC5/USBFS_pm.c **** 
  64:.\Generated_Source\PSoC5/USBFS_pm.c **** #endif /* (USBFS_DP_ISR_REMOVE == 0u) */
  65:.\Generated_Source\PSoC5/USBFS_pm.c **** 
  66:.\Generated_Source\PSoC5/USBFS_pm.c **** 
  67:.\Generated_Source\PSoC5/USBFS_pm.c **** /*******************************************************************************
  68:.\Generated_Source\PSoC5/USBFS_pm.c **** * Function Name: USBFS_SaveConfig
  69:.\Generated_Source\PSoC5/USBFS_pm.c **** ********************************************************************************
  70:.\Generated_Source\PSoC5/USBFS_pm.c **** *
  71:.\Generated_Source\PSoC5/USBFS_pm.c **** * Summary:
  72:.\Generated_Source\PSoC5/USBFS_pm.c **** *  Saves the current user configuration.
  73:.\Generated_Source\PSoC5/USBFS_pm.c **** *
  74:.\Generated_Source\PSoC5/USBFS_pm.c **** * Parameters:
  75:.\Generated_Source\PSoC5/USBFS_pm.c **** *  None.
  76:.\Generated_Source\PSoC5/USBFS_pm.c **** *
  77:.\Generated_Source\PSoC5/USBFS_pm.c **** * Return:
  78:.\Generated_Source\PSoC5/USBFS_pm.c **** *  None.
  79:.\Generated_Source\PSoC5/USBFS_pm.c **** *
  80:.\Generated_Source\PSoC5/USBFS_pm.c **** * Reentrant:
  81:.\Generated_Source\PSoC5/USBFS_pm.c **** *  No.
  82:.\Generated_Source\PSoC5/USBFS_pm.c **** *
  83:.\Generated_Source\PSoC5/USBFS_pm.c **** *******************************************************************************/
  84:.\Generated_Source\PSoC5/USBFS_pm.c **** void USBFS_SaveConfig(void) 
  85:.\Generated_Source\PSoC5/USBFS_pm.c **** {
  62              		.loc 1 85 0
  63              		.cfi_startproc
  64              		@ args = 0, pretend = 0, frame = 0
  65              		@ frame_needed = 1, uses_anonymous_args = 0
  66              		@ link register save eliminated.
  67 0000 80B4     		push	{r7}
  68              	.LCFI2:
  69              		.cfi_def_cfa_offset 4
  70              		.cfi_offset 7, -4
  71 0002 00AF     		add	r7, sp, #0
  72              	.LCFI3:
  73              		.cfi_def_cfa_register 7
  86:.\Generated_Source\PSoC5/USBFS_pm.c **** 
  87:.\Generated_Source\PSoC5/USBFS_pm.c **** }
  74              		.loc 1 87 0
  75 0004 BD46     		mov	sp, r7
  76 0006 80BC     		pop	{r7}
  77 0008 7047     		bx	lr
  78              		.cfi_endproc
  79              	.LFE57:
  80              		.size	USBFS_SaveConfig, .-USBFS_SaveConfig
  81 000a 00BF     		.section	.text.USBFS_RestoreConfig,"ax",%progbits
  82              		.align	2
  83              		.global	USBFS_RestoreConfig
  84              		.thumb
ARM GAS  C:\Users\Robert\AppData\Local\Temp\cckkjh3f.s 			page 4


  85              		.thumb_func
  86              		.type	USBFS_RestoreConfig, %function
  87              	USBFS_RestoreConfig:
  88              	.LFB58:
  88:.\Generated_Source\PSoC5/USBFS_pm.c **** 
  89:.\Generated_Source\PSoC5/USBFS_pm.c **** 
  90:.\Generated_Source\PSoC5/USBFS_pm.c **** /*******************************************************************************
  91:.\Generated_Source\PSoC5/USBFS_pm.c **** * Function Name: USBFS_RestoreConfig
  92:.\Generated_Source\PSoC5/USBFS_pm.c **** ********************************************************************************
  93:.\Generated_Source\PSoC5/USBFS_pm.c **** *
  94:.\Generated_Source\PSoC5/USBFS_pm.c **** * Summary:
  95:.\Generated_Source\PSoC5/USBFS_pm.c **** *  Restores the current user configuration.
  96:.\Generated_Source\PSoC5/USBFS_pm.c **** *
  97:.\Generated_Source\PSoC5/USBFS_pm.c **** * Parameters:
  98:.\Generated_Source\PSoC5/USBFS_pm.c **** *  None.
  99:.\Generated_Source\PSoC5/USBFS_pm.c **** *
 100:.\Generated_Source\PSoC5/USBFS_pm.c **** * Return:
 101:.\Generated_Source\PSoC5/USBFS_pm.c **** *  None.
 102:.\Generated_Source\PSoC5/USBFS_pm.c **** *
 103:.\Generated_Source\PSoC5/USBFS_pm.c **** * Reentrant:
 104:.\Generated_Source\PSoC5/USBFS_pm.c **** *  No.
 105:.\Generated_Source\PSoC5/USBFS_pm.c **** *
 106:.\Generated_Source\PSoC5/USBFS_pm.c **** *******************************************************************************/
 107:.\Generated_Source\PSoC5/USBFS_pm.c **** void USBFS_RestoreConfig(void) 
 108:.\Generated_Source\PSoC5/USBFS_pm.c **** {
  89              		.loc 1 108 0
  90              		.cfi_startproc
  91              		@ args = 0, pretend = 0, frame = 0
  92              		@ frame_needed = 1, uses_anonymous_args = 0
  93 0000 80B5     		push	{r7, lr}
  94              	.LCFI4:
  95              		.cfi_def_cfa_offset 8
  96              		.cfi_offset 7, -8
  97              		.cfi_offset 14, -4
  98 0002 00AF     		add	r7, sp, #0
  99              	.LCFI5:
 100              		.cfi_def_cfa_register 7
 109:.\Generated_Source\PSoC5/USBFS_pm.c ****     if(USBFS_configuration != 0u)
 101              		.loc 1 109 0
 102 0004 40F20003 		movw	r3, #:lower16:USBFS_configuration
 103 0008 C0F20003 		movt	r3, #:upper16:USBFS_configuration
 104 000c 1B78     		ldrb	r3, [r3, #0]
 105 000e DBB2     		uxtb	r3, r3
 106 0010 002B     		cmp	r3, #0
 107 0012 01D0     		beq	.L3
 110:.\Generated_Source\PSoC5/USBFS_pm.c ****     {
 111:.\Generated_Source\PSoC5/USBFS_pm.c ****         USBFS_ConfigReg();
 108              		.loc 1 111 0
 109 0014 FFF7FEFF 		bl	USBFS_ConfigReg
 110              	.L3:
 112:.\Generated_Source\PSoC5/USBFS_pm.c ****     }
 113:.\Generated_Source\PSoC5/USBFS_pm.c **** }
 111              		.loc 1 113 0
 112 0018 80BD     		pop	{r7, pc}
 113              		.cfi_endproc
 114              	.LFE58:
 115              		.size	USBFS_RestoreConfig, .-USBFS_RestoreConfig
ARM GAS  C:\Users\Robert\AppData\Local\Temp\cckkjh3f.s 			page 5


 116 001a 00BF     		.section	.text.USBFS_Suspend,"ax",%progbits
 117              		.align	2
 118              		.global	USBFS_Suspend
 119              		.thumb
 120              		.thumb_func
 121              		.type	USBFS_Suspend, %function
 122              	USBFS_Suspend:
 123              	.LFB59:
 114:.\Generated_Source\PSoC5/USBFS_pm.c **** 
 115:.\Generated_Source\PSoC5/USBFS_pm.c **** 
 116:.\Generated_Source\PSoC5/USBFS_pm.c **** /*******************************************************************************
 117:.\Generated_Source\PSoC5/USBFS_pm.c **** * Function Name: USBFS_Suspend
 118:.\Generated_Source\PSoC5/USBFS_pm.c **** ********************************************************************************
 119:.\Generated_Source\PSoC5/USBFS_pm.c **** *
 120:.\Generated_Source\PSoC5/USBFS_pm.c **** * Summary:
 121:.\Generated_Source\PSoC5/USBFS_pm.c **** *  This function disables the USBFS block and prepares for power down mode.
 122:.\Generated_Source\PSoC5/USBFS_pm.c **** *
 123:.\Generated_Source\PSoC5/USBFS_pm.c **** * Parameters:
 124:.\Generated_Source\PSoC5/USBFS_pm.c **** *  None.
 125:.\Generated_Source\PSoC5/USBFS_pm.c **** *
 126:.\Generated_Source\PSoC5/USBFS_pm.c **** * Return:
 127:.\Generated_Source\PSoC5/USBFS_pm.c **** *   None.
 128:.\Generated_Source\PSoC5/USBFS_pm.c **** *
 129:.\Generated_Source\PSoC5/USBFS_pm.c **** * Global variables:
 130:.\Generated_Source\PSoC5/USBFS_pm.c **** *  USBFS_backup.enable:  modified.
 131:.\Generated_Source\PSoC5/USBFS_pm.c **** *
 132:.\Generated_Source\PSoC5/USBFS_pm.c **** * Reentrant:
 133:.\Generated_Source\PSoC5/USBFS_pm.c **** *  No.
 134:.\Generated_Source\PSoC5/USBFS_pm.c **** *
 135:.\Generated_Source\PSoC5/USBFS_pm.c **** *******************************************************************************/
 136:.\Generated_Source\PSoC5/USBFS_pm.c **** void USBFS_Suspend(void) 
 137:.\Generated_Source\PSoC5/USBFS_pm.c **** {
 124              		.loc 1 137 0
 125              		.cfi_startproc
 126              		@ args = 0, pretend = 0, frame = 8
 127              		@ frame_needed = 1, uses_anonymous_args = 0
 128 0000 80B5     		push	{r7, lr}
 129              	.LCFI6:
 130              		.cfi_def_cfa_offset 8
 131              		.cfi_offset 7, -8
 132              		.cfi_offset 14, -4
 133 0002 82B0     		sub	sp, sp, #8
 134              	.LCFI7:
 135              		.cfi_def_cfa_offset 16
 136 0004 00AF     		add	r7, sp, #0
 137              	.LCFI8:
 138              		.cfi_def_cfa_register 7
 138:.\Generated_Source\PSoC5/USBFS_pm.c ****     uint8 enableInterrupts;
 139:.\Generated_Source\PSoC5/USBFS_pm.c ****     enableInterrupts = CyEnterCriticalSection();
 139              		.loc 1 139 0
 140 0006 FFF7FEFF 		bl	CyEnterCriticalSection
 141 000a 0346     		mov	r3, r0
 142 000c FB71     		strb	r3, [r7, #7]
 140:.\Generated_Source\PSoC5/USBFS_pm.c **** 
 141:.\Generated_Source\PSoC5/USBFS_pm.c ****     if((CY_GET_REG8(USBFS_CR0_PTR) & USBFS_CR0_ENABLE) != 0u)
 143              		.loc 1 141 0
 144 000e 46F20803 		movw	r3, #24584
ARM GAS  C:\Users\Robert\AppData\Local\Temp\cckkjh3f.s 			page 6


 145 0012 C4F20003 		movt	r3, 16384
 146 0016 1B78     		ldrb	r3, [r3, #0]
 147 0018 DBB2     		uxtb	r3, r3
 148 001a DBB2     		uxtb	r3, r3
 149 001c 5BB2     		sxtb	r3, r3
 150 001e 002B     		cmp	r3, #0
 151 0020 80F29680 		bge	.L6
 142:.\Generated_Source\PSoC5/USBFS_pm.c ****     {   /* USB block is enabled */
 143:.\Generated_Source\PSoC5/USBFS_pm.c ****         USBFS_backup.enableState = 1u;
 152              		.loc 1 143 0
 153 0024 40F20003 		movw	r3, #:lower16:USBFS_backup
 154 0028 C0F20003 		movt	r3, #:upper16:USBFS_backup
 155 002c 4FF00102 		mov	r2, #1
 156 0030 1A70     		strb	r2, [r3, #0]
 144:.\Generated_Source\PSoC5/USBFS_pm.c **** 
 145:.\Generated_Source\PSoC5/USBFS_pm.c ****         #if(USBFS_EP_MM != USBFS__EP_MANUAL)
 146:.\Generated_Source\PSoC5/USBFS_pm.c ****             USBFS_Stop_DMA(USBFS_MAX_EP);     /* Stop all DMAs */
 147:.\Generated_Source\PSoC5/USBFS_pm.c ****         #endif   /*  USBFS_EP_MM != USBFS__EP_MANUAL */
 148:.\Generated_Source\PSoC5/USBFS_pm.c **** 
 149:.\Generated_Source\PSoC5/USBFS_pm.c ****         /* Ensure USB transmit enable is low (USB_USBIO_CR0.ten). - Manual Transmission - Disabled 
 150:.\Generated_Source\PSoC5/USBFS_pm.c ****         USBFS_USBIO_CR0_REG &= (uint8)~USBFS_USBIO_CR0_TEN;
 157              		.loc 1 150 0
 158 0032 46F21003 		movw	r3, #24592
 159 0036 C4F20003 		movt	r3, 16384
 160 003a 46F21002 		movw	r2, #24592
 161 003e C4F20002 		movt	r2, 16384
 162 0042 1278     		ldrb	r2, [r2, #0]
 163 0044 D2B2     		uxtb	r2, r2
 164 0046 02F07F02 		and	r2, r2, #127
 165 004a D2B2     		uxtb	r2, r2
 166 004c 1A70     		strb	r2, [r3, #0]
 151:.\Generated_Source\PSoC5/USBFS_pm.c ****         CyDelayUs(0u);  /*~50ns delay */
 167              		.loc 1 151 0
 168 004e 4FF00000 		mov	r0, #0
 169 0052 FFF7FEFF 		bl	CyDelayUs
 152:.\Generated_Source\PSoC5/USBFS_pm.c **** 
 153:.\Generated_Source\PSoC5/USBFS_pm.c ****         /* Disable the USBIO by asserting PM.USB_CR0.fsusbio_pd_n(Inverted) and pd_pullup_hv(Invert
 154:.\Generated_Source\PSoC5/USBFS_pm.c ****         USBFS_PM_USB_CR0_REG &=
 170              		.loc 1 154 0
 171 0056 44F29433 		movw	r3, #17300
 172 005a C4F20003 		movt	r3, 16384
 173 005e 44F29432 		movw	r2, #17300
 174 0062 C4F20002 		movt	r2, 16384
 175 0066 1278     		ldrb	r2, [r2, #0]
 176 0068 D2B2     		uxtb	r2, r2
 177 006a 22F00602 		bic	r2, r2, #6
 178 006e D2B2     		uxtb	r2, r2
 179 0070 1A70     		strb	r2, [r3, #0]
 155:.\Generated_Source\PSoC5/USBFS_pm.c ****                                 (uint8)~(USBFS_PM_USB_CR0_PD_N | USBFS_PM_USB_CR0_PD_PULLUP_N);
 156:.\Generated_Source\PSoC5/USBFS_pm.c **** 
 157:.\Generated_Source\PSoC5/USBFS_pm.c ****         /* Disable the SIE */
 158:.\Generated_Source\PSoC5/USBFS_pm.c ****         USBFS_CR0_REG &= (uint8)~USBFS_CR0_ENABLE;
 180              		.loc 1 158 0
 181 0072 46F20803 		movw	r3, #24584
 182 0076 C4F20003 		movt	r3, 16384
 183 007a 46F20802 		movw	r2, #24584
 184 007e C4F20002 		movt	r2, 16384
ARM GAS  C:\Users\Robert\AppData\Local\Temp\cckkjh3f.s 			page 7


 185 0082 1278     		ldrb	r2, [r2, #0]
 186 0084 D2B2     		uxtb	r2, r2
 187 0086 02F07F02 		and	r2, r2, #127
 188 008a D2B2     		uxtb	r2, r2
 189 008c 1A70     		strb	r2, [r3, #0]
 159:.\Generated_Source\PSoC5/USBFS_pm.c **** 
 160:.\Generated_Source\PSoC5/USBFS_pm.c ****         CyDelayUs(0u);  /* ~50ns delay */
 190              		.loc 1 160 0
 191 008e 4FF00000 		mov	r0, #0
 192 0092 FFF7FEFF 		bl	CyDelayUs
 161:.\Generated_Source\PSoC5/USBFS_pm.c ****         /* Store mode and Disable VRegulator*/
 162:.\Generated_Source\PSoC5/USBFS_pm.c ****         USBFS_backup.mode = USBFS_CR1_REG & USBFS_CR1_REG_ENABLE;
 193              		.loc 1 162 0
 194 0096 46F20903 		movw	r3, #24585
 195 009a C4F20003 		movt	r3, 16384
 196 009e 1B78     		ldrb	r3, [r3, #0]
 197 00a0 DBB2     		uxtb	r3, r3
 198 00a2 03F00103 		and	r3, r3, #1
 199 00a6 DAB2     		uxtb	r2, r3
 200 00a8 40F20003 		movw	r3, #:lower16:USBFS_backup
 201 00ac C0F20003 		movt	r3, #:upper16:USBFS_backup
 202 00b0 5A70     		strb	r2, [r3, #1]
 163:.\Generated_Source\PSoC5/USBFS_pm.c ****         USBFS_CR1_REG &= (uint8)~USBFS_CR1_REG_ENABLE;
 203              		.loc 1 163 0
 204 00b2 46F20903 		movw	r3, #24585
 205 00b6 C4F20003 		movt	r3, 16384
 206 00ba 46F20902 		movw	r2, #24585
 207 00be C4F20002 		movt	r2, 16384
 208 00c2 1278     		ldrb	r2, [r2, #0]
 209 00c4 D2B2     		uxtb	r2, r2
 210 00c6 22F00102 		bic	r2, r2, #1
 211 00ca D2B2     		uxtb	r2, r2
 212 00cc 1A70     		strb	r2, [r3, #0]
 164:.\Generated_Source\PSoC5/USBFS_pm.c **** 
 165:.\Generated_Source\PSoC5/USBFS_pm.c ****         CyDelayUs(1u);  /* 0.5 us min delay */
 213              		.loc 1 165 0
 214 00ce 4FF00100 		mov	r0, #1
 215 00d2 FFF7FEFF 		bl	CyDelayUs
 166:.\Generated_Source\PSoC5/USBFS_pm.c ****         /* Disable the USBIO reference by setting PM.USB_CR0.fsusbio_ref_en.*/
 167:.\Generated_Source\PSoC5/USBFS_pm.c ****         USBFS_PM_USB_CR0_REG &= (uint8)~USBFS_PM_USB_CR0_REF_EN;
 216              		.loc 1 167 0
 217 00d6 44F29433 		movw	r3, #17300
 218 00da C4F20003 		movt	r3, 16384
 219 00de 44F29432 		movw	r2, #17300
 220 00e2 C4F20002 		movt	r2, 16384
 221 00e6 1278     		ldrb	r2, [r2, #0]
 222 00e8 D2B2     		uxtb	r2, r2
 223 00ea 22F00102 		bic	r2, r2, #1
 224 00ee D2B2     		uxtb	r2, r2
 225 00f0 1A70     		strb	r2, [r3, #0]
 168:.\Generated_Source\PSoC5/USBFS_pm.c **** 
 169:.\Generated_Source\PSoC5/USBFS_pm.c ****         /* Switch DP and DM terminals to GPIO mode and disconnect 1.5k pullup*/
 170:.\Generated_Source\PSoC5/USBFS_pm.c ****         USBFS_USBIO_CR1_REG |= USBFS_USBIO_CR1_IOMODE;
 226              		.loc 1 170 0
 227 00f2 46F21203 		movw	r3, #24594
 228 00f6 C4F20003 		movt	r3, 16384
 229 00fa 46F21202 		movw	r2, #24594
ARM GAS  C:\Users\Robert\AppData\Local\Temp\cckkjh3f.s 			page 8


 230 00fe C4F20002 		movt	r2, 16384
 231 0102 1278     		ldrb	r2, [r2, #0]
 232 0104 D2B2     		uxtb	r2, r2
 233 0106 42F02002 		orr	r2, r2, #32
 234 010a D2B2     		uxtb	r2, r2
 235 010c 1A70     		strb	r2, [r3, #0]
 171:.\Generated_Source\PSoC5/USBFS_pm.c **** 
 172:.\Generated_Source\PSoC5/USBFS_pm.c ****         /* Disable USB in ACT PM */
 173:.\Generated_Source\PSoC5/USBFS_pm.c ****         USBFS_PM_ACT_CFG_REG &= (uint8)~USBFS_PM_ACT_EN_FSUSB;
 236              		.loc 1 173 0
 237 010e 44F2A533 		movw	r3, #17317
 238 0112 C4F20003 		movt	r3, 16384
 239 0116 44F2A532 		movw	r2, #17317
 240 011a C4F20002 		movt	r2, 16384
 241 011e 1278     		ldrb	r2, [r2, #0]
 242 0120 D2B2     		uxtb	r2, r2
 243 0122 22F00102 		bic	r2, r2, #1
 244 0126 D2B2     		uxtb	r2, r2
 245 0128 1A70     		strb	r2, [r3, #0]
 174:.\Generated_Source\PSoC5/USBFS_pm.c ****         /* Disable USB block for Standby Power Mode */
 175:.\Generated_Source\PSoC5/USBFS_pm.c ****         USBFS_PM_STBY_CFG_REG &= (uint8)~USBFS_PM_STBY_EN_FSUSB;
 246              		.loc 1 175 0
 247 012a 44F2B533 		movw	r3, #17333
 248 012e C4F20003 		movt	r3, 16384
 249 0132 44F2B532 		movw	r2, #17333
 250 0136 C4F20002 		movt	r2, 16384
 251 013a 1278     		ldrb	r2, [r2, #0]
 252 013c D2B2     		uxtb	r2, r2
 253 013e 22F00102 		bic	r2, r2, #1
 254 0142 D2B2     		uxtb	r2, r2
 255 0144 1A70     		strb	r2, [r3, #0]
 176:.\Generated_Source\PSoC5/USBFS_pm.c ****         CyDelayUs(1u); /* min  0.5us delay required */
 256              		.loc 1 176 0
 257 0146 4FF00100 		mov	r0, #1
 258 014a FFF7FEFF 		bl	CyDelayUs
 259 014e 06E0     		b	.L7
 260              	.L6:
 177:.\Generated_Source\PSoC5/USBFS_pm.c **** 
 178:.\Generated_Source\PSoC5/USBFS_pm.c ****     }
 179:.\Generated_Source\PSoC5/USBFS_pm.c ****     else
 180:.\Generated_Source\PSoC5/USBFS_pm.c ****     {
 181:.\Generated_Source\PSoC5/USBFS_pm.c ****         USBFS_backup.enableState = 0u;
 261              		.loc 1 181 0
 262 0150 40F20003 		movw	r3, #:lower16:USBFS_backup
 263 0154 C0F20003 		movt	r3, #:upper16:USBFS_backup
 264 0158 4FF00002 		mov	r2, #0
 265 015c 1A70     		strb	r2, [r3, #0]
 266              	.L7:
 182:.\Generated_Source\PSoC5/USBFS_pm.c ****     }
 183:.\Generated_Source\PSoC5/USBFS_pm.c ****     
 184:.\Generated_Source\PSoC5/USBFS_pm.c ****     CyExitCriticalSection(enableInterrupts);
 267              		.loc 1 184 0
 268 015e FB79     		ldrb	r3, [r7, #7]	@ zero_extendqisi2
 269 0160 1846     		mov	r0, r3
 270 0162 FFF7FEFF 		bl	CyExitCriticalSection
 185:.\Generated_Source\PSoC5/USBFS_pm.c **** 
 186:.\Generated_Source\PSoC5/USBFS_pm.c ****     /* Set the DP Interrupt for wake-up from sleep mode. */
ARM GAS  C:\Users\Robert\AppData\Local\Temp\cckkjh3f.s 			page 9


 187:.\Generated_Source\PSoC5/USBFS_pm.c ****     #if(USBFS_DP_ISR_REMOVE == 0u)
 188:.\Generated_Source\PSoC5/USBFS_pm.c ****         (void) CyIntSetVector(USBFS_DP_INTC_VECT_NUM, &USBFS_DP_ISR);
 271              		.loc 1 188 0
 272 0166 4FF00C00 		mov	r0, #12
 273 016a 40F20001 		movw	r1, #:lower16:USBFS_DP_ISR
 274 016e C0F20001 		movt	r1, #:upper16:USBFS_DP_ISR
 275 0172 FFF7FEFF 		bl	CyIntSetVector
 189:.\Generated_Source\PSoC5/USBFS_pm.c ****         CyIntSetPriority(USBFS_DP_INTC_VECT_NUM, USBFS_DP_INTC_PRIOR);
 276              		.loc 1 189 0
 277 0176 4FF00C00 		mov	r0, #12
 278 017a 4FF00701 		mov	r1, #7
 279 017e FFF7FEFF 		bl	CyIntSetPriority
 190:.\Generated_Source\PSoC5/USBFS_pm.c ****         CyIntClearPending(USBFS_DP_INTC_VECT_NUM);
 280              		.loc 1 190 0
 281 0182 4EF28023 		movw	r3, #57984
 282 0186 CEF20003 		movt	r3, 57344
 283 018a 4FF48052 		mov	r2, #4096
 284 018e 1A60     		str	r2, [r3, #0]
 191:.\Generated_Source\PSoC5/USBFS_pm.c ****         CyIntEnable(USBFS_DP_INTC_VECT_NUM);
 285              		.loc 1 191 0
 286 0190 4FF46143 		mov	r3, #57600
 287 0194 CEF20003 		movt	r3, 57344
 288 0198 4FF48052 		mov	r2, #4096
 289 019c 1A60     		str	r2, [r3, #0]
 192:.\Generated_Source\PSoC5/USBFS_pm.c ****     #endif /* (USBFS_DP_ISR_REMOVE == 0u) */
 193:.\Generated_Source\PSoC5/USBFS_pm.c **** }
 290              		.loc 1 193 0
 291 019e 07F10807 		add	r7, r7, #8
 292 01a2 BD46     		mov	sp, r7
 293 01a4 80BD     		pop	{r7, pc}
 294              		.cfi_endproc
 295              	.LFE59:
 296              		.size	USBFS_Suspend, .-USBFS_Suspend
 297 01a6 00BF     		.section	.text.USBFS_Resume,"ax",%progbits
 298              		.align	2
 299              		.global	USBFS_Resume
 300              		.thumb
 301              		.thumb_func
 302              		.type	USBFS_Resume, %function
 303              	USBFS_Resume:
 304              	.LFB60:
 194:.\Generated_Source\PSoC5/USBFS_pm.c **** 
 195:.\Generated_Source\PSoC5/USBFS_pm.c **** 
 196:.\Generated_Source\PSoC5/USBFS_pm.c **** /*******************************************************************************
 197:.\Generated_Source\PSoC5/USBFS_pm.c **** * Function Name: USBFS_Resume
 198:.\Generated_Source\PSoC5/USBFS_pm.c **** ********************************************************************************
 199:.\Generated_Source\PSoC5/USBFS_pm.c **** *
 200:.\Generated_Source\PSoC5/USBFS_pm.c **** * Summary:
 201:.\Generated_Source\PSoC5/USBFS_pm.c **** *  This function enables the USBFS block after power down mode.
 202:.\Generated_Source\PSoC5/USBFS_pm.c **** *
 203:.\Generated_Source\PSoC5/USBFS_pm.c **** * Parameters:
 204:.\Generated_Source\PSoC5/USBFS_pm.c **** *  None.
 205:.\Generated_Source\PSoC5/USBFS_pm.c **** *
 206:.\Generated_Source\PSoC5/USBFS_pm.c **** * Return:
 207:.\Generated_Source\PSoC5/USBFS_pm.c **** *  None.
 208:.\Generated_Source\PSoC5/USBFS_pm.c **** *
 209:.\Generated_Source\PSoC5/USBFS_pm.c **** * Global variables:
ARM GAS  C:\Users\Robert\AppData\Local\Temp\cckkjh3f.s 			page 10


 210:.\Generated_Source\PSoC5/USBFS_pm.c **** *  USBFS_backup - checked.
 211:.\Generated_Source\PSoC5/USBFS_pm.c **** *
 212:.\Generated_Source\PSoC5/USBFS_pm.c **** * Reentrant:
 213:.\Generated_Source\PSoC5/USBFS_pm.c **** *  No.
 214:.\Generated_Source\PSoC5/USBFS_pm.c **** *
 215:.\Generated_Source\PSoC5/USBFS_pm.c **** *******************************************************************************/
 216:.\Generated_Source\PSoC5/USBFS_pm.c **** void USBFS_Resume(void) 
 217:.\Generated_Source\PSoC5/USBFS_pm.c **** {
 305              		.loc 1 217 0
 306              		.cfi_startproc
 307              		@ args = 0, pretend = 0, frame = 8
 308              		@ frame_needed = 1, uses_anonymous_args = 0
 309 0000 80B5     		push	{r7, lr}
 310              	.LCFI9:
 311              		.cfi_def_cfa_offset 8
 312              		.cfi_offset 7, -8
 313              		.cfi_offset 14, -4
 314 0002 82B0     		sub	sp, sp, #8
 315              	.LCFI10:
 316              		.cfi_def_cfa_offset 16
 317 0004 00AF     		add	r7, sp, #0
 318              	.LCFI11:
 319              		.cfi_def_cfa_register 7
 218:.\Generated_Source\PSoC5/USBFS_pm.c ****     uint8 enableInterrupts;
 219:.\Generated_Source\PSoC5/USBFS_pm.c ****     enableInterrupts = CyEnterCriticalSection();
 320              		.loc 1 219 0
 321 0006 FFF7FEFF 		bl	CyEnterCriticalSection
 322 000a 0346     		mov	r3, r0
 323 000c FB71     		strb	r3, [r7, #7]
 220:.\Generated_Source\PSoC5/USBFS_pm.c **** 
 221:.\Generated_Source\PSoC5/USBFS_pm.c ****     if(USBFS_backup.enableState != 0u)
 324              		.loc 1 221 0
 325 000e 40F20003 		movw	r3, #:lower16:USBFS_backup
 326 0012 C0F20003 		movt	r3, #:upper16:USBFS_backup
 327 0016 1B78     		ldrb	r3, [r3, #0]	@ zero_extendqisi2
 328 0018 002B     		cmp	r3, #0
 329 001a 00F09B80 		beq	.L9
 222:.\Generated_Source\PSoC5/USBFS_pm.c ****     {
 223:.\Generated_Source\PSoC5/USBFS_pm.c ****         #if(USBFS_DP_ISR_REMOVE == 0u)
 224:.\Generated_Source\PSoC5/USBFS_pm.c ****             CyIntDisable(USBFS_DP_INTC_VECT_NUM);
 330              		.loc 1 224 0
 331 001e 4EF28013 		movw	r3, #57728
 332 0022 CEF20003 		movt	r3, 57344
 333 0026 4FF48052 		mov	r2, #4096
 334 002a 1A60     		str	r2, [r3, #0]
 225:.\Generated_Source\PSoC5/USBFS_pm.c ****         #endif /*  USBFS_DP_ISR_REMOVE */
 226:.\Generated_Source\PSoC5/USBFS_pm.c **** 
 227:.\Generated_Source\PSoC5/USBFS_pm.c ****         /* Enable USB block */
 228:.\Generated_Source\PSoC5/USBFS_pm.c ****         USBFS_PM_ACT_CFG_REG |= USBFS_PM_ACT_EN_FSUSB;
 335              		.loc 1 228 0
 336 002c 44F2A533 		movw	r3, #17317
 337 0030 C4F20003 		movt	r3, 16384
 338 0034 44F2A532 		movw	r2, #17317
 339 0038 C4F20002 		movt	r2, 16384
 340 003c 1278     		ldrb	r2, [r2, #0]
 341 003e D2B2     		uxtb	r2, r2
 342 0040 42F00102 		orr	r2, r2, #1
ARM GAS  C:\Users\Robert\AppData\Local\Temp\cckkjh3f.s 			page 11


 343 0044 D2B2     		uxtb	r2, r2
 344 0046 1A70     		strb	r2, [r3, #0]
 229:.\Generated_Source\PSoC5/USBFS_pm.c ****         /* Enable USB block for Standby Power Mode */
 230:.\Generated_Source\PSoC5/USBFS_pm.c ****         USBFS_PM_STBY_CFG_REG |= USBFS_PM_STBY_EN_FSUSB;
 345              		.loc 1 230 0
 346 0048 44F2B533 		movw	r3, #17333
 347 004c C4F20003 		movt	r3, 16384
 348 0050 44F2B532 		movw	r2, #17333
 349 0054 C4F20002 		movt	r2, 16384
 350 0058 1278     		ldrb	r2, [r2, #0]
 351 005a D2B2     		uxtb	r2, r2
 352 005c 42F00102 		orr	r2, r2, #1
 353 0060 D2B2     		uxtb	r2, r2
 354 0062 1A70     		strb	r2, [r3, #0]
 231:.\Generated_Source\PSoC5/USBFS_pm.c ****         /* Enable core clock */
 232:.\Generated_Source\PSoC5/USBFS_pm.c ****         USBFS_USB_CLK_EN_REG |= USBFS_USB_CLK_ENABLE;
 355              		.loc 1 232 0
 356 0064 46F29D03 		movw	r3, #24733
 357 0068 C4F20003 		movt	r3, 16384
 358 006c 46F29D02 		movw	r2, #24733
 359 0070 C4F20002 		movt	r2, 16384
 360 0074 1278     		ldrb	r2, [r2, #0]
 361 0076 D2B2     		uxtb	r2, r2
 362 0078 42F00102 		orr	r2, r2, #1
 363 007c D2B2     		uxtb	r2, r2
 364 007e 1A70     		strb	r2, [r3, #0]
 233:.\Generated_Source\PSoC5/USBFS_pm.c **** 
 234:.\Generated_Source\PSoC5/USBFS_pm.c ****         /* Enable the USBIO reference by setting PM.USB_CR0.fsusbio_ref_en.*/
 235:.\Generated_Source\PSoC5/USBFS_pm.c ****         USBFS_PM_USB_CR0_REG |= USBFS_PM_USB_CR0_REF_EN;
 365              		.loc 1 235 0
 366 0080 44F29433 		movw	r3, #17300
 367 0084 C4F20003 		movt	r3, 16384
 368 0088 44F29432 		movw	r2, #17300
 369 008c C4F20002 		movt	r2, 16384
 370 0090 1278     		ldrb	r2, [r2, #0]
 371 0092 D2B2     		uxtb	r2, r2
 372 0094 42F00102 		orr	r2, r2, #1
 373 0098 D2B2     		uxtb	r2, r2
 374 009a 1A70     		strb	r2, [r3, #0]
 236:.\Generated_Source\PSoC5/USBFS_pm.c ****         /* The reference will be available ~40us after power restored */
 237:.\Generated_Source\PSoC5/USBFS_pm.c ****         CyDelayUs(40u);
 375              		.loc 1 237 0
 376 009c 4FF02800 		mov	r0, #40
 377 00a0 FFF7FEFF 		bl	CyDelayUs
 238:.\Generated_Source\PSoC5/USBFS_pm.c ****         /* Return VRegulator*/
 239:.\Generated_Source\PSoC5/USBFS_pm.c ****         USBFS_CR1_REG |= USBFS_backup.mode;
 378              		.loc 1 239 0
 379 00a4 46F20903 		movw	r3, #24585
 380 00a8 C4F20003 		movt	r3, 16384
 381 00ac 46F20902 		movw	r2, #24585
 382 00b0 C4F20002 		movt	r2, 16384
 383 00b4 1278     		ldrb	r2, [r2, #0]
 384 00b6 D1B2     		uxtb	r1, r2
 385 00b8 40F20002 		movw	r2, #:lower16:USBFS_backup
 386 00bc C0F20002 		movt	r2, #:upper16:USBFS_backup
 387 00c0 5278     		ldrb	r2, [r2, #1]	@ zero_extendqisi2
 388 00c2 0A43     		orrs	r2, r2, r1
ARM GAS  C:\Users\Robert\AppData\Local\Temp\cckkjh3f.s 			page 12


 389 00c4 D2B2     		uxtb	r2, r2
 390 00c6 1A70     		strb	r2, [r3, #0]
 240:.\Generated_Source\PSoC5/USBFS_pm.c ****         CyDelayUs(0u);  /*~50ns delay */
 391              		.loc 1 240 0
 392 00c8 4FF00000 		mov	r0, #0
 393 00cc FFF7FEFF 		bl	CyDelayUs
 241:.\Generated_Source\PSoC5/USBFS_pm.c ****         /* Enable USBIO */
 242:.\Generated_Source\PSoC5/USBFS_pm.c ****         USBFS_PM_USB_CR0_REG |= USBFS_PM_USB_CR0_PD_N;
 394              		.loc 1 242 0
 395 00d0 44F29433 		movw	r3, #17300
 396 00d4 C4F20003 		movt	r3, 16384
 397 00d8 44F29432 		movw	r2, #17300
 398 00dc C4F20002 		movt	r2, 16384
 399 00e0 1278     		ldrb	r2, [r2, #0]
 400 00e2 D2B2     		uxtb	r2, r2
 401 00e4 42F00202 		orr	r2, r2, #2
 402 00e8 D2B2     		uxtb	r2, r2
 403 00ea 1A70     		strb	r2, [r3, #0]
 243:.\Generated_Source\PSoC5/USBFS_pm.c ****         CyDelayUs(2u);
 404              		.loc 1 243 0
 405 00ec 4FF00200 		mov	r0, #2
 406 00f0 FFF7FEFF 		bl	CyDelayUs
 244:.\Generated_Source\PSoC5/USBFS_pm.c ****         /* Set the USBIO pull-up enable */
 245:.\Generated_Source\PSoC5/USBFS_pm.c ****         USBFS_PM_USB_CR0_REG |= USBFS_PM_USB_CR0_PD_PULLUP_N;
 407              		.loc 1 245 0
 408 00f4 44F29433 		movw	r3, #17300
 409 00f8 C4F20003 		movt	r3, 16384
 410 00fc 44F29432 		movw	r2, #17300
 411 0100 C4F20002 		movt	r2, 16384
 412 0104 1278     		ldrb	r2, [r2, #0]
 413 0106 D2B2     		uxtb	r2, r2
 414 0108 42F00402 		orr	r2, r2, #4
 415 010c D2B2     		uxtb	r2, r2
 416 010e 1A70     		strb	r2, [r3, #0]
 246:.\Generated_Source\PSoC5/USBFS_pm.c **** 
 247:.\Generated_Source\PSoC5/USBFS_pm.c ****         /* Re-init Arbiter configuration for DMA transfers */
 248:.\Generated_Source\PSoC5/USBFS_pm.c ****         #if(USBFS_EP_MM != USBFS__EP_MANUAL)
 249:.\Generated_Source\PSoC5/USBFS_pm.c ****             /* Usb arb interrupt enable */
 250:.\Generated_Source\PSoC5/USBFS_pm.c ****             USBFS_ARB_INT_EN_REG = USBFS_ARB_INT_MASK;
 251:.\Generated_Source\PSoC5/USBFS_pm.c ****             #if(USBFS_EP_MM == USBFS__EP_DMAMANUAL)
 252:.\Generated_Source\PSoC5/USBFS_pm.c ****                 USBFS_ARB_CFG_REG = USBFS_ARB_CFG_MANUAL_DMA;
 253:.\Generated_Source\PSoC5/USBFS_pm.c ****             #endif   /*  USBFS_EP_MM == USBFS__EP_DMAMANUAL */
 254:.\Generated_Source\PSoC5/USBFS_pm.c ****             #if(USBFS_EP_MM == USBFS__EP_DMAAUTO)
 255:.\Generated_Source\PSoC5/USBFS_pm.c ****                 /*Set cfg cmplt this rises DMA request when the full configuration is done */
 256:.\Generated_Source\PSoC5/USBFS_pm.c ****                 USBFS_ARB_CFG_REG = USBFS_ARB_CFG_AUTO_DMA | USBFS_ARB_CFG_AUTO_MEM;
 257:.\Generated_Source\PSoC5/USBFS_pm.c ****             #endif   /*  USBFS_EP_MM == USBFS__EP_DMAAUTO */
 258:.\Generated_Source\PSoC5/USBFS_pm.c ****         #endif   /*  USBFS_EP_MM != USBFS__EP_MANUAL */
 259:.\Generated_Source\PSoC5/USBFS_pm.c **** 
 260:.\Generated_Source\PSoC5/USBFS_pm.c ****         /* STALL_IN_OUT */
 261:.\Generated_Source\PSoC5/USBFS_pm.c ****         CY_SET_REG8(USBFS_EP0_CR_PTR, USBFS_MODE_STALL_IN_OUT);
 417              		.loc 1 261 0
 418 0110 46F22803 		movw	r3, #24616
 419 0114 C4F20003 		movt	r3, 16384
 420 0118 4FF00302 		mov	r2, #3
 421 011c 1A70     		strb	r2, [r3, #0]
 262:.\Generated_Source\PSoC5/USBFS_pm.c ****         /* Enable the SIE with a last address */
 263:.\Generated_Source\PSoC5/USBFS_pm.c ****         USBFS_CR0_REG |= USBFS_CR0_ENABLE;
ARM GAS  C:\Users\Robert\AppData\Local\Temp\cckkjh3f.s 			page 13


 422              		.loc 1 263 0
 423 011e 46F20803 		movw	r3, #24584
 424 0122 C4F20003 		movt	r3, 16384
 425 0126 46F20802 		movw	r2, #24584
 426 012a C4F20002 		movt	r2, 16384
 427 012e 1278     		ldrb	r2, [r2, #0]
 428 0130 D2B2     		uxtb	r2, r2
 429 0132 62F07F02 		orn	r2, r2, #127
 430 0136 D2B2     		uxtb	r2, r2
 431 0138 1A70     		strb	r2, [r3, #0]
 264:.\Generated_Source\PSoC5/USBFS_pm.c ****         CyDelayCycles(1u);
 432              		.loc 1 264 0
 433 013a 4FF00100 		mov	r0, #1
 434 013e FFF7FEFF 		bl	CyDelayCycles
 265:.\Generated_Source\PSoC5/USBFS_pm.c ****         /* Finally, Enable d+ pullup and select iomode to USB mode*/
 266:.\Generated_Source\PSoC5/USBFS_pm.c ****         CY_SET_REG8(USBFS_USBIO_CR1_PTR, USBFS_USBIO_CR1_USBPUEN);
 435              		.loc 1 266 0
 436 0142 46F21203 		movw	r3, #24594
 437 0146 C4F20003 		movt	r3, 16384
 438 014a 4FF00402 		mov	r2, #4
 439 014e 1A70     		strb	r2, [r3, #0]
 267:.\Generated_Source\PSoC5/USBFS_pm.c **** 
 268:.\Generated_Source\PSoC5/USBFS_pm.c ****         /* Restore USB register settings */
 269:.\Generated_Source\PSoC5/USBFS_pm.c ****         USBFS_RestoreConfig();
 440              		.loc 1 269 0
 441 0150 FFF7FEFF 		bl	USBFS_RestoreConfig
 442              	.L9:
 270:.\Generated_Source\PSoC5/USBFS_pm.c ****     }
 271:.\Generated_Source\PSoC5/USBFS_pm.c **** 
 272:.\Generated_Source\PSoC5/USBFS_pm.c ****     CyExitCriticalSection(enableInterrupts);
 443              		.loc 1 272 0
 444 0154 FB79     		ldrb	r3, [r7, #7]	@ zero_extendqisi2
 445 0156 1846     		mov	r0, r3
 446 0158 FFF7FEFF 		bl	CyExitCriticalSection
 273:.\Generated_Source\PSoC5/USBFS_pm.c **** }
 447              		.loc 1 273 0
 448 015c 07F10807 		add	r7, r7, #8
 449 0160 BD46     		mov	sp, r7
 450 0162 80BD     		pop	{r7, pc}
 451              		.cfi_endproc
 452              	.LFE60:
 453              		.size	USBFS_Resume, .-USBFS_Resume
 454              		.text
 455              	.Letext0:
 456              		.file 2 "c:\\program files (x86)\\cypress\\psoc creator\\3.0\\psoc creator\\import\\gnu_cs\\arm\\4
 457              		.file 3 "./Generated_Source/PSoC5/cytypes.h"
 458              		.file 4 "./Generated_Source/PSoC5/USBFS.h"
 459              		.file 5 "./Generated_Source/PSoC5/core_cm3.h"
 460              		.section	.debug_info,"",%progbits
 461              	.Ldebug_info0:
 462 0000 BF010000 		.4byte	0x1bf
 463 0004 0200     		.2byte	0x2
 464 0006 00000000 		.4byte	.Ldebug_abbrev0
 465 000a 04       		.byte	0x4
 466 000b 01       		.uleb128 0x1
 467 000c BB010000 		.4byte	.LASF30
 468 0010 01       		.byte	0x1
ARM GAS  C:\Users\Robert\AppData\Local\Temp\cckkjh3f.s 			page 14


 469 0011 91010000 		.4byte	.LASF31
 470 0015 73000000 		.4byte	.LASF32
 471 0019 00000000 		.4byte	.Ldebug_ranges0+0
 472 001d 00000000 		.4byte	0
 473 0021 00000000 		.4byte	0
 474 0025 00000000 		.4byte	.Ldebug_line0
 475 0029 02       		.uleb128 0x2
 476 002a 01       		.byte	0x1
 477 002b 06       		.byte	0x6
 478 002c 26020000 		.4byte	.LASF0
 479 0030 02       		.uleb128 0x2
 480 0031 01       		.byte	0x1
 481 0032 08       		.byte	0x8
 482 0033 41000000 		.4byte	.LASF1
 483 0037 02       		.uleb128 0x2
 484 0038 02       		.byte	0x2
 485 0039 05       		.byte	0x5
 486 003a 87010000 		.4byte	.LASF2
 487 003e 02       		.uleb128 0x2
 488 003f 02       		.byte	0x2
 489 0040 07       		.byte	0x7
 490 0041 14000000 		.4byte	.LASF3
 491 0045 03       		.uleb128 0x3
 492 0046 4F010000 		.4byte	.LASF9
 493 004a 02       		.byte	0x2
 494 004b 4F       		.byte	0x4f
 495 004c 50000000 		.4byte	0x50
 496 0050 02       		.uleb128 0x2
 497 0051 04       		.byte	0x4
 498 0052 05       		.byte	0x5
 499 0053 11020000 		.4byte	.LASF4
 500 0057 02       		.uleb128 0x2
 501 0058 04       		.byte	0x4
 502 0059 07       		.byte	0x7
 503 005a 54000000 		.4byte	.LASF5
 504 005e 02       		.uleb128 0x2
 505 005f 08       		.byte	0x8
 506 0060 05       		.byte	0x5
 507 0061 60010000 		.4byte	.LASF6
 508 0065 02       		.uleb128 0x2
 509 0066 08       		.byte	0x8
 510 0067 07       		.byte	0x7
 511 0068 1F010000 		.4byte	.LASF7
 512 006c 04       		.uleb128 0x4
 513 006d 04       		.byte	0x4
 514 006e 05       		.byte	0x5
 515 006f 696E7400 		.ascii	"int\000"
 516 0073 02       		.uleb128 0x2
 517 0074 04       		.byte	0x4
 518 0075 07       		.byte	0x7
 519 0076 12010000 		.4byte	.LASF8
 520 007a 03       		.uleb128 0x3
 521 007b B5010000 		.4byte	.LASF10
 522 007f 03       		.byte	0x3
 523 0080 5B       		.byte	0x5b
 524 0081 30000000 		.4byte	0x30
 525 0085 03       		.uleb128 0x3
ARM GAS  C:\Users\Robert\AppData\Local\Temp\cckkjh3f.s 			page 15


 526 0086 0B010000 		.4byte	.LASF11
 527 008a 03       		.byte	0x3
 528 008b 5D       		.byte	0x5d
 529 008c 57000000 		.4byte	0x57
 530 0090 02       		.uleb128 0x2
 531 0091 04       		.byte	0x4
 532 0092 04       		.byte	0x4
 533 0093 27000000 		.4byte	.LASF12
 534 0097 02       		.uleb128 0x2
 535 0098 08       		.byte	0x8
 536 0099 04       		.byte	0x4
 537 009a F3000000 		.4byte	.LASF13
 538 009e 02       		.uleb128 0x2
 539 009f 01       		.byte	0x1
 540 00a0 08       		.byte	0x8
 541 00a1 6E010000 		.4byte	.LASF14
 542 00a5 03       		.uleb128 0x3
 543 00a6 4F000000 		.4byte	.LASF15
 544 00aa 03       		.byte	0x3
 545 00ab F0       		.byte	0xf0
 546 00ac B0000000 		.4byte	0xb0
 547 00b0 05       		.uleb128 0x5
 548 00b1 7A000000 		.4byte	0x7a
 549 00b5 03       		.uleb128 0x3
 550 00b6 00000000 		.4byte	.LASF16
 551 00ba 03       		.byte	0x3
 552 00bb F2       		.byte	0xf2
 553 00bc C0000000 		.4byte	0xc0
 554 00c0 05       		.uleb128 0x5
 555 00c1 85000000 		.4byte	0x85
 556 00c5 02       		.uleb128 0x2
 557 00c6 04       		.byte	0x4
 558 00c7 07       		.byte	0x7
 559 00c8 57010000 		.4byte	.LASF17
 560 00cc 06       		.uleb128 0x6
 561 00cd 02       		.byte	0x2
 562 00ce 04       		.byte	0x4
 563 00cf AB       		.byte	0xab
 564 00d0 F1000000 		.4byte	0xf1
 565 00d4 07       		.uleb128 0x7
 566 00d5 1A020000 		.4byte	.LASF18
 567 00d9 04       		.byte	0x4
 568 00da AD       		.byte	0xad
 569 00db 7A000000 		.4byte	0x7a
 570 00df 02       		.byte	0x2
 571 00e0 23       		.byte	0x23
 572 00e1 00       		.uleb128 0
 573 00e2 07       		.uleb128 0x7
 574 00e3 36010000 		.4byte	.LASF19
 575 00e7 04       		.byte	0x4
 576 00e8 AE       		.byte	0xae
 577 00e9 7A000000 		.4byte	0x7a
 578 00ed 02       		.byte	0x2
 579 00ee 23       		.byte	0x23
 580 00ef 01       		.uleb128 0x1
 581 00f0 00       		.byte	0
 582 00f1 03       		.uleb128 0x3
ARM GAS  C:\Users\Robert\AppData\Local\Temp\cckkjh3f.s 			page 16


 583 00f2 3B010000 		.4byte	.LASF20
 584 00f6 04       		.byte	0x4
 585 00f7 AF       		.byte	0xaf
 586 00f8 CC000000 		.4byte	0xcc
 587 00fc 08       		.uleb128 0x8
 588 00fd 01       		.byte	0x1
 589 00fe 32020000 		.4byte	.LASF21
 590 0102 01       		.byte	0x1
 591 0103 36       		.byte	0x36
 592 0104 01       		.byte	0x1
 593 0105 00000000 		.4byte	.LFB56
 594 0109 14000000 		.4byte	.LFE56
 595 010d 00000000 		.4byte	.LLST0
 596 0111 01       		.byte	0x1
 597 0112 08       		.uleb128 0x8
 598 0113 01       		.byte	0x1
 599 0114 FA000000 		.4byte	.LASF22
 600 0118 01       		.byte	0x1
 601 0119 54       		.byte	0x54
 602 011a 01       		.byte	0x1
 603 011b 00000000 		.4byte	.LFB57
 604 011f 0A000000 		.4byte	.LFE57
 605 0123 2C000000 		.4byte	.LLST1
 606 0127 01       		.byte	0x1
 607 0128 09       		.uleb128 0x9
 608 0129 01       		.byte	0x1
 609 012a 73010000 		.4byte	.LASF23
 610 012e 01       		.byte	0x1
 611 012f 6B       		.byte	0x6b
 612 0130 01       		.byte	0x1
 613 0131 00000000 		.4byte	.LFB58
 614 0135 1A000000 		.4byte	.LFE58
 615 0139 58000000 		.4byte	.LLST2
 616 013d 01       		.byte	0x1
 617 013e 0A       		.uleb128 0xa
 618 013f 01       		.byte	0x1
 619 0140 06000000 		.4byte	.LASF24
 620 0144 01       		.byte	0x1
 621 0145 88       		.byte	0x88
 622 0146 01       		.byte	0x1
 623 0147 00000000 		.4byte	.LFB59
 624 014b A6010000 		.4byte	.LFE59
 625 014f 84000000 		.4byte	.LLST3
 626 0153 01       		.byte	0x1
 627 0154 67010000 		.4byte	0x167
 628 0158 0B       		.uleb128 0xb
 629 0159 E2000000 		.4byte	.LASF26
 630 015d 01       		.byte	0x1
 631 015e 8A       		.byte	0x8a
 632 015f 7A000000 		.4byte	0x7a
 633 0163 02       		.byte	0x2
 634 0164 91       		.byte	0x91
 635 0165 77       		.sleb128 -9
 636 0166 00       		.byte	0
 637 0167 0A       		.uleb128 0xa
 638 0168 01       		.byte	0x1
 639 0169 04020000 		.4byte	.LASF25
ARM GAS  C:\Users\Robert\AppData\Local\Temp\cckkjh3f.s 			page 17


 640 016d 01       		.byte	0x1
 641 016e D8       		.byte	0xd8
 642 016f 01       		.byte	0x1
 643 0170 00000000 		.4byte	.LFB60
 644 0174 64010000 		.4byte	.LFE60
 645 0178 BC000000 		.4byte	.LLST4
 646 017c 01       		.byte	0x1
 647 017d 90010000 		.4byte	0x190
 648 0181 0B       		.uleb128 0xb
 649 0182 E2000000 		.4byte	.LASF26
 650 0186 01       		.byte	0x1
 651 0187 DA       		.byte	0xda
 652 0188 7A000000 		.4byte	0x7a
 653 018c 02       		.byte	0x2
 654 018d 91       		.byte	0x91
 655 018e 77       		.sleb128 -9
 656 018f 00       		.byte	0
 657 0190 0B       		.uleb128 0xb
 658 0191 66000000 		.4byte	.LASF27
 659 0195 01       		.byte	0x1
 660 0196 22       		.byte	0x22
 661 0197 F1000000 		.4byte	0xf1
 662 019b 05       		.byte	0x5
 663 019c 03       		.byte	0x3
 664 019d 00000000 		.4byte	USBFS_backup
 665 01a1 0C       		.uleb128 0xc
 666 01a2 2D000000 		.4byte	.LASF28
 667 01a6 04       		.byte	0x4
 668 01a7 5302     		.2byte	0x253
 669 01a9 B0000000 		.4byte	0xb0
 670 01ad 01       		.byte	0x1
 671 01ae 01       		.byte	0x1
 672 01af 0C       		.uleb128 0xc
 673 01b0 D5000000 		.4byte	.LASF29
 674 01b4 05       		.byte	0x5
 675 01b5 1606     		.2byte	0x616
 676 01b7 BD010000 		.4byte	0x1bd
 677 01bb 01       		.byte	0x1
 678 01bc 01       		.byte	0x1
 679 01bd 05       		.uleb128 0x5
 680 01be 45000000 		.4byte	0x45
 681 01c2 00       		.byte	0
 682              		.section	.debug_abbrev,"",%progbits
 683              	.Ldebug_abbrev0:
 684 0000 01       		.uleb128 0x1
 685 0001 11       		.uleb128 0x11
 686 0002 01       		.byte	0x1
 687 0003 25       		.uleb128 0x25
 688 0004 0E       		.uleb128 0xe
 689 0005 13       		.uleb128 0x13
 690 0006 0B       		.uleb128 0xb
 691 0007 03       		.uleb128 0x3
 692 0008 0E       		.uleb128 0xe
 693 0009 1B       		.uleb128 0x1b
 694 000a 0E       		.uleb128 0xe
 695 000b 55       		.uleb128 0x55
 696 000c 06       		.uleb128 0x6
ARM GAS  C:\Users\Robert\AppData\Local\Temp\cckkjh3f.s 			page 18


 697 000d 11       		.uleb128 0x11
 698 000e 01       		.uleb128 0x1
 699 000f 52       		.uleb128 0x52
 700 0010 01       		.uleb128 0x1
 701 0011 10       		.uleb128 0x10
 702 0012 06       		.uleb128 0x6
 703 0013 00       		.byte	0
 704 0014 00       		.byte	0
 705 0015 02       		.uleb128 0x2
 706 0016 24       		.uleb128 0x24
 707 0017 00       		.byte	0
 708 0018 0B       		.uleb128 0xb
 709 0019 0B       		.uleb128 0xb
 710 001a 3E       		.uleb128 0x3e
 711 001b 0B       		.uleb128 0xb
 712 001c 03       		.uleb128 0x3
 713 001d 0E       		.uleb128 0xe
 714 001e 00       		.byte	0
 715 001f 00       		.byte	0
 716 0020 03       		.uleb128 0x3
 717 0021 16       		.uleb128 0x16
 718 0022 00       		.byte	0
 719 0023 03       		.uleb128 0x3
 720 0024 0E       		.uleb128 0xe
 721 0025 3A       		.uleb128 0x3a
 722 0026 0B       		.uleb128 0xb
 723 0027 3B       		.uleb128 0x3b
 724 0028 0B       		.uleb128 0xb
 725 0029 49       		.uleb128 0x49
 726 002a 13       		.uleb128 0x13
 727 002b 00       		.byte	0
 728 002c 00       		.byte	0
 729 002d 04       		.uleb128 0x4
 730 002e 24       		.uleb128 0x24
 731 002f 00       		.byte	0
 732 0030 0B       		.uleb128 0xb
 733 0031 0B       		.uleb128 0xb
 734 0032 3E       		.uleb128 0x3e
 735 0033 0B       		.uleb128 0xb
 736 0034 03       		.uleb128 0x3
 737 0035 08       		.uleb128 0x8
 738 0036 00       		.byte	0
 739 0037 00       		.byte	0
 740 0038 05       		.uleb128 0x5
 741 0039 35       		.uleb128 0x35
 742 003a 00       		.byte	0
 743 003b 49       		.uleb128 0x49
 744 003c 13       		.uleb128 0x13
 745 003d 00       		.byte	0
 746 003e 00       		.byte	0
 747 003f 06       		.uleb128 0x6
 748 0040 13       		.uleb128 0x13
 749 0041 01       		.byte	0x1
 750 0042 0B       		.uleb128 0xb
 751 0043 0B       		.uleb128 0xb
 752 0044 3A       		.uleb128 0x3a
 753 0045 0B       		.uleb128 0xb
ARM GAS  C:\Users\Robert\AppData\Local\Temp\cckkjh3f.s 			page 19


 754 0046 3B       		.uleb128 0x3b
 755 0047 0B       		.uleb128 0xb
 756 0048 01       		.uleb128 0x1
 757 0049 13       		.uleb128 0x13
 758 004a 00       		.byte	0
 759 004b 00       		.byte	0
 760 004c 07       		.uleb128 0x7
 761 004d 0D       		.uleb128 0xd
 762 004e 00       		.byte	0
 763 004f 03       		.uleb128 0x3
 764 0050 0E       		.uleb128 0xe
 765 0051 3A       		.uleb128 0x3a
 766 0052 0B       		.uleb128 0xb
 767 0053 3B       		.uleb128 0x3b
 768 0054 0B       		.uleb128 0xb
 769 0055 49       		.uleb128 0x49
 770 0056 13       		.uleb128 0x13
 771 0057 38       		.uleb128 0x38
 772 0058 0A       		.uleb128 0xa
 773 0059 00       		.byte	0
 774 005a 00       		.byte	0
 775 005b 08       		.uleb128 0x8
 776 005c 2E       		.uleb128 0x2e
 777 005d 00       		.byte	0
 778 005e 3F       		.uleb128 0x3f
 779 005f 0C       		.uleb128 0xc
 780 0060 03       		.uleb128 0x3
 781 0061 0E       		.uleb128 0xe
 782 0062 3A       		.uleb128 0x3a
 783 0063 0B       		.uleb128 0xb
 784 0064 3B       		.uleb128 0x3b
 785 0065 0B       		.uleb128 0xb
 786 0066 27       		.uleb128 0x27
 787 0067 0C       		.uleb128 0xc
 788 0068 11       		.uleb128 0x11
 789 0069 01       		.uleb128 0x1
 790 006a 12       		.uleb128 0x12
 791 006b 01       		.uleb128 0x1
 792 006c 40       		.uleb128 0x40
 793 006d 06       		.uleb128 0x6
 794 006e 9742     		.uleb128 0x2117
 795 0070 0C       		.uleb128 0xc
 796 0071 00       		.byte	0
 797 0072 00       		.byte	0
 798 0073 09       		.uleb128 0x9
 799 0074 2E       		.uleb128 0x2e
 800 0075 00       		.byte	0
 801 0076 3F       		.uleb128 0x3f
 802 0077 0C       		.uleb128 0xc
 803 0078 03       		.uleb128 0x3
 804 0079 0E       		.uleb128 0xe
 805 007a 3A       		.uleb128 0x3a
 806 007b 0B       		.uleb128 0xb
 807 007c 3B       		.uleb128 0x3b
 808 007d 0B       		.uleb128 0xb
 809 007e 27       		.uleb128 0x27
 810 007f 0C       		.uleb128 0xc
ARM GAS  C:\Users\Robert\AppData\Local\Temp\cckkjh3f.s 			page 20


 811 0080 11       		.uleb128 0x11
 812 0081 01       		.uleb128 0x1
 813 0082 12       		.uleb128 0x12
 814 0083 01       		.uleb128 0x1
 815 0084 40       		.uleb128 0x40
 816 0085 06       		.uleb128 0x6
 817 0086 9642     		.uleb128 0x2116
 818 0088 0C       		.uleb128 0xc
 819 0089 00       		.byte	0
 820 008a 00       		.byte	0
 821 008b 0A       		.uleb128 0xa
 822 008c 2E       		.uleb128 0x2e
 823 008d 01       		.byte	0x1
 824 008e 3F       		.uleb128 0x3f
 825 008f 0C       		.uleb128 0xc
 826 0090 03       		.uleb128 0x3
 827 0091 0E       		.uleb128 0xe
 828 0092 3A       		.uleb128 0x3a
 829 0093 0B       		.uleb128 0xb
 830 0094 3B       		.uleb128 0x3b
 831 0095 0B       		.uleb128 0xb
 832 0096 27       		.uleb128 0x27
 833 0097 0C       		.uleb128 0xc
 834 0098 11       		.uleb128 0x11
 835 0099 01       		.uleb128 0x1
 836 009a 12       		.uleb128 0x12
 837 009b 01       		.uleb128 0x1
 838 009c 40       		.uleb128 0x40
 839 009d 06       		.uleb128 0x6
 840 009e 9642     		.uleb128 0x2116
 841 00a0 0C       		.uleb128 0xc
 842 00a1 01       		.uleb128 0x1
 843 00a2 13       		.uleb128 0x13
 844 00a3 00       		.byte	0
 845 00a4 00       		.byte	0
 846 00a5 0B       		.uleb128 0xb
 847 00a6 34       		.uleb128 0x34
 848 00a7 00       		.byte	0
 849 00a8 03       		.uleb128 0x3
 850 00a9 0E       		.uleb128 0xe
 851 00aa 3A       		.uleb128 0x3a
 852 00ab 0B       		.uleb128 0xb
 853 00ac 3B       		.uleb128 0x3b
 854 00ad 0B       		.uleb128 0xb
 855 00ae 49       		.uleb128 0x49
 856 00af 13       		.uleb128 0x13
 857 00b0 02       		.uleb128 0x2
 858 00b1 0A       		.uleb128 0xa
 859 00b2 00       		.byte	0
 860 00b3 00       		.byte	0
 861 00b4 0C       		.uleb128 0xc
 862 00b5 34       		.uleb128 0x34
 863 00b6 00       		.byte	0
 864 00b7 03       		.uleb128 0x3
 865 00b8 0E       		.uleb128 0xe
 866 00b9 3A       		.uleb128 0x3a
 867 00ba 0B       		.uleb128 0xb
ARM GAS  C:\Users\Robert\AppData\Local\Temp\cckkjh3f.s 			page 21


 868 00bb 3B       		.uleb128 0x3b
 869 00bc 05       		.uleb128 0x5
 870 00bd 49       		.uleb128 0x49
 871 00be 13       		.uleb128 0x13
 872 00bf 3F       		.uleb128 0x3f
 873 00c0 0C       		.uleb128 0xc
 874 00c1 3C       		.uleb128 0x3c
 875 00c2 0C       		.uleb128 0xc
 876 00c3 00       		.byte	0
 877 00c4 00       		.byte	0
 878 00c5 00       		.byte	0
 879              		.section	.debug_loc,"",%progbits
 880              	.Ldebug_loc0:
 881              	.LLST0:
 882 0000 00000000 		.4byte	.LFB56
 883 0004 02000000 		.4byte	.LCFI0
 884 0008 0200     		.2byte	0x2
 885 000a 7D       		.byte	0x7d
 886 000b 00       		.sleb128 0
 887 000c 02000000 		.4byte	.LCFI0
 888 0010 04000000 		.4byte	.LCFI1
 889 0014 0200     		.2byte	0x2
 890 0016 7D       		.byte	0x7d
 891 0017 04       		.sleb128 4
 892 0018 04000000 		.4byte	.LCFI1
 893 001c 14000000 		.4byte	.LFE56
 894 0020 0200     		.2byte	0x2
 895 0022 77       		.byte	0x77
 896 0023 04       		.sleb128 4
 897 0024 00000000 		.4byte	0
 898 0028 00000000 		.4byte	0
 899              	.LLST1:
 900 002c 00000000 		.4byte	.LFB57
 901 0030 02000000 		.4byte	.LCFI2
 902 0034 0200     		.2byte	0x2
 903 0036 7D       		.byte	0x7d
 904 0037 00       		.sleb128 0
 905 0038 02000000 		.4byte	.LCFI2
 906 003c 04000000 		.4byte	.LCFI3
 907 0040 0200     		.2byte	0x2
 908 0042 7D       		.byte	0x7d
 909 0043 04       		.sleb128 4
 910 0044 04000000 		.4byte	.LCFI3
 911 0048 0A000000 		.4byte	.LFE57
 912 004c 0200     		.2byte	0x2
 913 004e 77       		.byte	0x77
 914 004f 04       		.sleb128 4
 915 0050 00000000 		.4byte	0
 916 0054 00000000 		.4byte	0
 917              	.LLST2:
 918 0058 00000000 		.4byte	.LFB58
 919 005c 02000000 		.4byte	.LCFI4
 920 0060 0200     		.2byte	0x2
 921 0062 7D       		.byte	0x7d
 922 0063 00       		.sleb128 0
 923 0064 02000000 		.4byte	.LCFI4
 924 0068 04000000 		.4byte	.LCFI5
ARM GAS  C:\Users\Robert\AppData\Local\Temp\cckkjh3f.s 			page 22


 925 006c 0200     		.2byte	0x2
 926 006e 7D       		.byte	0x7d
 927 006f 08       		.sleb128 8
 928 0070 04000000 		.4byte	.LCFI5
 929 0074 1A000000 		.4byte	.LFE58
 930 0078 0200     		.2byte	0x2
 931 007a 77       		.byte	0x77
 932 007b 08       		.sleb128 8
 933 007c 00000000 		.4byte	0
 934 0080 00000000 		.4byte	0
 935              	.LLST3:
 936 0084 00000000 		.4byte	.LFB59
 937 0088 02000000 		.4byte	.LCFI6
 938 008c 0200     		.2byte	0x2
 939 008e 7D       		.byte	0x7d
 940 008f 00       		.sleb128 0
 941 0090 02000000 		.4byte	.LCFI6
 942 0094 04000000 		.4byte	.LCFI7
 943 0098 0200     		.2byte	0x2
 944 009a 7D       		.byte	0x7d
 945 009b 08       		.sleb128 8
 946 009c 04000000 		.4byte	.LCFI7
 947 00a0 06000000 		.4byte	.LCFI8
 948 00a4 0200     		.2byte	0x2
 949 00a6 7D       		.byte	0x7d
 950 00a7 10       		.sleb128 16
 951 00a8 06000000 		.4byte	.LCFI8
 952 00ac A6010000 		.4byte	.LFE59
 953 00b0 0200     		.2byte	0x2
 954 00b2 77       		.byte	0x77
 955 00b3 10       		.sleb128 16
 956 00b4 00000000 		.4byte	0
 957 00b8 00000000 		.4byte	0
 958              	.LLST4:
 959 00bc 00000000 		.4byte	.LFB60
 960 00c0 02000000 		.4byte	.LCFI9
 961 00c4 0200     		.2byte	0x2
 962 00c6 7D       		.byte	0x7d
 963 00c7 00       		.sleb128 0
 964 00c8 02000000 		.4byte	.LCFI9
 965 00cc 04000000 		.4byte	.LCFI10
 966 00d0 0200     		.2byte	0x2
 967 00d2 7D       		.byte	0x7d
 968 00d3 08       		.sleb128 8
 969 00d4 04000000 		.4byte	.LCFI10
 970 00d8 06000000 		.4byte	.LCFI11
 971 00dc 0200     		.2byte	0x2
 972 00de 7D       		.byte	0x7d
 973 00df 10       		.sleb128 16
 974 00e0 06000000 		.4byte	.LCFI11
 975 00e4 64010000 		.4byte	.LFE60
 976 00e8 0200     		.2byte	0x2
 977 00ea 77       		.byte	0x77
 978 00eb 10       		.sleb128 16
 979 00ec 00000000 		.4byte	0
 980 00f0 00000000 		.4byte	0
 981              		.section	.debug_aranges,"",%progbits
ARM GAS  C:\Users\Robert\AppData\Local\Temp\cckkjh3f.s 			page 23


 982 0000 3C000000 		.4byte	0x3c
 983 0004 0200     		.2byte	0x2
 984 0006 00000000 		.4byte	.Ldebug_info0
 985 000a 04       		.byte	0x4
 986 000b 00       		.byte	0
 987 000c 0000     		.2byte	0
 988 000e 0000     		.2byte	0
 989 0010 00000000 		.4byte	.LFB56
 990 0014 14000000 		.4byte	.LFE56-.LFB56
 991 0018 00000000 		.4byte	.LFB57
 992 001c 0A000000 		.4byte	.LFE57-.LFB57
 993 0020 00000000 		.4byte	.LFB58
 994 0024 1A000000 		.4byte	.LFE58-.LFB58
 995 0028 00000000 		.4byte	.LFB59
 996 002c A6010000 		.4byte	.LFE59-.LFB59
 997 0030 00000000 		.4byte	.LFB60
 998 0034 64010000 		.4byte	.LFE60-.LFB60
 999 0038 00000000 		.4byte	0
 1000 003c 00000000 		.4byte	0
 1001              		.section	.debug_ranges,"",%progbits
 1002              	.Ldebug_ranges0:
 1003 0000 00000000 		.4byte	.LFB56
 1004 0004 14000000 		.4byte	.LFE56
 1005 0008 00000000 		.4byte	.LFB57
 1006 000c 0A000000 		.4byte	.LFE57
 1007 0010 00000000 		.4byte	.LFB58
 1008 0014 1A000000 		.4byte	.LFE58
 1009 0018 00000000 		.4byte	.LFB59
 1010 001c A6010000 		.4byte	.LFE59
 1011 0020 00000000 		.4byte	.LFB60
 1012 0024 64010000 		.4byte	.LFE60
 1013 0028 00000000 		.4byte	0
 1014 002c 00000000 		.4byte	0
 1015              		.section	.debug_line,"",%progbits
 1016              	.Ldebug_line0:
 1017 0000 8F010000 		.section	.debug_str,"MS",%progbits,1
 1017      02000601 
 1017      00000201 
 1017      FB0E0D00 
 1017      01010101 
 1018              	.LASF16:
 1019 0000 72656733 		.ascii	"reg32\000"
 1019      3200
 1020              	.LASF24:
 1021 0006 55534246 		.ascii	"USBFS_Suspend\000"
 1021      535F5375 
 1021      7370656E 
 1021      6400
 1022              	.LASF3:
 1023 0014 73686F72 		.ascii	"short unsigned int\000"
 1023      7420756E 
 1023      7369676E 
 1023      65642069 
 1023      6E7400
 1024              	.LASF12:
 1025 0027 666C6F61 		.ascii	"float\000"
 1025      7400
ARM GAS  C:\Users\Robert\AppData\Local\Temp\cckkjh3f.s 			page 24


 1026              	.LASF28:
 1027 002d 55534246 		.ascii	"USBFS_configuration\000"
 1027      535F636F 
 1027      6E666967 
 1027      75726174 
 1027      696F6E00 
 1028              	.LASF1:
 1029 0041 756E7369 		.ascii	"unsigned char\000"
 1029      676E6564 
 1029      20636861 
 1029      7200
 1030              	.LASF15:
 1031 004f 72656738 		.ascii	"reg8\000"
 1031      00
 1032              	.LASF5:
 1033 0054 6C6F6E67 		.ascii	"long unsigned int\000"
 1033      20756E73 
 1033      69676E65 
 1033      6420696E 
 1033      7400
 1034              	.LASF27:
 1035 0066 55534246 		.ascii	"USBFS_backup\000"
 1035      535F6261 
 1035      636B7570 
 1035      00
 1036              	.LASF32:
 1037 0073 433A5C55 		.ascii	"C:\\Users\\Robert\\workspace\\embedit_git\\RPiSoC_B"
 1037      73657273 
 1037      5C526F62 
 1037      6572745C 
 1037      776F726B 
 1038 00a1 6F6F746C 		.ascii	"ootloader\\RPiSoC_Bootloader\\Bootloader_RPiSoC.cyd"
 1038      6F616465 
 1038      725C5250 
 1038      69536F43 
 1038      5F426F6F 
 1039 00d2 736E00   		.ascii	"sn\000"
 1040              	.LASF29:
 1041 00d5 49544D5F 		.ascii	"ITM_RxBuffer\000"
 1041      52784275 
 1041      66666572 
 1041      00
 1042              	.LASF26:
 1043 00e2 656E6162 		.ascii	"enableInterrupts\000"
 1043      6C65496E 
 1043      74657272 
 1043      75707473 
 1043      00
 1044              	.LASF13:
 1045 00f3 646F7562 		.ascii	"double\000"
 1045      6C6500
 1046              	.LASF22:
 1047 00fa 55534246 		.ascii	"USBFS_SaveConfig\000"
 1047      535F5361 
 1047      7665436F 
 1047      6E666967 
 1047      00
ARM GAS  C:\Users\Robert\AppData\Local\Temp\cckkjh3f.s 			page 25


 1048              	.LASF11:
 1049 010b 75696E74 		.ascii	"uint32\000"
 1049      333200
 1050              	.LASF8:
 1051 0112 756E7369 		.ascii	"unsigned int\000"
 1051      676E6564 
 1051      20696E74 
 1051      00
 1052              	.LASF7:
 1053 011f 6C6F6E67 		.ascii	"long long unsigned int\000"
 1053      206C6F6E 
 1053      6720756E 
 1053      7369676E 
 1053      65642069 
 1054              	.LASF19:
 1055 0136 6D6F6465 		.ascii	"mode\000"
 1055      00
 1056              	.LASF20:
 1057 013b 55534246 		.ascii	"USBFS_BACKUP_STRUCT\000"
 1057      535F4241 
 1057      434B5550 
 1057      5F535452 
 1057      55435400 
 1058              	.LASF9:
 1059 014f 696E7433 		.ascii	"int32_t\000"
 1059      325F7400 
 1060              	.LASF17:
 1061 0157 73697A65 		.ascii	"sizetype\000"
 1061      74797065 
 1061      00
 1062              	.LASF6:
 1063 0160 6C6F6E67 		.ascii	"long long int\000"
 1063      206C6F6E 
 1063      6720696E 
 1063      7400
 1064              	.LASF14:
 1065 016e 63686172 		.ascii	"char\000"
 1065      00
 1066              	.LASF23:
 1067 0173 55534246 		.ascii	"USBFS_RestoreConfig\000"
 1067      535F5265 
 1067      73746F72 
 1067      65436F6E 
 1067      66696700 
 1068              	.LASF2:
 1069 0187 73686F72 		.ascii	"short int\000"
 1069      7420696E 
 1069      7400
 1070              	.LASF31:
 1071 0191 2E5C4765 		.ascii	".\\Generated_Source\\PSoC5\\USBFS_pm.c\000"
 1071      6E657261 
 1071      7465645F 
 1071      536F7572 
 1071      63655C50 
 1072              	.LASF10:
 1073 01b5 75696E74 		.ascii	"uint8\000"
 1073      3800
ARM GAS  C:\Users\Robert\AppData\Local\Temp\cckkjh3f.s 			page 26


 1074              	.LASF30:
 1075 01bb 474E5520 		.ascii	"GNU C 4.7.3 20130312 (release) [ARM/embedded-4_7-br"
 1075      4320342E 
 1075      372E3320 
 1075      32303133 
 1075      30333132 
 1076 01ee 616E6368 		.ascii	"anch revision 196615]\000"
 1076      20726576 
 1076      6973696F 
 1076      6E203139 
 1076      36363135 
 1077              	.LASF25:
 1078 0204 55534246 		.ascii	"USBFS_Resume\000"
 1078      535F5265 
 1078      73756D65 
 1078      00
 1079              	.LASF4:
 1080 0211 6C6F6E67 		.ascii	"long int\000"
 1080      20696E74 
 1080      00
 1081              	.LASF18:
 1082 021a 656E6162 		.ascii	"enableState\000"
 1082      6C655374 
 1082      61746500 
 1083              	.LASF0:
 1084 0226 7369676E 		.ascii	"signed char\000"
 1084      65642063 
 1084      68617200 
 1085              	.LASF21:
 1086 0232 55534246 		.ascii	"USBFS_DP_ISR\000"
 1086      535F4450 
 1086      5F495352 
 1086      00
 1087              		.ident	"GCC: (GNU Tools for ARM Embedded Processors) 4.7.3 20130312 (release) [ARM/embedded-4_7-br
