ARM GAS  C:\Users\Robert\AppData\Local\Temp\ccwgAcz4.s 			page 1


   1              		.syntax unified
   2              		.cpu cortex-m3
   3              		.fpu softvfp
   4              		.eabi_attribute 20, 1
   5              		.eabi_attribute 21, 1
   6              		.eabi_attribute 23, 3
   7              		.eabi_attribute 24, 1
   8              		.eabi_attribute 25, 1
   9              		.eabi_attribute 26, 1
  10              		.eabi_attribute 30, 6
  11              		.eabi_attribute 34, 1
  12              		.eabi_attribute 18, 4
  13              		.thumb
  14              		.file	"USBFS_hid.c"
  15              		.text
  16              	.Ltext0:
  17              		.cfi_sections	.debug_frame
  18              		.comm	USBFS_hidProtocol,1,4
  19              		.comm	USBFS_hidIdleRate,1,4
  20              		.comm	USBFS_hidIdleTimer,1,4
  21              		.section	.text.USBFS_UpdateHIDTimer,"ax",%progbits
  22              		.align	2
  23              		.global	USBFS_UpdateHIDTimer
  24              		.thumb
  25              		.thumb_func
  26              		.type	USBFS_UpdateHIDTimer, %function
  27              	USBFS_UpdateHIDTimer:
  28              	.LFB0:
  29              		.file 1 ".\\Generated_Source\\PSoC5\\USBFS_hid.c"
   1:.\Generated_Source\PSoC5/USBFS_hid.c **** /*******************************************************************************
   2:.\Generated_Source\PSoC5/USBFS_hid.c **** * File Name: USBFS_hid.c
   3:.\Generated_Source\PSoC5/USBFS_hid.c **** * Version 2.70
   4:.\Generated_Source\PSoC5/USBFS_hid.c **** *
   5:.\Generated_Source\PSoC5/USBFS_hid.c **** * Description:
   6:.\Generated_Source\PSoC5/USBFS_hid.c **** *  USB HID Class request handler.
   7:.\Generated_Source\PSoC5/USBFS_hid.c **** *
   8:.\Generated_Source\PSoC5/USBFS_hid.c **** * Related Document:
   9:.\Generated_Source\PSoC5/USBFS_hid.c **** *  Device Class Definition for Human Interface Devices (HID) Version 1.11  
  10:.\Generated_Source\PSoC5/USBFS_hid.c **** *
  11:.\Generated_Source\PSoC5/USBFS_hid.c **** * Note:
  12:.\Generated_Source\PSoC5/USBFS_hid.c **** *
  13:.\Generated_Source\PSoC5/USBFS_hid.c **** ********************************************************************************
  14:.\Generated_Source\PSoC5/USBFS_hid.c **** * Copyright 2008-2013, Cypress Semiconductor Corporation.  All rights reserved.
  15:.\Generated_Source\PSoC5/USBFS_hid.c **** * You may use this file only in accordance with the license, terms, conditions,
  16:.\Generated_Source\PSoC5/USBFS_hid.c **** * disclaimers, and limitations in the end user license agreement accompanying
  17:.\Generated_Source\PSoC5/USBFS_hid.c **** * the software package with which this file was provided.
  18:.\Generated_Source\PSoC5/USBFS_hid.c **** *******************************************************************************/
  19:.\Generated_Source\PSoC5/USBFS_hid.c **** 
  20:.\Generated_Source\PSoC5/USBFS_hid.c **** #include "USBFS.h"
  21:.\Generated_Source\PSoC5/USBFS_hid.c **** 
  22:.\Generated_Source\PSoC5/USBFS_hid.c **** #if defined(USBFS_ENABLE_HID_CLASS)
  23:.\Generated_Source\PSoC5/USBFS_hid.c **** 
  24:.\Generated_Source\PSoC5/USBFS_hid.c **** #include "USBFS_pvt.h"
  25:.\Generated_Source\PSoC5/USBFS_hid.c **** #include "USBFS_hid.h"
  26:.\Generated_Source\PSoC5/USBFS_hid.c **** 
  27:.\Generated_Source\PSoC5/USBFS_hid.c **** 
  28:.\Generated_Source\PSoC5/USBFS_hid.c **** /***************************************
ARM GAS  C:\Users\Robert\AppData\Local\Temp\ccwgAcz4.s 			page 2


  29:.\Generated_Source\PSoC5/USBFS_hid.c **** *    HID Variables
  30:.\Generated_Source\PSoC5/USBFS_hid.c **** ***************************************/
  31:.\Generated_Source\PSoC5/USBFS_hid.c **** 
  32:.\Generated_Source\PSoC5/USBFS_hid.c **** volatile uint8 USBFS_hidProtocol[USBFS_MAX_INTERFACES_NUMBER];  /* HID device protocol status */
  33:.\Generated_Source\PSoC5/USBFS_hid.c **** volatile uint8 USBFS_hidIdleRate[USBFS_MAX_INTERFACES_NUMBER];  /* HID device idle reload value */
  34:.\Generated_Source\PSoC5/USBFS_hid.c **** volatile uint8 USBFS_hidIdleTimer[USBFS_MAX_INTERFACES_NUMBER]; /* HID device idle rate value */
  35:.\Generated_Source\PSoC5/USBFS_hid.c **** 
  36:.\Generated_Source\PSoC5/USBFS_hid.c **** 
  37:.\Generated_Source\PSoC5/USBFS_hid.c **** /***************************************
  38:.\Generated_Source\PSoC5/USBFS_hid.c **** * Custom Declarations
  39:.\Generated_Source\PSoC5/USBFS_hid.c **** ***************************************/
  40:.\Generated_Source\PSoC5/USBFS_hid.c **** 
  41:.\Generated_Source\PSoC5/USBFS_hid.c **** /* `#START HID_CUSTOM_DECLARATIONS` Place your declaration here */
  42:.\Generated_Source\PSoC5/USBFS_hid.c **** 
  43:.\Generated_Source\PSoC5/USBFS_hid.c **** /* `#END` */
  44:.\Generated_Source\PSoC5/USBFS_hid.c **** 
  45:.\Generated_Source\PSoC5/USBFS_hid.c **** 
  46:.\Generated_Source\PSoC5/USBFS_hid.c **** /*******************************************************************************
  47:.\Generated_Source\PSoC5/USBFS_hid.c **** * Function Name: USBFS_UpdateHIDTimer
  48:.\Generated_Source\PSoC5/USBFS_hid.c **** ********************************************************************************
  49:.\Generated_Source\PSoC5/USBFS_hid.c **** *
  50:.\Generated_Source\PSoC5/USBFS_hid.c **** * Summary:
  51:.\Generated_Source\PSoC5/USBFS_hid.c **** *  Updates the HID report timer and reloads it if expired
  52:.\Generated_Source\PSoC5/USBFS_hid.c **** *
  53:.\Generated_Source\PSoC5/USBFS_hid.c **** * Parameters:
  54:.\Generated_Source\PSoC5/USBFS_hid.c **** *  interface:  Interface Number.
  55:.\Generated_Source\PSoC5/USBFS_hid.c **** *
  56:.\Generated_Source\PSoC5/USBFS_hid.c **** * Return:
  57:.\Generated_Source\PSoC5/USBFS_hid.c **** *  status.
  58:.\Generated_Source\PSoC5/USBFS_hid.c **** *
  59:.\Generated_Source\PSoC5/USBFS_hid.c **** * Reentrant:
  60:.\Generated_Source\PSoC5/USBFS_hid.c **** *  No.
  61:.\Generated_Source\PSoC5/USBFS_hid.c **** *
  62:.\Generated_Source\PSoC5/USBFS_hid.c **** *******************************************************************************/
  63:.\Generated_Source\PSoC5/USBFS_hid.c **** uint8 USBFS_UpdateHIDTimer(uint8 interface) 
  64:.\Generated_Source\PSoC5/USBFS_hid.c **** {
  30              		.loc 1 64 0
  31              		.cfi_startproc
  32              		@ args = 0, pretend = 0, frame = 16
  33              		@ frame_needed = 1, uses_anonymous_args = 0
  34              		@ link register save eliminated.
  35 0000 80B4     		push	{r7}
  36              	.LCFI0:
  37              		.cfi_def_cfa_offset 4
  38              		.cfi_offset 7, -4
  39 0002 85B0     		sub	sp, sp, #20
  40              	.LCFI1:
  41              		.cfi_def_cfa_offset 24
  42 0004 00AF     		add	r7, sp, #0
  43              	.LCFI2:
  44              		.cfi_def_cfa_register 7
  45 0006 0346     		mov	r3, r0
  46 0008 FB71     		strb	r3, [r7, #7]
  65:.\Generated_Source\PSoC5/USBFS_hid.c ****     uint8 stat = USBFS_IDLE_TIMER_INDEFINITE;
  47              		.loc 1 65 0
  48 000a 4FF00003 		mov	r3, #0
  49 000e FB73     		strb	r3, [r7, #15]
ARM GAS  C:\Users\Robert\AppData\Local\Temp\ccwgAcz4.s 			page 3


  66:.\Generated_Source\PSoC5/USBFS_hid.c **** 
  67:.\Generated_Source\PSoC5/USBFS_hid.c ****     if(USBFS_hidIdleRate[interface] != 0u)
  50              		.loc 1 67 0
  51 0010 FA79     		ldrb	r2, [r7, #7]	@ zero_extendqisi2
  52 0012 40F20003 		movw	r3, #:lower16:USBFS_hidIdleRate
  53 0016 C0F20003 		movt	r3, #:upper16:USBFS_hidIdleRate
  54 001a 9B5C     		ldrb	r3, [r3, r2]
  55 001c DBB2     		uxtb	r3, r3
  56 001e 002B     		cmp	r3, #0
  57 0020 2BD0     		beq	.L2
  68:.\Generated_Source\PSoC5/USBFS_hid.c ****     {
  69:.\Generated_Source\PSoC5/USBFS_hid.c ****         if(USBFS_hidIdleTimer[interface] > 0u)
  58              		.loc 1 69 0
  59 0022 FA79     		ldrb	r2, [r7, #7]	@ zero_extendqisi2
  60 0024 40F20003 		movw	r3, #:lower16:USBFS_hidIdleTimer
  61 0028 C0F20003 		movt	r3, #:upper16:USBFS_hidIdleTimer
  62 002c 9B5C     		ldrb	r3, [r3, r2]
  63 002e DBB2     		uxtb	r3, r3
  64 0030 002B     		cmp	r3, #0
  65 0032 12D0     		beq	.L3
  70:.\Generated_Source\PSoC5/USBFS_hid.c ****         {
  71:.\Generated_Source\PSoC5/USBFS_hid.c ****             USBFS_hidIdleTimer[interface]--;
  66              		.loc 1 71 0
  67 0034 FA79     		ldrb	r2, [r7, #7]	@ zero_extendqisi2
  68 0036 40F20003 		movw	r3, #:lower16:USBFS_hidIdleTimer
  69 003a C0F20003 		movt	r3, #:upper16:USBFS_hidIdleTimer
  70 003e 9B5C     		ldrb	r3, [r3, r2]
  71 0040 DBB2     		uxtb	r3, r3
  72 0042 03F1FF33 		add	r3, r3, #-1
  73 0046 D9B2     		uxtb	r1, r3
  74 0048 40F20003 		movw	r3, #:lower16:USBFS_hidIdleTimer
  75 004c C0F20003 		movt	r3, #:upper16:USBFS_hidIdleTimer
  76 0050 9954     		strb	r1, [r3, r2]
  72:.\Generated_Source\PSoC5/USBFS_hid.c ****             stat = USBFS_IDLE_TIMER_RUNNING;
  77              		.loc 1 72 0
  78 0052 4FF00203 		mov	r3, #2
  79 0056 FB73     		strb	r3, [r7, #15]
  80 0058 0FE0     		b	.L2
  81              	.L3:
  73:.\Generated_Source\PSoC5/USBFS_hid.c ****         }
  74:.\Generated_Source\PSoC5/USBFS_hid.c ****         else
  75:.\Generated_Source\PSoC5/USBFS_hid.c ****         {
  76:.\Generated_Source\PSoC5/USBFS_hid.c ****             USBFS_hidIdleTimer[interface] = USBFS_hidIdleRate[interface];
  82              		.loc 1 76 0
  83 005a FA79     		ldrb	r2, [r7, #7]	@ zero_extendqisi2
  84 005c F979     		ldrb	r1, [r7, #7]	@ zero_extendqisi2
  85 005e 40F20003 		movw	r3, #:lower16:USBFS_hidIdleRate
  86 0062 C0F20003 		movt	r3, #:upper16:USBFS_hidIdleRate
  87 0066 5B5C     		ldrb	r3, [r3, r1]
  88 0068 D9B2     		uxtb	r1, r3
  89 006a 40F20003 		movw	r3, #:lower16:USBFS_hidIdleTimer
  90 006e C0F20003 		movt	r3, #:upper16:USBFS_hidIdleTimer
  91 0072 9954     		strb	r1, [r3, r2]
  77:.\Generated_Source\PSoC5/USBFS_hid.c ****             stat = USBFS_IDLE_TIMER_EXPIRED;
  92              		.loc 1 77 0
  93 0074 4FF00103 		mov	r3, #1
  94 0078 FB73     		strb	r3, [r7, #15]
ARM GAS  C:\Users\Robert\AppData\Local\Temp\ccwgAcz4.s 			page 4


  95              	.L2:
  78:.\Generated_Source\PSoC5/USBFS_hid.c ****         }
  79:.\Generated_Source\PSoC5/USBFS_hid.c ****     }
  80:.\Generated_Source\PSoC5/USBFS_hid.c **** 
  81:.\Generated_Source\PSoC5/USBFS_hid.c ****     return(stat);
  96              		.loc 1 81 0
  97 007a FB7B     		ldrb	r3, [r7, #15]	@ zero_extendqisi2
  82:.\Generated_Source\PSoC5/USBFS_hid.c **** }
  98              		.loc 1 82 0
  99 007c 1846     		mov	r0, r3
 100 007e 07F11407 		add	r7, r7, #20
 101 0082 BD46     		mov	sp, r7
 102 0084 80BC     		pop	{r7}
 103 0086 7047     		bx	lr
 104              		.cfi_endproc
 105              	.LFE0:
 106              		.size	USBFS_UpdateHIDTimer, .-USBFS_UpdateHIDTimer
 107              		.section	.text.USBFS_GetProtocol,"ax",%progbits
 108              		.align	2
 109              		.global	USBFS_GetProtocol
 110              		.thumb
 111              		.thumb_func
 112              		.type	USBFS_GetProtocol, %function
 113              	USBFS_GetProtocol:
 114              	.LFB1:
  83:.\Generated_Source\PSoC5/USBFS_hid.c **** 
  84:.\Generated_Source\PSoC5/USBFS_hid.c **** 
  85:.\Generated_Source\PSoC5/USBFS_hid.c **** /*******************************************************************************
  86:.\Generated_Source\PSoC5/USBFS_hid.c **** * Function Name: USBFS_GetProtocol
  87:.\Generated_Source\PSoC5/USBFS_hid.c **** ********************************************************************************
  88:.\Generated_Source\PSoC5/USBFS_hid.c **** *
  89:.\Generated_Source\PSoC5/USBFS_hid.c **** * Summary:
  90:.\Generated_Source\PSoC5/USBFS_hid.c **** *  Returns the selected protocol value to the application
  91:.\Generated_Source\PSoC5/USBFS_hid.c **** *
  92:.\Generated_Source\PSoC5/USBFS_hid.c **** * Parameters:
  93:.\Generated_Source\PSoC5/USBFS_hid.c **** *  interface:  Interface Number.
  94:.\Generated_Source\PSoC5/USBFS_hid.c **** *
  95:.\Generated_Source\PSoC5/USBFS_hid.c **** * Return:
  96:.\Generated_Source\PSoC5/USBFS_hid.c **** *  Interface protocol.
  97:.\Generated_Source\PSoC5/USBFS_hid.c **** *
  98:.\Generated_Source\PSoC5/USBFS_hid.c **** *******************************************************************************/
  99:.\Generated_Source\PSoC5/USBFS_hid.c **** uint8 USBFS_GetProtocol(uint8 interface) 
 100:.\Generated_Source\PSoC5/USBFS_hid.c **** {
 115              		.loc 1 100 0
 116              		.cfi_startproc
 117              		@ args = 0, pretend = 0, frame = 8
 118              		@ frame_needed = 1, uses_anonymous_args = 0
 119              		@ link register save eliminated.
 120 0000 80B4     		push	{r7}
 121              	.LCFI3:
 122              		.cfi_def_cfa_offset 4
 123              		.cfi_offset 7, -4
 124 0002 83B0     		sub	sp, sp, #12
 125              	.LCFI4:
 126              		.cfi_def_cfa_offset 16
 127 0004 00AF     		add	r7, sp, #0
 128              	.LCFI5:
ARM GAS  C:\Users\Robert\AppData\Local\Temp\ccwgAcz4.s 			page 5


 129              		.cfi_def_cfa_register 7
 130 0006 0346     		mov	r3, r0
 131 0008 FB71     		strb	r3, [r7, #7]
 101:.\Generated_Source\PSoC5/USBFS_hid.c ****     return(USBFS_hidProtocol[interface]);
 132              		.loc 1 101 0
 133 000a FA79     		ldrb	r2, [r7, #7]	@ zero_extendqisi2
 134 000c 40F20003 		movw	r3, #:lower16:USBFS_hidProtocol
 135 0010 C0F20003 		movt	r3, #:upper16:USBFS_hidProtocol
 136 0014 9B5C     		ldrb	r3, [r3, r2]
 137 0016 DBB2     		uxtb	r3, r3
 102:.\Generated_Source\PSoC5/USBFS_hid.c **** }
 138              		.loc 1 102 0
 139 0018 1846     		mov	r0, r3
 140 001a 07F10C07 		add	r7, r7, #12
 141 001e BD46     		mov	sp, r7
 142 0020 80BC     		pop	{r7}
 143 0022 7047     		bx	lr
 144              		.cfi_endproc
 145              	.LFE1:
 146              		.size	USBFS_GetProtocol, .-USBFS_GetProtocol
 147              		.section	.text.USBFS_DispatchHIDClassRqst,"ax",%progbits
 148              		.align	2
 149              		.global	USBFS_DispatchHIDClassRqst
 150              		.thumb
 151              		.thumb_func
 152              		.type	USBFS_DispatchHIDClassRqst, %function
 153              	USBFS_DispatchHIDClassRqst:
 154              	.LFB2:
 103:.\Generated_Source\PSoC5/USBFS_hid.c **** 
 104:.\Generated_Source\PSoC5/USBFS_hid.c **** 
 105:.\Generated_Source\PSoC5/USBFS_hid.c **** /*******************************************************************************
 106:.\Generated_Source\PSoC5/USBFS_hid.c **** * Function Name: USBFS_DispatchHIDClassRqst
 107:.\Generated_Source\PSoC5/USBFS_hid.c **** ********************************************************************************
 108:.\Generated_Source\PSoC5/USBFS_hid.c **** *
 109:.\Generated_Source\PSoC5/USBFS_hid.c **** * Summary:
 110:.\Generated_Source\PSoC5/USBFS_hid.c **** *  This routine dispatches class requests
 111:.\Generated_Source\PSoC5/USBFS_hid.c **** *
 112:.\Generated_Source\PSoC5/USBFS_hid.c **** * Parameters:
 113:.\Generated_Source\PSoC5/USBFS_hid.c **** *  None.
 114:.\Generated_Source\PSoC5/USBFS_hid.c **** *
 115:.\Generated_Source\PSoC5/USBFS_hid.c **** * Return:
 116:.\Generated_Source\PSoC5/USBFS_hid.c **** *  requestHandled
 117:.\Generated_Source\PSoC5/USBFS_hid.c **** *
 118:.\Generated_Source\PSoC5/USBFS_hid.c **** * Reentrant:
 119:.\Generated_Source\PSoC5/USBFS_hid.c **** *  No.
 120:.\Generated_Source\PSoC5/USBFS_hid.c **** *
 121:.\Generated_Source\PSoC5/USBFS_hid.c **** *******************************************************************************/
 122:.\Generated_Source\PSoC5/USBFS_hid.c **** uint8 USBFS_DispatchHIDClassRqst(void) 
 123:.\Generated_Source\PSoC5/USBFS_hid.c **** {
 155              		.loc 1 123 0
 156              		.cfi_startproc
 157              		@ args = 0, pretend = 0, frame = 8
 158              		@ frame_needed = 1, uses_anonymous_args = 0
 159 0000 80B5     		push	{r7, lr}
 160              	.LCFI6:
 161              		.cfi_def_cfa_offset 8
 162              		.cfi_offset 7, -8
ARM GAS  C:\Users\Robert\AppData\Local\Temp\ccwgAcz4.s 			page 6


 163              		.cfi_offset 14, -4
 164 0002 82B0     		sub	sp, sp, #8
 165              	.LCFI7:
 166              		.cfi_def_cfa_offset 16
 167 0004 00AF     		add	r7, sp, #0
 168              	.LCFI8:
 169              		.cfi_def_cfa_register 7
 124:.\Generated_Source\PSoC5/USBFS_hid.c ****     uint8 requestHandled = USBFS_FALSE;
 170              		.loc 1 124 0
 171 0006 4FF00003 		mov	r3, #0
 172 000a FB71     		strb	r3, [r7, #7]
 125:.\Generated_Source\PSoC5/USBFS_hid.c ****     uint8 interfaceNumber;
 126:.\Generated_Source\PSoC5/USBFS_hid.c **** 
 127:.\Generated_Source\PSoC5/USBFS_hid.c ****     interfaceNumber = CY_GET_REG8(USBFS_wIndexLo);
 173              		.loc 1 127 0
 174 000c 46F20403 		movw	r3, #24580
 175 0010 C4F20003 		movt	r3, 16384
 176 0014 1B78     		ldrb	r3, [r3, #0]
 177 0016 BB71     		strb	r3, [r7, #6]
 128:.\Generated_Source\PSoC5/USBFS_hid.c ****     if ((CY_GET_REG8(USBFS_bmRequestType) & USBFS_RQST_DIR_MASK) == USBFS_RQST_DIR_D2H)
 178              		.loc 1 128 0
 179 0018 4FF4C043 		mov	r3, #24576
 180 001c C4F20003 		movt	r3, 16384
 181 0020 1B78     		ldrb	r3, [r3, #0]
 182 0022 DBB2     		uxtb	r3, r3
 183 0024 DBB2     		uxtb	r3, r3
 184 0026 5BB2     		sxtb	r3, r3
 185 0028 002B     		cmp	r3, #0
 186 002a 80F29C80 		bge	.L8
 129:.\Generated_Source\PSoC5/USBFS_hid.c ****     {   /* Control Read */
 130:.\Generated_Source\PSoC5/USBFS_hid.c ****         switch (CY_GET_REG8(USBFS_bRequest))
 187              		.loc 1 130 0
 188 002e 46F20103 		movw	r3, #24577
 189 0032 C4F20003 		movt	r3, 16384
 190 0036 1B78     		ldrb	r3, [r3, #0]
 191 0038 DBB2     		uxtb	r3, r3
 192 003a 03F1FF33 		add	r3, r3, #-1
 193 003e 052B     		cmp	r3, #5
 194 0040 00F22481 		bhi	.L34
 195 0044 01A2     		adr	r2, .L14
 196 0046 52F823F0 		ldr	pc, [r2, r3, lsl #2]
 197 004a 00BF     		.align	2
 198              	.L14:
 199 004c C7000000 		.word	.L10+1
 200 0050 E7000000 		.word	.L11+1
 201 0054 2F010000 		.word	.L12+1
 202 0058 8D020000 		.word	.L34+1
 203 005c 8D020000 		.word	.L34+1
 204 0060 65000000 		.word	.L13+1
 205              	.L13:
 131:.\Generated_Source\PSoC5/USBFS_hid.c ****         {
 132:.\Generated_Source\PSoC5/USBFS_hid.c ****             case USBFS_GET_DESCRIPTOR:
 133:.\Generated_Source\PSoC5/USBFS_hid.c ****                 if (CY_GET_REG8(USBFS_wValueHi) == USBFS_DESCR_HID_CLASS)
 206              		.loc 1 133 0
 207 0064 46F20303 		movw	r3, #24579
 208 0068 C4F20003 		movt	r3, 16384
 209 006c 1B78     		ldrb	r3, [r3, #0]
ARM GAS  C:\Users\Robert\AppData\Local\Temp\ccwgAcz4.s 			page 7


 210 006e DBB2     		uxtb	r3, r3
 211 0070 212B     		cmp	r3, #33
 212 0072 0FD1     		bne	.L15
 134:.\Generated_Source\PSoC5/USBFS_hid.c ****                 {
 135:.\Generated_Source\PSoC5/USBFS_hid.c ****                     USBFS_FindHidClassDecriptor();
 213              		.loc 1 135 0
 214 0074 FFF7FEFF 		bl	USBFS_FindHidClassDecriptor
 136:.\Generated_Source\PSoC5/USBFS_hid.c ****                     if (USBFS_currentTD.count != 0u)
 215              		.loc 1 136 0
 216 0078 40F20003 		movw	r3, #:lower16:USBFS_currentTD
 217 007c C0F20003 		movt	r3, #:upper16:USBFS_currentTD
 218 0080 1B88     		ldrh	r3, [r3, #0]	@ movhi
 219 0082 9BB2     		uxth	r3, r3
 220 0084 002B     		cmp	r3, #0
 221 0086 00F00381 		beq	.L35
 137:.\Generated_Source\PSoC5/USBFS_hid.c ****                     {
 138:.\Generated_Source\PSoC5/USBFS_hid.c ****                         requestHandled = USBFS_InitControlRead();
 222              		.loc 1 138 0
 223 008a FFF7FEFF 		bl	USBFS_InitControlRead
 224 008e 0346     		mov	r3, r0
 225 0090 FB71     		strb	r3, [r7, #7]
 139:.\Generated_Source\PSoC5/USBFS_hid.c ****                     }
 140:.\Generated_Source\PSoC5/USBFS_hid.c ****                 }
 141:.\Generated_Source\PSoC5/USBFS_hid.c ****                 else if (CY_GET_REG8(USBFS_wValueHi) == USBFS_DESCR_HID_REPORT)
 142:.\Generated_Source\PSoC5/USBFS_hid.c ****                 {
 143:.\Generated_Source\PSoC5/USBFS_hid.c ****                     USBFS_FindReportDescriptor();
 144:.\Generated_Source\PSoC5/USBFS_hid.c ****                     if (USBFS_currentTD.count != 0u)
 145:.\Generated_Source\PSoC5/USBFS_hid.c ****                     {
 146:.\Generated_Source\PSoC5/USBFS_hid.c ****                         requestHandled = USBFS_InitControlRead();
 147:.\Generated_Source\PSoC5/USBFS_hid.c ****                     }
 148:.\Generated_Source\PSoC5/USBFS_hid.c ****                 }
 149:.\Generated_Source\PSoC5/USBFS_hid.c ****                 else
 150:.\Generated_Source\PSoC5/USBFS_hid.c ****                 {   /* requestHandled is initialezed as FALSE by default */
 151:.\Generated_Source\PSoC5/USBFS_hid.c ****                 }
 152:.\Generated_Source\PSoC5/USBFS_hid.c ****                 break;
 226              		.loc 1 152 0
 227 0092 FDE0     		b	.L35
 228              	.L15:
 141:.\Generated_Source\PSoC5/USBFS_hid.c ****                 else if (CY_GET_REG8(USBFS_wValueHi) == USBFS_DESCR_HID_REPORT)
 229              		.loc 1 141 0
 230 0094 46F20303 		movw	r3, #24579
 231 0098 C4F20003 		movt	r3, 16384
 232 009c 1B78     		ldrb	r3, [r3, #0]
 233 009e DBB2     		uxtb	r3, r3
 234 00a0 222B     		cmp	r3, #34
 235 00a2 40F0F580 		bne	.L35
 143:.\Generated_Source\PSoC5/USBFS_hid.c ****                     USBFS_FindReportDescriptor();
 236              		.loc 1 143 0
 237 00a6 FFF7FEFF 		bl	USBFS_FindReportDescriptor
 144:.\Generated_Source\PSoC5/USBFS_hid.c ****                     if (USBFS_currentTD.count != 0u)
 238              		.loc 1 144 0
 239 00aa 40F20003 		movw	r3, #:lower16:USBFS_currentTD
 240 00ae C0F20003 		movt	r3, #:upper16:USBFS_currentTD
 241 00b2 1B88     		ldrh	r3, [r3, #0]	@ movhi
 242 00b4 9BB2     		uxth	r3, r3
 243 00b6 002B     		cmp	r3, #0
 244 00b8 00F0EA80 		beq	.L35
ARM GAS  C:\Users\Robert\AppData\Local\Temp\ccwgAcz4.s 			page 8


 146:.\Generated_Source\PSoC5/USBFS_hid.c ****                         requestHandled = USBFS_InitControlRead();
 245              		.loc 1 146 0
 246 00bc FFF7FEFF 		bl	USBFS_InitControlRead
 247 00c0 0346     		mov	r3, r0
 248 00c2 FB71     		strb	r3, [r7, #7]
 249              		.loc 1 152 0
 250 00c4 E4E0     		b	.L35
 251              	.L10:
 153:.\Generated_Source\PSoC5/USBFS_hid.c ****             case USBFS_HID_GET_REPORT:
 154:.\Generated_Source\PSoC5/USBFS_hid.c ****                 USBFS_FindReport();
 252              		.loc 1 154 0
 253 00c6 FFF7FEFF 		bl	USBFS_FindReport
 155:.\Generated_Source\PSoC5/USBFS_hid.c ****                 if (USBFS_currentTD.count != 0u)
 254              		.loc 1 155 0
 255 00ca 40F20003 		movw	r3, #:lower16:USBFS_currentTD
 256 00ce C0F20003 		movt	r3, #:upper16:USBFS_currentTD
 257 00d2 1B88     		ldrh	r3, [r3, #0]	@ movhi
 258 00d4 9BB2     		uxth	r3, r3
 259 00d6 002B     		cmp	r3, #0
 260 00d8 00F0DC80 		beq	.L36
 156:.\Generated_Source\PSoC5/USBFS_hid.c ****                 {
 157:.\Generated_Source\PSoC5/USBFS_hid.c ****                     requestHandled = USBFS_InitControlRead();
 261              		.loc 1 157 0
 262 00dc FFF7FEFF 		bl	USBFS_InitControlRead
 263 00e0 0346     		mov	r3, r0
 264 00e2 FB71     		strb	r3, [r7, #7]
 158:.\Generated_Source\PSoC5/USBFS_hid.c ****                 }
 159:.\Generated_Source\PSoC5/USBFS_hid.c ****                 break;
 265              		.loc 1 159 0
 266 00e4 D6E0     		b	.L36
 267              	.L11:
 160:.\Generated_Source\PSoC5/USBFS_hid.c **** 
 161:.\Generated_Source\PSoC5/USBFS_hid.c ****             case USBFS_HID_GET_IDLE:
 162:.\Generated_Source\PSoC5/USBFS_hid.c ****                 /* This function does not support multiple reports per interface*/
 163:.\Generated_Source\PSoC5/USBFS_hid.c ****                 /* Validate interfaceNumber and Report ID (should be 0) */
 164:.\Generated_Source\PSoC5/USBFS_hid.c ****                 if( (interfaceNumber < USBFS_MAX_INTERFACES_NUMBER) &&
 268              		.loc 1 164 0
 269 00e6 BB79     		ldrb	r3, [r7, #6]	@ zero_extendqisi2
 270 00e8 002B     		cmp	r3, #0
 271 00ea 40F0D580 		bne	.L37
 165:.\Generated_Source\PSoC5/USBFS_hid.c ****                     (CY_GET_REG8(USBFS_wValueLo) == 0u ) ) /* Do not support Idle per Report ID */
 272              		.loc 1 165 0 discriminator 1
 273 00ee 46F20203 		movw	r3, #24578
 274 00f2 C4F20003 		movt	r3, 16384
 275 00f6 1B78     		ldrb	r3, [r3, #0]
 276 00f8 DBB2     		uxtb	r3, r3
 164:.\Generated_Source\PSoC5/USBFS_hid.c ****                 if( (interfaceNumber < USBFS_MAX_INTERFACES_NUMBER) &&
 277              		.loc 1 164 0 discriminator 1
 278 00fa 002B     		cmp	r3, #0
 279 00fc 40F0CC80 		bne	.L37
 166:.\Generated_Source\PSoC5/USBFS_hid.c ****                 {
 167:.\Generated_Source\PSoC5/USBFS_hid.c ****                     USBFS_currentTD.count = 1u;
 280              		.loc 1 167 0
 281 0100 40F20003 		movw	r3, #:lower16:USBFS_currentTD
 282 0104 C0F20003 		movt	r3, #:upper16:USBFS_currentTD
 283 0108 4FF00102 		mov	r2, #1
 284 010c 1A80     		strh	r2, [r3, #0]	@ movhi
ARM GAS  C:\Users\Robert\AppData\Local\Temp\ccwgAcz4.s 			page 9


 168:.\Generated_Source\PSoC5/USBFS_hid.c ****                     USBFS_currentTD.pData = &USBFS_hidIdleRate[interfaceNumber];
 285              		.loc 1 168 0
 286 010e BA79     		ldrb	r2, [r7, #6]	@ zero_extendqisi2
 287 0110 40F20003 		movw	r3, #:lower16:USBFS_hidIdleRate
 288 0114 C0F20003 		movt	r3, #:upper16:USBFS_hidIdleRate
 289 0118 D218     		adds	r2, r2, r3
 290 011a 40F20003 		movw	r3, #:lower16:USBFS_currentTD
 291 011e C0F20003 		movt	r3, #:upper16:USBFS_currentTD
 292 0122 5A60     		str	r2, [r3, #4]
 169:.\Generated_Source\PSoC5/USBFS_hid.c ****                     requestHandled  = USBFS_InitControlRead();
 293              		.loc 1 169 0
 294 0124 FFF7FEFF 		bl	USBFS_InitControlRead
 295 0128 0346     		mov	r3, r0
 296 012a FB71     		strb	r3, [r7, #7]
 170:.\Generated_Source\PSoC5/USBFS_hid.c ****                 }
 171:.\Generated_Source\PSoC5/USBFS_hid.c ****                 break;
 297              		.loc 1 171 0
 298 012c B4E0     		b	.L37
 299              	.L12:
 172:.\Generated_Source\PSoC5/USBFS_hid.c ****             case USBFS_HID_GET_PROTOCOL:
 173:.\Generated_Source\PSoC5/USBFS_hid.c ****                 /* Validate interfaceNumber */
 174:.\Generated_Source\PSoC5/USBFS_hid.c ****                 if( interfaceNumber < USBFS_MAX_INTERFACES_NUMBER)
 300              		.loc 1 174 0
 301 012e BB79     		ldrb	r3, [r7, #6]	@ zero_extendqisi2
 302 0130 002B     		cmp	r3, #0
 303 0132 40F0B380 		bne	.L38
 175:.\Generated_Source\PSoC5/USBFS_hid.c ****                 {
 176:.\Generated_Source\PSoC5/USBFS_hid.c ****                     USBFS_currentTD.count = 1u;
 304              		.loc 1 176 0
 305 0136 40F20003 		movw	r3, #:lower16:USBFS_currentTD
 306 013a C0F20003 		movt	r3, #:upper16:USBFS_currentTD
 307 013e 4FF00102 		mov	r2, #1
 308 0142 1A80     		strh	r2, [r3, #0]	@ movhi
 177:.\Generated_Source\PSoC5/USBFS_hid.c ****                     USBFS_currentTD.pData = &USBFS_hidProtocol[interfaceNumber];
 309              		.loc 1 177 0
 310 0144 BA79     		ldrb	r2, [r7, #6]	@ zero_extendqisi2
 311 0146 40F20003 		movw	r3, #:lower16:USBFS_hidProtocol
 312 014a C0F20003 		movt	r3, #:upper16:USBFS_hidProtocol
 313 014e D218     		adds	r2, r2, r3
 314 0150 40F20003 		movw	r3, #:lower16:USBFS_currentTD
 315 0154 C0F20003 		movt	r3, #:upper16:USBFS_currentTD
 316 0158 5A60     		str	r2, [r3, #4]
 178:.\Generated_Source\PSoC5/USBFS_hid.c ****                     requestHandled  = USBFS_InitControlRead();
 317              		.loc 1 178 0
 318 015a FFF7FEFF 		bl	USBFS_InitControlRead
 319 015e 0346     		mov	r3, r0
 320 0160 FB71     		strb	r3, [r7, #7]
 179:.\Generated_Source\PSoC5/USBFS_hid.c ****                 }
 180:.\Generated_Source\PSoC5/USBFS_hid.c ****                 break;
 321              		.loc 1 180 0
 322 0162 00BF     		nop
 323 0164 9AE0     		b	.L38
 324              	.L8:
 181:.\Generated_Source\PSoC5/USBFS_hid.c ****             default:    /* requestHandled is initialized as FALSE by default */
 182:.\Generated_Source\PSoC5/USBFS_hid.c ****                 break;
 183:.\Generated_Source\PSoC5/USBFS_hid.c ****         }
 184:.\Generated_Source\PSoC5/USBFS_hid.c ****     }
ARM GAS  C:\Users\Robert\AppData\Local\Temp\ccwgAcz4.s 			page 10


 185:.\Generated_Source\PSoC5/USBFS_hid.c ****     else if ((CY_GET_REG8(USBFS_bmRequestType) & USBFS_RQST_DIR_MASK) ==
 325              		.loc 1 185 0
 326 0166 4FF4C043 		mov	r3, #24576
 327 016a C4F20003 		movt	r3, 16384
 328 016e 1B78     		ldrb	r3, [r3, #0]
 329 0170 DBB2     		uxtb	r3, r3
 330 0172 DBB2     		uxtb	r3, r3
 331 0174 5BB2     		sxtb	r3, r3
 332 0176 002B     		cmp	r3, #0
 333 0178 C0F29980 		blt	.L21
 186:.\Generated_Source\PSoC5/USBFS_hid.c ****                                                                             USBFS_RQST_DIR_H2D)
 187:.\Generated_Source\PSoC5/USBFS_hid.c ****     {   /* Control Write */
 188:.\Generated_Source\PSoC5/USBFS_hid.c ****         switch (CY_GET_REG8(USBFS_bRequest))
 334              		.loc 1 188 0
 335 017c 46F20103 		movw	r3, #24577
 336 0180 C4F20003 		movt	r3, 16384
 337 0184 1B78     		ldrb	r3, [r3, #0]
 338 0186 DBB2     		uxtb	r3, r3
 339 0188 092B     		cmp	r3, #9
 340 018a 07D0     		beq	.L23
 341 018c 092B     		cmp	r3, #9
 342 018e C0F28780 		blt	.L39
 343 0192 0A2B     		cmp	r3, #10
 344 0194 11D0     		beq	.L24
 345 0196 0B2B     		cmp	r3, #11
 346 0198 5AD0     		beq	.L25
 347 019a 75E0     		b	.L33
 348              	.L23:
 189:.\Generated_Source\PSoC5/USBFS_hid.c ****         {
 190:.\Generated_Source\PSoC5/USBFS_hid.c ****             case USBFS_HID_SET_REPORT:
 191:.\Generated_Source\PSoC5/USBFS_hid.c ****                 USBFS_FindReport();
 349              		.loc 1 191 0
 350 019c FFF7FEFF 		bl	USBFS_FindReport
 192:.\Generated_Source\PSoC5/USBFS_hid.c ****                 if (USBFS_currentTD.count != 0u)
 351              		.loc 1 192 0
 352 01a0 40F20003 		movw	r3, #:lower16:USBFS_currentTD
 353 01a4 C0F20003 		movt	r3, #:upper16:USBFS_currentTD
 354 01a8 1B88     		ldrh	r3, [r3, #0]	@ movhi
 355 01aa 9BB2     		uxth	r3, r3
 356 01ac 002B     		cmp	r3, #0
 357 01ae 79D0     		beq	.L40
 193:.\Generated_Source\PSoC5/USBFS_hid.c ****                 {
 194:.\Generated_Source\PSoC5/USBFS_hid.c ****                     requestHandled = USBFS_InitControlWrite();
 358              		.loc 1 194 0
 359 01b0 FFF7FEFF 		bl	USBFS_InitControlWrite
 360 01b4 0346     		mov	r3, r0
 361 01b6 FB71     		strb	r3, [r7, #7]
 195:.\Generated_Source\PSoC5/USBFS_hid.c ****                 }
 196:.\Generated_Source\PSoC5/USBFS_hid.c ****                 break;
 362              		.loc 1 196 0
 363 01b8 74E0     		b	.L40
 364              	.L24:
 197:.\Generated_Source\PSoC5/USBFS_hid.c ****             case USBFS_HID_SET_IDLE:
 198:.\Generated_Source\PSoC5/USBFS_hid.c ****                 /* This function does not support multiple reports per interface */
 199:.\Generated_Source\PSoC5/USBFS_hid.c ****                 /* Validate interfaceNumber and Report ID (should be 0) */
 200:.\Generated_Source\PSoC5/USBFS_hid.c ****                 if( (interfaceNumber < USBFS_MAX_INTERFACES_NUMBER) &&
 365              		.loc 1 200 0
ARM GAS  C:\Users\Robert\AppData\Local\Temp\ccwgAcz4.s 			page 11


 366 01ba BB79     		ldrb	r3, [r7, #6]	@ zero_extendqisi2
 367 01bc 002B     		cmp	r3, #0
 368 01be 73D1     		bne	.L41
 201:.\Generated_Source\PSoC5/USBFS_hid.c ****                     (CY_GET_REG8(USBFS_wValueLo) == 0u ) ) /* Do not support Idle per Report ID */
 369              		.loc 1 201 0 discriminator 1
 370 01c0 46F20203 		movw	r3, #24578
 371 01c4 C4F20003 		movt	r3, 16384
 372 01c8 1B78     		ldrb	r3, [r3, #0]
 373 01ca DBB2     		uxtb	r3, r3
 200:.\Generated_Source\PSoC5/USBFS_hid.c ****                 if( (interfaceNumber < USBFS_MAX_INTERFACES_NUMBER) &&
 374              		.loc 1 200 0 discriminator 1
 375 01cc 002B     		cmp	r3, #0
 376 01ce 6BD1     		bne	.L41
 202:.\Generated_Source\PSoC5/USBFS_hid.c ****                 {
 203:.\Generated_Source\PSoC5/USBFS_hid.c ****                     USBFS_hidIdleRate[interfaceNumber] = CY_GET_REG8(USBFS_wValueHi);
 377              		.loc 1 203 0
 378 01d0 BA79     		ldrb	r2, [r7, #6]	@ zero_extendqisi2
 379 01d2 46F20303 		movw	r3, #24579
 380 01d6 C4F20003 		movt	r3, 16384
 381 01da 1B78     		ldrb	r3, [r3, #0]
 382 01dc D9B2     		uxtb	r1, r3
 383 01de 40F20003 		movw	r3, #:lower16:USBFS_hidIdleRate
 384 01e2 C0F20003 		movt	r3, #:upper16:USBFS_hidIdleRate
 385 01e6 9954     		strb	r1, [r3, r2]
 204:.\Generated_Source\PSoC5/USBFS_hid.c ****                     /* With regards to HID spec: "7.2.4 Set_Idle Request"
 205:.\Generated_Source\PSoC5/USBFS_hid.c ****                     *  Latency. If the current period has gone past the
 206:.\Generated_Source\PSoC5/USBFS_hid.c ****                     *  newly proscribed time duration, then a report
 207:.\Generated_Source\PSoC5/USBFS_hid.c ****                     *  will be generated immediately.
 208:.\Generated_Source\PSoC5/USBFS_hid.c ****                     */
 209:.\Generated_Source\PSoC5/USBFS_hid.c ****                     if(USBFS_hidIdleRate[interfaceNumber] <
 386              		.loc 1 209 0
 387 01e8 BA79     		ldrb	r2, [r7, #6]	@ zero_extendqisi2
 388 01ea 40F20003 		movw	r3, #:lower16:USBFS_hidIdleRate
 389 01ee C0F20003 		movt	r3, #:upper16:USBFS_hidIdleRate
 390 01f2 9B5C     		ldrb	r3, [r3, r2]
 391 01f4 DAB2     		uxtb	r2, r3
 210:.\Generated_Source\PSoC5/USBFS_hid.c ****                        USBFS_hidIdleTimer[interfaceNumber])
 392              		.loc 1 210 0
 393 01f6 B979     		ldrb	r1, [r7, #6]	@ zero_extendqisi2
 394 01f8 40F20003 		movw	r3, #:lower16:USBFS_hidIdleTimer
 395 01fc C0F20003 		movt	r3, #:upper16:USBFS_hidIdleTimer
 396 0200 5B5C     		ldrb	r3, [r3, r1]
 397 0202 DBB2     		uxtb	r3, r3
 209:.\Generated_Source\PSoC5/USBFS_hid.c ****                     if(USBFS_hidIdleRate[interfaceNumber] <
 398              		.loc 1 209 0
 399 0204 9A42     		cmp	r2, r3
 400 0206 08D2     		bcs	.L29
 211:.\Generated_Source\PSoC5/USBFS_hid.c ****                     {
 212:.\Generated_Source\PSoC5/USBFS_hid.c ****                         /* Set the timer to zero and let the UpdateHIDTimer() API return IDLE_TIMER
 213:.\Generated_Source\PSoC5/USBFS_hid.c ****                         USBFS_hidIdleTimer[interfaceNumber] = 0u;
 401              		.loc 1 213 0
 402 0208 BA79     		ldrb	r2, [r7, #6]	@ zero_extendqisi2
 403 020a 40F20003 		movw	r3, #:lower16:USBFS_hidIdleTimer
 404 020e C0F20003 		movt	r3, #:upper16:USBFS_hidIdleTimer
 405 0212 4FF00001 		mov	r1, #0
 406 0216 9954     		strb	r1, [r3, r2]
 407 0218 15E0     		b	.L30
ARM GAS  C:\Users\Robert\AppData\Local\Temp\ccwgAcz4.s 			page 12


 408              	.L29:
 214:.\Generated_Source\PSoC5/USBFS_hid.c ****                     }
 215:.\Generated_Source\PSoC5/USBFS_hid.c ****                     /* If the new request is received within 4 milliseconds
 216:.\Generated_Source\PSoC5/USBFS_hid.c ****                     *  (1 count) of the end of the current period, then the
 217:.\Generated_Source\PSoC5/USBFS_hid.c ****                     *  new request will have no effect until after the report.
 218:.\Generated_Source\PSoC5/USBFS_hid.c ****                     */
 219:.\Generated_Source\PSoC5/USBFS_hid.c ****                     else if(USBFS_hidIdleTimer[interfaceNumber] <= 1u)
 409              		.loc 1 219 0
 410 021a BA79     		ldrb	r2, [r7, #6]	@ zero_extendqisi2
 411 021c 40F20003 		movw	r3, #:lower16:USBFS_hidIdleTimer
 412 0220 C0F20003 		movt	r3, #:upper16:USBFS_hidIdleTimer
 413 0224 9B5C     		ldrb	r3, [r3, r2]
 414 0226 DBB2     		uxtb	r3, r3
 415 0228 012B     		cmp	r3, #1
 416 022a 0CD9     		bls	.L30
 220:.\Generated_Source\PSoC5/USBFS_hid.c ****                     {
 221:.\Generated_Source\PSoC5/USBFS_hid.c ****                         /* Do nothing.
 222:.\Generated_Source\PSoC5/USBFS_hid.c ****                         *  Let the UpdateHIDTimer() API continue to work and
 223:.\Generated_Source\PSoC5/USBFS_hid.c ****                         *  return IDLE_TIMER_EXPIRED status
 224:.\Generated_Source\PSoC5/USBFS_hid.c ****                         */
 225:.\Generated_Source\PSoC5/USBFS_hid.c ****                     }
 226:.\Generated_Source\PSoC5/USBFS_hid.c ****                     else
 227:.\Generated_Source\PSoC5/USBFS_hid.c ****                     {   /* Reload the timer*/
 228:.\Generated_Source\PSoC5/USBFS_hid.c ****                         USBFS_hidIdleTimer[interfaceNumber] =
 417              		.loc 1 228 0
 418 022c BA79     		ldrb	r2, [r7, #6]	@ zero_extendqisi2
 229:.\Generated_Source\PSoC5/USBFS_hid.c ****                         USBFS_hidIdleRate[interfaceNumber];
 419              		.loc 1 229 0
 420 022e B979     		ldrb	r1, [r7, #6]	@ zero_extendqisi2
 421 0230 40F20003 		movw	r3, #:lower16:USBFS_hidIdleRate
 422 0234 C0F20003 		movt	r3, #:upper16:USBFS_hidIdleRate
 423 0238 5B5C     		ldrb	r3, [r3, r1]
 424 023a D9B2     		uxtb	r1, r3
 228:.\Generated_Source\PSoC5/USBFS_hid.c ****                         USBFS_hidIdleTimer[interfaceNumber] =
 425              		.loc 1 228 0
 426 023c 40F20003 		movw	r3, #:lower16:USBFS_hidIdleTimer
 427 0240 C0F20003 		movt	r3, #:upper16:USBFS_hidIdleTimer
 428 0244 9954     		strb	r1, [r3, r2]
 429              	.L30:
 230:.\Generated_Source\PSoC5/USBFS_hid.c ****                     }
 231:.\Generated_Source\PSoC5/USBFS_hid.c ****                     requestHandled = USBFS_InitNoDataControlTransfer();
 430              		.loc 1 231 0
 431 0246 FFF7FEFF 		bl	USBFS_InitNoDataControlTransfer
 432 024a 0346     		mov	r3, r0
 433 024c FB71     		strb	r3, [r7, #7]
 232:.\Generated_Source\PSoC5/USBFS_hid.c ****                 }
 233:.\Generated_Source\PSoC5/USBFS_hid.c ****                 break;
 434              		.loc 1 233 0
 435 024e 2BE0     		b	.L41
 436              	.L25:
 234:.\Generated_Source\PSoC5/USBFS_hid.c **** 
 235:.\Generated_Source\PSoC5/USBFS_hid.c ****             case USBFS_HID_SET_PROTOCOL:
 236:.\Generated_Source\PSoC5/USBFS_hid.c ****                 /* Validate interfaceNumber and protocol (must be 0 or 1) */
 237:.\Generated_Source\PSoC5/USBFS_hid.c ****                 if( (interfaceNumber < USBFS_MAX_INTERFACES_NUMBER) &&
 437              		.loc 1 237 0
 438 0250 BB79     		ldrb	r3, [r7, #6]	@ zero_extendqisi2
 439 0252 002B     		cmp	r3, #0
ARM GAS  C:\Users\Robert\AppData\Local\Temp\ccwgAcz4.s 			page 13


 440 0254 2AD1     		bne	.L42
 238:.\Generated_Source\PSoC5/USBFS_hid.c ****                     (CY_GET_REG8(USBFS_wValueLo) <= 1u) )
 441              		.loc 1 238 0 discriminator 1
 442 0256 46F20203 		movw	r3, #24578
 443 025a C4F20003 		movt	r3, 16384
 444 025e 1B78     		ldrb	r3, [r3, #0]
 445 0260 DBB2     		uxtb	r3, r3
 237:.\Generated_Source\PSoC5/USBFS_hid.c ****                 if( (interfaceNumber < USBFS_MAX_INTERFACES_NUMBER) &&
 446              		.loc 1 237 0 discriminator 1
 447 0262 012B     		cmp	r3, #1
 448 0264 22D8     		bhi	.L42
 239:.\Generated_Source\PSoC5/USBFS_hid.c ****                 {
 240:.\Generated_Source\PSoC5/USBFS_hid.c ****                     USBFS_hidProtocol[interfaceNumber] = CY_GET_REG8(USBFS_wValueLo);
 449              		.loc 1 240 0
 450 0266 BA79     		ldrb	r2, [r7, #6]	@ zero_extendqisi2
 451 0268 46F20203 		movw	r3, #24578
 452 026c C4F20003 		movt	r3, 16384
 453 0270 1B78     		ldrb	r3, [r3, #0]
 454 0272 D9B2     		uxtb	r1, r3
 455 0274 40F20003 		movw	r3, #:lower16:USBFS_hidProtocol
 456 0278 C0F20003 		movt	r3, #:upper16:USBFS_hidProtocol
 457 027c 9954     		strb	r1, [r3, r2]
 241:.\Generated_Source\PSoC5/USBFS_hid.c ****                     requestHandled = USBFS_InitNoDataControlTransfer();
 458              		.loc 1 241 0
 459 027e FFF7FEFF 		bl	USBFS_InitNoDataControlTransfer
 460 0282 0346     		mov	r3, r0
 461 0284 FB71     		strb	r3, [r7, #7]
 242:.\Generated_Source\PSoC5/USBFS_hid.c ****                 }
 243:.\Generated_Source\PSoC5/USBFS_hid.c ****                 break;
 462              		.loc 1 243 0
 463 0286 11E0     		b	.L42
 464              	.L33:
 244:.\Generated_Source\PSoC5/USBFS_hid.c ****             default:    /* requestHandled is initialized as FALSE by default */
 245:.\Generated_Source\PSoC5/USBFS_hid.c ****                 break;
 465              		.loc 1 245 0
 466 0288 00BF     		nop
 467 028a 09E0     		b	.L39
 468              	.L34:
 182:.\Generated_Source\PSoC5/USBFS_hid.c ****                 break;
 469              		.loc 1 182 0
 470 028c 00BF     		nop
 471 028e 0EE0     		b	.L21
 472              	.L35:
 152:.\Generated_Source\PSoC5/USBFS_hid.c ****                 break;
 473              		.loc 1 152 0
 474 0290 00BF     		nop
 475 0292 0CE0     		b	.L21
 476              	.L36:
 159:.\Generated_Source\PSoC5/USBFS_hid.c ****                 break;
 477              		.loc 1 159 0
 478 0294 00BF     		nop
 479 0296 0AE0     		b	.L21
 480              	.L37:
 171:.\Generated_Source\PSoC5/USBFS_hid.c ****                 break;
 481              		.loc 1 171 0
 482 0298 00BF     		nop
 483 029a 08E0     		b	.L21
ARM GAS  C:\Users\Robert\AppData\Local\Temp\ccwgAcz4.s 			page 14


 484              	.L38:
 180:.\Generated_Source\PSoC5/USBFS_hid.c ****                 break;
 485              		.loc 1 180 0
 486 029c 00BF     		nop
 487 029e 06E0     		b	.L21
 488              	.L39:
 489              		.loc 1 245 0
 490 02a0 00BF     		nop
 491 02a2 04E0     		b	.L21
 492              	.L40:
 196:.\Generated_Source\PSoC5/USBFS_hid.c ****                 break;
 493              		.loc 1 196 0
 494 02a4 00BF     		nop
 495 02a6 02E0     		b	.L21
 496              	.L41:
 233:.\Generated_Source\PSoC5/USBFS_hid.c ****                 break;
 497              		.loc 1 233 0
 498 02a8 00BF     		nop
 499 02aa 00E0     		b	.L21
 500              	.L42:
 243:.\Generated_Source\PSoC5/USBFS_hid.c ****                 break;
 501              		.loc 1 243 0
 502 02ac 00BF     		nop
 503              	.L21:
 246:.\Generated_Source\PSoC5/USBFS_hid.c ****         }
 247:.\Generated_Source\PSoC5/USBFS_hid.c ****     }
 248:.\Generated_Source\PSoC5/USBFS_hid.c ****     else
 249:.\Generated_Source\PSoC5/USBFS_hid.c ****     {   /* requestHandled is initialized as FALSE by default */
 250:.\Generated_Source\PSoC5/USBFS_hid.c ****     }
 251:.\Generated_Source\PSoC5/USBFS_hid.c **** 
 252:.\Generated_Source\PSoC5/USBFS_hid.c ****     return(requestHandled);
 504              		.loc 1 252 0
 505 02ae FB79     		ldrb	r3, [r7, #7]	@ zero_extendqisi2
 253:.\Generated_Source\PSoC5/USBFS_hid.c **** }
 506              		.loc 1 253 0
 507 02b0 1846     		mov	r0, r3
 508 02b2 07F10807 		add	r7, r7, #8
 509 02b6 BD46     		mov	sp, r7
 510 02b8 80BD     		pop	{r7, pc}
 511              		.cfi_endproc
 512              	.LFE2:
 513              		.size	USBFS_DispatchHIDClassRqst, .-USBFS_DispatchHIDClassRqst
 514 02ba 00BF     		.section	.text.USBFS_FindHidClassDecriptor,"ax",%progbits
 515              		.align	2
 516              		.global	USBFS_FindHidClassDecriptor
 517              		.thumb
 518              		.thumb_func
 519              		.type	USBFS_FindHidClassDecriptor, %function
 520              	USBFS_FindHidClassDecriptor:
 521              	.LFB3:
 254:.\Generated_Source\PSoC5/USBFS_hid.c **** 
 255:.\Generated_Source\PSoC5/USBFS_hid.c **** 
 256:.\Generated_Source\PSoC5/USBFS_hid.c **** /*******************************************************************************
 257:.\Generated_Source\PSoC5/USBFS_hid.c **** * Function Name: USB_FindHidClassDescriptor
 258:.\Generated_Source\PSoC5/USBFS_hid.c **** ********************************************************************************
 259:.\Generated_Source\PSoC5/USBFS_hid.c **** *
 260:.\Generated_Source\PSoC5/USBFS_hid.c **** * Summary:
ARM GAS  C:\Users\Robert\AppData\Local\Temp\ccwgAcz4.s 			page 15


 261:.\Generated_Source\PSoC5/USBFS_hid.c **** *  This routine find Hid Class Descriptor pointer based on the Interface number
 262:.\Generated_Source\PSoC5/USBFS_hid.c **** *  and Alternate setting then loads the currentTD structure with the address of
 263:.\Generated_Source\PSoC5/USBFS_hid.c **** *  the buffer and the size.
 264:.\Generated_Source\PSoC5/USBFS_hid.c **** *  The HID Class Descriptor resides inside the config descriptor.
 265:.\Generated_Source\PSoC5/USBFS_hid.c **** *
 266:.\Generated_Source\PSoC5/USBFS_hid.c **** * Parameters:
 267:.\Generated_Source\PSoC5/USBFS_hid.c **** *  None.
 268:.\Generated_Source\PSoC5/USBFS_hid.c **** *
 269:.\Generated_Source\PSoC5/USBFS_hid.c **** * Return:
 270:.\Generated_Source\PSoC5/USBFS_hid.c **** *  currentTD
 271:.\Generated_Source\PSoC5/USBFS_hid.c **** *
 272:.\Generated_Source\PSoC5/USBFS_hid.c **** * Reentrant:
 273:.\Generated_Source\PSoC5/USBFS_hid.c **** *  No.
 274:.\Generated_Source\PSoC5/USBFS_hid.c **** *
 275:.\Generated_Source\PSoC5/USBFS_hid.c **** *******************************************************************************/
 276:.\Generated_Source\PSoC5/USBFS_hid.c **** void USBFS_FindHidClassDecriptor(void) 
 277:.\Generated_Source\PSoC5/USBFS_hid.c **** {
 522              		.loc 1 277 0
 523              		.cfi_startproc
 524              		@ args = 0, pretend = 0, frame = 16
 525              		@ frame_needed = 1, uses_anonymous_args = 0
 526 0000 80B5     		push	{r7, lr}
 527              	.LCFI9:
 528              		.cfi_def_cfa_offset 8
 529              		.cfi_offset 7, -8
 530              		.cfi_offset 14, -4
 531 0002 84B0     		sub	sp, sp, #16
 532              	.LCFI10:
 533              		.cfi_def_cfa_offset 24
 534 0004 00AF     		add	r7, sp, #0
 535              	.LCFI11:
 536              		.cfi_def_cfa_register 7
 278:.\Generated_Source\PSoC5/USBFS_hid.c ****     const T_USBFS_LUT CYCODE *pTmp;
 279:.\Generated_Source\PSoC5/USBFS_hid.c ****     volatile uint8 *pDescr;
 280:.\Generated_Source\PSoC5/USBFS_hid.c ****     uint8 interfaceN;
 281:.\Generated_Source\PSoC5/USBFS_hid.c **** 
 282:.\Generated_Source\PSoC5/USBFS_hid.c ****     pTmp = USBFS_GetConfigTablePtr(USBFS_configuration - 1u);
 537              		.loc 1 282 0
 538 0006 40F20003 		movw	r3, #:lower16:USBFS_configuration
 539 000a C0F20003 		movt	r3, #:upper16:USBFS_configuration
 540 000e 1B78     		ldrb	r3, [r3, #0]
 541 0010 DBB2     		uxtb	r3, r3
 542 0012 03F1FF33 		add	r3, r3, #-1
 543 0016 DBB2     		uxtb	r3, r3
 544 0018 1846     		mov	r0, r3
 545 001a FFF7FEFF 		bl	USBFS_GetConfigTablePtr
 546 001e F860     		str	r0, [r7, #12]
 283:.\Generated_Source\PSoC5/USBFS_hid.c ****     interfaceN = CY_GET_REG8(USBFS_wIndexLo);
 547              		.loc 1 283 0
 548 0020 46F20403 		movw	r3, #24580
 549 0024 C4F20003 		movt	r3, 16384
 550 0028 1B78     		ldrb	r3, [r3, #0]
 551 002a FB72     		strb	r3, [r7, #11]
 284:.\Generated_Source\PSoC5/USBFS_hid.c ****     /* Third entry in the LUT starts the Interface Table pointers */
 285:.\Generated_Source\PSoC5/USBFS_hid.c ****     /* Now use the request interface number*/
 286:.\Generated_Source\PSoC5/USBFS_hid.c ****     pTmp = &pTmp[interfaceN + 2u];
 552              		.loc 1 286 0
ARM GAS  C:\Users\Robert\AppData\Local\Temp\ccwgAcz4.s 			page 16


 553 002c FB7A     		ldrb	r3, [r7, #11]	@ zero_extendqisi2
 554 002e 03F10203 		add	r3, r3, #2
 555 0032 4FEAC303 		lsl	r3, r3, #3
 556 0036 FA68     		ldr	r2, [r7, #12]
 557 0038 D318     		adds	r3, r2, r3
 558 003a FB60     		str	r3, [r7, #12]
 287:.\Generated_Source\PSoC5/USBFS_hid.c ****     /* USB_DEVICEx_CONFIGURATIONy_INTERFACEz_TABLE */
 288:.\Generated_Source\PSoC5/USBFS_hid.c ****     pTmp = (const T_USBFS_LUT CYCODE *) pTmp->p_list;
 559              		.loc 1 288 0
 560 003c FB68     		ldr	r3, [r7, #12]
 561 003e 5B68     		ldr	r3, [r3, #4]
 562 0040 FB60     		str	r3, [r7, #12]
 289:.\Generated_Source\PSoC5/USBFS_hid.c ****     /* Now use Alternate setting number */
 290:.\Generated_Source\PSoC5/USBFS_hid.c ****     pTmp = &pTmp[USBFS_interfaceSetting[interfaceN]];
 563              		.loc 1 290 0
 564 0042 FA7A     		ldrb	r2, [r7, #11]	@ zero_extendqisi2
 565 0044 40F20003 		movw	r3, #:lower16:USBFS_interfaceSetting
 566 0048 C0F20003 		movt	r3, #:upper16:USBFS_interfaceSetting
 567 004c 9B5C     		ldrb	r3, [r3, r2]
 568 004e DBB2     		uxtb	r3, r3
 569 0050 4FEAC303 		lsl	r3, r3, #3
 570 0054 FA68     		ldr	r2, [r7, #12]
 571 0056 D318     		adds	r3, r2, r3
 572 0058 FB60     		str	r3, [r7, #12]
 291:.\Generated_Source\PSoC5/USBFS_hid.c ****     /* USB_DEVICEx_CONFIGURATIONy_INTERFACEz_ALTERNATEi_HID_TABLE */
 292:.\Generated_Source\PSoC5/USBFS_hid.c ****     pTmp = (const T_USBFS_LUT CYCODE *) pTmp->p_list;
 573              		.loc 1 292 0
 574 005a FB68     		ldr	r3, [r7, #12]
 575 005c 5B68     		ldr	r3, [r3, #4]
 576 005e FB60     		str	r3, [r7, #12]
 293:.\Generated_Source\PSoC5/USBFS_hid.c ****     /* Fifth entry in the LUT points to Hid Class Descriptor in Configuration Descriptor */
 294:.\Generated_Source\PSoC5/USBFS_hid.c ****     pTmp = &pTmp[4u];
 577              		.loc 1 294 0
 578 0060 FB68     		ldr	r3, [r7, #12]
 579 0062 03F12003 		add	r3, r3, #32
 580 0066 FB60     		str	r3, [r7, #12]
 295:.\Generated_Source\PSoC5/USBFS_hid.c ****     pDescr = (volatile uint8 *)pTmp->p_list;
 581              		.loc 1 295 0
 582 0068 FB68     		ldr	r3, [r7, #12]
 583 006a 5B68     		ldr	r3, [r3, #4]
 584 006c 7B60     		str	r3, [r7, #4]
 296:.\Generated_Source\PSoC5/USBFS_hid.c ****     /* The first byte contains the descriptor length */
 297:.\Generated_Source\PSoC5/USBFS_hid.c ****     USBFS_currentTD.count = *pDescr;
 585              		.loc 1 297 0
 586 006e 7B68     		ldr	r3, [r7, #4]
 587 0070 1B78     		ldrb	r3, [r3, #0]
 588 0072 DBB2     		uxtb	r3, r3
 589 0074 1A46     		mov	r2, r3
 590 0076 40F20003 		movw	r3, #:lower16:USBFS_currentTD
 591 007a C0F20003 		movt	r3, #:upper16:USBFS_currentTD
 592 007e 1A80     		strh	r2, [r3, #0]	@ movhi
 298:.\Generated_Source\PSoC5/USBFS_hid.c ****     USBFS_currentTD.pData = pDescr;
 593              		.loc 1 298 0
 594 0080 40F20003 		movw	r3, #:lower16:USBFS_currentTD
 595 0084 C0F20003 		movt	r3, #:upper16:USBFS_currentTD
 596 0088 7A68     		ldr	r2, [r7, #4]
 597 008a 5A60     		str	r2, [r3, #4]
ARM GAS  C:\Users\Robert\AppData\Local\Temp\ccwgAcz4.s 			page 17


 299:.\Generated_Source\PSoC5/USBFS_hid.c **** }
 598              		.loc 1 299 0
 599 008c 07F11007 		add	r7, r7, #16
 600 0090 BD46     		mov	sp, r7
 601 0092 80BD     		pop	{r7, pc}
 602              		.cfi_endproc
 603              	.LFE3:
 604              		.size	USBFS_FindHidClassDecriptor, .-USBFS_FindHidClassDecriptor
 605              		.section	.text.USBFS_FindReportDescriptor,"ax",%progbits
 606              		.align	2
 607              		.global	USBFS_FindReportDescriptor
 608              		.thumb
 609              		.thumb_func
 610              		.type	USBFS_FindReportDescriptor, %function
 611              	USBFS_FindReportDescriptor:
 612              	.LFB4:
 300:.\Generated_Source\PSoC5/USBFS_hid.c **** 
 301:.\Generated_Source\PSoC5/USBFS_hid.c **** 
 302:.\Generated_Source\PSoC5/USBFS_hid.c **** /*******************************************************************************
 303:.\Generated_Source\PSoC5/USBFS_hid.c **** * Function Name: USB_FindReportDescriptor
 304:.\Generated_Source\PSoC5/USBFS_hid.c **** ********************************************************************************
 305:.\Generated_Source\PSoC5/USBFS_hid.c **** *
 306:.\Generated_Source\PSoC5/USBFS_hid.c **** * Summary:
 307:.\Generated_Source\PSoC5/USBFS_hid.c **** *  This routine find Hid Report Descriptor pointer based on the Interface
 308:.\Generated_Source\PSoC5/USBFS_hid.c **** *  number, then loads the currentTD structure with the address of the buffer
 309:.\Generated_Source\PSoC5/USBFS_hid.c **** *  and the size.
 310:.\Generated_Source\PSoC5/USBFS_hid.c **** *  Hid Report Descriptor is located after IN/OUT/FEATURE reports.
 311:.\Generated_Source\PSoC5/USBFS_hid.c **** *
 312:.\Generated_Source\PSoC5/USBFS_hid.c **** * Parameters:
 313:.\Generated_Source\PSoC5/USBFS_hid.c **** *   void
 314:.\Generated_Source\PSoC5/USBFS_hid.c **** *
 315:.\Generated_Source\PSoC5/USBFS_hid.c **** * Return:
 316:.\Generated_Source\PSoC5/USBFS_hid.c **** *  currentTD
 317:.\Generated_Source\PSoC5/USBFS_hid.c **** *
 318:.\Generated_Source\PSoC5/USBFS_hid.c **** * Reentrant:
 319:.\Generated_Source\PSoC5/USBFS_hid.c **** *  No.
 320:.\Generated_Source\PSoC5/USBFS_hid.c **** *
 321:.\Generated_Source\PSoC5/USBFS_hid.c **** *******************************************************************************/
 322:.\Generated_Source\PSoC5/USBFS_hid.c **** void USBFS_FindReportDescriptor(void) 
 323:.\Generated_Source\PSoC5/USBFS_hid.c **** {
 613              		.loc 1 323 0
 614              		.cfi_startproc
 615              		@ args = 0, pretend = 0, frame = 16
 616              		@ frame_needed = 1, uses_anonymous_args = 0
 617 0000 80B5     		push	{r7, lr}
 618              	.LCFI12:
 619              		.cfi_def_cfa_offset 8
 620              		.cfi_offset 7, -8
 621              		.cfi_offset 14, -4
 622 0002 84B0     		sub	sp, sp, #16
 623              	.LCFI13:
 624              		.cfi_def_cfa_offset 24
 625 0004 00AF     		add	r7, sp, #0
 626              	.LCFI14:
 627              		.cfi_def_cfa_register 7
 324:.\Generated_Source\PSoC5/USBFS_hid.c ****     const T_USBFS_LUT CYCODE *pTmp;
 325:.\Generated_Source\PSoC5/USBFS_hid.c ****     volatile uint8 *pDescr;
ARM GAS  C:\Users\Robert\AppData\Local\Temp\ccwgAcz4.s 			page 18


 326:.\Generated_Source\PSoC5/USBFS_hid.c ****     uint8 interfaceN;
 327:.\Generated_Source\PSoC5/USBFS_hid.c **** 
 328:.\Generated_Source\PSoC5/USBFS_hid.c ****     pTmp = USBFS_GetConfigTablePtr(USBFS_configuration - 1u);
 628              		.loc 1 328 0
 629 0006 40F20003 		movw	r3, #:lower16:USBFS_configuration
 630 000a C0F20003 		movt	r3, #:upper16:USBFS_configuration
 631 000e 1B78     		ldrb	r3, [r3, #0]
 632 0010 DBB2     		uxtb	r3, r3
 633 0012 03F1FF33 		add	r3, r3, #-1
 634 0016 DBB2     		uxtb	r3, r3
 635 0018 1846     		mov	r0, r3
 636 001a FFF7FEFF 		bl	USBFS_GetConfigTablePtr
 637 001e F860     		str	r0, [r7, #12]
 329:.\Generated_Source\PSoC5/USBFS_hid.c ****     interfaceN = CY_GET_REG8(USBFS_wIndexLo);
 638              		.loc 1 329 0
 639 0020 46F20403 		movw	r3, #24580
 640 0024 C4F20003 		movt	r3, 16384
 641 0028 1B78     		ldrb	r3, [r3, #0]
 642 002a FB72     		strb	r3, [r7, #11]
 330:.\Generated_Source\PSoC5/USBFS_hid.c ****     /* Third entry in the LUT starts the Interface Table pointers */
 331:.\Generated_Source\PSoC5/USBFS_hid.c ****     /* Now use the request interface number */
 332:.\Generated_Source\PSoC5/USBFS_hid.c ****     pTmp = &pTmp[interfaceN + 2u];
 643              		.loc 1 332 0
 644 002c FB7A     		ldrb	r3, [r7, #11]	@ zero_extendqisi2
 645 002e 03F10203 		add	r3, r3, #2
 646 0032 4FEAC303 		lsl	r3, r3, #3
 647 0036 FA68     		ldr	r2, [r7, #12]
 648 0038 D318     		adds	r3, r2, r3
 649 003a FB60     		str	r3, [r7, #12]
 333:.\Generated_Source\PSoC5/USBFS_hid.c ****     /* USB_DEVICEx_CONFIGURATIONy_INTERFACEz_TABLE */
 334:.\Generated_Source\PSoC5/USBFS_hid.c ****     pTmp = (const T_USBFS_LUT CYCODE *) pTmp->p_list;
 650              		.loc 1 334 0
 651 003c FB68     		ldr	r3, [r7, #12]
 652 003e 5B68     		ldr	r3, [r3, #4]
 653 0040 FB60     		str	r3, [r7, #12]
 335:.\Generated_Source\PSoC5/USBFS_hid.c ****     /* Now use Alternate setting number */
 336:.\Generated_Source\PSoC5/USBFS_hid.c ****     pTmp = &pTmp[USBFS_interfaceSetting[interfaceN]];
 654              		.loc 1 336 0
 655 0042 FA7A     		ldrb	r2, [r7, #11]	@ zero_extendqisi2
 656 0044 40F20003 		movw	r3, #:lower16:USBFS_interfaceSetting
 657 0048 C0F20003 		movt	r3, #:upper16:USBFS_interfaceSetting
 658 004c 9B5C     		ldrb	r3, [r3, r2]
 659 004e DBB2     		uxtb	r3, r3
 660 0050 4FEAC303 		lsl	r3, r3, #3
 661 0054 FA68     		ldr	r2, [r7, #12]
 662 0056 D318     		adds	r3, r2, r3
 663 0058 FB60     		str	r3, [r7, #12]
 337:.\Generated_Source\PSoC5/USBFS_hid.c ****     /* USB_DEVICEx_CONFIGURATIONy_INTERFACEz_ALTERNATEi_HID_TABLE */
 338:.\Generated_Source\PSoC5/USBFS_hid.c ****     pTmp = (const T_USBFS_LUT CYCODE *) pTmp->p_list;
 664              		.loc 1 338 0
 665 005a FB68     		ldr	r3, [r7, #12]
 666 005c 5B68     		ldr	r3, [r3, #4]
 667 005e FB60     		str	r3, [r7, #12]
 339:.\Generated_Source\PSoC5/USBFS_hid.c ****     /* Fourth entry in the LUT starts the Hid Report Descriptor */
 340:.\Generated_Source\PSoC5/USBFS_hid.c ****     pTmp = &pTmp[3u];
 668              		.loc 1 340 0
 669 0060 FB68     		ldr	r3, [r7, #12]
ARM GAS  C:\Users\Robert\AppData\Local\Temp\ccwgAcz4.s 			page 19


 670 0062 03F11803 		add	r3, r3, #24
 671 0066 FB60     		str	r3, [r7, #12]
 341:.\Generated_Source\PSoC5/USBFS_hid.c ****     pDescr = (volatile uint8 *)pTmp->p_list;
 672              		.loc 1 341 0
 673 0068 FB68     		ldr	r3, [r7, #12]
 674 006a 5B68     		ldr	r3, [r3, #4]
 675 006c 7B60     		str	r3, [r7, #4]
 342:.\Generated_Source\PSoC5/USBFS_hid.c ****     /* The 1st and 2nd bytes of descriptor contain its length. LSB is 1st. */
 343:.\Generated_Source\PSoC5/USBFS_hid.c ****     USBFS_currentTD.count =  (((uint16)pDescr[1u] << 8u) | pDescr[0u]);
 676              		.loc 1 343 0
 677 006e 7B68     		ldr	r3, [r7, #4]
 678 0070 03F10103 		add	r3, r3, #1
 679 0074 1B78     		ldrb	r3, [r3, #0]
 680 0076 DBB2     		uxtb	r3, r3
 681 0078 4FEA0323 		lsl	r3, r3, #8
 682 007c 9AB2     		uxth	r2, r3
 683 007e 7B68     		ldr	r3, [r7, #4]
 684 0080 1B78     		ldrb	r3, [r3, #0]
 685 0082 DBB2     		uxtb	r3, r3
 686 0084 1343     		orrs	r3, r3, r2
 687 0086 9BB2     		uxth	r3, r3
 688 0088 9AB2     		uxth	r2, r3
 689 008a 40F20003 		movw	r3, #:lower16:USBFS_currentTD
 690 008e C0F20003 		movt	r3, #:upper16:USBFS_currentTD
 691 0092 1A80     		strh	r2, [r3, #0]	@ movhi
 344:.\Generated_Source\PSoC5/USBFS_hid.c ****     USBFS_currentTD.pData = &pDescr[2u];
 692              		.loc 1 344 0
 693 0094 7B68     		ldr	r3, [r7, #4]
 694 0096 03F10202 		add	r2, r3, #2
 695 009a 40F20003 		movw	r3, #:lower16:USBFS_currentTD
 696 009e C0F20003 		movt	r3, #:upper16:USBFS_currentTD
 697 00a2 5A60     		str	r2, [r3, #4]
 345:.\Generated_Source\PSoC5/USBFS_hid.c **** }
 698              		.loc 1 345 0
 699 00a4 07F11007 		add	r7, r7, #16
 700 00a8 BD46     		mov	sp, r7
 701 00aa 80BD     		pop	{r7, pc}
 702              		.cfi_endproc
 703              	.LFE4:
 704              		.size	USBFS_FindReportDescriptor, .-USBFS_FindReportDescriptor
 705              		.section	.text.USBFS_FindReport,"ax",%progbits
 706              		.align	2
 707              		.global	USBFS_FindReport
 708              		.thumb
 709              		.thumb_func
 710              		.type	USBFS_FindReport, %function
 711              	USBFS_FindReport:
 712              	.LFB5:
 346:.\Generated_Source\PSoC5/USBFS_hid.c **** 
 347:.\Generated_Source\PSoC5/USBFS_hid.c **** 
 348:.\Generated_Source\PSoC5/USBFS_hid.c **** /*******************************************************************************
 349:.\Generated_Source\PSoC5/USBFS_hid.c **** * Function Name: USBFS_FindReport
 350:.\Generated_Source\PSoC5/USBFS_hid.c **** ********************************************************************************
 351:.\Generated_Source\PSoC5/USBFS_hid.c **** *
 352:.\Generated_Source\PSoC5/USBFS_hid.c **** * Summary:
 353:.\Generated_Source\PSoC5/USBFS_hid.c **** *  This routine sets up a transfer based on the Interface number, Report Type
 354:.\Generated_Source\PSoC5/USBFS_hid.c **** *  and Report ID, then loads the currentTD structure with the address of the
ARM GAS  C:\Users\Robert\AppData\Local\Temp\ccwgAcz4.s 			page 20


 355:.\Generated_Source\PSoC5/USBFS_hid.c **** *  buffer and the size.  The caller has to decide if it is a control read or
 356:.\Generated_Source\PSoC5/USBFS_hid.c **** *  control write.
 357:.\Generated_Source\PSoC5/USBFS_hid.c **** *
 358:.\Generated_Source\PSoC5/USBFS_hid.c **** * Parameters:
 359:.\Generated_Source\PSoC5/USBFS_hid.c **** *  None.
 360:.\Generated_Source\PSoC5/USBFS_hid.c **** *
 361:.\Generated_Source\PSoC5/USBFS_hid.c **** * Return:
 362:.\Generated_Source\PSoC5/USBFS_hid.c **** *  currentTD
 363:.\Generated_Source\PSoC5/USBFS_hid.c **** *
 364:.\Generated_Source\PSoC5/USBFS_hid.c **** * Reentrant:
 365:.\Generated_Source\PSoC5/USBFS_hid.c **** *  No.
 366:.\Generated_Source\PSoC5/USBFS_hid.c **** *
 367:.\Generated_Source\PSoC5/USBFS_hid.c **** *******************************************************************************/
 368:.\Generated_Source\PSoC5/USBFS_hid.c **** void USBFS_FindReport(void) 
 369:.\Generated_Source\PSoC5/USBFS_hid.c **** {
 713              		.loc 1 369 0
 714              		.cfi_startproc
 715              		@ args = 0, pretend = 0, frame = 16
 716              		@ frame_needed = 1, uses_anonymous_args = 0
 717 0000 80B5     		push	{r7, lr}
 718              	.LCFI15:
 719              		.cfi_def_cfa_offset 8
 720              		.cfi_offset 7, -8
 721              		.cfi_offset 14, -4
 722 0002 84B0     		sub	sp, sp, #16
 723              	.LCFI16:
 724              		.cfi_def_cfa_offset 24
 725 0004 00AF     		add	r7, sp, #0
 726              	.LCFI17:
 727              		.cfi_def_cfa_register 7
 370:.\Generated_Source\PSoC5/USBFS_hid.c ****     const T_USBFS_LUT CYCODE *pTmp;
 371:.\Generated_Source\PSoC5/USBFS_hid.c ****     T_USBFS_TD *pTD;
 372:.\Generated_Source\PSoC5/USBFS_hid.c ****     uint8 interfaceN;
 373:.\Generated_Source\PSoC5/USBFS_hid.c ****     uint8 reportType;
 374:.\Generated_Source\PSoC5/USBFS_hid.c **** 
 375:.\Generated_Source\PSoC5/USBFS_hid.c ****     /* `#START HID_FINDREPORT` Place custom handling here */
 376:.\Generated_Source\PSoC5/USBFS_hid.c **** 
 377:.\Generated_Source\PSoC5/USBFS_hid.c ****     /* `#END` */
 378:.\Generated_Source\PSoC5/USBFS_hid.c ****     USBFS_currentTD.count = 0u;   /* Init not supported condition */
 728              		.loc 1 378 0
 729 0006 40F20003 		movw	r3, #:lower16:USBFS_currentTD
 730 000a C0F20003 		movt	r3, #:upper16:USBFS_currentTD
 731 000e 4FF00002 		mov	r2, #0
 732 0012 1A80     		strh	r2, [r3, #0]	@ movhi
 379:.\Generated_Source\PSoC5/USBFS_hid.c ****     pTmp = USBFS_GetConfigTablePtr(USBFS_configuration - 1u);
 733              		.loc 1 379 0
 734 0014 40F20003 		movw	r3, #:lower16:USBFS_configuration
 735 0018 C0F20003 		movt	r3, #:upper16:USBFS_configuration
 736 001c 1B78     		ldrb	r3, [r3, #0]
 737 001e DBB2     		uxtb	r3, r3
 738 0020 03F1FF33 		add	r3, r3, #-1
 739 0024 DBB2     		uxtb	r3, r3
 740 0026 1846     		mov	r0, r3
 741 0028 FFF7FEFF 		bl	USBFS_GetConfigTablePtr
 742 002c F860     		str	r0, [r7, #12]
 380:.\Generated_Source\PSoC5/USBFS_hid.c ****     reportType = CY_GET_REG8(USBFS_wValueHi);
 743              		.loc 1 380 0
ARM GAS  C:\Users\Robert\AppData\Local\Temp\ccwgAcz4.s 			page 21


 744 002e 46F20303 		movw	r3, #24579
 745 0032 C4F20003 		movt	r3, 16384
 746 0036 1B78     		ldrb	r3, [r3, #0]
 747 0038 FB72     		strb	r3, [r7, #11]
 381:.\Generated_Source\PSoC5/USBFS_hid.c ****     interfaceN = CY_GET_REG8(USBFS_wIndexLo);
 748              		.loc 1 381 0
 749 003a 46F20403 		movw	r3, #24580
 750 003e C4F20003 		movt	r3, 16384
 751 0042 1B78     		ldrb	r3, [r3, #0]
 752 0044 BB72     		strb	r3, [r7, #10]
 382:.\Generated_Source\PSoC5/USBFS_hid.c ****     /* Third entry in the LUT COnfiguration Table starts the Interface Table pointers */
 383:.\Generated_Source\PSoC5/USBFS_hid.c ****     /* Now use the request interface number */
 384:.\Generated_Source\PSoC5/USBFS_hid.c ****     pTmp = &pTmp[interfaceN + 2u];
 753              		.loc 1 384 0
 754 0046 BB7A     		ldrb	r3, [r7, #10]	@ zero_extendqisi2
 755 0048 03F10203 		add	r3, r3, #2
 756 004c 4FEAC303 		lsl	r3, r3, #3
 757 0050 FA68     		ldr	r2, [r7, #12]
 758 0052 D318     		adds	r3, r2, r3
 759 0054 FB60     		str	r3, [r7, #12]
 385:.\Generated_Source\PSoC5/USBFS_hid.c ****     /* USB_DEVICEx_CONFIGURATIONy_INTERFACEz_TABLE*/
 386:.\Generated_Source\PSoC5/USBFS_hid.c ****     pTmp = (const T_USBFS_LUT CYCODE *) pTmp->p_list;
 760              		.loc 1 386 0
 761 0056 FB68     		ldr	r3, [r7, #12]
 762 0058 5B68     		ldr	r3, [r3, #4]
 763 005a FB60     		str	r3, [r7, #12]
 387:.\Generated_Source\PSoC5/USBFS_hid.c ****     if(interfaceN < USBFS_MAX_INTERFACES_NUMBER)
 764              		.loc 1 387 0
 765 005c BB7A     		ldrb	r3, [r7, #10]	@ zero_extendqisi2
 766 005e 002B     		cmp	r3, #0
 767 0060 49D1     		bne	.L45
 388:.\Generated_Source\PSoC5/USBFS_hid.c ****     {
 389:.\Generated_Source\PSoC5/USBFS_hid.c ****         /* Now use Alternate setting number */
 390:.\Generated_Source\PSoC5/USBFS_hid.c ****         pTmp = &pTmp[USBFS_interfaceSetting[interfaceN]];
 768              		.loc 1 390 0
 769 0062 BA7A     		ldrb	r2, [r7, #10]	@ zero_extendqisi2
 770 0064 40F20003 		movw	r3, #:lower16:USBFS_interfaceSetting
 771 0068 C0F20003 		movt	r3, #:upper16:USBFS_interfaceSetting
 772 006c 9B5C     		ldrb	r3, [r3, r2]
 773 006e DBB2     		uxtb	r3, r3
 774 0070 4FEAC303 		lsl	r3, r3, #3
 775 0074 FA68     		ldr	r2, [r7, #12]
 776 0076 D318     		adds	r3, r2, r3
 777 0078 FB60     		str	r3, [r7, #12]
 391:.\Generated_Source\PSoC5/USBFS_hid.c ****         /* USB_DEVICEx_CONFIGURATIONy_INTERFACEz_ALTERNATEi_HID_TABLE */
 392:.\Generated_Source\PSoC5/USBFS_hid.c ****         pTmp = (const T_USBFS_LUT CYCODE *) pTmp->p_list;
 778              		.loc 1 392 0
 779 007a FB68     		ldr	r3, [r7, #12]
 780 007c 5B68     		ldr	r3, [r3, #4]
 781 007e FB60     		str	r3, [r7, #12]
 393:.\Generated_Source\PSoC5/USBFS_hid.c ****         /* Validate reportType to comply with "7.2.1 Get_Report Request" */
 394:.\Generated_Source\PSoC5/USBFS_hid.c ****         if((reportType >= USBFS_HID_GET_REPORT_INPUT) &&
 782              		.loc 1 394 0
 783 0080 FB7A     		ldrb	r3, [r7, #11]	@ zero_extendqisi2
 784 0082 002B     		cmp	r3, #0
 785 0084 37D0     		beq	.L45
 786              		.loc 1 394 0 is_stmt 0 discriminator 1
ARM GAS  C:\Users\Robert\AppData\Local\Temp\ccwgAcz4.s 			page 22


 787 0086 FB7A     		ldrb	r3, [r7, #11]	@ zero_extendqisi2
 788 0088 032B     		cmp	r3, #3
 789 008a 34D8     		bhi	.L45
 395:.\Generated_Source\PSoC5/USBFS_hid.c ****            (reportType <= USBFS_HID_GET_REPORT_FEATURE))
 396:.\Generated_Source\PSoC5/USBFS_hid.c ****         {
 397:.\Generated_Source\PSoC5/USBFS_hid.c ****             /* Get the entry proper TD (IN, OUT or Feature Report Table)*/
 398:.\Generated_Source\PSoC5/USBFS_hid.c ****             pTmp = &pTmp[reportType - 1u];
 790              		.loc 1 398 0 is_stmt 1
 791 008c FB7A     		ldrb	r3, [r7, #11]	@ zero_extendqisi2
 792 008e 03F1FF33 		add	r3, r3, #-1
 793 0092 4FEAC303 		lsl	r3, r3, #3
 794 0096 FA68     		ldr	r2, [r7, #12]
 795 0098 D318     		adds	r3, r2, r3
 796 009a FB60     		str	r3, [r7, #12]
 399:.\Generated_Source\PSoC5/USBFS_hid.c ****             reportType = CY_GET_REG8(USBFS_wValueLo);    /* Get reportID */
 797              		.loc 1 399 0
 798 009c 46F20203 		movw	r3, #24578
 799 00a0 C4F20003 		movt	r3, 16384
 800 00a4 1B78     		ldrb	r3, [r3, #0]
 801 00a6 FB72     		strb	r3, [r7, #11]
 400:.\Generated_Source\PSoC5/USBFS_hid.c ****             /* Validate table support by the HID descriptor, compare table count with reportID */
 401:.\Generated_Source\PSoC5/USBFS_hid.c ****             if(pTmp->c >= reportType)
 802              		.loc 1 401 0
 803 00a8 FB68     		ldr	r3, [r7, #12]
 804 00aa 1B78     		ldrb	r3, [r3, #0]	@ zero_extendqisi2
 805 00ac FA7A     		ldrb	r2, [r7, #11]	@ zero_extendqisi2
 806 00ae 9A42     		cmp	r2, r3
 807 00b0 21D8     		bhi	.L45
 402:.\Generated_Source\PSoC5/USBFS_hid.c ****             {
 403:.\Generated_Source\PSoC5/USBFS_hid.c ****                 pTD = (T_USBFS_TD *) pTmp->p_list;
 808              		.loc 1 403 0
 809 00b2 FB68     		ldr	r3, [r7, #12]
 810 00b4 5B68     		ldr	r3, [r3, #4]
 811 00b6 7B60     		str	r3, [r7, #4]
 404:.\Generated_Source\PSoC5/USBFS_hid.c ****                 pTD = &pTD[reportType];                          /* select entry depend on report I
 812              		.loc 1 404 0
 813 00b8 FA7A     		ldrb	r2, [r7, #11]	@ zero_extendqisi2
 814 00ba 1346     		mov	r3, r2
 815 00bc 4FEA4303 		lsl	r3, r3, #1
 816 00c0 9B18     		adds	r3, r3, r2
 817 00c2 4FEA8303 		lsl	r3, r3, #2
 818 00c6 7A68     		ldr	r2, [r7, #4]
 819 00c8 D318     		adds	r3, r2, r3
 820 00ca 7B60     		str	r3, [r7, #4]
 405:.\Generated_Source\PSoC5/USBFS_hid.c ****                 USBFS_currentTD.pData = pTD->pData;   /* Buffer pointer */
 821              		.loc 1 405 0
 822 00cc 7B68     		ldr	r3, [r7, #4]
 823 00ce 5A68     		ldr	r2, [r3, #4]
 824 00d0 40F20003 		movw	r3, #:lower16:USBFS_currentTD
 825 00d4 C0F20003 		movt	r3, #:upper16:USBFS_currentTD
 826 00d8 5A60     		str	r2, [r3, #4]
 406:.\Generated_Source\PSoC5/USBFS_hid.c ****                 USBFS_currentTD.count = pTD->count;   /* Buffer Size */
 827              		.loc 1 406 0
 828 00da 7B68     		ldr	r3, [r7, #4]
 829 00dc 1A88     		ldrh	r2, [r3, #0]
 830 00de 40F20003 		movw	r3, #:lower16:USBFS_currentTD
 831 00e2 C0F20003 		movt	r3, #:upper16:USBFS_currentTD
ARM GAS  C:\Users\Robert\AppData\Local\Temp\ccwgAcz4.s 			page 23


 832 00e6 1A80     		strh	r2, [r3, #0]	@ movhi
 407:.\Generated_Source\PSoC5/USBFS_hid.c ****                 USBFS_currentTD.pStatusBlock = pTD->pStatusBlock;
 833              		.loc 1 407 0
 834 00e8 7B68     		ldr	r3, [r7, #4]
 835 00ea 9A68     		ldr	r2, [r3, #8]
 836 00ec 40F20003 		movw	r3, #:lower16:USBFS_currentTD
 837 00f0 C0F20003 		movt	r3, #:upper16:USBFS_currentTD
 838 00f4 9A60     		str	r2, [r3, #8]
 839              	.L45:
 408:.\Generated_Source\PSoC5/USBFS_hid.c ****             }
 409:.\Generated_Source\PSoC5/USBFS_hid.c ****         }
 410:.\Generated_Source\PSoC5/USBFS_hid.c ****     }
 411:.\Generated_Source\PSoC5/USBFS_hid.c **** }
 840              		.loc 1 411 0
 841 00f6 07F11007 		add	r7, r7, #16
 842 00fa BD46     		mov	sp, r7
 843 00fc 80BD     		pop	{r7, pc}
 844              		.cfi_endproc
 845              	.LFE5:
 846              		.size	USBFS_FindReport, .-USBFS_FindReport
 847 00fe 00BF     		.text
 848              	.Letext0:
 849              		.file 2 ".\\Generated_Source\\PSoC5\\cytypes.h"
 850              		.file 3 ".\\Generated_Source\\PSoC5\\USBFS.h"
 851              		.file 4 ".\\Generated_Source\\PSoC5\\USBFS_pvt.h"