ARM GAS  C:\Users\Robert\AppData\Local\Temp\ccwQZ7yJ.s 			page 1


   1              		.syntax unified
   2              		.cpu cortex-m3
   3              		.fpu softvfp
   4              		.eabi_attribute 20, 1
   5              		.eabi_attribute 21, 1
   6              		.eabi_attribute 23, 3
   7              		.eabi_attribute 24, 1
   8              		.eabi_attribute 25, 1
   9              		.eabi_attribute 26, 1
  10              		.eabi_attribute 30, 6
  11              		.eabi_attribute 34, 1
  12              		.eabi_attribute 18, 4
  13              		.thumb
  14              		.file	"PWM_1_PM.c"
  15              		.text
  16              	.Ltext0:
  17              		.cfi_sections	.debug_frame
  18              		.bss
  19              		.align	2
  20              	PWM_1_backup:
  21 0000 00000000 		.space	5
  21      00
  22 0005 000000   		.section	.text.PWM_1_SaveConfig,"ax",%progbits
  23              		.align	2
  24              		.global	PWM_1_SaveConfig
  25              		.thumb
  26              		.thumb_func
  27              		.type	PWM_1_SaveConfig, %function
  28              	PWM_1_SaveConfig:
  29              	.LFB0:
  30              		.file 1 ".\\Generated_Source\\PSoC5\\PWM_1_PM.c"
   1:.\Generated_Source\PSoC5/PWM_1_PM.c **** /*******************************************************************************
   2:.\Generated_Source\PSoC5/PWM_1_PM.c **** * File Name: PWM_1_PM.c
   3:.\Generated_Source\PSoC5/PWM_1_PM.c **** * Version 3.0
   4:.\Generated_Source\PSoC5/PWM_1_PM.c **** *
   5:.\Generated_Source\PSoC5/PWM_1_PM.c **** * Description:
   6:.\Generated_Source\PSoC5/PWM_1_PM.c **** *  This file provides the power management source code to API for the
   7:.\Generated_Source\PSoC5/PWM_1_PM.c **** *  PWM.
   8:.\Generated_Source\PSoC5/PWM_1_PM.c **** *
   9:.\Generated_Source\PSoC5/PWM_1_PM.c **** * Note:
  10:.\Generated_Source\PSoC5/PWM_1_PM.c **** *
  11:.\Generated_Source\PSoC5/PWM_1_PM.c **** ********************************************************************************
  12:.\Generated_Source\PSoC5/PWM_1_PM.c **** * Copyright 2008-2012, Cypress Semiconductor Corporation.  All rights reserved.
  13:.\Generated_Source\PSoC5/PWM_1_PM.c **** * You may use this file only in accordance with the license, terms, conditions,
  14:.\Generated_Source\PSoC5/PWM_1_PM.c **** * disclaimers, and limitations in the end user license agreement accompanying
  15:.\Generated_Source\PSoC5/PWM_1_PM.c **** * the software package with which this file was provided.
  16:.\Generated_Source\PSoC5/PWM_1_PM.c **** *******************************************************************************/
  17:.\Generated_Source\PSoC5/PWM_1_PM.c **** #include "cytypes.h"
  18:.\Generated_Source\PSoC5/PWM_1_PM.c **** #include "PWM_1.h"
  19:.\Generated_Source\PSoC5/PWM_1_PM.c **** 
  20:.\Generated_Source\PSoC5/PWM_1_PM.c **** static PWM_1_backupStruct PWM_1_backup;
  21:.\Generated_Source\PSoC5/PWM_1_PM.c **** 
  22:.\Generated_Source\PSoC5/PWM_1_PM.c **** 
  23:.\Generated_Source\PSoC5/PWM_1_PM.c **** /*******************************************************************************
  24:.\Generated_Source\PSoC5/PWM_1_PM.c **** * Function Name: PWM_1_SaveConfig
  25:.\Generated_Source\PSoC5/PWM_1_PM.c **** ********************************************************************************
  26:.\Generated_Source\PSoC5/PWM_1_PM.c **** *
ARM GAS  C:\Users\Robert\AppData\Local\Temp\ccwQZ7yJ.s 			page 2


  27:.\Generated_Source\PSoC5/PWM_1_PM.c **** * Summary:
  28:.\Generated_Source\PSoC5/PWM_1_PM.c **** *  Saves the current user configuration of the component.
  29:.\Generated_Source\PSoC5/PWM_1_PM.c **** *  
  30:.\Generated_Source\PSoC5/PWM_1_PM.c **** * Parameters:  
  31:.\Generated_Source\PSoC5/PWM_1_PM.c **** *  None
  32:.\Generated_Source\PSoC5/PWM_1_PM.c **** *
  33:.\Generated_Source\PSoC5/PWM_1_PM.c **** * Return: 
  34:.\Generated_Source\PSoC5/PWM_1_PM.c **** *  None
  35:.\Generated_Source\PSoC5/PWM_1_PM.c **** *
  36:.\Generated_Source\PSoC5/PWM_1_PM.c **** * Global variables:
  37:.\Generated_Source\PSoC5/PWM_1_PM.c **** *  PWM_1_backup:  Variables of this global structure are modified to 
  38:.\Generated_Source\PSoC5/PWM_1_PM.c **** *  store the values of non retention configuration registers when Sleep() API is 
  39:.\Generated_Source\PSoC5/PWM_1_PM.c **** *  called.
  40:.\Generated_Source\PSoC5/PWM_1_PM.c **** *
  41:.\Generated_Source\PSoC5/PWM_1_PM.c **** *******************************************************************************/
  42:.\Generated_Source\PSoC5/PWM_1_PM.c **** void PWM_1_SaveConfig(void) 
  43:.\Generated_Source\PSoC5/PWM_1_PM.c **** {
  31              		.loc 1 43 0
  32              		.cfi_startproc
  33              		@ args = 0, pretend = 0, frame = 0
  34              		@ frame_needed = 1, uses_anonymous_args = 0
  35 0000 80B5     		push	{r7, lr}
  36              	.LCFI0:
  37              		.cfi_def_cfa_offset 8
  38              		.cfi_offset 7, -8
  39              		.cfi_offset 14, -4
  40 0002 00AF     		add	r7, sp, #0
  41              	.LCFI1:
  42              		.cfi_def_cfa_register 7
  44:.\Generated_Source\PSoC5/PWM_1_PM.c ****     
  45:.\Generated_Source\PSoC5/PWM_1_PM.c ****     #if(!PWM_1_UsingFixedFunction)
  46:.\Generated_Source\PSoC5/PWM_1_PM.c ****         #if(!PWM_1_PWMModeIsCenterAligned)
  47:.\Generated_Source\PSoC5/PWM_1_PM.c ****             PWM_1_backup.PWMPeriod = PWM_1_ReadPeriod();
  43              		.loc 1 47 0
  44 0004 FFF7FEFF 		bl	PWM_1_ReadPeriod
  45 0008 0346     		mov	r3, r0
  46 000a 1A46     		mov	r2, r3
  47 000c 40F20003 		movw	r3, #:lower16:PWM_1_backup
  48 0010 C0F20003 		movt	r3, #:upper16:PWM_1_backup
  49 0014 9A70     		strb	r2, [r3, #2]
  48:.\Generated_Source\PSoC5/PWM_1_PM.c ****         #endif /* (!PWM_1_PWMModeIsCenterAligned) */
  49:.\Generated_Source\PSoC5/PWM_1_PM.c ****         PWM_1_backup.PWMUdb = PWM_1_ReadCounter();
  50              		.loc 1 49 0
  51 0016 FFF7FEFF 		bl	PWM_1_ReadCounter
  52 001a 0346     		mov	r3, r0
  53 001c 1A46     		mov	r2, r3
  54 001e 40F20003 		movw	r3, #:lower16:PWM_1_backup
  55 0022 C0F20003 		movt	r3, #:upper16:PWM_1_backup
  56 0026 5A70     		strb	r2, [r3, #1]
  50:.\Generated_Source\PSoC5/PWM_1_PM.c ****         #if (PWM_1_UseStatus)
  51:.\Generated_Source\PSoC5/PWM_1_PM.c ****             PWM_1_backup.InterruptMaskValue = PWM_1_STATUS_MASK;
  57              		.loc 1 51 0
  58 0028 46F28553 		movw	r3, #25989
  59 002c C4F20003 		movt	r3, 16384
  60 0030 1B78     		ldrb	r3, [r3, #0]
  61 0032 DAB2     		uxtb	r2, r3
  62 0034 40F20003 		movw	r3, #:lower16:PWM_1_backup
ARM GAS  C:\Users\Robert\AppData\Local\Temp\ccwQZ7yJ.s 			page 3


  63 0038 C0F20003 		movt	r3, #:upper16:PWM_1_backup
  64 003c DA70     		strb	r2, [r3, #3]
  52:.\Generated_Source\PSoC5/PWM_1_PM.c ****         #endif /* (PWM_1_UseStatus) */
  53:.\Generated_Source\PSoC5/PWM_1_PM.c ****         
  54:.\Generated_Source\PSoC5/PWM_1_PM.c ****         #if(PWM_1_DeadBandMode == PWM_1__B_PWM__DBM_256_CLOCKS || \
  55:.\Generated_Source\PSoC5/PWM_1_PM.c ****             PWM_1_DeadBandMode == PWM_1__B_PWM__DBM_2_4_CLOCKS)
  56:.\Generated_Source\PSoC5/PWM_1_PM.c ****             PWM_1_backup.PWMdeadBandValue = PWM_1_ReadDeadTime();
  57:.\Generated_Source\PSoC5/PWM_1_PM.c ****         #endif /*  deadband count is either 2-4 clocks or 256 clocks */
  58:.\Generated_Source\PSoC5/PWM_1_PM.c ****         
  59:.\Generated_Source\PSoC5/PWM_1_PM.c ****         #if(PWM_1_KillModeMinTime)
  60:.\Generated_Source\PSoC5/PWM_1_PM.c ****              PWM_1_backup.PWMKillCounterPeriod = PWM_1_ReadKillTime();
  61:.\Generated_Source\PSoC5/PWM_1_PM.c ****         #endif /* (PWM_1_KillModeMinTime) */
  62:.\Generated_Source\PSoC5/PWM_1_PM.c ****         
  63:.\Generated_Source\PSoC5/PWM_1_PM.c ****         #if(PWM_1_UseControl)
  64:.\Generated_Source\PSoC5/PWM_1_PM.c ****             PWM_1_backup.PWMControlRegister = PWM_1_ReadControlRegister();
  65              		.loc 1 64 0
  66 003e FFF7FEFF 		bl	PWM_1_ReadControlRegister
  67 0042 0346     		mov	r3, r0
  68 0044 1A46     		mov	r2, r3
  69 0046 40F20003 		movw	r3, #:lower16:PWM_1_backup
  70 004a C0F20003 		movt	r3, #:upper16:PWM_1_backup
  71 004e 1A71     		strb	r2, [r3, #4]
  65:.\Generated_Source\PSoC5/PWM_1_PM.c ****         #endif /* (PWM_1_UseControl) */
  66:.\Generated_Source\PSoC5/PWM_1_PM.c ****     #endif  /* (!PWM_1_UsingFixedFunction) */
  67:.\Generated_Source\PSoC5/PWM_1_PM.c **** }
  72              		.loc 1 67 0
  73 0050 80BD     		pop	{r7, pc}
  74              		.cfi_endproc
  75              	.LFE0:
  76              		.size	PWM_1_SaveConfig, .-PWM_1_SaveConfig
  77 0052 00BF     		.section	.text.PWM_1_RestoreConfig,"ax",%progbits
  78              		.align	2
  79              		.global	PWM_1_RestoreConfig
  80              		.thumb
  81              		.thumb_func
  82              		.type	PWM_1_RestoreConfig, %function
  83              	PWM_1_RestoreConfig:
  84              	.LFB1:
  68:.\Generated_Source\PSoC5/PWM_1_PM.c **** 
  69:.\Generated_Source\PSoC5/PWM_1_PM.c **** 
  70:.\Generated_Source\PSoC5/PWM_1_PM.c **** /*******************************************************************************
  71:.\Generated_Source\PSoC5/PWM_1_PM.c **** * Function Name: PWM_1_RestoreConfig
  72:.\Generated_Source\PSoC5/PWM_1_PM.c **** ********************************************************************************
  73:.\Generated_Source\PSoC5/PWM_1_PM.c **** * 
  74:.\Generated_Source\PSoC5/PWM_1_PM.c **** * Summary:
  75:.\Generated_Source\PSoC5/PWM_1_PM.c **** *  Restores the current user configuration of the component.
  76:.\Generated_Source\PSoC5/PWM_1_PM.c **** *
  77:.\Generated_Source\PSoC5/PWM_1_PM.c **** * Parameters:  
  78:.\Generated_Source\PSoC5/PWM_1_PM.c **** *  None
  79:.\Generated_Source\PSoC5/PWM_1_PM.c **** *
  80:.\Generated_Source\PSoC5/PWM_1_PM.c **** * Return: 
  81:.\Generated_Source\PSoC5/PWM_1_PM.c **** *  None
  82:.\Generated_Source\PSoC5/PWM_1_PM.c **** *
  83:.\Generated_Source\PSoC5/PWM_1_PM.c **** * Global variables:
  84:.\Generated_Source\PSoC5/PWM_1_PM.c **** *  PWM_1_backup:  Variables of this global structure are used to  
  85:.\Generated_Source\PSoC5/PWM_1_PM.c **** *  restore the values of non retention registers on wakeup from sleep mode.
  86:.\Generated_Source\PSoC5/PWM_1_PM.c **** *
ARM GAS  C:\Users\Robert\AppData\Local\Temp\ccwQZ7yJ.s 			page 4


  87:.\Generated_Source\PSoC5/PWM_1_PM.c **** *******************************************************************************/
  88:.\Generated_Source\PSoC5/PWM_1_PM.c **** void PWM_1_RestoreConfig(void) 
  89:.\Generated_Source\PSoC5/PWM_1_PM.c **** {
  85              		.loc 1 89 0
  86              		.cfi_startproc
  87              		@ args = 0, pretend = 0, frame = 0
  88              		@ frame_needed = 1, uses_anonymous_args = 0
  89 0000 80B5     		push	{r7, lr}
  90              	.LCFI2:
  91              		.cfi_def_cfa_offset 8
  92              		.cfi_offset 7, -8
  93              		.cfi_offset 14, -4
  94 0002 00AF     		add	r7, sp, #0
  95              	.LCFI3:
  96              		.cfi_def_cfa_register 7
  90:.\Generated_Source\PSoC5/PWM_1_PM.c ****         #if(!PWM_1_UsingFixedFunction)
  91:.\Generated_Source\PSoC5/PWM_1_PM.c ****             #if(!PWM_1_PWMModeIsCenterAligned)
  92:.\Generated_Source\PSoC5/PWM_1_PM.c ****                 PWM_1_WritePeriod(PWM_1_backup.PWMPeriod);
  97              		.loc 1 92 0
  98 0004 40F20003 		movw	r3, #:lower16:PWM_1_backup
  99 0008 C0F20003 		movt	r3, #:upper16:PWM_1_backup
 100 000c 9B78     		ldrb	r3, [r3, #2]	@ zero_extendqisi2
 101 000e 1846     		mov	r0, r3
 102 0010 FFF7FEFF 		bl	PWM_1_WritePeriod
  93:.\Generated_Source\PSoC5/PWM_1_PM.c ****             #endif /* (!PWM_1_PWMModeIsCenterAligned) */
  94:.\Generated_Source\PSoC5/PWM_1_PM.c ****             PWM_1_WriteCounter(PWM_1_backup.PWMUdb);
 103              		.loc 1 94 0
 104 0014 40F20003 		movw	r3, #:lower16:PWM_1_backup
 105 0018 C0F20003 		movt	r3, #:upper16:PWM_1_backup
 106 001c 5B78     		ldrb	r3, [r3, #1]	@ zero_extendqisi2
 107 001e 1846     		mov	r0, r3
 108 0020 FFF7FEFF 		bl	PWM_1_WriteCounter
  95:.\Generated_Source\PSoC5/PWM_1_PM.c ****             #if (PWM_1_UseStatus)
  96:.\Generated_Source\PSoC5/PWM_1_PM.c ****                 PWM_1_STATUS_MASK = PWM_1_backup.InterruptMaskValue;
 109              		.loc 1 96 0
 110 0024 46F28553 		movw	r3, #25989
 111 0028 C4F20003 		movt	r3, 16384
 112 002c 40F20002 		movw	r2, #:lower16:PWM_1_backup
 113 0030 C0F20002 		movt	r2, #:upper16:PWM_1_backup
 114 0034 D278     		ldrb	r2, [r2, #3]	@ zero_extendqisi2
 115 0036 1A70     		strb	r2, [r3, #0]
  97:.\Generated_Source\PSoC5/PWM_1_PM.c ****             #endif /* (PWM_1_UseStatus) */
  98:.\Generated_Source\PSoC5/PWM_1_PM.c ****             
  99:.\Generated_Source\PSoC5/PWM_1_PM.c ****             #if(PWM_1_DeadBandMode == PWM_1__B_PWM__DBM_256_CLOCKS || \
 100:.\Generated_Source\PSoC5/PWM_1_PM.c ****                 PWM_1_DeadBandMode == PWM_1__B_PWM__DBM_2_4_CLOCKS)
 101:.\Generated_Source\PSoC5/PWM_1_PM.c ****                 PWM_1_WriteDeadTime(PWM_1_backup.PWMdeadBandValue);
 102:.\Generated_Source\PSoC5/PWM_1_PM.c ****             #endif /* deadband count is either 2-4 clocks or 256 clocks */
 103:.\Generated_Source\PSoC5/PWM_1_PM.c ****             
 104:.\Generated_Source\PSoC5/PWM_1_PM.c ****             #if(PWM_1_KillModeMinTime)
 105:.\Generated_Source\PSoC5/PWM_1_PM.c ****                 PWM_1_WriteKillTime(PWM_1_backup.PWMKillCounterPeriod);
 106:.\Generated_Source\PSoC5/PWM_1_PM.c ****             #endif /* (PWM_1_KillModeMinTime) */
 107:.\Generated_Source\PSoC5/PWM_1_PM.c ****             
 108:.\Generated_Source\PSoC5/PWM_1_PM.c ****             #if(PWM_1_UseControl)
 109:.\Generated_Source\PSoC5/PWM_1_PM.c ****                 PWM_1_WriteControlRegister(PWM_1_backup.PWMControlRegister); 
 116              		.loc 1 109 0
 117 0038 40F20003 		movw	r3, #:lower16:PWM_1_backup
 118 003c C0F20003 		movt	r3, #:upper16:PWM_1_backup
ARM GAS  C:\Users\Robert\AppData\Local\Temp\ccwQZ7yJ.s 			page 5


 119 0040 1B79     		ldrb	r3, [r3, #4]	@ zero_extendqisi2
 120 0042 1846     		mov	r0, r3
 121 0044 FFF7FEFF 		bl	PWM_1_WriteControlRegister
 110:.\Generated_Source\PSoC5/PWM_1_PM.c ****             #endif /* (PWM_1_UseControl) */
 111:.\Generated_Source\PSoC5/PWM_1_PM.c ****         #endif  /* (!PWM_1_UsingFixedFunction) */
 112:.\Generated_Source\PSoC5/PWM_1_PM.c ****     }
 122              		.loc 1 112 0
 123 0048 80BD     		pop	{r7, pc}
 124              		.cfi_endproc
 125              	.LFE1:
 126              		.size	PWM_1_RestoreConfig, .-PWM_1_RestoreConfig
 127 004a 00BF     		.section	.text.PWM_1_Sleep,"ax",%progbits
 128              		.align	2
 129              		.global	PWM_1_Sleep
 130              		.thumb
 131              		.thumb_func
 132              		.type	PWM_1_Sleep, %function
 133              	PWM_1_Sleep:
 134              	.LFB2:
 113:.\Generated_Source\PSoC5/PWM_1_PM.c **** 
 114:.\Generated_Source\PSoC5/PWM_1_PM.c **** 
 115:.\Generated_Source\PSoC5/PWM_1_PM.c **** /*******************************************************************************
 116:.\Generated_Source\PSoC5/PWM_1_PM.c **** * Function Name: PWM_1_Sleep
 117:.\Generated_Source\PSoC5/PWM_1_PM.c **** ********************************************************************************
 118:.\Generated_Source\PSoC5/PWM_1_PM.c **** * 
 119:.\Generated_Source\PSoC5/PWM_1_PM.c **** * Summary:
 120:.\Generated_Source\PSoC5/PWM_1_PM.c **** *  Disables block's operation and saves the user configuration. Should be called 
 121:.\Generated_Source\PSoC5/PWM_1_PM.c **** *  just prior to entering sleep.
 122:.\Generated_Source\PSoC5/PWM_1_PM.c **** *  
 123:.\Generated_Source\PSoC5/PWM_1_PM.c **** * Parameters:  
 124:.\Generated_Source\PSoC5/PWM_1_PM.c **** *  None
 125:.\Generated_Source\PSoC5/PWM_1_PM.c **** *
 126:.\Generated_Source\PSoC5/PWM_1_PM.c **** * Return: 
 127:.\Generated_Source\PSoC5/PWM_1_PM.c **** *  None
 128:.\Generated_Source\PSoC5/PWM_1_PM.c **** *
 129:.\Generated_Source\PSoC5/PWM_1_PM.c **** * Global variables:
 130:.\Generated_Source\PSoC5/PWM_1_PM.c **** *  PWM_1_backup.PWMEnableState:  Is modified depending on the enable 
 131:.\Generated_Source\PSoC5/PWM_1_PM.c **** *  state of the block before entering sleep mode.
 132:.\Generated_Source\PSoC5/PWM_1_PM.c **** *
 133:.\Generated_Source\PSoC5/PWM_1_PM.c **** *******************************************************************************/
 134:.\Generated_Source\PSoC5/PWM_1_PM.c **** void PWM_1_Sleep(void) 
 135:.\Generated_Source\PSoC5/PWM_1_PM.c **** {
 135              		.loc 1 135 0
 136              		.cfi_startproc
 137              		@ args = 0, pretend = 0, frame = 0
 138              		@ frame_needed = 1, uses_anonymous_args = 0
 139 0000 80B5     		push	{r7, lr}
 140              	.LCFI4:
 141              		.cfi_def_cfa_offset 8
 142              		.cfi_offset 7, -8
 143              		.cfi_offset 14, -4
 144 0002 00AF     		add	r7, sp, #0
 145              	.LCFI5:
 146              		.cfi_def_cfa_register 7
 136:.\Generated_Source\PSoC5/PWM_1_PM.c ****     #if(PWM_1_UseControl)
 137:.\Generated_Source\PSoC5/PWM_1_PM.c ****         if(PWM_1_CTRL_ENABLE == (PWM_1_CONTROL & PWM_1_CTRL_ENABLE))
 147              		.loc 1 137 0
ARM GAS  C:\Users\Robert\AppData\Local\Temp\ccwQZ7yJ.s 			page 6


 148 0004 46F27553 		movw	r3, #25973
 149 0008 C4F20003 		movt	r3, 16384
 150 000c 1B78     		ldrb	r3, [r3, #0]
 151 000e DBB2     		uxtb	r3, r3
 152 0010 DBB2     		uxtb	r3, r3
 153 0012 5BB2     		sxtb	r3, r3
 154 0014 002B     		cmp	r3, #0
 155 0016 07DA     		bge	.L4
 138:.\Generated_Source\PSoC5/PWM_1_PM.c ****         {
 139:.\Generated_Source\PSoC5/PWM_1_PM.c ****             /*Component is enabled */
 140:.\Generated_Source\PSoC5/PWM_1_PM.c ****             PWM_1_backup.PWMEnableState = 1u;
 156              		.loc 1 140 0
 157 0018 40F20003 		movw	r3, #:lower16:PWM_1_backup
 158 001c C0F20003 		movt	r3, #:upper16:PWM_1_backup
 159 0020 4FF00102 		mov	r2, #1
 160 0024 1A70     		strb	r2, [r3, #0]
 161 0026 06E0     		b	.L5
 162              	.L4:
 141:.\Generated_Source\PSoC5/PWM_1_PM.c ****         }
 142:.\Generated_Source\PSoC5/PWM_1_PM.c ****         else
 143:.\Generated_Source\PSoC5/PWM_1_PM.c ****         {
 144:.\Generated_Source\PSoC5/PWM_1_PM.c ****             /* Component is disabled */
 145:.\Generated_Source\PSoC5/PWM_1_PM.c ****             PWM_1_backup.PWMEnableState = 0u;
 163              		.loc 1 145 0
 164 0028 40F20003 		movw	r3, #:lower16:PWM_1_backup
 165 002c C0F20003 		movt	r3, #:upper16:PWM_1_backup
 166 0030 4FF00002 		mov	r2, #0
 167 0034 1A70     		strb	r2, [r3, #0]
 168              	.L5:
 146:.\Generated_Source\PSoC5/PWM_1_PM.c ****         }
 147:.\Generated_Source\PSoC5/PWM_1_PM.c ****     #endif /* (PWM_1_UseControl) */
 148:.\Generated_Source\PSoC5/PWM_1_PM.c **** 
 149:.\Generated_Source\PSoC5/PWM_1_PM.c ****     /* Stop component */
 150:.\Generated_Source\PSoC5/PWM_1_PM.c ****     PWM_1_Stop();
 169              		.loc 1 150 0
 170 0036 FFF7FEFF 		bl	PWM_1_Stop
 151:.\Generated_Source\PSoC5/PWM_1_PM.c ****     
 152:.\Generated_Source\PSoC5/PWM_1_PM.c ****     /* Save registers configuration */
 153:.\Generated_Source\PSoC5/PWM_1_PM.c ****     PWM_1_SaveConfig();
 171              		.loc 1 153 0
 172 003a FFF7FEFF 		bl	PWM_1_SaveConfig
 154:.\Generated_Source\PSoC5/PWM_1_PM.c **** }
 173              		.loc 1 154 0
 174 003e 80BD     		pop	{r7, pc}
 175              		.cfi_endproc
 176              	.LFE2:
 177              		.size	PWM_1_Sleep, .-PWM_1_Sleep
 178              		.section	.text.PWM_1_Wakeup,"ax",%progbits
 179              		.align	2
 180              		.global	PWM_1_Wakeup
 181              		.thumb
 182              		.thumb_func
 183              		.type	PWM_1_Wakeup, %function
 184              	PWM_1_Wakeup:
 185              	.LFB3:
 155:.\Generated_Source\PSoC5/PWM_1_PM.c **** 
 156:.\Generated_Source\PSoC5/PWM_1_PM.c **** 
ARM GAS  C:\Users\Robert\AppData\Local\Temp\ccwQZ7yJ.s 			page 7


 157:.\Generated_Source\PSoC5/PWM_1_PM.c **** /*******************************************************************************
 158:.\Generated_Source\PSoC5/PWM_1_PM.c **** * Function Name: PWM_1_Wakeup
 159:.\Generated_Source\PSoC5/PWM_1_PM.c **** ********************************************************************************
 160:.\Generated_Source\PSoC5/PWM_1_PM.c **** * 
 161:.\Generated_Source\PSoC5/PWM_1_PM.c **** * Summary:
 162:.\Generated_Source\PSoC5/PWM_1_PM.c **** *  Restores and enables the user configuration. Should be called just after 
 163:.\Generated_Source\PSoC5/PWM_1_PM.c **** *  awaking from sleep.
 164:.\Generated_Source\PSoC5/PWM_1_PM.c **** *  
 165:.\Generated_Source\PSoC5/PWM_1_PM.c **** * Parameters:  
 166:.\Generated_Source\PSoC5/PWM_1_PM.c **** *  None
 167:.\Generated_Source\PSoC5/PWM_1_PM.c **** *
 168:.\Generated_Source\PSoC5/PWM_1_PM.c **** * Return: 
 169:.\Generated_Source\PSoC5/PWM_1_PM.c **** *  None
 170:.\Generated_Source\PSoC5/PWM_1_PM.c **** *
 171:.\Generated_Source\PSoC5/PWM_1_PM.c **** * Global variables:
 172:.\Generated_Source\PSoC5/PWM_1_PM.c **** *  PWM_1_backup.pwmEnable:  Is used to restore the enable state of 
 173:.\Generated_Source\PSoC5/PWM_1_PM.c **** *  block on wakeup from sleep mode.
 174:.\Generated_Source\PSoC5/PWM_1_PM.c **** *
 175:.\Generated_Source\PSoC5/PWM_1_PM.c **** *******************************************************************************/
 176:.\Generated_Source\PSoC5/PWM_1_PM.c **** void PWM_1_Wakeup(void) 
 177:.\Generated_Source\PSoC5/PWM_1_PM.c **** {
 186              		.loc 1 177 0
 187              		.cfi_startproc
 188              		@ args = 0, pretend = 0, frame = 0
 189              		@ frame_needed = 1, uses_anonymous_args = 0
 190 0000 80B5     		push	{r7, lr}
 191              	.LCFI6:
 192              		.cfi_def_cfa_offset 8
 193              		.cfi_offset 7, -8
 194              		.cfi_offset 14, -4
 195 0002 00AF     		add	r7, sp, #0
 196              	.LCFI7:
 197              		.cfi_def_cfa_register 7
 178:.\Generated_Source\PSoC5/PWM_1_PM.c ****      /* Restore registers values */
 179:.\Generated_Source\PSoC5/PWM_1_PM.c ****     PWM_1_RestoreConfig();
 198              		.loc 1 179 0
 199 0004 FFF7FEFF 		bl	PWM_1_RestoreConfig
 180:.\Generated_Source\PSoC5/PWM_1_PM.c ****     
 181:.\Generated_Source\PSoC5/PWM_1_PM.c ****     if(PWM_1_backup.PWMEnableState != 0u)
 200              		.loc 1 181 0
 201 0008 40F20003 		movw	r3, #:lower16:PWM_1_backup
 202 000c C0F20003 		movt	r3, #:upper16:PWM_1_backup
 203 0010 1B78     		ldrb	r3, [r3, #0]	@ zero_extendqisi2
 204 0012 002B     		cmp	r3, #0
 205 0014 01D0     		beq	.L6
 182:.\Generated_Source\PSoC5/PWM_1_PM.c ****     {
 183:.\Generated_Source\PSoC5/PWM_1_PM.c ****         /* Enable component's operation */
 184:.\Generated_Source\PSoC5/PWM_1_PM.c ****         PWM_1_Enable();
 206              		.loc 1 184 0
 207 0016 FFF7FEFF 		bl	PWM_1_Enable
 208              	.L6:
 185:.\Generated_Source\PSoC5/PWM_1_PM.c ****     } /* Do nothing if component's block was disabled before */
 186:.\Generated_Source\PSoC5/PWM_1_PM.c ****     
 187:.\Generated_Source\PSoC5/PWM_1_PM.c **** }
 209              		.loc 1 187 0
 210 001a 80BD     		pop	{r7, pc}
 211              		.cfi_endproc
ARM GAS  C:\Users\Robert\AppData\Local\Temp\ccwQZ7yJ.s 			page 8


 212              	.LFE3:
 213              		.size	PWM_1_Wakeup, .-PWM_1_Wakeup
 214              		.text
 215              	.Letext0:
 216              		.file 2 ".\\Generated_Source\\PSoC5\\cytypes.h"
 217              		.file 3 ".\\Generated_Source\\PSoC5\\PWM_1.h"