ARM GAS  C:\Users\Robert\AppData\Local\Temp\ccGEgqLk.s 			page 1


   1              		.syntax unified
   2              		.cpu cortex-m3
   3              		.fpu softvfp
   4              		.eabi_attribute 20, 1
   5              		.eabi_attribute 21, 1
   6              		.eabi_attribute 23, 3
   7              		.eabi_attribute 24, 1
   8              		.eabi_attribute 25, 1
   9              		.eabi_attribute 26, 1
  10              		.eabi_attribute 30, 1
  11              		.eabi_attribute 34, 1
  12              		.eabi_attribute 18, 4
  13              		.thumb
  14              		.file	"USB_Bootloader.c"
  15              		.text
  16              	.Ltext0:
  17              		.cfi_sections	.debug_frame
  18              		.section	.text.USB_Bootloader_Init,"ax",%progbits
  19              		.align	2
  20              		.global	USB_Bootloader_Init
  21              		.thumb
  22              		.thumb_func
  23              		.type	USB_Bootloader_Init, %function
  24              	USB_Bootloader_Init:
  25              	.LFB1:
  26              		.file 1 ".\\Generated_Source\\PSoC5\\USB_Bootloader.c"
   1:.\Generated_Source\PSoC5/USB_Bootloader.c **** /*******************************************************************************
   2:.\Generated_Source\PSoC5/USB_Bootloader.c **** * File Name: USB_Bootloader.c
   3:.\Generated_Source\PSoC5/USB_Bootloader.c **** * Version 2.80
   4:.\Generated_Source\PSoC5/USB_Bootloader.c **** *
   5:.\Generated_Source\PSoC5/USB_Bootloader.c **** * Description:
   6:.\Generated_Source\PSoC5/USB_Bootloader.c **** *  API for USBFS Component.
   7:.\Generated_Source\PSoC5/USB_Bootloader.c **** *
   8:.\Generated_Source\PSoC5/USB_Bootloader.c **** * Note:
   9:.\Generated_Source\PSoC5/USB_Bootloader.c **** *  Many of the functions use endpoint number.  RAM arrays are sized with 9
  10:.\Generated_Source\PSoC5/USB_Bootloader.c **** *  elements so they are indexed directly by epNumber.  The SIE and ARB
  11:.\Generated_Source\PSoC5/USB_Bootloader.c **** *  registers are indexed by variations of epNumber - 1.
  12:.\Generated_Source\PSoC5/USB_Bootloader.c **** *
  13:.\Generated_Source\PSoC5/USB_Bootloader.c **** ********************************************************************************
  14:.\Generated_Source\PSoC5/USB_Bootloader.c **** * Copyright 2008-2014, Cypress Semiconductor Corporation.  All rights reserved.
  15:.\Generated_Source\PSoC5/USB_Bootloader.c **** * You may use this file only in accordance with the license, terms, conditions,
  16:.\Generated_Source\PSoC5/USB_Bootloader.c **** * disclaimers, and limitations in the end user license agreement accompanying
  17:.\Generated_Source\PSoC5/USB_Bootloader.c **** * the software package with which this file was provided.
  18:.\Generated_Source\PSoC5/USB_Bootloader.c **** *******************************************************************************/
  19:.\Generated_Source\PSoC5/USB_Bootloader.c **** 
  20:.\Generated_Source\PSoC5/USB_Bootloader.c **** #include <CyDmac.h>
  21:.\Generated_Source\PSoC5/USB_Bootloader.c **** #include "USB_Bootloader.h"
  22:.\Generated_Source\PSoC5/USB_Bootloader.c **** #include "USB_Bootloader_pvt.h"
  23:.\Generated_Source\PSoC5/USB_Bootloader.c **** #include "USB_Bootloader_hid.h"
  24:.\Generated_Source\PSoC5/USB_Bootloader.c **** #if(USB_Bootloader_DMA1_REMOVE == 0u)
  25:.\Generated_Source\PSoC5/USB_Bootloader.c ****     #include "USB_Bootloader_ep1_dma.h"
  26:.\Generated_Source\PSoC5/USB_Bootloader.c **** #endif   /*  USB_Bootloader_DMA1_REMOVE */
  27:.\Generated_Source\PSoC5/USB_Bootloader.c **** #if(USB_Bootloader_DMA2_REMOVE == 0u)
  28:.\Generated_Source\PSoC5/USB_Bootloader.c ****     #include "USB_Bootloader_ep2_dma.h"
  29:.\Generated_Source\PSoC5/USB_Bootloader.c **** #endif   /*  USB_Bootloader_DMA2_REMOVE */
  30:.\Generated_Source\PSoC5/USB_Bootloader.c **** #if(USB_Bootloader_DMA3_REMOVE == 0u)
  31:.\Generated_Source\PSoC5/USB_Bootloader.c ****     #include "USB_Bootloader_ep3_dma.h"
ARM GAS  C:\Users\Robert\AppData\Local\Temp\ccGEgqLk.s 			page 2


  32:.\Generated_Source\PSoC5/USB_Bootloader.c **** #endif   /*  USB_Bootloader_DMA3_REMOVE */
  33:.\Generated_Source\PSoC5/USB_Bootloader.c **** #if(USB_Bootloader_DMA4_REMOVE == 0u)
  34:.\Generated_Source\PSoC5/USB_Bootloader.c ****     #include "USB_Bootloader_ep4_dma.h"
  35:.\Generated_Source\PSoC5/USB_Bootloader.c **** #endif   /*  USB_Bootloader_DMA4_REMOVE */
  36:.\Generated_Source\PSoC5/USB_Bootloader.c **** #if(USB_Bootloader_DMA5_REMOVE == 0u)
  37:.\Generated_Source\PSoC5/USB_Bootloader.c ****     #include "USB_Bootloader_ep5_dma.h"
  38:.\Generated_Source\PSoC5/USB_Bootloader.c **** #endif   /*  USB_Bootloader_DMA5_REMOVE */
  39:.\Generated_Source\PSoC5/USB_Bootloader.c **** #if(USB_Bootloader_DMA6_REMOVE == 0u)
  40:.\Generated_Source\PSoC5/USB_Bootloader.c ****     #include "USB_Bootloader_ep6_dma.h"
  41:.\Generated_Source\PSoC5/USB_Bootloader.c **** #endif   /*  USB_Bootloader_DMA6_REMOVE */
  42:.\Generated_Source\PSoC5/USB_Bootloader.c **** #if(USB_Bootloader_DMA7_REMOVE == 0u)
  43:.\Generated_Source\PSoC5/USB_Bootloader.c ****     #include "USB_Bootloader_ep7_dma.h"
  44:.\Generated_Source\PSoC5/USB_Bootloader.c **** #endif   /*  USB_Bootloader_DMA7_REMOVE */
  45:.\Generated_Source\PSoC5/USB_Bootloader.c **** #if(USB_Bootloader_DMA8_REMOVE == 0u)
  46:.\Generated_Source\PSoC5/USB_Bootloader.c ****     #include "USB_Bootloader_ep8_dma.h"
  47:.\Generated_Source\PSoC5/USB_Bootloader.c **** #endif   /*  USB_Bootloader_DMA8_REMOVE */
  48:.\Generated_Source\PSoC5/USB_Bootloader.c **** #if((USB_Bootloader_EP_MM == USB_Bootloader__EP_DMAAUTO) && (USB_Bootloader_EP_DMA_AUTO_OPT == 0u))
  49:.\Generated_Source\PSoC5/USB_Bootloader.c ****     #include "USB_Bootloader_EP_DMA_Done_isr.h"
  50:.\Generated_Source\PSoC5/USB_Bootloader.c ****     #include "USB_Bootloader_EP8_DMA_Done_SR.h"
  51:.\Generated_Source\PSoC5/USB_Bootloader.c ****     #include "USB_Bootloader_EP17_DMA_Done_SR.h"
  52:.\Generated_Source\PSoC5/USB_Bootloader.c **** #endif /* ((USB_Bootloader_EP_MM == USB_Bootloader__EP_DMAAUTO) && (USB_Bootloader_EP_DMA_AUTO_OPT 
  53:.\Generated_Source\PSoC5/USB_Bootloader.c **** 
  54:.\Generated_Source\PSoC5/USB_Bootloader.c **** 
  55:.\Generated_Source\PSoC5/USB_Bootloader.c **** /***************************************
  56:.\Generated_Source\PSoC5/USB_Bootloader.c **** * Global data allocation
  57:.\Generated_Source\PSoC5/USB_Bootloader.c **** ***************************************/
  58:.\Generated_Source\PSoC5/USB_Bootloader.c **** 
  59:.\Generated_Source\PSoC5/USB_Bootloader.c **** uint8 USB_Bootloader_initVar = 0u;
  60:.\Generated_Source\PSoC5/USB_Bootloader.c **** #if(USB_Bootloader_EP_MM != USB_Bootloader__EP_MANUAL)
  61:.\Generated_Source\PSoC5/USB_Bootloader.c ****     uint8 USB_Bootloader_DmaChan[USB_Bootloader_MAX_EP];
  62:.\Generated_Source\PSoC5/USB_Bootloader.c ****     uint8 USB_Bootloader_DmaTd[USB_Bootloader_MAX_EP];
  63:.\Generated_Source\PSoC5/USB_Bootloader.c **** #endif /*  USB_Bootloader_EP_MM */
  64:.\Generated_Source\PSoC5/USB_Bootloader.c **** #if((USB_Bootloader_EP_MM == USB_Bootloader__EP_DMAAUTO) && (USB_Bootloader_EP_DMA_AUTO_OPT == 0u))
  65:.\Generated_Source\PSoC5/USB_Bootloader.c ****     static uint8 clearInDataRdyStatus = USB_Bootloader_ARB_EPX_CFG_DEFAULT;
  66:.\Generated_Source\PSoC5/USB_Bootloader.c ****     uint8 USB_Bootloader_DmaNextTd[USB_Bootloader_MAX_EP];
  67:.\Generated_Source\PSoC5/USB_Bootloader.c ****     const uint8 USB_Bootloader_epX_TD_TERMOUT_EN[USB_Bootloader_MAX_EP] =
  68:.\Generated_Source\PSoC5/USB_Bootloader.c ****     {   0u,
  69:.\Generated_Source\PSoC5/USB_Bootloader.c ****         USB_Bootloader_ep1_TD_TERMOUT_EN,
  70:.\Generated_Source\PSoC5/USB_Bootloader.c ****         USB_Bootloader_ep2_TD_TERMOUT_EN,
  71:.\Generated_Source\PSoC5/USB_Bootloader.c ****         USB_Bootloader_ep3_TD_TERMOUT_EN,
  72:.\Generated_Source\PSoC5/USB_Bootloader.c ****         USB_Bootloader_ep4_TD_TERMOUT_EN,
  73:.\Generated_Source\PSoC5/USB_Bootloader.c ****         USB_Bootloader_ep5_TD_TERMOUT_EN,
  74:.\Generated_Source\PSoC5/USB_Bootloader.c ****         USB_Bootloader_ep6_TD_TERMOUT_EN,
  75:.\Generated_Source\PSoC5/USB_Bootloader.c ****         USB_Bootloader_ep7_TD_TERMOUT_EN,
  76:.\Generated_Source\PSoC5/USB_Bootloader.c ****         USB_Bootloader_ep8_TD_TERMOUT_EN
  77:.\Generated_Source\PSoC5/USB_Bootloader.c ****     };
  78:.\Generated_Source\PSoC5/USB_Bootloader.c ****     volatile uint16 USB_Bootloader_inLength[USB_Bootloader_MAX_EP];
  79:.\Generated_Source\PSoC5/USB_Bootloader.c ****     const uint8 *USB_Bootloader_inDataPointer[USB_Bootloader_MAX_EP];
  80:.\Generated_Source\PSoC5/USB_Bootloader.c ****     volatile uint8 USB_Bootloader_inBufFull[USB_Bootloader_MAX_EP];
  81:.\Generated_Source\PSoC5/USB_Bootloader.c **** #endif /* ((USB_Bootloader_EP_MM == USB_Bootloader__EP_DMAAUTO) && (USB_Bootloader_EP_DMA_AUTO_OPT 
  82:.\Generated_Source\PSoC5/USB_Bootloader.c **** 
  83:.\Generated_Source\PSoC5/USB_Bootloader.c **** 
  84:.\Generated_Source\PSoC5/USB_Bootloader.c **** /*******************************************************************************
  85:.\Generated_Source\PSoC5/USB_Bootloader.c **** * Function Name: USB_Bootloader_Start
  86:.\Generated_Source\PSoC5/USB_Bootloader.c **** ********************************************************************************
  87:.\Generated_Source\PSoC5/USB_Bootloader.c **** *
  88:.\Generated_Source\PSoC5/USB_Bootloader.c **** * Summary:
ARM GAS  C:\Users\Robert\AppData\Local\Temp\ccGEgqLk.s 			page 3


  89:.\Generated_Source\PSoC5/USB_Bootloader.c **** *  This function initialize the USB SIE, arbiter and the
  90:.\Generated_Source\PSoC5/USB_Bootloader.c **** *  endpoint APIs, including setting the D+ Pullup
  91:.\Generated_Source\PSoC5/USB_Bootloader.c **** *
  92:.\Generated_Source\PSoC5/USB_Bootloader.c **** * Parameters:
  93:.\Generated_Source\PSoC5/USB_Bootloader.c **** *  device: Contains the device number of the desired device descriptor.
  94:.\Generated_Source\PSoC5/USB_Bootloader.c **** *          The device number can be found in the Device Descriptor Tab of
  95:.\Generated_Source\PSoC5/USB_Bootloader.c **** *          "Configure" dialog, under the settings of desired Device Descriptor,
  96:.\Generated_Source\PSoC5/USB_Bootloader.c **** *          in the "Device Number" field.
  97:.\Generated_Source\PSoC5/USB_Bootloader.c **** *  mode: The operating voltage. This determines whether the voltage regulator
  98:.\Generated_Source\PSoC5/USB_Bootloader.c **** *        is enabled for 5V operation or if pass through mode is used for 3.3V
  99:.\Generated_Source\PSoC5/USB_Bootloader.c **** *        operation. Symbolic names and their associated values are given in the
 100:.\Generated_Source\PSoC5/USB_Bootloader.c **** *        following table.
 101:.\Generated_Source\PSoC5/USB_Bootloader.c **** *       USB_Bootloader_3V_OPERATION - Disable voltage regulator and pass-thru
 102:.\Generated_Source\PSoC5/USB_Bootloader.c **** *                                       Vcc for pull-up
 103:.\Generated_Source\PSoC5/USB_Bootloader.c **** *       USB_Bootloader_5V_OPERATION - Enable voltage regulator and use
 104:.\Generated_Source\PSoC5/USB_Bootloader.c **** *                                       regulator for pull-up
 105:.\Generated_Source\PSoC5/USB_Bootloader.c **** *       USB_Bootloader_DWR_VDDD_OPERATION - Enable or Disable voltage
 106:.\Generated_Source\PSoC5/USB_Bootloader.c **** *                         regulator depend on Vddd Voltage configuration in DWR.
 107:.\Generated_Source\PSoC5/USB_Bootloader.c **** *
 108:.\Generated_Source\PSoC5/USB_Bootloader.c **** * Return:
 109:.\Generated_Source\PSoC5/USB_Bootloader.c **** *   None.
 110:.\Generated_Source\PSoC5/USB_Bootloader.c **** *
 111:.\Generated_Source\PSoC5/USB_Bootloader.c **** * Global variables:
 112:.\Generated_Source\PSoC5/USB_Bootloader.c **** *  The USB_Bootloader_intiVar variable is used to indicate initial
 113:.\Generated_Source\PSoC5/USB_Bootloader.c **** *  configuration of this component. The variable is initialized to zero (0u)
 114:.\Generated_Source\PSoC5/USB_Bootloader.c **** *  and set to one (1u) the first time USB_Bootloader_Start() is called.
 115:.\Generated_Source\PSoC5/USB_Bootloader.c **** *  This allows for component Re-Start without unnecessary re-initialization
 116:.\Generated_Source\PSoC5/USB_Bootloader.c **** *  in all subsequent calls to the USB_Bootloader_Start() routine.
 117:.\Generated_Source\PSoC5/USB_Bootloader.c **** *  If re-initialization of the component is required the variable should be set
 118:.\Generated_Source\PSoC5/USB_Bootloader.c **** *  to zero before call of UART_Start() routine, or the user may call
 119:.\Generated_Source\PSoC5/USB_Bootloader.c **** *  USB_Bootloader_Init() and USB_Bootloader_InitComponent() as done
 120:.\Generated_Source\PSoC5/USB_Bootloader.c **** *  in the USB_Bootloader_Start() routine.
 121:.\Generated_Source\PSoC5/USB_Bootloader.c **** *
 122:.\Generated_Source\PSoC5/USB_Bootloader.c **** * Side Effects:
 123:.\Generated_Source\PSoC5/USB_Bootloader.c **** *   This function will reset all communication states to default.
 124:.\Generated_Source\PSoC5/USB_Bootloader.c **** *
 125:.\Generated_Source\PSoC5/USB_Bootloader.c **** * Reentrant:
 126:.\Generated_Source\PSoC5/USB_Bootloader.c **** *  No.
 127:.\Generated_Source\PSoC5/USB_Bootloader.c **** *
 128:.\Generated_Source\PSoC5/USB_Bootloader.c **** *******************************************************************************/
 129:.\Generated_Source\PSoC5/USB_Bootloader.c **** void USB_Bootloader_Start(uint8 device, uint8 mode) 
 130:.\Generated_Source\PSoC5/USB_Bootloader.c **** {
 131:.\Generated_Source\PSoC5/USB_Bootloader.c ****     /* If not Initialized then initialize all required hardware and software */
 132:.\Generated_Source\PSoC5/USB_Bootloader.c ****     if(USB_Bootloader_initVar == 0u)
 133:.\Generated_Source\PSoC5/USB_Bootloader.c ****     {
 134:.\Generated_Source\PSoC5/USB_Bootloader.c ****         USB_Bootloader_Init();
 135:.\Generated_Source\PSoC5/USB_Bootloader.c ****         USB_Bootloader_initVar = 1u;
 136:.\Generated_Source\PSoC5/USB_Bootloader.c ****     }
 137:.\Generated_Source\PSoC5/USB_Bootloader.c ****     USB_Bootloader_InitComponent(device, mode);
 138:.\Generated_Source\PSoC5/USB_Bootloader.c **** }
 139:.\Generated_Source\PSoC5/USB_Bootloader.c **** 
 140:.\Generated_Source\PSoC5/USB_Bootloader.c **** 
 141:.\Generated_Source\PSoC5/USB_Bootloader.c **** /*******************************************************************************
 142:.\Generated_Source\PSoC5/USB_Bootloader.c **** * Function Name: USB_Bootloader_Init
 143:.\Generated_Source\PSoC5/USB_Bootloader.c **** ********************************************************************************
 144:.\Generated_Source\PSoC5/USB_Bootloader.c **** *
 145:.\Generated_Source\PSoC5/USB_Bootloader.c **** * Summary:
ARM GAS  C:\Users\Robert\AppData\Local\Temp\ccGEgqLk.s 			page 4


 146:.\Generated_Source\PSoC5/USB_Bootloader.c **** *  Initialize component's hardware. Usually called in USB_Bootloader_Start().
 147:.\Generated_Source\PSoC5/USB_Bootloader.c **** *
 148:.\Generated_Source\PSoC5/USB_Bootloader.c **** * Parameters:
 149:.\Generated_Source\PSoC5/USB_Bootloader.c **** *  None.
 150:.\Generated_Source\PSoC5/USB_Bootloader.c **** *
 151:.\Generated_Source\PSoC5/USB_Bootloader.c **** * Return:
 152:.\Generated_Source\PSoC5/USB_Bootloader.c **** *  None.
 153:.\Generated_Source\PSoC5/USB_Bootloader.c **** *
 154:.\Generated_Source\PSoC5/USB_Bootloader.c **** * Reentrant:
 155:.\Generated_Source\PSoC5/USB_Bootloader.c **** *  No.
 156:.\Generated_Source\PSoC5/USB_Bootloader.c **** *
 157:.\Generated_Source\PSoC5/USB_Bootloader.c **** *******************************************************************************/
 158:.\Generated_Source\PSoC5/USB_Bootloader.c **** void USB_Bootloader_Init(void) 
 159:.\Generated_Source\PSoC5/USB_Bootloader.c **** {
  27              		.loc 1 159 0
  28              		.cfi_startproc
  29              		@ args = 0, pretend = 0, frame = 0
  30              		@ frame_needed = 0, uses_anonymous_args = 0
  31 0000 F8B5     		push	{r3, r4, r5, r6, r7, lr}
  32              		.cfi_def_cfa_offset 24
  33              		.cfi_offset 3, -24
  34              		.cfi_offset 4, -20
  35              		.cfi_offset 5, -16
  36              		.cfi_offset 6, -12
  37              		.cfi_offset 7, -8
  38              		.cfi_offset 14, -4
 160:.\Generated_Source\PSoC5/USB_Bootloader.c ****     uint8 enableInterrupts;
 161:.\Generated_Source\PSoC5/USB_Bootloader.c ****     #if(USB_Bootloader_EP_MM != USB_Bootloader__EP_MANUAL)
 162:.\Generated_Source\PSoC5/USB_Bootloader.c ****         uint16 i;
 163:.\Generated_Source\PSoC5/USB_Bootloader.c ****     #endif   /*  USB_Bootloader_EP_MM != USB_Bootloader__EP_MANUAL */
 164:.\Generated_Source\PSoC5/USB_Bootloader.c **** 
 165:.\Generated_Source\PSoC5/USB_Bootloader.c ****     enableInterrupts = CyEnterCriticalSection();
  39              		.loc 1 165 0
  40 0002 FFF7FEFF 		bl	CyEnterCriticalSection
  41              	.LVL0:
  42 0006 0646     		mov	r6, r0
  43              	.LVL1:
 166:.\Generated_Source\PSoC5/USB_Bootloader.c **** 
 167:.\Generated_Source\PSoC5/USB_Bootloader.c ****     /* Enable USB block  */
 168:.\Generated_Source\PSoC5/USB_Bootloader.c ****     USB_Bootloader_PM_ACT_CFG_REG |= USB_Bootloader_PM_ACT_EN_FSUSB;
  44              		.loc 1 168 0
  45 0008 384A     		ldr	r2, .L3
  46 000a 1378     		ldrb	r3, [r2]	@ zero_extendqisi2
  47 000c 43F00103 		orr	r3, r3, #1
  48 0010 1370     		strb	r3, [r2]
 169:.\Generated_Source\PSoC5/USB_Bootloader.c ****     /* Enable USB block for Standby Power Mode */
 170:.\Generated_Source\PSoC5/USB_Bootloader.c ****     USB_Bootloader_PM_STBY_CFG_REG |= USB_Bootloader_PM_STBY_EN_FSUSB;
  49              		.loc 1 170 0
  50 0012 1032     		adds	r2, r2, #16
  51 0014 1378     		ldrb	r3, [r2]	@ zero_extendqisi2
  52 0016 43F00103 		orr	r3, r3, #1
  53 001a 1370     		strb	r3, [r2]
 171:.\Generated_Source\PSoC5/USB_Bootloader.c **** 
 172:.\Generated_Source\PSoC5/USB_Bootloader.c ****     /* Enable core clock */
 173:.\Generated_Source\PSoC5/USB_Bootloader.c ****     USB_Bootloader_USB_CLK_EN_REG = USB_Bootloader_USB_CLK_ENABLE;
  54              		.loc 1 173 0
  55 001c 0125     		movs	r5, #1
ARM GAS  C:\Users\Robert\AppData\Local\Temp\ccGEgqLk.s 			page 5


  56 001e 344B     		ldr	r3, .L3+4
  57 0020 1D70     		strb	r5, [r3]
 174:.\Generated_Source\PSoC5/USB_Bootloader.c **** 
 175:.\Generated_Source\PSoC5/USB_Bootloader.c ****     USB_Bootloader_CR1_REG = USB_Bootloader_CR1_ENABLE_LOCK;
  58              		.loc 1 175 0
  59 0022 0227     		movs	r7, #2
  60 0024 943B     		subs	r3, r3, #148
  61 0026 1F70     		strb	r7, [r3]
 176:.\Generated_Source\PSoC5/USB_Bootloader.c **** 
 177:.\Generated_Source\PSoC5/USB_Bootloader.c ****     /* ENABLING USBIO PADS IN USB MODE FROM I/O MODE */
 178:.\Generated_Source\PSoC5/USB_Bootloader.c ****     /* Ensure USB transmit enable is low (USB_USBIO_CR0.ten). - Manual Transmission - Disabled */
 179:.\Generated_Source\PSoC5/USB_Bootloader.c ****     USB_Bootloader_USBIO_CR0_REG &= ((uint8)(~USB_Bootloader_USBIO_CR0_TEN));
  62              		.loc 1 179 0
  63 0028 02F5E252 		add	r2, r2, #7232
  64 002c 1B32     		adds	r2, r2, #27
  65 002e 1378     		ldrb	r3, [r2]	@ zero_extendqisi2
  66 0030 03F07F03 		and	r3, r3, #127
  67 0034 1370     		strb	r3, [r2]
 180:.\Generated_Source\PSoC5/USB_Bootloader.c ****     CyDelayUs(0u);  /*~50ns delay */
  68              		.loc 1 180 0
  69 0036 0020     		movs	r0, #0
  70 0038 FFF7FEFF 		bl	CyDelayUs
  71              	.LVL2:
 181:.\Generated_Source\PSoC5/USB_Bootloader.c ****     /* Disable the USBIO by asserting PM.USB_CR0.fsusbio_pd_n(Inverted)
 182:.\Generated_Source\PSoC5/USB_Bootloader.c ****     *  high. This will have been set low by the power manger out of reset.
 183:.\Generated_Source\PSoC5/USB_Bootloader.c ****     *  Also confirm USBIO pull-up disabled
 184:.\Generated_Source\PSoC5/USB_Bootloader.c ****     */
 185:.\Generated_Source\PSoC5/USB_Bootloader.c ****     USB_Bootloader_PM_USB_CR0_REG &= ((uint8)(~(USB_Bootloader_PM_USB_CR0_PD_N |
  72              		.loc 1 185 0
  73 003c 2D4C     		ldr	r4, .L3+8
  74 003e 2378     		ldrb	r3, [r4]	@ zero_extendqisi2
  75 0040 03F0F903 		and	r3, r3, #249
  76 0044 2370     		strb	r3, [r4]
 186:.\Generated_Source\PSoC5/USB_Bootloader.c ****                                                   USB_Bootloader_PM_USB_CR0_PD_PULLUP_N)));
 187:.\Generated_Source\PSoC5/USB_Bootloader.c **** 
 188:.\Generated_Source\PSoC5/USB_Bootloader.c ****     /* Select iomode to USB mode*/
 189:.\Generated_Source\PSoC5/USB_Bootloader.c ****     USB_Bootloader_USBIO_CR1_REG &= ((uint8)(~USB_Bootloader_USBIO_CR1_IOMODE));
  77              		.loc 1 189 0
  78 0046 2C4A     		ldr	r2, .L3+12
  79 0048 1378     		ldrb	r3, [r2]	@ zero_extendqisi2
  80 004a 03F0DF03 		and	r3, r3, #223
  81 004e 1370     		strb	r3, [r2]
 190:.\Generated_Source\PSoC5/USB_Bootloader.c **** 
 191:.\Generated_Source\PSoC5/USB_Bootloader.c ****     /* Enable the USBIO reference by setting PM.USB_CR0.fsusbio_ref_en.*/
 192:.\Generated_Source\PSoC5/USB_Bootloader.c ****     USB_Bootloader_PM_USB_CR0_REG |= USB_Bootloader_PM_USB_CR0_REF_EN;
  82              		.loc 1 192 0
  83 0050 2378     		ldrb	r3, [r4]	@ zero_extendqisi2
  84 0052 2B43     		orrs	r3, r3, r5
  85 0054 2370     		strb	r3, [r4]
 193:.\Generated_Source\PSoC5/USB_Bootloader.c ****     /* The reference will be available 1 us after the regulator is enabled */
 194:.\Generated_Source\PSoC5/USB_Bootloader.c ****     CyDelayUs(1u);
  86              		.loc 1 194 0
  87 0056 2846     		mov	r0, r5
  88 0058 FFF7FEFF 		bl	CyDelayUs
  89              	.LVL3:
 195:.\Generated_Source\PSoC5/USB_Bootloader.c ****     /* OR 40us after power restored */
 196:.\Generated_Source\PSoC5/USB_Bootloader.c ****     CyDelayUs(40u);
ARM GAS  C:\Users\Robert\AppData\Local\Temp\ccGEgqLk.s 			page 6


  90              		.loc 1 196 0
  91 005c 2820     		movs	r0, #40
  92 005e FFF7FEFF 		bl	CyDelayUs
  93              	.LVL4:
 197:.\Generated_Source\PSoC5/USB_Bootloader.c ****     /* Ensure the single ended disable bits are low (PRT15.INP_DIS[7:6])(input receiver enabled). *
 198:.\Generated_Source\PSoC5/USB_Bootloader.c ****     USB_Bootloader_DM_INP_DIS_REG &= ((uint8)(~USB_Bootloader_DM_MASK));
  94              		.loc 1 198 0
  95 0062 264B     		ldr	r3, .L3+16
  96 0064 1A78     		ldrb	r2, [r3]	@ zero_extendqisi2
  97 0066 02F07F02 		and	r2, r2, #127
  98 006a 1A70     		strb	r2, [r3]
 199:.\Generated_Source\PSoC5/USB_Bootloader.c ****     USB_Bootloader_DP_INP_DIS_REG &= ((uint8)(~USB_Bootloader_DP_MASK));
  99              		.loc 1 199 0
 100 006c 1A78     		ldrb	r2, [r3]	@ zero_extendqisi2
 101 006e 02F0BF02 		and	r2, r2, #191
 102 0072 1A70     		strb	r2, [r3]
 200:.\Generated_Source\PSoC5/USB_Bootloader.c **** 
 201:.\Generated_Source\PSoC5/USB_Bootloader.c ****     /* Enable USBIO */
 202:.\Generated_Source\PSoC5/USB_Bootloader.c ****     USB_Bootloader_PM_USB_CR0_REG |= USB_Bootloader_PM_USB_CR0_PD_N;
 103              		.loc 1 202 0
 104 0074 2378     		ldrb	r3, [r4]	@ zero_extendqisi2
 105 0076 3B43     		orrs	r3, r3, r7
 106 0078 2370     		strb	r3, [r4]
 203:.\Generated_Source\PSoC5/USB_Bootloader.c ****     CyDelayUs(2u);
 107              		.loc 1 203 0
 108 007a 3846     		mov	r0, r7
 109 007c FFF7FEFF 		bl	CyDelayUs
 110              	.LVL5:
 204:.\Generated_Source\PSoC5/USB_Bootloader.c ****     /* Set the USBIO pull-up enable */
 205:.\Generated_Source\PSoC5/USB_Bootloader.c ****     USB_Bootloader_PM_USB_CR0_REG |= USB_Bootloader_PM_USB_CR0_PD_PULLUP_N;
 111              		.loc 1 205 0
 112 0080 2378     		ldrb	r3, [r4]	@ zero_extendqisi2
 113 0082 43F00403 		orr	r3, r3, #4
 114 0086 2370     		strb	r3, [r4]
 206:.\Generated_Source\PSoC5/USB_Bootloader.c **** 
 207:.\Generated_Source\PSoC5/USB_Bootloader.c ****     /* Write WAx */
 208:.\Generated_Source\PSoC5/USB_Bootloader.c ****     CY_SET_REG8(USB_Bootloader_ARB_RW1_WA_PTR,     0u);
 115              		.loc 1 208 0
 116 0088 0024     		movs	r4, #0
 117 008a 1D4B     		ldr	r3, .L3+20
 118 008c 1C70     		strb	r4, [r3]
 209:.\Generated_Source\PSoC5/USB_Bootloader.c ****     CY_SET_REG8(USB_Bootloader_ARB_RW1_WA_MSB_PTR, 0u);
 119              		.loc 1 209 0
 120 008e 0133     		adds	r3, r3, #1
 121 0090 1C70     		strb	r4, [r3]
 210:.\Generated_Source\PSoC5/USB_Bootloader.c **** 
 211:.\Generated_Source\PSoC5/USB_Bootloader.c ****     #if(USB_Bootloader_EP_MM != USB_Bootloader__EP_MANUAL)
 212:.\Generated_Source\PSoC5/USB_Bootloader.c ****         /* Init transfer descriptor. This will be used to detect the DMA state - initialized or not
 213:.\Generated_Source\PSoC5/USB_Bootloader.c ****         for (i = 0u; i < USB_Bootloader_MAX_EP; i++)
 214:.\Generated_Source\PSoC5/USB_Bootloader.c ****         {
 215:.\Generated_Source\PSoC5/USB_Bootloader.c ****             USB_Bootloader_DmaTd[i] = DMA_INVALID_TD;
 216:.\Generated_Source\PSoC5/USB_Bootloader.c ****             #if ((USB_Bootloader_EP_MM == USB_Bootloader__EP_DMAAUTO) && (USB_Bootloader_EP_DMA_AUT
 217:.\Generated_Source\PSoC5/USB_Bootloader.c ****                 USB_Bootloader_DmaNextTd[i] = DMA_INVALID_TD;
 218:.\Generated_Source\PSoC5/USB_Bootloader.c ****             #endif /* ((USB_Bootloader_EP_MM == USB_Bootloader__EP_DMAAUTO) && (USB_Bootloader_EP_D
 219:.\Generated_Source\PSoC5/USB_Bootloader.c ****         }
 220:.\Generated_Source\PSoC5/USB_Bootloader.c ****     #endif   /*  USB_Bootloader_EP_MM != USB_Bootloader__EP_MANUAL */
 221:.\Generated_Source\PSoC5/USB_Bootloader.c **** 
ARM GAS  C:\Users\Robert\AppData\Local\Temp\ccGEgqLk.s 			page 7


 222:.\Generated_Source\PSoC5/USB_Bootloader.c ****     CyExitCriticalSection(enableInterrupts);
 122              		.loc 1 222 0
 123 0092 3046     		mov	r0, r6
 124 0094 FFF7FEFF 		bl	CyExitCriticalSection
 125              	.LVL6:
 223:.\Generated_Source\PSoC5/USB_Bootloader.c **** 
 224:.\Generated_Source\PSoC5/USB_Bootloader.c **** 
 225:.\Generated_Source\PSoC5/USB_Bootloader.c ****     /* Set the bus reset Interrupt. */
 226:.\Generated_Source\PSoC5/USB_Bootloader.c ****     (void) CyIntSetVector(USB_Bootloader_BUS_RESET_VECT_NUM,   &USB_Bootloader_BUS_RESET_ISR);
 126              		.loc 1 226 0
 127 0098 1720     		movs	r0, #23
 128 009a 1A49     		ldr	r1, .L3+24
 129 009c FFF7FEFF 		bl	CyIntSetVector
 130              	.LVL7:
 227:.\Generated_Source\PSoC5/USB_Bootloader.c ****     CyIntSetPriority(USB_Bootloader_BUS_RESET_VECT_NUM, USB_Bootloader_BUS_RESET_PRIOR);
 131              		.loc 1 227 0
 132 00a0 1720     		movs	r0, #23
 133 00a2 0721     		movs	r1, #7
 134 00a4 FFF7FEFF 		bl	CyIntSetPriority
 135              	.LVL8:
 228:.\Generated_Source\PSoC5/USB_Bootloader.c **** 
 229:.\Generated_Source\PSoC5/USB_Bootloader.c ****     /* Set the SOF Interrupt. */
 230:.\Generated_Source\PSoC5/USB_Bootloader.c ****     #if(USB_Bootloader_SOF_ISR_REMOVE == 0u)
 231:.\Generated_Source\PSoC5/USB_Bootloader.c ****         (void) CyIntSetVector(USB_Bootloader_SOF_VECT_NUM,   &USB_Bootloader_SOF_ISR);
 136              		.loc 1 231 0
 137 00a8 1520     		movs	r0, #21
 138 00aa 1749     		ldr	r1, .L3+28
 139 00ac FFF7FEFF 		bl	CyIntSetVector
 140              	.LVL9:
 232:.\Generated_Source\PSoC5/USB_Bootloader.c ****         CyIntSetPriority(USB_Bootloader_SOF_VECT_NUM, USB_Bootloader_SOF_PRIOR);
 141              		.loc 1 232 0
 142 00b0 1520     		movs	r0, #21
 143 00b2 0721     		movs	r1, #7
 144 00b4 FFF7FEFF 		bl	CyIntSetPriority
 145              	.LVL10:
 233:.\Generated_Source\PSoC5/USB_Bootloader.c ****     #endif   /*  USB_Bootloader_SOF_ISR_REMOVE */
 234:.\Generated_Source\PSoC5/USB_Bootloader.c **** 
 235:.\Generated_Source\PSoC5/USB_Bootloader.c ****     /* Set the Control Endpoint Interrupt. */
 236:.\Generated_Source\PSoC5/USB_Bootloader.c ****     (void) CyIntSetVector(USB_Bootloader_EP_0_VECT_NUM,   &USB_Bootloader_EP_0_ISR);
 146              		.loc 1 236 0
 147 00b8 1820     		movs	r0, #24
 148 00ba 1449     		ldr	r1, .L3+32
 149 00bc FFF7FEFF 		bl	CyIntSetVector
 150              	.LVL11:
 237:.\Generated_Source\PSoC5/USB_Bootloader.c ****     CyIntSetPriority(USB_Bootloader_EP_0_VECT_NUM, USB_Bootloader_EP_0_PRIOR);
 151              		.loc 1 237 0
 152 00c0 1820     		movs	r0, #24
 153 00c2 0721     		movs	r1, #7
 154 00c4 FFF7FEFF 		bl	CyIntSetPriority
 155              	.LVL12:
 238:.\Generated_Source\PSoC5/USB_Bootloader.c **** 
 239:.\Generated_Source\PSoC5/USB_Bootloader.c ****     /* Set the Data Endpoint 1 Interrupt. */
 240:.\Generated_Source\PSoC5/USB_Bootloader.c ****     #if(USB_Bootloader_EP1_ISR_REMOVE == 0u)
 241:.\Generated_Source\PSoC5/USB_Bootloader.c ****         (void) CyIntSetVector(USB_Bootloader_EP_1_VECT_NUM,   &USB_Bootloader_EP_1_ISR);
 156              		.loc 1 241 0
 157 00c8 2046     		mov	r0, r4
 158 00ca 1149     		ldr	r1, .L3+36
ARM GAS  C:\Users\Robert\AppData\Local\Temp\ccGEgqLk.s 			page 8


 159 00cc FFF7FEFF 		bl	CyIntSetVector
 160              	.LVL13:
 242:.\Generated_Source\PSoC5/USB_Bootloader.c ****         CyIntSetPriority(USB_Bootloader_EP_1_VECT_NUM, USB_Bootloader_EP_1_PRIOR);
 161              		.loc 1 242 0
 162 00d0 2046     		mov	r0, r4
 163 00d2 0721     		movs	r1, #7
 164 00d4 FFF7FEFF 		bl	CyIntSetPriority
 165              	.LVL14:
 243:.\Generated_Source\PSoC5/USB_Bootloader.c ****     #endif   /*  USB_Bootloader_EP1_ISR_REMOVE */
 244:.\Generated_Source\PSoC5/USB_Bootloader.c **** 
 245:.\Generated_Source\PSoC5/USB_Bootloader.c ****     /* Set the Data Endpoint 2 Interrupt. */
 246:.\Generated_Source\PSoC5/USB_Bootloader.c ****     #if(USB_Bootloader_EP2_ISR_REMOVE == 0u)
 247:.\Generated_Source\PSoC5/USB_Bootloader.c ****         (void) CyIntSetVector(USB_Bootloader_EP_2_VECT_NUM,   &USB_Bootloader_EP_2_ISR);
 166              		.loc 1 247 0
 167 00d8 2846     		mov	r0, r5
 168 00da 0E49     		ldr	r1, .L3+40
 169 00dc FFF7FEFF 		bl	CyIntSetVector
 170              	.LVL15:
 248:.\Generated_Source\PSoC5/USB_Bootloader.c ****         CyIntSetPriority(USB_Bootloader_EP_2_VECT_NUM, USB_Bootloader_EP_2_PRIOR);
 171              		.loc 1 248 0
 172 00e0 2846     		mov	r0, r5
 173 00e2 0721     		movs	r1, #7
 174 00e4 FFF7FEFF 		bl	CyIntSetPriority
 175              	.LVL16:
 176 00e8 F8BD     		pop	{r3, r4, r5, r6, r7, pc}
 177              	.LVL17:
 178              	.L4:
 179 00ea 00BF     		.align	2
 180              	.L3:
 181 00ec A5430040 		.word	1073759141
 182 00f0 9D600040 		.word	1073766557
 183 00f4 94430040 		.word	1073759124
 184 00f8 12600040 		.word	1073766418
 185 00fc F8510040 		.word	1073762808
 186 0100 84600040 		.word	1073766532
 187 0104 00000000 		.word	USB_Bootloader_BUS_RESET_ISR
 188 0108 00000000 		.word	USB_Bootloader_SOF_ISR
 189 010c 00000000 		.word	USB_Bootloader_EP_0_ISR
 190 0110 00000000 		.word	USB_Bootloader_EP_1_ISR
 191 0114 00000000 		.word	USB_Bootloader_EP_2_ISR
 192              		.cfi_endproc
 193              	.LFE1:
 194              		.size	USB_Bootloader_Init, .-USB_Bootloader_Init
 195              		.section	.text.USB_Bootloader_InitComponent,"ax",%progbits
 196              		.align	2
 197              		.global	USB_Bootloader_InitComponent
 198              		.thumb
 199              		.thumb_func
 200              		.type	USB_Bootloader_InitComponent, %function
 201              	USB_Bootloader_InitComponent:
 202              	.LFB2:
 249:.\Generated_Source\PSoC5/USB_Bootloader.c ****     #endif   /*  USB_Bootloader_EP2_ISR_REMOVE */
 250:.\Generated_Source\PSoC5/USB_Bootloader.c **** 
 251:.\Generated_Source\PSoC5/USB_Bootloader.c ****     /* Set the Data Endpoint 3 Interrupt. */
 252:.\Generated_Source\PSoC5/USB_Bootloader.c ****     #if(USB_Bootloader_EP3_ISR_REMOVE == 0u)
 253:.\Generated_Source\PSoC5/USB_Bootloader.c ****         (void) CyIntSetVector(USB_Bootloader_EP_3_VECT_NUM,   &USB_Bootloader_EP_3_ISR);
 254:.\Generated_Source\PSoC5/USB_Bootloader.c ****         CyIntSetPriority(USB_Bootloader_EP_3_VECT_NUM, USB_Bootloader_EP_3_PRIOR);
ARM GAS  C:\Users\Robert\AppData\Local\Temp\ccGEgqLk.s 			page 9


 255:.\Generated_Source\PSoC5/USB_Bootloader.c ****     #endif   /*  USB_Bootloader_EP3_ISR_REMOVE */
 256:.\Generated_Source\PSoC5/USB_Bootloader.c **** 
 257:.\Generated_Source\PSoC5/USB_Bootloader.c ****     /* Set the Data Endpoint 4 Interrupt. */
 258:.\Generated_Source\PSoC5/USB_Bootloader.c ****     #if(USB_Bootloader_EP4_ISR_REMOVE == 0u)
 259:.\Generated_Source\PSoC5/USB_Bootloader.c ****         (void) CyIntSetVector(USB_Bootloader_EP_4_VECT_NUM,   &USB_Bootloader_EP_4_ISR);
 260:.\Generated_Source\PSoC5/USB_Bootloader.c ****         CyIntSetPriority(USB_Bootloader_EP_4_VECT_NUM, USB_Bootloader_EP_4_PRIOR);
 261:.\Generated_Source\PSoC5/USB_Bootloader.c ****     #endif   /*  USB_Bootloader_EP4_ISR_REMOVE */
 262:.\Generated_Source\PSoC5/USB_Bootloader.c **** 
 263:.\Generated_Source\PSoC5/USB_Bootloader.c ****     /* Set the Data Endpoint 5 Interrupt. */
 264:.\Generated_Source\PSoC5/USB_Bootloader.c ****     #if(USB_Bootloader_EP5_ISR_REMOVE == 0u)
 265:.\Generated_Source\PSoC5/USB_Bootloader.c ****         (void) CyIntSetVector(USB_Bootloader_EP_5_VECT_NUM,   &USB_Bootloader_EP_5_ISR);
 266:.\Generated_Source\PSoC5/USB_Bootloader.c ****         CyIntSetPriority(USB_Bootloader_EP_5_VECT_NUM, USB_Bootloader_EP_5_PRIOR);
 267:.\Generated_Source\PSoC5/USB_Bootloader.c ****     #endif   /*  USB_Bootloader_EP5_ISR_REMOVE */
 268:.\Generated_Source\PSoC5/USB_Bootloader.c **** 
 269:.\Generated_Source\PSoC5/USB_Bootloader.c ****     /* Set the Data Endpoint 6 Interrupt. */
 270:.\Generated_Source\PSoC5/USB_Bootloader.c ****     #if(USB_Bootloader_EP6_ISR_REMOVE == 0u)
 271:.\Generated_Source\PSoC5/USB_Bootloader.c ****         (void) CyIntSetVector(USB_Bootloader_EP_6_VECT_NUM,   &USB_Bootloader_EP_6_ISR);
 272:.\Generated_Source\PSoC5/USB_Bootloader.c ****         CyIntSetPriority(USB_Bootloader_EP_6_VECT_NUM, USB_Bootloader_EP_6_PRIOR);
 273:.\Generated_Source\PSoC5/USB_Bootloader.c ****     #endif   /*  USB_Bootloader_EP6_ISR_REMOVE */
 274:.\Generated_Source\PSoC5/USB_Bootloader.c **** 
 275:.\Generated_Source\PSoC5/USB_Bootloader.c ****      /* Set the Data Endpoint 7 Interrupt. */
 276:.\Generated_Source\PSoC5/USB_Bootloader.c ****     #if(USB_Bootloader_EP7_ISR_REMOVE == 0u)
 277:.\Generated_Source\PSoC5/USB_Bootloader.c ****         (void) CyIntSetVector(USB_Bootloader_EP_7_VECT_NUM,   &USB_Bootloader_EP_7_ISR);
 278:.\Generated_Source\PSoC5/USB_Bootloader.c ****         CyIntSetPriority(USB_Bootloader_EP_7_VECT_NUM, USB_Bootloader_EP_7_PRIOR);
 279:.\Generated_Source\PSoC5/USB_Bootloader.c ****     #endif   /*  USB_Bootloader_EP7_ISR_REMOVE */
 280:.\Generated_Source\PSoC5/USB_Bootloader.c **** 
 281:.\Generated_Source\PSoC5/USB_Bootloader.c ****     /* Set the Data Endpoint 8 Interrupt. */
 282:.\Generated_Source\PSoC5/USB_Bootloader.c ****     #if(USB_Bootloader_EP8_ISR_REMOVE == 0u)
 283:.\Generated_Source\PSoC5/USB_Bootloader.c ****         (void) CyIntSetVector(USB_Bootloader_EP_8_VECT_NUM,   &USB_Bootloader_EP_8_ISR);
 284:.\Generated_Source\PSoC5/USB_Bootloader.c ****         CyIntSetPriority(USB_Bootloader_EP_8_VECT_NUM, USB_Bootloader_EP_8_PRIOR);
 285:.\Generated_Source\PSoC5/USB_Bootloader.c ****     #endif   /*  USB_Bootloader_EP8_ISR_REMOVE */
 286:.\Generated_Source\PSoC5/USB_Bootloader.c **** 
 287:.\Generated_Source\PSoC5/USB_Bootloader.c ****     #if((USB_Bootloader_EP_MM != USB_Bootloader__EP_MANUAL) && (USB_Bootloader_ARB_ISR_REMOVE == 0u
 288:.\Generated_Source\PSoC5/USB_Bootloader.c ****         /* Set the ARB Interrupt. */
 289:.\Generated_Source\PSoC5/USB_Bootloader.c ****         (void) CyIntSetVector(USB_Bootloader_ARB_VECT_NUM,   &USB_Bootloader_ARB_ISR);
 290:.\Generated_Source\PSoC5/USB_Bootloader.c ****         CyIntSetPriority(USB_Bootloader_ARB_VECT_NUM, USB_Bootloader_ARB_PRIOR);
 291:.\Generated_Source\PSoC5/USB_Bootloader.c ****     #endif   /*  USB_Bootloader_EP_MM != USB_Bootloader__EP_MANUAL */
 292:.\Generated_Source\PSoC5/USB_Bootloader.c **** 
 293:.\Generated_Source\PSoC5/USB_Bootloader.c **** }
 294:.\Generated_Source\PSoC5/USB_Bootloader.c **** 
 295:.\Generated_Source\PSoC5/USB_Bootloader.c **** 
 296:.\Generated_Source\PSoC5/USB_Bootloader.c **** /*******************************************************************************
 297:.\Generated_Source\PSoC5/USB_Bootloader.c **** * Function Name: USB_Bootloader_InitComponent
 298:.\Generated_Source\PSoC5/USB_Bootloader.c **** ********************************************************************************
 299:.\Generated_Source\PSoC5/USB_Bootloader.c **** *
 300:.\Generated_Source\PSoC5/USB_Bootloader.c **** * Summary:
 301:.\Generated_Source\PSoC5/USB_Bootloader.c **** *  Initialize the component, except for the HW which is done one time in
 302:.\Generated_Source\PSoC5/USB_Bootloader.c **** *  the Start function.  This function pulls up D+.
 303:.\Generated_Source\PSoC5/USB_Bootloader.c **** *
 304:.\Generated_Source\PSoC5/USB_Bootloader.c **** * Parameters:
 305:.\Generated_Source\PSoC5/USB_Bootloader.c **** *  device: Contains the device number of the desired device descriptor.
 306:.\Generated_Source\PSoC5/USB_Bootloader.c **** *          The device number can be found in the Device Descriptor Tab of
 307:.\Generated_Source\PSoC5/USB_Bootloader.c **** *          "Configure" dialog, under the settings of desired Device Descriptor,
 308:.\Generated_Source\PSoC5/USB_Bootloader.c **** *          in the "Device Number" field.
 309:.\Generated_Source\PSoC5/USB_Bootloader.c **** *  mode: The operating voltage. This determines whether the voltage regulator
 310:.\Generated_Source\PSoC5/USB_Bootloader.c **** *        is enabled for 5V operation or if pass through mode is used for 3.3V
 311:.\Generated_Source\PSoC5/USB_Bootloader.c **** *        operation. Symbolic names and their associated values are given in the
ARM GAS  C:\Users\Robert\AppData\Local\Temp\ccGEgqLk.s 			page 10


 312:.\Generated_Source\PSoC5/USB_Bootloader.c **** *        following table.
 313:.\Generated_Source\PSoC5/USB_Bootloader.c **** *       USB_Bootloader_3V_OPERATION - Disable voltage regulator and pass-thru
 314:.\Generated_Source\PSoC5/USB_Bootloader.c **** *                                       Vcc for pull-up
 315:.\Generated_Source\PSoC5/USB_Bootloader.c **** *       USB_Bootloader_5V_OPERATION - Enable voltage regulator and use
 316:.\Generated_Source\PSoC5/USB_Bootloader.c **** *                                       regulator for pull-up
 317:.\Generated_Source\PSoC5/USB_Bootloader.c **** *       USB_Bootloader_DWR_VDDD_OPERATION - Enable or Disable voltage
 318:.\Generated_Source\PSoC5/USB_Bootloader.c **** *                         regulator depend on Vddd Voltage configuration in DWR.
 319:.\Generated_Source\PSoC5/USB_Bootloader.c **** *
 320:.\Generated_Source\PSoC5/USB_Bootloader.c **** * Return:
 321:.\Generated_Source\PSoC5/USB_Bootloader.c **** *   None.
 322:.\Generated_Source\PSoC5/USB_Bootloader.c **** *
 323:.\Generated_Source\PSoC5/USB_Bootloader.c **** * Global variables:
 324:.\Generated_Source\PSoC5/USB_Bootloader.c **** *   USB_Bootloader_device: Contains the device number of the desired device
 325:.\Generated_Source\PSoC5/USB_Bootloader.c **** *       descriptor. The device number can be found in the Device Descriptor Tab
 326:.\Generated_Source\PSoC5/USB_Bootloader.c **** *       of "Configure" dialog, under the settings of desired Device Descriptor,
 327:.\Generated_Source\PSoC5/USB_Bootloader.c **** *       in the "Device Number" field.
 328:.\Generated_Source\PSoC5/USB_Bootloader.c **** *   USB_Bootloader_transferState: This variable used by the communication
 329:.\Generated_Source\PSoC5/USB_Bootloader.c **** *       functions to handle current transfer state. Initialized to
 330:.\Generated_Source\PSoC5/USB_Bootloader.c **** *       TRANS_STATE_IDLE in this API.
 331:.\Generated_Source\PSoC5/USB_Bootloader.c **** *   USB_Bootloader_configuration: Contains current configuration number
 332:.\Generated_Source\PSoC5/USB_Bootloader.c **** *       which is set by the Host using SET_CONFIGURATION request.
 333:.\Generated_Source\PSoC5/USB_Bootloader.c **** *       Initialized to zero in this API.
 334:.\Generated_Source\PSoC5/USB_Bootloader.c **** *   USB_Bootloader_deviceAddress: Contains current device address. This
 335:.\Generated_Source\PSoC5/USB_Bootloader.c **** *       variable is initialized to zero in this API. Host starts to communicate
 336:.\Generated_Source\PSoC5/USB_Bootloader.c **** *      to device with address 0 and then set it to whatever value using
 337:.\Generated_Source\PSoC5/USB_Bootloader.c **** *      SET_ADDRESS request.
 338:.\Generated_Source\PSoC5/USB_Bootloader.c **** *   USB_Bootloader_deviceStatus: initialized to 0.
 339:.\Generated_Source\PSoC5/USB_Bootloader.c **** *       This is two bit variable which contain power status in first bit
 340:.\Generated_Source\PSoC5/USB_Bootloader.c **** *       (DEVICE_STATUS_BUS_POWERED or DEVICE_STATUS_SELF_POWERED) and remote
 341:.\Generated_Source\PSoC5/USB_Bootloader.c **** *       wakeup status (DEVICE_STATUS_REMOTE_WAKEUP) in second bit.
 342:.\Generated_Source\PSoC5/USB_Bootloader.c **** *   USB_Bootloader_lastPacketSize initialized to 0;
 343:.\Generated_Source\PSoC5/USB_Bootloader.c **** *
 344:.\Generated_Source\PSoC5/USB_Bootloader.c **** * Reentrant:
 345:.\Generated_Source\PSoC5/USB_Bootloader.c **** *  No.
 346:.\Generated_Source\PSoC5/USB_Bootloader.c **** *
 347:.\Generated_Source\PSoC5/USB_Bootloader.c **** *******************************************************************************/
 348:.\Generated_Source\PSoC5/USB_Bootloader.c **** void USB_Bootloader_InitComponent(uint8 device, uint8 mode) 
 349:.\Generated_Source\PSoC5/USB_Bootloader.c **** {
 203              		.loc 1 349 0
 204              		.cfi_startproc
 205              		@ args = 0, pretend = 0, frame = 0
 206              		@ frame_needed = 0, uses_anonymous_args = 0
 207              	.LVL18:
 208 0000 10B5     		push	{r4, lr}
 209              		.cfi_def_cfa_offset 8
 210              		.cfi_offset 4, -8
 211              		.cfi_offset 14, -4
 212              	.LVL19:
 350:.\Generated_Source\PSoC5/USB_Bootloader.c ****     /* Initialize _hidProtocol variable to comply with
 351:.\Generated_Source\PSoC5/USB_Bootloader.c ****     *  HID 7.2.6 Set_Protocol Request:
 352:.\Generated_Source\PSoC5/USB_Bootloader.c ****     *  "When initialized, all devices default to report protocol."
 353:.\Generated_Source\PSoC5/USB_Bootloader.c ****     */
 354:.\Generated_Source\PSoC5/USB_Bootloader.c ****     #if defined(USB_Bootloader_ENABLE_HID_CLASS)
 355:.\Generated_Source\PSoC5/USB_Bootloader.c ****         uint8 i;
 356:.\Generated_Source\PSoC5/USB_Bootloader.c **** 
 357:.\Generated_Source\PSoC5/USB_Bootloader.c ****         for (i = 0u; i < USB_Bootloader_MAX_INTERFACES_NUMBER; i++)
 213              		.loc 1 357 0
ARM GAS  C:\Users\Robert\AppData\Local\Temp\ccGEgqLk.s 			page 11


 214 0002 0023     		movs	r3, #0
 215 0004 04E0     		b	.L6
 216              	.LVL20:
 217              	.L7:
 358:.\Generated_Source\PSoC5/USB_Bootloader.c ****         {
 359:.\Generated_Source\PSoC5/USB_Bootloader.c ****             USB_Bootloader_hidProtocol[i] = USB_Bootloader_PROTOCOL_REPORT;
 218              		.loc 1 359 0 discriminator 3
 219 0006 0124     		movs	r4, #1
 220 0008 1F4A     		ldr	r2, .L14
 221 000a D454     		strb	r4, [r2, r3]
 357:.\Generated_Source\PSoC5/USB_Bootloader.c ****         {
 222              		.loc 1 357 0 discriminator 3
 223 000c 2344     		add	r3, r3, r4
 224              	.LVL21:
 225 000e DBB2     		uxtb	r3, r3
 226              	.LVL22:
 227              	.L6:
 357:.\Generated_Source\PSoC5/USB_Bootloader.c ****         {
 228              		.loc 1 357 0 is_stmt 0 discriminator 1
 229 0010 002B     		cmp	r3, #0
 230 0012 F8D0     		beq	.L7
 360:.\Generated_Source\PSoC5/USB_Bootloader.c ****         }
 361:.\Generated_Source\PSoC5/USB_Bootloader.c ****     #endif /* USB_Bootloader_ENABLE_HID_CLASS */
 362:.\Generated_Source\PSoC5/USB_Bootloader.c **** 
 363:.\Generated_Source\PSoC5/USB_Bootloader.c ****     /* Enable Interrupts. */
 364:.\Generated_Source\PSoC5/USB_Bootloader.c ****     CyIntEnable(USB_Bootloader_BUS_RESET_VECT_NUM);
 231              		.loc 1 364 0 is_stmt 1
 232 0014 1D4B     		ldr	r3, .L14+4
 233              	.LVL23:
 234 0016 4FF40002 		mov	r2, #8388608
 235 001a 1A60     		str	r2, [r3]
 365:.\Generated_Source\PSoC5/USB_Bootloader.c ****     CyIntEnable(USB_Bootloader_EP_0_VECT_NUM);
 236              		.loc 1 365 0
 237 001c 4FF08072 		mov	r2, #16777216
 238 0020 1A60     		str	r2, [r3]
 366:.\Generated_Source\PSoC5/USB_Bootloader.c ****     #if(USB_Bootloader_EP1_ISR_REMOVE == 0u)
 367:.\Generated_Source\PSoC5/USB_Bootloader.c ****         CyIntEnable(USB_Bootloader_EP_1_VECT_NUM);
 239              		.loc 1 367 0
 240 0022 0122     		movs	r2, #1
 241 0024 1A60     		str	r2, [r3]
 368:.\Generated_Source\PSoC5/USB_Bootloader.c ****     #endif   /*  USB_Bootloader_EP1_ISR_REMOVE */
 369:.\Generated_Source\PSoC5/USB_Bootloader.c ****     #if(USB_Bootloader_EP2_ISR_REMOVE == 0u)
 370:.\Generated_Source\PSoC5/USB_Bootloader.c ****         CyIntEnable(USB_Bootloader_EP_2_VECT_NUM);
 242              		.loc 1 370 0
 243 0026 0222     		movs	r2, #2
 244 0028 1A60     		str	r2, [r3]
 371:.\Generated_Source\PSoC5/USB_Bootloader.c ****     #endif   /*  USB_Bootloader_EP2_ISR_REMOVE */
 372:.\Generated_Source\PSoC5/USB_Bootloader.c ****     #if(USB_Bootloader_EP3_ISR_REMOVE == 0u)
 373:.\Generated_Source\PSoC5/USB_Bootloader.c ****         CyIntEnable(USB_Bootloader_EP_3_VECT_NUM);
 374:.\Generated_Source\PSoC5/USB_Bootloader.c ****     #endif   /*  USB_Bootloader_EP3_ISR_REMOVE */
 375:.\Generated_Source\PSoC5/USB_Bootloader.c ****     #if(USB_Bootloader_EP4_ISR_REMOVE == 0u)
 376:.\Generated_Source\PSoC5/USB_Bootloader.c ****         CyIntEnable(USB_Bootloader_EP_4_VECT_NUM);
 377:.\Generated_Source\PSoC5/USB_Bootloader.c ****     #endif   /*  USB_Bootloader_EP4_ISR_REMOVE */
 378:.\Generated_Source\PSoC5/USB_Bootloader.c ****     #if(USB_Bootloader_EP5_ISR_REMOVE == 0u)
 379:.\Generated_Source\PSoC5/USB_Bootloader.c ****         CyIntEnable(USB_Bootloader_EP_5_VECT_NUM);
 380:.\Generated_Source\PSoC5/USB_Bootloader.c ****     #endif   /*  USB_Bootloader_EP5_ISR_REMOVE */
 381:.\Generated_Source\PSoC5/USB_Bootloader.c ****     #if(USB_Bootloader_EP6_ISR_REMOVE == 0u)
ARM GAS  C:\Users\Robert\AppData\Local\Temp\ccGEgqLk.s 			page 12


 382:.\Generated_Source\PSoC5/USB_Bootloader.c ****         CyIntEnable(USB_Bootloader_EP_6_VECT_NUM);
 383:.\Generated_Source\PSoC5/USB_Bootloader.c ****     #endif   /*  USB_Bootloader_EP6_ISR_REMOVE */
 384:.\Generated_Source\PSoC5/USB_Bootloader.c ****     #if(USB_Bootloader_EP7_ISR_REMOVE == 0u)
 385:.\Generated_Source\PSoC5/USB_Bootloader.c ****         CyIntEnable(USB_Bootloader_EP_7_VECT_NUM);
 386:.\Generated_Source\PSoC5/USB_Bootloader.c ****     #endif   /*  USB_Bootloader_EP7_ISR_REMOVE */
 387:.\Generated_Source\PSoC5/USB_Bootloader.c ****     #if(USB_Bootloader_EP8_ISR_REMOVE == 0u)
 388:.\Generated_Source\PSoC5/USB_Bootloader.c ****         CyIntEnable(USB_Bootloader_EP_8_VECT_NUM);
 389:.\Generated_Source\PSoC5/USB_Bootloader.c ****     #endif   /*  USB_Bootloader_EP8_ISR_REMOVE */
 390:.\Generated_Source\PSoC5/USB_Bootloader.c ****     #if((USB_Bootloader_EP_MM != USB_Bootloader__EP_MANUAL) && (USB_Bootloader_ARB_ISR_REMOVE == 0u
 391:.\Generated_Source\PSoC5/USB_Bootloader.c ****         /* usb arb interrupt enable */
 392:.\Generated_Source\PSoC5/USB_Bootloader.c ****         USB_Bootloader_ARB_INT_EN_REG = USB_Bootloader_ARB_INT_MASK;
 393:.\Generated_Source\PSoC5/USB_Bootloader.c ****         CyIntEnable(USB_Bootloader_ARB_VECT_NUM);
 394:.\Generated_Source\PSoC5/USB_Bootloader.c ****     #endif   /*  USB_Bootloader_EP_MM != USB_Bootloader__EP_MANUAL */
 395:.\Generated_Source\PSoC5/USB_Bootloader.c **** 
 396:.\Generated_Source\PSoC5/USB_Bootloader.c ****     /* Arbiter configuration for DMA transfers */
 397:.\Generated_Source\PSoC5/USB_Bootloader.c ****     #if(USB_Bootloader_EP_MM != USB_Bootloader__EP_MANUAL)
 398:.\Generated_Source\PSoC5/USB_Bootloader.c ****         #if(USB_Bootloader_EP_MM == USB_Bootloader__EP_DMAMANUAL)
 399:.\Generated_Source\PSoC5/USB_Bootloader.c ****             USB_Bootloader_ARB_CFG_REG = USB_Bootloader_ARB_CFG_MANUAL_DMA;
 400:.\Generated_Source\PSoC5/USB_Bootloader.c ****         #endif   /*  USB_Bootloader_EP_MM == USB_Bootloader__EP_DMAMANUAL */
 401:.\Generated_Source\PSoC5/USB_Bootloader.c ****         #if(USB_Bootloader_EP_MM == USB_Bootloader__EP_DMAAUTO)
 402:.\Generated_Source\PSoC5/USB_Bootloader.c ****             /*Set cfg cmplt this rises DMA request when the full configuration is done */
 403:.\Generated_Source\PSoC5/USB_Bootloader.c ****             USB_Bootloader_ARB_CFG_REG = USB_Bootloader_ARB_CFG_AUTO_DMA | USB_Bootloader_ARB_CFG_A
 404:.\Generated_Source\PSoC5/USB_Bootloader.c ****             #if(USB_Bootloader_EP_DMA_AUTO_OPT == 0u)
 405:.\Generated_Source\PSoC5/USB_Bootloader.c ****                 /* Init interrupt which handles verification of the successful DMA transaction */
 406:.\Generated_Source\PSoC5/USB_Bootloader.c ****                 USB_Bootloader_EP_DMA_Done_isr_StartEx(&USB_Bootloader_EP_DMA_DONE_ISR);
 407:.\Generated_Source\PSoC5/USB_Bootloader.c ****                 USB_Bootloader_EP17_DMA_Done_SR_InterruptEnable();
 408:.\Generated_Source\PSoC5/USB_Bootloader.c ****                 USB_Bootloader_EP8_DMA_Done_SR_InterruptEnable();
 409:.\Generated_Source\PSoC5/USB_Bootloader.c ****             #endif /* USB_Bootloader_EP_DMA_AUTO_OPT == 0u */
 410:.\Generated_Source\PSoC5/USB_Bootloader.c ****         #endif   /*  USB_Bootloader_EP_MM == USB_Bootloader__EP_DMAAUTO */
 411:.\Generated_Source\PSoC5/USB_Bootloader.c ****     #endif   /*  USB_Bootloader_EP_MM != USB_Bootloader__EP_MANUAL */
 412:.\Generated_Source\PSoC5/USB_Bootloader.c **** 
 413:.\Generated_Source\PSoC5/USB_Bootloader.c ****     USB_Bootloader_transferState = USB_Bootloader_TRANS_STATE_IDLE;
 245              		.loc 1 413 0
 246 002a 0022     		movs	r2, #0
 247 002c 184B     		ldr	r3, .L14+8
 248 002e 1A70     		strb	r2, [r3]
 414:.\Generated_Source\PSoC5/USB_Bootloader.c **** 
 415:.\Generated_Source\PSoC5/USB_Bootloader.c ****     /* USB Locking: Enabled, VRegulator: depend on mode or DWR Voltage configuration*/
 416:.\Generated_Source\PSoC5/USB_Bootloader.c ****     switch(mode)
 249              		.loc 1 416 0
 250 0030 11B1     		cbz	r1, .L9
 251 0032 0129     		cmp	r1, #1
 252 0034 04D0     		beq	.L10
 253 0036 07E0     		b	.L12
 254              	.L9:
 417:.\Generated_Source\PSoC5/USB_Bootloader.c ****     {
 418:.\Generated_Source\PSoC5/USB_Bootloader.c ****         case USB_Bootloader_3V_OPERATION:
 419:.\Generated_Source\PSoC5/USB_Bootloader.c ****             USB_Bootloader_CR1_REG = USB_Bootloader_CR1_ENABLE_LOCK;
 255              		.loc 1 419 0
 256 0038 0222     		movs	r2, #2
 257 003a 164B     		ldr	r3, .L14+12
 258 003c 1A70     		strb	r2, [r3]
 420:.\Generated_Source\PSoC5/USB_Bootloader.c ****             break;
 259              		.loc 1 420 0
 260 003e 06E0     		b	.L11
 261              	.L10:
 421:.\Generated_Source\PSoC5/USB_Bootloader.c ****         case USB_Bootloader_5V_OPERATION:
ARM GAS  C:\Users\Robert\AppData\Local\Temp\ccGEgqLk.s 			page 13


 422:.\Generated_Source\PSoC5/USB_Bootloader.c ****             USB_Bootloader_CR1_REG = USB_Bootloader_CR1_ENABLE_LOCK | USB_Bootloader_CR1_REG_ENABLE
 262              		.loc 1 422 0
 263 0040 0322     		movs	r2, #3
 264 0042 144B     		ldr	r3, .L14+12
 265 0044 1A70     		strb	r2, [r3]
 423:.\Generated_Source\PSoC5/USB_Bootloader.c ****             break;
 266              		.loc 1 423 0
 267 0046 02E0     		b	.L11
 268              	.L12:
 424:.\Generated_Source\PSoC5/USB_Bootloader.c ****         default:   /*USB_Bootloader_DWR_VDDD_OPERATION */
 425:.\Generated_Source\PSoC5/USB_Bootloader.c ****             #if(USB_Bootloader_VDDD_MV < USB_Bootloader_3500MV)
 426:.\Generated_Source\PSoC5/USB_Bootloader.c ****                 USB_Bootloader_CR1_REG = USB_Bootloader_CR1_ENABLE_LOCK;
 427:.\Generated_Source\PSoC5/USB_Bootloader.c ****             #else
 428:.\Generated_Source\PSoC5/USB_Bootloader.c ****                 USB_Bootloader_CR1_REG = USB_Bootloader_CR1_ENABLE_LOCK | USB_Bootloader_CR1_REG_EN
 269              		.loc 1 428 0
 270 0048 0322     		movs	r2, #3
 271 004a 124B     		ldr	r3, .L14+12
 272 004c 1A70     		strb	r2, [r3]
 273              	.L11:
 429:.\Generated_Source\PSoC5/USB_Bootloader.c ****             #endif /*  USB_Bootloader_VDDD_MV < USB_Bootloader_3500MV */
 430:.\Generated_Source\PSoC5/USB_Bootloader.c ****             break;
 431:.\Generated_Source\PSoC5/USB_Bootloader.c ****     }
 432:.\Generated_Source\PSoC5/USB_Bootloader.c **** 
 433:.\Generated_Source\PSoC5/USB_Bootloader.c ****     /* Record the descriptor selection */
 434:.\Generated_Source\PSoC5/USB_Bootloader.c ****     USB_Bootloader_device = device;
 274              		.loc 1 434 0
 275 004e 124B     		ldr	r3, .L14+16
 276 0050 1870     		strb	r0, [r3]
 435:.\Generated_Source\PSoC5/USB_Bootloader.c **** 
 436:.\Generated_Source\PSoC5/USB_Bootloader.c ****     /* Clear all of the component data */
 437:.\Generated_Source\PSoC5/USB_Bootloader.c ****     USB_Bootloader_configuration = 0u;
 277              		.loc 1 437 0
 278 0052 0023     		movs	r3, #0
 279 0054 114A     		ldr	r2, .L14+20
 280 0056 1370     		strb	r3, [r2]
 438:.\Generated_Source\PSoC5/USB_Bootloader.c ****     USB_Bootloader_interfaceNumber = 0u;
 281              		.loc 1 438 0
 282 0058 114A     		ldr	r2, .L14+24
 283 005a 1370     		strb	r3, [r2]
 439:.\Generated_Source\PSoC5/USB_Bootloader.c ****     USB_Bootloader_configurationChanged = 0u;
 284              		.loc 1 439 0
 285 005c 114A     		ldr	r2, .L14+28
 286 005e 1370     		strb	r3, [r2]
 440:.\Generated_Source\PSoC5/USB_Bootloader.c ****     USB_Bootloader_deviceAddress  = 0u;
 287              		.loc 1 440 0
 288 0060 114A     		ldr	r2, .L14+32
 289 0062 1370     		strb	r3, [r2]
 441:.\Generated_Source\PSoC5/USB_Bootloader.c ****     USB_Bootloader_deviceStatus = 0u;
 290              		.loc 1 441 0
 291 0064 114A     		ldr	r2, .L14+36
 292 0066 1370     		strb	r3, [r2]
 442:.\Generated_Source\PSoC5/USB_Bootloader.c **** 
 443:.\Generated_Source\PSoC5/USB_Bootloader.c ****     USB_Bootloader_lastPacketSize = 0u;
 293              		.loc 1 443 0
 294 0068 114A     		ldr	r2, .L14+40
 295 006a 1370     		strb	r3, [r2]
 444:.\Generated_Source\PSoC5/USB_Bootloader.c **** 
ARM GAS  C:\Users\Robert\AppData\Local\Temp\ccGEgqLk.s 			page 14


 445:.\Generated_Source\PSoC5/USB_Bootloader.c ****     /*  ACK Setup, Stall IN/OUT */
 446:.\Generated_Source\PSoC5/USB_Bootloader.c ****     CY_SET_REG8(USB_Bootloader_EP0_CR_PTR, USB_Bootloader_MODE_STALL_IN_OUT);
 296              		.loc 1 446 0
 297 006c 0322     		movs	r2, #3
 298 006e 114B     		ldr	r3, .L14+44
 299 0070 1A70     		strb	r2, [r3]
 447:.\Generated_Source\PSoC5/USB_Bootloader.c **** 
 448:.\Generated_Source\PSoC5/USB_Bootloader.c ****     /* Enable the SIE with an address 0 */
 449:.\Generated_Source\PSoC5/USB_Bootloader.c ****     CY_SET_REG8(USB_Bootloader_CR0_PTR, USB_Bootloader_CR0_ENABLE);
 300              		.loc 1 449 0
 301 0072 8022     		movs	r2, #128
 302 0074 203B     		subs	r3, r3, #32
 303 0076 1A70     		strb	r2, [r3]
 450:.\Generated_Source\PSoC5/USB_Bootloader.c **** 
 451:.\Generated_Source\PSoC5/USB_Bootloader.c ****     /* Workaround for PSOC5LP */
 452:.\Generated_Source\PSoC5/USB_Bootloader.c ****     CyDelayCycles(1u);
 304              		.loc 1 452 0
 305 0078 0120     		movs	r0, #1
 306              	.LVL24:
 307 007a FFF7FEFF 		bl	CyDelayCycles
 308              	.LVL25:
 453:.\Generated_Source\PSoC5/USB_Bootloader.c **** 
 454:.\Generated_Source\PSoC5/USB_Bootloader.c ****     /* Finally, Enable d+ pullup and select iomode to USB mode*/
 455:.\Generated_Source\PSoC5/USB_Bootloader.c ****     CY_SET_REG8(USB_Bootloader_USBIO_CR1_PTR, USB_Bootloader_USBIO_CR1_USBPUEN);
 309              		.loc 1 455 0
 310 007e 0422     		movs	r2, #4
 311 0080 0D4B     		ldr	r3, .L14+48
 312 0082 1A70     		strb	r2, [r3]
 313 0084 10BD     		pop	{r4, pc}
 314              	.L15:
 315 0086 00BF     		.align	2
 316              	.L14:
 317 0088 00000000 		.word	USB_Bootloader_hidProtocol
 318 008c 00E100E0 		.word	-536813312
 319 0090 00000000 		.word	USB_Bootloader_transferState
 320 0094 09600040 		.word	1073766409
 321 0098 00000000 		.word	USB_Bootloader_device
 322 009c 00000000 		.word	USB_Bootloader_configuration
 323 00a0 00000000 		.word	USB_Bootloader_interfaceNumber
 324 00a4 00000000 		.word	USB_Bootloader_configurationChanged
 325 00a8 00000000 		.word	USB_Bootloader_deviceAddress
 326 00ac 00000000 		.word	USB_Bootloader_deviceStatus
 327 00b0 00000000 		.word	USB_Bootloader_lastPacketSize
 328 00b4 28600040 		.word	1073766440
 329 00b8 12600040 		.word	1073766418
 330              		.cfi_endproc
 331              	.LFE2:
 332              		.size	USB_Bootloader_InitComponent, .-USB_Bootloader_InitComponent
 333              		.section	.text.USB_Bootloader_Start,"ax",%progbits
 334              		.align	2
 335              		.global	USB_Bootloader_Start
 336              		.thumb
 337              		.thumb_func
 338              		.type	USB_Bootloader_Start, %function
 339              	USB_Bootloader_Start:
 340              	.LFB0:
 130:.\Generated_Source\PSoC5/USB_Bootloader.c ****     /* If not Initialized then initialize all required hardware and software */
ARM GAS  C:\Users\Robert\AppData\Local\Temp\ccGEgqLk.s 			page 15


 341              		.loc 1 130 0
 342              		.cfi_startproc
 343              		@ args = 0, pretend = 0, frame = 0
 344              		@ frame_needed = 0, uses_anonymous_args = 0
 345              	.LVL26:
 346 0000 38B5     		push	{r3, r4, r5, lr}
 347              		.cfi_def_cfa_offset 16
 348              		.cfi_offset 3, -16
 349              		.cfi_offset 4, -12
 350              		.cfi_offset 5, -8
 351              		.cfi_offset 14, -4
 352 0002 0546     		mov	r5, r0
 353 0004 0C46     		mov	r4, r1
 132:.\Generated_Source\PSoC5/USB_Bootloader.c ****     {
 354              		.loc 1 132 0
 355 0006 064B     		ldr	r3, .L19
 356 0008 1B78     		ldrb	r3, [r3]	@ zero_extendqisi2
 357 000a 23B9     		cbnz	r3, .L17
 134:.\Generated_Source\PSoC5/USB_Bootloader.c ****         USB_Bootloader_initVar = 1u;
 358              		.loc 1 134 0
 359 000c FFF7FEFF 		bl	USB_Bootloader_Init
 360              	.LVL27:
 135:.\Generated_Source\PSoC5/USB_Bootloader.c ****     }
 361              		.loc 1 135 0
 362 0010 0122     		movs	r2, #1
 363 0012 034B     		ldr	r3, .L19
 364 0014 1A70     		strb	r2, [r3]
 365              	.L17:
 137:.\Generated_Source\PSoC5/USB_Bootloader.c **** }
 366              		.loc 1 137 0
 367 0016 2846     		mov	r0, r5
 368 0018 2146     		mov	r1, r4
 369 001a FFF7FEFF 		bl	USB_Bootloader_InitComponent
 370              	.LVL28:
 371 001e 38BD     		pop	{r3, r4, r5, pc}
 372              	.L20:
 373              		.align	2
 374              	.L19:
 375 0020 00000000 		.word	.LANCHOR0
 376              		.cfi_endproc
 377              	.LFE0:
 378              		.size	USB_Bootloader_Start, .-USB_Bootloader_Start
 379              		.section	.text.USB_Bootloader_ReInitComponent,"ax",%progbits
 380              		.align	2
 381              		.global	USB_Bootloader_ReInitComponent
 382              		.thumb
 383              		.thumb_func
 384              		.type	USB_Bootloader_ReInitComponent, %function
 385              	USB_Bootloader_ReInitComponent:
 386              	.LFB3:
 456:.\Generated_Source\PSoC5/USB_Bootloader.c **** }
 457:.\Generated_Source\PSoC5/USB_Bootloader.c **** 
 458:.\Generated_Source\PSoC5/USB_Bootloader.c **** 
 459:.\Generated_Source\PSoC5/USB_Bootloader.c **** /*******************************************************************************
 460:.\Generated_Source\PSoC5/USB_Bootloader.c **** * Function Name: USB_Bootloader_ReInitComponent
 461:.\Generated_Source\PSoC5/USB_Bootloader.c **** ********************************************************************************
 462:.\Generated_Source\PSoC5/USB_Bootloader.c **** *
ARM GAS  C:\Users\Robert\AppData\Local\Temp\ccGEgqLk.s 			page 16


 463:.\Generated_Source\PSoC5/USB_Bootloader.c **** * Summary:
 464:.\Generated_Source\PSoC5/USB_Bootloader.c **** *  This function reinitialize the component configuration and is
 465:.\Generated_Source\PSoC5/USB_Bootloader.c **** *  intend to be called from the Reset interrupt.
 466:.\Generated_Source\PSoC5/USB_Bootloader.c **** *
 467:.\Generated_Source\PSoC5/USB_Bootloader.c **** * Parameters:
 468:.\Generated_Source\PSoC5/USB_Bootloader.c **** *  None.
 469:.\Generated_Source\PSoC5/USB_Bootloader.c **** *
 470:.\Generated_Source\PSoC5/USB_Bootloader.c **** * Return:
 471:.\Generated_Source\PSoC5/USB_Bootloader.c **** *   None.
 472:.\Generated_Source\PSoC5/USB_Bootloader.c **** *
 473:.\Generated_Source\PSoC5/USB_Bootloader.c **** * Global variables:
 474:.\Generated_Source\PSoC5/USB_Bootloader.c **** *   USB_Bootloader_device: Contains the device number of the desired device
 475:.\Generated_Source\PSoC5/USB_Bootloader.c **** *        descriptor. The device number can be found in the Device Descriptor Tab
 476:.\Generated_Source\PSoC5/USB_Bootloader.c **** *       of "Configure" dialog, under the settings of desired Device Descriptor,
 477:.\Generated_Source\PSoC5/USB_Bootloader.c **** *       in the "Device Number" field.
 478:.\Generated_Source\PSoC5/USB_Bootloader.c **** *   USB_Bootloader_transferState: This variable used by the communication
 479:.\Generated_Source\PSoC5/USB_Bootloader.c **** *       functions to handle current transfer state. Initialized to
 480:.\Generated_Source\PSoC5/USB_Bootloader.c **** *       TRANS_STATE_IDLE in this API.
 481:.\Generated_Source\PSoC5/USB_Bootloader.c **** *   USB_Bootloader_configuration: Contains current configuration number
 482:.\Generated_Source\PSoC5/USB_Bootloader.c **** *       which is set by the Host using SET_CONFIGURATION request.
 483:.\Generated_Source\PSoC5/USB_Bootloader.c **** *       Initialized to zero in this API.
 484:.\Generated_Source\PSoC5/USB_Bootloader.c **** *   USB_Bootloader_deviceAddress: Contains current device address. This
 485:.\Generated_Source\PSoC5/USB_Bootloader.c **** *       variable is initialized to zero in this API. Host starts to communicate
 486:.\Generated_Source\PSoC5/USB_Bootloader.c **** *      to device with address 0 and then set it to whatever value using
 487:.\Generated_Source\PSoC5/USB_Bootloader.c **** *      SET_ADDRESS request.
 488:.\Generated_Source\PSoC5/USB_Bootloader.c **** *   USB_Bootloader_deviceStatus: initialized to 0.
 489:.\Generated_Source\PSoC5/USB_Bootloader.c **** *       This is two bit variable which contain power status in first bit
 490:.\Generated_Source\PSoC5/USB_Bootloader.c **** *       (DEVICE_STATUS_BUS_POWERED or DEVICE_STATUS_SELF_POWERED) and remote
 491:.\Generated_Source\PSoC5/USB_Bootloader.c **** *       wakeup status (DEVICE_STATUS_REMOTE_WAKEUP) in second bit.
 492:.\Generated_Source\PSoC5/USB_Bootloader.c **** *   USB_Bootloader_lastPacketSize initialized to 0;
 493:.\Generated_Source\PSoC5/USB_Bootloader.c **** *
 494:.\Generated_Source\PSoC5/USB_Bootloader.c **** * Reentrant:
 495:.\Generated_Source\PSoC5/USB_Bootloader.c **** *  No.
 496:.\Generated_Source\PSoC5/USB_Bootloader.c **** *
 497:.\Generated_Source\PSoC5/USB_Bootloader.c **** *******************************************************************************/
 498:.\Generated_Source\PSoC5/USB_Bootloader.c **** void USB_Bootloader_ReInitComponent(void) 
 499:.\Generated_Source\PSoC5/USB_Bootloader.c **** {
 387              		.loc 1 499 0
 388              		.cfi_startproc
 389              		@ args = 0, pretend = 0, frame = 0
 390              		@ frame_needed = 0, uses_anonymous_args = 0
 391              		@ link register save eliminated.
 392              	.LVL29:
 500:.\Generated_Source\PSoC5/USB_Bootloader.c ****     /* Initialize _hidProtocol variable to comply with HID 7.2.6 Set_Protocol
 501:.\Generated_Source\PSoC5/USB_Bootloader.c ****     *  Request: "When initialized, all devices default to report protocol."
 502:.\Generated_Source\PSoC5/USB_Bootloader.c ****     */
 503:.\Generated_Source\PSoC5/USB_Bootloader.c ****     #if defined(USB_Bootloader_ENABLE_HID_CLASS)
 504:.\Generated_Source\PSoC5/USB_Bootloader.c ****         uint8 i;
 505:.\Generated_Source\PSoC5/USB_Bootloader.c **** 
 506:.\Generated_Source\PSoC5/USB_Bootloader.c ****         for (i = 0u; i < USB_Bootloader_MAX_INTERFACES_NUMBER; i++)
 393              		.loc 1 506 0
 394 0000 0023     		movs	r3, #0
 395 0002 04E0     		b	.L22
 396              	.LVL30:
 397              	.L23:
 507:.\Generated_Source\PSoC5/USB_Bootloader.c ****         {
 508:.\Generated_Source\PSoC5/USB_Bootloader.c ****             USB_Bootloader_hidProtocol[i] = USB_Bootloader_PROTOCOL_REPORT;
ARM GAS  C:\Users\Robert\AppData\Local\Temp\ccGEgqLk.s 			page 17


 398              		.loc 1 508 0 discriminator 3
 399 0004 0121     		movs	r1, #1
 400 0006 0E4A     		ldr	r2, .L24
 401 0008 D154     		strb	r1, [r2, r3]
 506:.\Generated_Source\PSoC5/USB_Bootloader.c ****         {
 402              		.loc 1 506 0 discriminator 3
 403 000a 0B44     		add	r3, r3, r1
 404              	.LVL31:
 405 000c DBB2     		uxtb	r3, r3
 406              	.LVL32:
 407              	.L22:
 506:.\Generated_Source\PSoC5/USB_Bootloader.c ****         {
 408              		.loc 1 506 0 is_stmt 0 discriminator 1
 409 000e 002B     		cmp	r3, #0
 410 0010 F8D0     		beq	.L23
 509:.\Generated_Source\PSoC5/USB_Bootloader.c ****         }
 510:.\Generated_Source\PSoC5/USB_Bootloader.c ****     #endif /* USB_Bootloader_ENABLE_HID_CLASS */
 511:.\Generated_Source\PSoC5/USB_Bootloader.c **** 
 512:.\Generated_Source\PSoC5/USB_Bootloader.c ****     USB_Bootloader_transferState = USB_Bootloader_TRANS_STATE_IDLE;
 411              		.loc 1 512 0 is_stmt 1
 412 0012 0023     		movs	r3, #0
 413              	.LVL33:
 414 0014 0B4A     		ldr	r2, .L24+4
 415 0016 1370     		strb	r3, [r2]
 513:.\Generated_Source\PSoC5/USB_Bootloader.c **** 
 514:.\Generated_Source\PSoC5/USB_Bootloader.c ****     /* Clear all of the component data */
 515:.\Generated_Source\PSoC5/USB_Bootloader.c ****     USB_Bootloader_configuration = 0u;
 416              		.loc 1 515 0
 417 0018 0B4A     		ldr	r2, .L24+8
 418 001a 1370     		strb	r3, [r2]
 516:.\Generated_Source\PSoC5/USB_Bootloader.c ****     USB_Bootloader_interfaceNumber = 0u;
 419              		.loc 1 516 0
 420 001c 0B4A     		ldr	r2, .L24+12
 421 001e 1370     		strb	r3, [r2]
 517:.\Generated_Source\PSoC5/USB_Bootloader.c ****     USB_Bootloader_configurationChanged = 0u;
 422              		.loc 1 517 0
 423 0020 0B4A     		ldr	r2, .L24+16
 424 0022 1370     		strb	r3, [r2]
 518:.\Generated_Source\PSoC5/USB_Bootloader.c ****     USB_Bootloader_deviceAddress  = 0u;
 425              		.loc 1 518 0
 426 0024 0B4A     		ldr	r2, .L24+20
 427 0026 1370     		strb	r3, [r2]
 519:.\Generated_Source\PSoC5/USB_Bootloader.c ****     USB_Bootloader_deviceStatus = 0u;
 428              		.loc 1 519 0
 429 0028 0B4A     		ldr	r2, .L24+24
 430 002a 1370     		strb	r3, [r2]
 520:.\Generated_Source\PSoC5/USB_Bootloader.c **** 
 521:.\Generated_Source\PSoC5/USB_Bootloader.c ****     USB_Bootloader_lastPacketSize = 0u;
 431              		.loc 1 521 0
 432 002c 0B4A     		ldr	r2, .L24+28
 433 002e 1370     		strb	r3, [r2]
 522:.\Generated_Source\PSoC5/USB_Bootloader.c **** 
 523:.\Generated_Source\PSoC5/USB_Bootloader.c **** 
 524:.\Generated_Source\PSoC5/USB_Bootloader.c ****     /*  ACK Setup, Stall IN/OUT */
 525:.\Generated_Source\PSoC5/USB_Bootloader.c ****     CY_SET_REG8(USB_Bootloader_EP0_CR_PTR, USB_Bootloader_MODE_STALL_IN_OUT);
 434              		.loc 1 525 0
 435 0030 0322     		movs	r2, #3
ARM GAS  C:\Users\Robert\AppData\Local\Temp\ccGEgqLk.s 			page 18


 436 0032 0B4B     		ldr	r3, .L24+32
 437 0034 1A70     		strb	r2, [r3]
 526:.\Generated_Source\PSoC5/USB_Bootloader.c **** 
 527:.\Generated_Source\PSoC5/USB_Bootloader.c ****     /* Enable the SIE with an address 0 */
 528:.\Generated_Source\PSoC5/USB_Bootloader.c ****     CY_SET_REG8(USB_Bootloader_CR0_PTR, USB_Bootloader_CR0_ENABLE);
 438              		.loc 1 528 0
 439 0036 8022     		movs	r2, #128
 440 0038 203B     		subs	r3, r3, #32
 441 003a 1A70     		strb	r2, [r3]
 442 003c 7047     		bx	lr
 443              	.L25:
 444 003e 00BF     		.align	2
 445              	.L24:
 446 0040 00000000 		.word	USB_Bootloader_hidProtocol
 447 0044 00000000 		.word	USB_Bootloader_transferState
 448 0048 00000000 		.word	USB_Bootloader_configuration
 449 004c 00000000 		.word	USB_Bootloader_interfaceNumber
 450 0050 00000000 		.word	USB_Bootloader_configurationChanged
 451 0054 00000000 		.word	USB_Bootloader_deviceAddress
 452 0058 00000000 		.word	USB_Bootloader_deviceStatus
 453 005c 00000000 		.word	USB_Bootloader_lastPacketSize
 454 0060 28600040 		.word	1073766440
 455              		.cfi_endproc
 456              	.LFE3:
 457              		.size	USB_Bootloader_ReInitComponent, .-USB_Bootloader_ReInitComponent
 458              		.section	.text.USB_Bootloader_Stop,"ax",%progbits
 459              		.align	2
 460              		.global	USB_Bootloader_Stop
 461              		.thumb
 462              		.thumb_func
 463              		.type	USB_Bootloader_Stop, %function
 464              	USB_Bootloader_Stop:
 465              	.LFB4:
 529:.\Generated_Source\PSoC5/USB_Bootloader.c **** 
 530:.\Generated_Source\PSoC5/USB_Bootloader.c **** }
 531:.\Generated_Source\PSoC5/USB_Bootloader.c **** 
 532:.\Generated_Source\PSoC5/USB_Bootloader.c **** 
 533:.\Generated_Source\PSoC5/USB_Bootloader.c **** /*******************************************************************************
 534:.\Generated_Source\PSoC5/USB_Bootloader.c **** * Function Name: USB_Bootloader_Stop
 535:.\Generated_Source\PSoC5/USB_Bootloader.c **** ********************************************************************************
 536:.\Generated_Source\PSoC5/USB_Bootloader.c **** *
 537:.\Generated_Source\PSoC5/USB_Bootloader.c **** * Summary:
 538:.\Generated_Source\PSoC5/USB_Bootloader.c **** *  This function shuts down the USB function including to release
 539:.\Generated_Source\PSoC5/USB_Bootloader.c **** *  the D+ Pullup and disabling the SIE.
 540:.\Generated_Source\PSoC5/USB_Bootloader.c **** *
 541:.\Generated_Source\PSoC5/USB_Bootloader.c **** * Parameters:
 542:.\Generated_Source\PSoC5/USB_Bootloader.c **** *  None.
 543:.\Generated_Source\PSoC5/USB_Bootloader.c **** *
 544:.\Generated_Source\PSoC5/USB_Bootloader.c **** * Return:
 545:.\Generated_Source\PSoC5/USB_Bootloader.c **** *  None.
 546:.\Generated_Source\PSoC5/USB_Bootloader.c **** *
 547:.\Generated_Source\PSoC5/USB_Bootloader.c **** * Global variables:
 548:.\Generated_Source\PSoC5/USB_Bootloader.c **** *   USB_Bootloader_configuration: Contains current configuration number
 549:.\Generated_Source\PSoC5/USB_Bootloader.c **** *       which is set by the Host using SET_CONFIGURATION request.
 550:.\Generated_Source\PSoC5/USB_Bootloader.c **** *       Initialized to zero in this API.
 551:.\Generated_Source\PSoC5/USB_Bootloader.c **** *   USB_Bootloader_deviceAddress: Contains current device address. This
 552:.\Generated_Source\PSoC5/USB_Bootloader.c **** *       variable is initialized to zero in this API. Host starts to communicate
ARM GAS  C:\Users\Robert\AppData\Local\Temp\ccGEgqLk.s 			page 19


 553:.\Generated_Source\PSoC5/USB_Bootloader.c **** *      to device with address 0 and then set it to whatever value using
 554:.\Generated_Source\PSoC5/USB_Bootloader.c **** *      SET_ADDRESS request.
 555:.\Generated_Source\PSoC5/USB_Bootloader.c **** *   USB_Bootloader_deviceStatus: initialized to 0.
 556:.\Generated_Source\PSoC5/USB_Bootloader.c **** *       This is two bit variable which contain power status in first bit
 557:.\Generated_Source\PSoC5/USB_Bootloader.c **** *       (DEVICE_STATUS_BUS_POWERED or DEVICE_STATUS_SELF_POWERED) and remote
 558:.\Generated_Source\PSoC5/USB_Bootloader.c **** *       wakeup status (DEVICE_STATUS_REMOTE_WAKEUP) in second bit.
 559:.\Generated_Source\PSoC5/USB_Bootloader.c **** *   USB_Bootloader_configurationChanged: This variable is set to one after
 560:.\Generated_Source\PSoC5/USB_Bootloader.c **** *       SET_CONFIGURATION request and cleared in this function.
 561:.\Generated_Source\PSoC5/USB_Bootloader.c **** *   USB_Bootloader_intiVar variable is set to zero
 562:.\Generated_Source\PSoC5/USB_Bootloader.c **** *
 563:.\Generated_Source\PSoC5/USB_Bootloader.c **** *******************************************************************************/
 564:.\Generated_Source\PSoC5/USB_Bootloader.c **** void USB_Bootloader_Stop(void) 
 565:.\Generated_Source\PSoC5/USB_Bootloader.c **** {
 466              		.loc 1 565 0
 467              		.cfi_startproc
 468              		@ args = 0, pretend = 0, frame = 0
 469              		@ frame_needed = 0, uses_anonymous_args = 0
 470              		@ link register save eliminated.
 566:.\Generated_Source\PSoC5/USB_Bootloader.c **** 
 567:.\Generated_Source\PSoC5/USB_Bootloader.c ****     #if(USB_Bootloader_EP_MM != USB_Bootloader__EP_MANUAL)
 568:.\Generated_Source\PSoC5/USB_Bootloader.c ****         USB_Bootloader_Stop_DMA(USB_Bootloader_MAX_EP);     /* Stop all DMAs */
 569:.\Generated_Source\PSoC5/USB_Bootloader.c ****     #endif   /*  USB_Bootloader_EP_MM != USB_Bootloader__EP_MANUAL */
 570:.\Generated_Source\PSoC5/USB_Bootloader.c **** 
 571:.\Generated_Source\PSoC5/USB_Bootloader.c ****     /* Disable the SIE */
 572:.\Generated_Source\PSoC5/USB_Bootloader.c ****     USB_Bootloader_CR0_REG &= (uint8)(~USB_Bootloader_CR0_ENABLE);
 471              		.loc 1 572 0
 472 0000 174A     		ldr	r2, .L27
 473 0002 1378     		ldrb	r3, [r2]	@ zero_extendqisi2
 474 0004 03F07F03 		and	r3, r3, #127
 475 0008 1370     		strb	r3, [r2]
 573:.\Generated_Source\PSoC5/USB_Bootloader.c ****     /* Disable the d+ pullup */
 574:.\Generated_Source\PSoC5/USB_Bootloader.c ****     USB_Bootloader_USBIO_CR1_REG &= (uint8)(~USB_Bootloader_USBIO_CR1_USBPUEN);
 476              		.loc 1 574 0
 477 000a 0A32     		adds	r2, r2, #10
 478 000c 1378     		ldrb	r3, [r2]	@ zero_extendqisi2
 479 000e 03F0FB03 		and	r3, r3, #251
 480 0012 1370     		strb	r3, [r2]
 575:.\Generated_Source\PSoC5/USB_Bootloader.c ****     /* Disable USB in ACT PM */
 576:.\Generated_Source\PSoC5/USB_Bootloader.c ****     USB_Bootloader_PM_ACT_CFG_REG &= (uint8)(~USB_Bootloader_PM_ACT_EN_FSUSB);
 481              		.loc 1 576 0
 482 0014 A2F5E352 		sub	r2, r2, #7264
 483 0018 0D3A     		subs	r2, r2, #13
 484 001a 1378     		ldrb	r3, [r2]	@ zero_extendqisi2
 485 001c 03F0FE03 		and	r3, r3, #254
 486 0020 1370     		strb	r3, [r2]
 577:.\Generated_Source\PSoC5/USB_Bootloader.c ****     /* Disable USB block for Standby Power Mode */
 578:.\Generated_Source\PSoC5/USB_Bootloader.c ****     USB_Bootloader_PM_STBY_CFG_REG &= (uint8)(~USB_Bootloader_PM_STBY_EN_FSUSB);
 487              		.loc 1 578 0
 488 0022 1032     		adds	r2, r2, #16
 489 0024 1378     		ldrb	r3, [r2]	@ zero_extendqisi2
 490 0026 03F0FE03 		and	r3, r3, #254
 491 002a 1370     		strb	r3, [r2]
 579:.\Generated_Source\PSoC5/USB_Bootloader.c **** 
 580:.\Generated_Source\PSoC5/USB_Bootloader.c ****     /* Disable the reset and EP interrupts */
 581:.\Generated_Source\PSoC5/USB_Bootloader.c ****     CyIntDisable(USB_Bootloader_BUS_RESET_VECT_NUM);
 492              		.loc 1 581 0
 493 002c 0D4B     		ldr	r3, .L27+4
ARM GAS  C:\Users\Robert\AppData\Local\Temp\ccGEgqLk.s 			page 20


 494 002e 4FF40002 		mov	r2, #8388608
 495 0032 1A60     		str	r2, [r3]
 582:.\Generated_Source\PSoC5/USB_Bootloader.c ****     CyIntDisable(USB_Bootloader_EP_0_VECT_NUM);
 496              		.loc 1 582 0
 497 0034 4FF08072 		mov	r2, #16777216
 498 0038 1A60     		str	r2, [r3]
 583:.\Generated_Source\PSoC5/USB_Bootloader.c ****     #if(USB_Bootloader_EP1_ISR_REMOVE == 0u)
 584:.\Generated_Source\PSoC5/USB_Bootloader.c ****         CyIntDisable(USB_Bootloader_EP_1_VECT_NUM);
 499              		.loc 1 584 0
 500 003a 0122     		movs	r2, #1
 501 003c 1A60     		str	r2, [r3]
 585:.\Generated_Source\PSoC5/USB_Bootloader.c ****     #endif   /*  USB_Bootloader_EP1_ISR_REMOVE */
 586:.\Generated_Source\PSoC5/USB_Bootloader.c ****     #if(USB_Bootloader_EP2_ISR_REMOVE == 0u)
 587:.\Generated_Source\PSoC5/USB_Bootloader.c ****         CyIntDisable(USB_Bootloader_EP_2_VECT_NUM);
 502              		.loc 1 587 0
 503 003e 0222     		movs	r2, #2
 504 0040 1A60     		str	r2, [r3]
 588:.\Generated_Source\PSoC5/USB_Bootloader.c ****     #endif   /*  USB_Bootloader_EP2_ISR_REMOVE */
 589:.\Generated_Source\PSoC5/USB_Bootloader.c ****     #if(USB_Bootloader_EP3_ISR_REMOVE == 0u)
 590:.\Generated_Source\PSoC5/USB_Bootloader.c ****         CyIntDisable(USB_Bootloader_EP_3_VECT_NUM);
 591:.\Generated_Source\PSoC5/USB_Bootloader.c ****     #endif   /*  USB_Bootloader_EP3_ISR_REMOVE */
 592:.\Generated_Source\PSoC5/USB_Bootloader.c ****     #if(USB_Bootloader_EP4_ISR_REMOVE == 0u)
 593:.\Generated_Source\PSoC5/USB_Bootloader.c ****         CyIntDisable(USB_Bootloader_EP_4_VECT_NUM);
 594:.\Generated_Source\PSoC5/USB_Bootloader.c ****     #endif   /*  USB_Bootloader_EP4_ISR_REMOVE */
 595:.\Generated_Source\PSoC5/USB_Bootloader.c ****     #if(USB_Bootloader_EP5_ISR_REMOVE == 0u)
 596:.\Generated_Source\PSoC5/USB_Bootloader.c ****         CyIntDisable(USB_Bootloader_EP_5_VECT_NUM);
 597:.\Generated_Source\PSoC5/USB_Bootloader.c ****     #endif   /*  USB_Bootloader_EP5_ISR_REMOVE */
 598:.\Generated_Source\PSoC5/USB_Bootloader.c ****     #if(USB_Bootloader_EP6_ISR_REMOVE == 0u)
 599:.\Generated_Source\PSoC5/USB_Bootloader.c ****         CyIntDisable(USB_Bootloader_EP_6_VECT_NUM);
 600:.\Generated_Source\PSoC5/USB_Bootloader.c ****     #endif   /*  USB_Bootloader_EP6_ISR_REMOVE */
 601:.\Generated_Source\PSoC5/USB_Bootloader.c ****     #if(USB_Bootloader_EP7_ISR_REMOVE == 0u)
 602:.\Generated_Source\PSoC5/USB_Bootloader.c ****         CyIntDisable(USB_Bootloader_EP_7_VECT_NUM);
 603:.\Generated_Source\PSoC5/USB_Bootloader.c ****     #endif   /*  USB_Bootloader_EP7_ISR_REMOVE */
 604:.\Generated_Source\PSoC5/USB_Bootloader.c ****     #if(USB_Bootloader_EP8_ISR_REMOVE == 0u)
 605:.\Generated_Source\PSoC5/USB_Bootloader.c ****         CyIntDisable(USB_Bootloader_EP_8_VECT_NUM);
 606:.\Generated_Source\PSoC5/USB_Bootloader.c ****     #endif   /*  USB_Bootloader_EP8_ISR_REMOVE */
 607:.\Generated_Source\PSoC5/USB_Bootloader.c **** 
 608:.\Generated_Source\PSoC5/USB_Bootloader.c ****     /* Clear all of the component data */
 609:.\Generated_Source\PSoC5/USB_Bootloader.c ****     USB_Bootloader_configuration = 0u;
 505              		.loc 1 609 0
 506 0042 0023     		movs	r3, #0
 507 0044 084A     		ldr	r2, .L27+8
 508 0046 1370     		strb	r3, [r2]
 610:.\Generated_Source\PSoC5/USB_Bootloader.c ****     USB_Bootloader_interfaceNumber = 0u;
 509              		.loc 1 610 0
 510 0048 084A     		ldr	r2, .L27+12
 511 004a 1370     		strb	r3, [r2]
 611:.\Generated_Source\PSoC5/USB_Bootloader.c ****     USB_Bootloader_configurationChanged = 0u;
 512              		.loc 1 611 0
 513 004c 084A     		ldr	r2, .L27+16
 514 004e 1370     		strb	r3, [r2]
 612:.\Generated_Source\PSoC5/USB_Bootloader.c ****     USB_Bootloader_deviceAddress  = 0u;
 515              		.loc 1 612 0
 516 0050 084A     		ldr	r2, .L27+20
 517 0052 1370     		strb	r3, [r2]
 613:.\Generated_Source\PSoC5/USB_Bootloader.c ****     USB_Bootloader_deviceStatus = 0u;
 518              		.loc 1 613 0
ARM GAS  C:\Users\Robert\AppData\Local\Temp\ccGEgqLk.s 			page 21


 519 0054 084A     		ldr	r2, .L27+24
 520 0056 1370     		strb	r3, [r2]
 614:.\Generated_Source\PSoC5/USB_Bootloader.c ****     USB_Bootloader_initVar = 0u;
 521              		.loc 1 614 0
 522 0058 084A     		ldr	r2, .L27+28
 523 005a 1370     		strb	r3, [r2]
 524 005c 7047     		bx	lr
 525              	.L28:
 526 005e 00BF     		.align	2
 527              	.L27:
 528 0060 08600040 		.word	1073766408
 529 0064 80E100E0 		.word	-536813184
 530 0068 00000000 		.word	USB_Bootloader_configuration
 531 006c 00000000 		.word	USB_Bootloader_interfaceNumber
 532 0070 00000000 		.word	USB_Bootloader_configurationChanged
 533 0074 00000000 		.word	USB_Bootloader_deviceAddress
 534 0078 00000000 		.word	USB_Bootloader_deviceStatus
 535 007c 00000000 		.word	.LANCHOR0
 536              		.cfi_endproc
 537              	.LFE4:
 538              		.size	USB_Bootloader_Stop, .-USB_Bootloader_Stop
 539              		.section	.text.USB_Bootloader_CheckActivity,"ax",%progbits
 540              		.align	2
 541              		.global	USB_Bootloader_CheckActivity
 542              		.thumb
 543              		.thumb_func
 544              		.type	USB_Bootloader_CheckActivity, %function
 545              	USB_Bootloader_CheckActivity:
 546              	.LFB5:
 615:.\Generated_Source\PSoC5/USB_Bootloader.c **** 
 616:.\Generated_Source\PSoC5/USB_Bootloader.c **** }
 617:.\Generated_Source\PSoC5/USB_Bootloader.c **** 
 618:.\Generated_Source\PSoC5/USB_Bootloader.c **** 
 619:.\Generated_Source\PSoC5/USB_Bootloader.c **** /*******************************************************************************
 620:.\Generated_Source\PSoC5/USB_Bootloader.c **** * Function Name: USB_Bootloader_CheckActivity
 621:.\Generated_Source\PSoC5/USB_Bootloader.c **** ********************************************************************************
 622:.\Generated_Source\PSoC5/USB_Bootloader.c **** *
 623:.\Generated_Source\PSoC5/USB_Bootloader.c **** * Summary:
 624:.\Generated_Source\PSoC5/USB_Bootloader.c **** *  Returns the activity status of the bus.  Clears the status hardware to
 625:.\Generated_Source\PSoC5/USB_Bootloader.c **** *  provide fresh activity status on the next call of this routine.
 626:.\Generated_Source\PSoC5/USB_Bootloader.c **** *
 627:.\Generated_Source\PSoC5/USB_Bootloader.c **** * Parameters:
 628:.\Generated_Source\PSoC5/USB_Bootloader.c **** *  None.
 629:.\Generated_Source\PSoC5/USB_Bootloader.c **** *
 630:.\Generated_Source\PSoC5/USB_Bootloader.c **** * Return:
 631:.\Generated_Source\PSoC5/USB_Bootloader.c **** *  1 - If bus activity was detected since the last call to this function
 632:.\Generated_Source\PSoC5/USB_Bootloader.c **** *  0 - If bus activity not was detected since the last call to this function
 633:.\Generated_Source\PSoC5/USB_Bootloader.c **** *
 634:.\Generated_Source\PSoC5/USB_Bootloader.c **** *******************************************************************************/
 635:.\Generated_Source\PSoC5/USB_Bootloader.c **** uint8 USB_Bootloader_CheckActivity(void) 
 636:.\Generated_Source\PSoC5/USB_Bootloader.c **** {
 547              		.loc 1 636 0
 548              		.cfi_startproc
 549              		@ args = 0, pretend = 0, frame = 0
 550              		@ frame_needed = 0, uses_anonymous_args = 0
 551              		@ link register save eliminated.
 637:.\Generated_Source\PSoC5/USB_Bootloader.c ****     uint8 r;
ARM GAS  C:\Users\Robert\AppData\Local\Temp\ccGEgqLk.s 			page 22


 638:.\Generated_Source\PSoC5/USB_Bootloader.c **** 
 639:.\Generated_Source\PSoC5/USB_Bootloader.c ****     r = CY_GET_REG8(USB_Bootloader_CR1_PTR);
 552              		.loc 1 639 0
 553 0000 044B     		ldr	r3, .L30
 554 0002 1878     		ldrb	r0, [r3]	@ zero_extendqisi2
 555 0004 C0B2     		uxtb	r0, r0
 556              	.LVL34:
 640:.\Generated_Source\PSoC5/USB_Bootloader.c ****     CY_SET_REG8(USB_Bootloader_CR1_PTR, (r & ((uint8)(~USB_Bootloader_CR1_BUS_ACTIVITY))));
 557              		.loc 1 640 0
 558 0006 00F0FB02 		and	r2, r0, #251
 559 000a 1A70     		strb	r2, [r3]
 641:.\Generated_Source\PSoC5/USB_Bootloader.c **** 
 642:.\Generated_Source\PSoC5/USB_Bootloader.c ****     return((r & USB_Bootloader_CR1_BUS_ACTIVITY) >> USB_Bootloader_CR1_BUS_ACTIVITY_SHIFT);
 643:.\Generated_Source\PSoC5/USB_Bootloader.c **** }
 560              		.loc 1 643 0
 561 000c C0F38000 		ubfx	r0, r0, #2, #1
 562              	.LVL35:
 563 0010 7047     		bx	lr
 564              	.L31:
 565 0012 00BF     		.align	2
 566              	.L30:
 567 0014 09600040 		.word	1073766409
 568              		.cfi_endproc
 569              	.LFE5:
 570              		.size	USB_Bootloader_CheckActivity, .-USB_Bootloader_CheckActivity
 571              		.section	.text.USB_Bootloader_GetConfiguration,"ax",%progbits
 572              		.align	2
 573              		.global	USB_Bootloader_GetConfiguration
 574              		.thumb
 575              		.thumb_func
 576              		.type	USB_Bootloader_GetConfiguration, %function
 577              	USB_Bootloader_GetConfiguration:
 578              	.LFB6:
 644:.\Generated_Source\PSoC5/USB_Bootloader.c **** 
 645:.\Generated_Source\PSoC5/USB_Bootloader.c **** 
 646:.\Generated_Source\PSoC5/USB_Bootloader.c **** /*******************************************************************************
 647:.\Generated_Source\PSoC5/USB_Bootloader.c **** * Function Name: USB_Bootloader_GetConfiguration
 648:.\Generated_Source\PSoC5/USB_Bootloader.c **** ********************************************************************************
 649:.\Generated_Source\PSoC5/USB_Bootloader.c **** *
 650:.\Generated_Source\PSoC5/USB_Bootloader.c **** * Summary:
 651:.\Generated_Source\PSoC5/USB_Bootloader.c **** *  Returns the current configuration setting
 652:.\Generated_Source\PSoC5/USB_Bootloader.c **** *
 653:.\Generated_Source\PSoC5/USB_Bootloader.c **** * Parameters:
 654:.\Generated_Source\PSoC5/USB_Bootloader.c **** *  None.
 655:.\Generated_Source\PSoC5/USB_Bootloader.c **** *
 656:.\Generated_Source\PSoC5/USB_Bootloader.c **** * Return:
 657:.\Generated_Source\PSoC5/USB_Bootloader.c **** *  configuration.
 658:.\Generated_Source\PSoC5/USB_Bootloader.c **** *
 659:.\Generated_Source\PSoC5/USB_Bootloader.c **** *******************************************************************************/
 660:.\Generated_Source\PSoC5/USB_Bootloader.c **** uint8 USB_Bootloader_GetConfiguration(void) 
 661:.\Generated_Source\PSoC5/USB_Bootloader.c **** {
 579              		.loc 1 661 0
 580              		.cfi_startproc
 581              		@ args = 0, pretend = 0, frame = 0
 582              		@ frame_needed = 0, uses_anonymous_args = 0
 583              		@ link register save eliminated.
 662:.\Generated_Source\PSoC5/USB_Bootloader.c ****     return(USB_Bootloader_configuration);
ARM GAS  C:\Users\Robert\AppData\Local\Temp\ccGEgqLk.s 			page 23


 584              		.loc 1 662 0
 585 0000 014B     		ldr	r3, .L33
 586 0002 1878     		ldrb	r0, [r3]	@ zero_extendqisi2
 663:.\Generated_Source\PSoC5/USB_Bootloader.c **** }
 587              		.loc 1 663 0
 588 0004 7047     		bx	lr
 589              	.L34:
 590 0006 00BF     		.align	2
 591              	.L33:
 592 0008 00000000 		.word	USB_Bootloader_configuration
 593              		.cfi_endproc
 594              	.LFE6:
 595              		.size	USB_Bootloader_GetConfiguration, .-USB_Bootloader_GetConfiguration
 596              		.section	.text.USB_Bootloader_IsConfigurationChanged,"ax",%progbits
 597              		.align	2
 598              		.global	USB_Bootloader_IsConfigurationChanged
 599              		.thumb
 600              		.thumb_func
 601              		.type	USB_Bootloader_IsConfigurationChanged, %function
 602              	USB_Bootloader_IsConfigurationChanged:
 603              	.LFB7:
 664:.\Generated_Source\PSoC5/USB_Bootloader.c **** 
 665:.\Generated_Source\PSoC5/USB_Bootloader.c **** 
 666:.\Generated_Source\PSoC5/USB_Bootloader.c **** /*******************************************************************************
 667:.\Generated_Source\PSoC5/USB_Bootloader.c **** * Function Name: USB_Bootloader_IsConfigurationChanged
 668:.\Generated_Source\PSoC5/USB_Bootloader.c **** ********************************************************************************
 669:.\Generated_Source\PSoC5/USB_Bootloader.c **** *
 670:.\Generated_Source\PSoC5/USB_Bootloader.c **** * Summary:
 671:.\Generated_Source\PSoC5/USB_Bootloader.c **** *  Returns the clear on read configuration state. It is usefull when PC send
 672:.\Generated_Source\PSoC5/USB_Bootloader.c **** *  double SET_CONFIGURATION request with same configuration number.
 673:.\Generated_Source\PSoC5/USB_Bootloader.c **** *
 674:.\Generated_Source\PSoC5/USB_Bootloader.c **** * Parameters:
 675:.\Generated_Source\PSoC5/USB_Bootloader.c **** *  None.
 676:.\Generated_Source\PSoC5/USB_Bootloader.c **** *
 677:.\Generated_Source\PSoC5/USB_Bootloader.c **** * Return:
 678:.\Generated_Source\PSoC5/USB_Bootloader.c **** *  Not zero value when new configuration has been changed, otherwise zero is
 679:.\Generated_Source\PSoC5/USB_Bootloader.c **** *  returned.
 680:.\Generated_Source\PSoC5/USB_Bootloader.c **** *
 681:.\Generated_Source\PSoC5/USB_Bootloader.c **** * Global variables:
 682:.\Generated_Source\PSoC5/USB_Bootloader.c **** *   USB_Bootloader_configurationChanged: This variable is set to one after
 683:.\Generated_Source\PSoC5/USB_Bootloader.c **** *       SET_CONFIGURATION request and cleared in this function.
 684:.\Generated_Source\PSoC5/USB_Bootloader.c **** *
 685:.\Generated_Source\PSoC5/USB_Bootloader.c **** *******************************************************************************/
 686:.\Generated_Source\PSoC5/USB_Bootloader.c **** uint8 USB_Bootloader_IsConfigurationChanged(void) 
 687:.\Generated_Source\PSoC5/USB_Bootloader.c **** {
 604              		.loc 1 687 0
 605              		.cfi_startproc
 606              		@ args = 0, pretend = 0, frame = 0
 607              		@ frame_needed = 0, uses_anonymous_args = 0
 608              		@ link register save eliminated.
 609              	.LVL36:
 688:.\Generated_Source\PSoC5/USB_Bootloader.c ****     uint8 res = 0u;
 689:.\Generated_Source\PSoC5/USB_Bootloader.c **** 
 690:.\Generated_Source\PSoC5/USB_Bootloader.c ****     if(USB_Bootloader_configurationChanged != 0u)
 610              		.loc 1 690 0
 611 0000 064B     		ldr	r3, .L38
 612 0002 1B78     		ldrb	r3, [r3]	@ zero_extendqisi2
ARM GAS  C:\Users\Robert\AppData\Local\Temp\ccGEgqLk.s 			page 24


 613 0004 13F0FF0F 		tst	r3, #255
 614 0008 05D0     		beq	.L37
 691:.\Generated_Source\PSoC5/USB_Bootloader.c ****     {
 692:.\Generated_Source\PSoC5/USB_Bootloader.c ****         res = USB_Bootloader_configurationChanged;
 615              		.loc 1 692 0
 616 000a 044B     		ldr	r3, .L38
 617 000c 1878     		ldrb	r0, [r3]	@ zero_extendqisi2
 618 000e C0B2     		uxtb	r0, r0
 619              	.LVL37:
 693:.\Generated_Source\PSoC5/USB_Bootloader.c ****         USB_Bootloader_configurationChanged = 0u;
 620              		.loc 1 693 0
 621 0010 0022     		movs	r2, #0
 622 0012 1A70     		strb	r2, [r3]
 623 0014 7047     		bx	lr
 624              	.LVL38:
 625              	.L37:
 688:.\Generated_Source\PSoC5/USB_Bootloader.c ****     uint8 res = 0u;
 626              		.loc 1 688 0
 627 0016 0020     		movs	r0, #0
 628              	.LVL39:
 694:.\Generated_Source\PSoC5/USB_Bootloader.c ****     }
 695:.\Generated_Source\PSoC5/USB_Bootloader.c **** 
 696:.\Generated_Source\PSoC5/USB_Bootloader.c ****     return(res);
 697:.\Generated_Source\PSoC5/USB_Bootloader.c **** }
 629              		.loc 1 697 0
 630 0018 7047     		bx	lr
 631              	.L39:
 632 001a 00BF     		.align	2
 633              	.L38:
 634 001c 00000000 		.word	USB_Bootloader_configurationChanged
 635              		.cfi_endproc
 636              	.LFE7:
 637              		.size	USB_Bootloader_IsConfigurationChanged, .-USB_Bootloader_IsConfigurationChanged
 638              		.section	.text.USB_Bootloader_GetInterfaceSetting,"ax",%progbits
 639              		.align	2
 640              		.global	USB_Bootloader_GetInterfaceSetting
 641              		.thumb
 642              		.thumb_func
 643              		.type	USB_Bootloader_GetInterfaceSetting, %function
 644              	USB_Bootloader_GetInterfaceSetting:
 645              	.LFB8:
 698:.\Generated_Source\PSoC5/USB_Bootloader.c **** 
 699:.\Generated_Source\PSoC5/USB_Bootloader.c **** 
 700:.\Generated_Source\PSoC5/USB_Bootloader.c **** /*******************************************************************************
 701:.\Generated_Source\PSoC5/USB_Bootloader.c **** * Function Name: USB_Bootloader_GetInterfaceSetting
 702:.\Generated_Source\PSoC5/USB_Bootloader.c **** ********************************************************************************
 703:.\Generated_Source\PSoC5/USB_Bootloader.c **** *
 704:.\Generated_Source\PSoC5/USB_Bootloader.c **** * Summary:
 705:.\Generated_Source\PSoC5/USB_Bootloader.c **** *  Returns the alternate setting from current interface
 706:.\Generated_Source\PSoC5/USB_Bootloader.c **** *
 707:.\Generated_Source\PSoC5/USB_Bootloader.c **** * Parameters:
 708:.\Generated_Source\PSoC5/USB_Bootloader.c **** *  uint8 interfaceNumber, interface number
 709:.\Generated_Source\PSoC5/USB_Bootloader.c **** *
 710:.\Generated_Source\PSoC5/USB_Bootloader.c **** * Return:
 711:.\Generated_Source\PSoC5/USB_Bootloader.c **** *  Alternate setting.
 712:.\Generated_Source\PSoC5/USB_Bootloader.c **** *
 713:.\Generated_Source\PSoC5/USB_Bootloader.c **** *******************************************************************************/
ARM GAS  C:\Users\Robert\AppData\Local\Temp\ccGEgqLk.s 			page 25


 714:.\Generated_Source\PSoC5/USB_Bootloader.c **** uint8  USB_Bootloader_GetInterfaceSetting(uint8 interfaceNumber)
 715:.\Generated_Source\PSoC5/USB_Bootloader.c ****                                                     
 716:.\Generated_Source\PSoC5/USB_Bootloader.c **** {
 646              		.loc 1 716 0
 647              		.cfi_startproc
 648              		@ args = 0, pretend = 0, frame = 0
 649              		@ frame_needed = 0, uses_anonymous_args = 0
 650              		@ link register save eliminated.
 651              	.LVL40:
 717:.\Generated_Source\PSoC5/USB_Bootloader.c ****     return(USB_Bootloader_interfaceSetting[interfaceNumber]);
 652              		.loc 1 717 0
 653 0000 014B     		ldr	r3, .L41
 654 0002 185C     		ldrb	r0, [r3, r0]	@ zero_extendqisi2
 655              	.LVL41:
 718:.\Generated_Source\PSoC5/USB_Bootloader.c **** }
 656              		.loc 1 718 0
 657 0004 7047     		bx	lr
 658              	.L42:
 659 0006 00BF     		.align	2
 660              	.L41:
 661 0008 00000000 		.word	USB_Bootloader_interfaceSetting
 662              		.cfi_endproc
 663              	.LFE8:
 664              		.size	USB_Bootloader_GetInterfaceSetting, .-USB_Bootloader_GetInterfaceSetting
 665              		.section	.text.USB_Bootloader_GetEPState,"ax",%progbits
 666              		.align	2
 667              		.global	USB_Bootloader_GetEPState
 668              		.thumb
 669              		.thumb_func
 670              		.type	USB_Bootloader_GetEPState, %function
 671              	USB_Bootloader_GetEPState:
 672              	.LFB9:
 719:.\Generated_Source\PSoC5/USB_Bootloader.c **** 
 720:.\Generated_Source\PSoC5/USB_Bootloader.c **** 
 721:.\Generated_Source\PSoC5/USB_Bootloader.c **** /*******************************************************************************
 722:.\Generated_Source\PSoC5/USB_Bootloader.c **** * Function Name: USB_Bootloader_GetEPState
 723:.\Generated_Source\PSoC5/USB_Bootloader.c **** ********************************************************************************
 724:.\Generated_Source\PSoC5/USB_Bootloader.c **** *
 725:.\Generated_Source\PSoC5/USB_Bootloader.c **** * Summary:
 726:.\Generated_Source\PSoC5/USB_Bootloader.c **** *  Returned the state of the requested endpoint.
 727:.\Generated_Source\PSoC5/USB_Bootloader.c **** *
 728:.\Generated_Source\PSoC5/USB_Bootloader.c **** * Parameters:
 729:.\Generated_Source\PSoC5/USB_Bootloader.c **** *  epNumber: Endpoint Number
 730:.\Generated_Source\PSoC5/USB_Bootloader.c **** *
 731:.\Generated_Source\PSoC5/USB_Bootloader.c **** * Return:
 732:.\Generated_Source\PSoC5/USB_Bootloader.c **** *  State of the requested endpoint.
 733:.\Generated_Source\PSoC5/USB_Bootloader.c **** *
 734:.\Generated_Source\PSoC5/USB_Bootloader.c **** *******************************************************************************/
 735:.\Generated_Source\PSoC5/USB_Bootloader.c **** uint8 USB_Bootloader_GetEPState(uint8 epNumber) 
 736:.\Generated_Source\PSoC5/USB_Bootloader.c **** {
 673              		.loc 1 736 0
 674              		.cfi_startproc
 675              		@ args = 0, pretend = 0, frame = 0
 676              		@ frame_needed = 0, uses_anonymous_args = 0
 677              		@ link register save eliminated.
 678              	.LVL42:
 737:.\Generated_Source\PSoC5/USB_Bootloader.c ****     return(USB_Bootloader_EP[epNumber].apiEpState);
ARM GAS  C:\Users\Robert\AppData\Local\Temp\ccGEgqLk.s 			page 26


 679              		.loc 1 737 0
 680 0000 00EB4000 		add	r0, r0, r0, lsl #1
 681              	.LVL43:
 682 0004 8000     		lsls	r0, r0, #2
 683 0006 024B     		ldr	r3, .L44
 684 0008 1844     		add	r0, r0, r3
 685 000a 4078     		ldrb	r0, [r0, #1]	@ zero_extendqisi2
 738:.\Generated_Source\PSoC5/USB_Bootloader.c **** }
 686              		.loc 1 738 0
 687 000c 7047     		bx	lr
 688              	.L45:
 689 000e 00BF     		.align	2
 690              	.L44:
 691 0010 00000000 		.word	USB_Bootloader_EP
 692              		.cfi_endproc
 693              	.LFE9:
 694              		.size	USB_Bootloader_GetEPState, .-USB_Bootloader_GetEPState
 695              		.section	.text.USB_Bootloader_GetEPCount,"ax",%progbits
 696              		.align	2
 697              		.global	USB_Bootloader_GetEPCount
 698              		.thumb
 699              		.thumb_func
 700              		.type	USB_Bootloader_GetEPCount, %function
 701              	USB_Bootloader_GetEPCount:
 702              	.LFB10:
 739:.\Generated_Source\PSoC5/USB_Bootloader.c **** 
 740:.\Generated_Source\PSoC5/USB_Bootloader.c **** 
 741:.\Generated_Source\PSoC5/USB_Bootloader.c **** /*******************************************************************************
 742:.\Generated_Source\PSoC5/USB_Bootloader.c **** * Function Name: USB_Bootloader_GetEPCount
 743:.\Generated_Source\PSoC5/USB_Bootloader.c **** ********************************************************************************
 744:.\Generated_Source\PSoC5/USB_Bootloader.c **** *
 745:.\Generated_Source\PSoC5/USB_Bootloader.c **** * Summary:
 746:.\Generated_Source\PSoC5/USB_Bootloader.c **** *  This function supports Data Endpoints only(EP1-EP8).
 747:.\Generated_Source\PSoC5/USB_Bootloader.c **** *  Returns the transfer count for the requested endpoint.  The value from
 748:.\Generated_Source\PSoC5/USB_Bootloader.c **** *  the count registers includes 2 counts for the two byte checksum of the
 749:.\Generated_Source\PSoC5/USB_Bootloader.c **** *  packet.  This function subtracts the two counts.
 750:.\Generated_Source\PSoC5/USB_Bootloader.c **** *
 751:.\Generated_Source\PSoC5/USB_Bootloader.c **** * Parameters:
 752:.\Generated_Source\PSoC5/USB_Bootloader.c **** *  epNumber: Data Endpoint Number.
 753:.\Generated_Source\PSoC5/USB_Bootloader.c **** *            Valid values are between 1 and 8.
 754:.\Generated_Source\PSoC5/USB_Bootloader.c **** *
 755:.\Generated_Source\PSoC5/USB_Bootloader.c **** * Return:
 756:.\Generated_Source\PSoC5/USB_Bootloader.c **** *  Returns the current byte count from the specified endpoint or 0 for an
 757:.\Generated_Source\PSoC5/USB_Bootloader.c **** *  invalid endpoint.
 758:.\Generated_Source\PSoC5/USB_Bootloader.c **** *
 759:.\Generated_Source\PSoC5/USB_Bootloader.c **** *******************************************************************************/
 760:.\Generated_Source\PSoC5/USB_Bootloader.c **** uint16 USB_Bootloader_GetEPCount(uint8 epNumber) 
 761:.\Generated_Source\PSoC5/USB_Bootloader.c **** {
 703              		.loc 1 761 0
 704              		.cfi_startproc
 705              		@ args = 0, pretend = 0, frame = 0
 706              		@ frame_needed = 0, uses_anonymous_args = 0
 707              		@ link register save eliminated.
 708              	.LVL44:
 762:.\Generated_Source\PSoC5/USB_Bootloader.c ****     uint8 ri;
 763:.\Generated_Source\PSoC5/USB_Bootloader.c ****     uint16 result = 0u;
 764:.\Generated_Source\PSoC5/USB_Bootloader.c **** 
ARM GAS  C:\Users\Robert\AppData\Local\Temp\ccGEgqLk.s 			page 27


 765:.\Generated_Source\PSoC5/USB_Bootloader.c ****     if((epNumber > USB_Bootloader_EP0) && (epNumber < USB_Bootloader_MAX_EP))
 709              		.loc 1 765 0
 710 0000 0138     		subs	r0, r0, #1
 711              	.LVL45:
 712 0002 C0B2     		uxtb	r0, r0
 713 0004 0728     		cmp	r0, #7
 714 0006 0CD8     		bhi	.L48
 766:.\Generated_Source\PSoC5/USB_Bootloader.c ****     {
 767:.\Generated_Source\PSoC5/USB_Bootloader.c ****         ri = ((epNumber - USB_Bootloader_EP1) << USB_Bootloader_EPX_CNTX_ADDR_SHIFT);
 715              		.loc 1 767 0
 716 0008 0001     		lsls	r0, r0, #4
 717 000a C0B2     		uxtb	r0, r0
 718              	.LVL46:
 768:.\Generated_Source\PSoC5/USB_Bootloader.c **** 
 769:.\Generated_Source\PSoC5/USB_Bootloader.c ****         result = (uint8)(CY_GET_REG8((reg8 *)(USB_Bootloader_SIE_EP1_CNT0_IND + ri)) &
 719              		.loc 1 769 0
 720 000c 064B     		ldr	r3, .L49
 721 000e C25C     		ldrb	r2, [r0, r3]	@ zero_extendqisi2
 722 0010 02F00F02 		and	r2, r2, #15
 723              	.LVL47:
 770:.\Generated_Source\PSoC5/USB_Bootloader.c ****                           USB_Bootloader_EPX_CNT0_MASK);
 771:.\Generated_Source\PSoC5/USB_Bootloader.c ****         result = (result << 8u) | CY_GET_REG8((reg8 *)(USB_Bootloader_SIE_EP1_CNT1_IND + ri));
 724              		.loc 1 771 0
 725 0014 0133     		adds	r3, r3, #1
 726 0016 C35C     		ldrb	r3, [r0, r3]	@ zero_extendqisi2
 727 0018 43EA0220 		orr	r0, r3, r2, lsl #8
 728              	.LVL48:
 772:.\Generated_Source\PSoC5/USB_Bootloader.c ****         result -= USB_Bootloader_EPX_CNTX_CRC_COUNT;
 729              		.loc 1 772 0
 730 001c 0238     		subs	r0, r0, #2
 731              	.LVL49:
 732 001e 80B2     		uxth	r0, r0
 733              	.LVL50:
 734 0020 7047     		bx	lr
 735              	.LVL51:
 736              	.L48:
 763:.\Generated_Source\PSoC5/USB_Bootloader.c **** 
 737              		.loc 1 763 0
 738 0022 0020     		movs	r0, #0
 739              	.LVL52:
 773:.\Generated_Source\PSoC5/USB_Bootloader.c ****     }
 774:.\Generated_Source\PSoC5/USB_Bootloader.c ****     return(result);
 775:.\Generated_Source\PSoC5/USB_Bootloader.c **** }
 740              		.loc 1 775 0
 741 0024 7047     		bx	lr
 742              	.L50:
 743 0026 00BF     		.align	2
 744              	.L49:
 745 0028 0C600040 		.word	1073766412
 746              		.cfi_endproc
 747              	.LFE10:
 748              		.size	USB_Bootloader_GetEPCount, .-USB_Bootloader_GetEPCount
 749              		.section	.text.USB_Bootloader_LoadInEP,"ax",%progbits
 750              		.align	2
 751              		.global	USB_Bootloader_LoadInEP
 752              		.thumb
 753              		.thumb_func
ARM GAS  C:\Users\Robert\AppData\Local\Temp\ccGEgqLk.s 			page 28


 754              		.type	USB_Bootloader_LoadInEP, %function
 755              	USB_Bootloader_LoadInEP:
 756              	.LFB11:
 776:.\Generated_Source\PSoC5/USB_Bootloader.c **** 
 777:.\Generated_Source\PSoC5/USB_Bootloader.c **** 
 778:.\Generated_Source\PSoC5/USB_Bootloader.c **** #if(USB_Bootloader_EP_MM != USB_Bootloader__EP_MANUAL)
 779:.\Generated_Source\PSoC5/USB_Bootloader.c **** 
 780:.\Generated_Source\PSoC5/USB_Bootloader.c **** 
 781:.\Generated_Source\PSoC5/USB_Bootloader.c ****     /*******************************************************************************
 782:.\Generated_Source\PSoC5/USB_Bootloader.c ****     * Function Name: USB_Bootloader_InitEP_DMA
 783:.\Generated_Source\PSoC5/USB_Bootloader.c ****     ********************************************************************************
 784:.\Generated_Source\PSoC5/USB_Bootloader.c ****     *
 785:.\Generated_Source\PSoC5/USB_Bootloader.c ****     * Summary:
 786:.\Generated_Source\PSoC5/USB_Bootloader.c ****     *  This function allocates and initializes a DMA channel to be used by the
 787:.\Generated_Source\PSoC5/USB_Bootloader.c ****     *  USB_Bootloader_LoadInEP() or USB_Bootloader_ReadOutEP() APIs for data
 788:.\Generated_Source\PSoC5/USB_Bootloader.c ****     *  transfer.
 789:.\Generated_Source\PSoC5/USB_Bootloader.c ****     *
 790:.\Generated_Source\PSoC5/USB_Bootloader.c ****     * Parameters:
 791:.\Generated_Source\PSoC5/USB_Bootloader.c ****     *  epNumber: Contains the data endpoint number.
 792:.\Generated_Source\PSoC5/USB_Bootloader.c ****     *            Valid values are between 1 and 8.
 793:.\Generated_Source\PSoC5/USB_Bootloader.c ****     *  *pData: Pointer to a data array that is related to the EP transfers.
 794:.\Generated_Source\PSoC5/USB_Bootloader.c ****     *
 795:.\Generated_Source\PSoC5/USB_Bootloader.c ****     * Return:
 796:.\Generated_Source\PSoC5/USB_Bootloader.c ****     *  None.
 797:.\Generated_Source\PSoC5/USB_Bootloader.c ****     *
 798:.\Generated_Source\PSoC5/USB_Bootloader.c ****     * Reentrant:
 799:.\Generated_Source\PSoC5/USB_Bootloader.c ****     *  No.
 800:.\Generated_Source\PSoC5/USB_Bootloader.c ****     *
 801:.\Generated_Source\PSoC5/USB_Bootloader.c ****     *******************************************************************************/
 802:.\Generated_Source\PSoC5/USB_Bootloader.c ****     void USB_Bootloader_InitEP_DMA(uint8 epNumber, const uint8* pData)
 803:.\Generated_Source\PSoC5/USB_Bootloader.c ****                                                                     
 804:.\Generated_Source\PSoC5/USB_Bootloader.c ****     {
 805:.\Generated_Source\PSoC5/USB_Bootloader.c ****         uint16 src;
 806:.\Generated_Source\PSoC5/USB_Bootloader.c ****         uint16 dst;
 807:.\Generated_Source\PSoC5/USB_Bootloader.c ****         #if (CY_PSOC3)                  /* PSoC 3 */
 808:.\Generated_Source\PSoC5/USB_Bootloader.c ****             src = HI16(CYDEV_SRAM_BASE);
 809:.\Generated_Source\PSoC5/USB_Bootloader.c ****             dst = HI16(CYDEV_PERIPH_BASE);
 810:.\Generated_Source\PSoC5/USB_Bootloader.c ****             pData = pData;
 811:.\Generated_Source\PSoC5/USB_Bootloader.c ****         #else                           /* PSoC 5 */
 812:.\Generated_Source\PSoC5/USB_Bootloader.c ****             if((USB_Bootloader_EP[epNumber].addr & USB_Bootloader_DIR_IN) != 0u )
 813:.\Generated_Source\PSoC5/USB_Bootloader.c ****             {   /* for the IN EP source is the SRAM memory buffer */
 814:.\Generated_Source\PSoC5/USB_Bootloader.c ****                 src = HI16(pData);
 815:.\Generated_Source\PSoC5/USB_Bootloader.c ****                 dst = HI16(CYDEV_PERIPH_BASE);
 816:.\Generated_Source\PSoC5/USB_Bootloader.c ****             }
 817:.\Generated_Source\PSoC5/USB_Bootloader.c ****             else
 818:.\Generated_Source\PSoC5/USB_Bootloader.c ****             {   /* for the OUT EP source is the SIE register */
 819:.\Generated_Source\PSoC5/USB_Bootloader.c ****                 src = HI16(CYDEV_PERIPH_BASE);
 820:.\Generated_Source\PSoC5/USB_Bootloader.c ****                 dst = HI16(pData);
 821:.\Generated_Source\PSoC5/USB_Bootloader.c ****             }
 822:.\Generated_Source\PSoC5/USB_Bootloader.c ****         #endif  /*  C51 */
 823:.\Generated_Source\PSoC5/USB_Bootloader.c ****         switch(epNumber)
 824:.\Generated_Source\PSoC5/USB_Bootloader.c ****         {
 825:.\Generated_Source\PSoC5/USB_Bootloader.c ****             case USB_Bootloader_EP1:
 826:.\Generated_Source\PSoC5/USB_Bootloader.c ****                 #if(USB_Bootloader_DMA1_REMOVE == 0u)
 827:.\Generated_Source\PSoC5/USB_Bootloader.c ****                     USB_Bootloader_DmaChan[epNumber] = USB_Bootloader_ep1_DmaInitialize(
 828:.\Generated_Source\PSoC5/USB_Bootloader.c ****                         USB_Bootloader_DMA_BYTES_PER_BURST, USB_Bootloader_DMA_REQUEST_PER_BURST, s
 829:.\Generated_Source\PSoC5/USB_Bootloader.c ****                 #endif   /*  USB_Bootloader_DMA1_REMOVE */
ARM GAS  C:\Users\Robert\AppData\Local\Temp\ccGEgqLk.s 			page 29


 830:.\Generated_Source\PSoC5/USB_Bootloader.c ****                 break;
 831:.\Generated_Source\PSoC5/USB_Bootloader.c ****             case USB_Bootloader_EP2:
 832:.\Generated_Source\PSoC5/USB_Bootloader.c ****                 #if(USB_Bootloader_DMA2_REMOVE == 0u)
 833:.\Generated_Source\PSoC5/USB_Bootloader.c ****                     USB_Bootloader_DmaChan[epNumber] = USB_Bootloader_ep2_DmaInitialize(
 834:.\Generated_Source\PSoC5/USB_Bootloader.c ****                         USB_Bootloader_DMA_BYTES_PER_BURST, USB_Bootloader_DMA_REQUEST_PER_BURST, s
 835:.\Generated_Source\PSoC5/USB_Bootloader.c ****                 #endif   /*  USB_Bootloader_DMA2_REMOVE */
 836:.\Generated_Source\PSoC5/USB_Bootloader.c ****                 break;
 837:.\Generated_Source\PSoC5/USB_Bootloader.c ****             case USB_Bootloader_EP3:
 838:.\Generated_Source\PSoC5/USB_Bootloader.c ****                 #if(USB_Bootloader_DMA3_REMOVE == 0u)
 839:.\Generated_Source\PSoC5/USB_Bootloader.c ****                     USB_Bootloader_DmaChan[epNumber] = USB_Bootloader_ep3_DmaInitialize(
 840:.\Generated_Source\PSoC5/USB_Bootloader.c ****                         USB_Bootloader_DMA_BYTES_PER_BURST, USB_Bootloader_DMA_REQUEST_PER_BURST, s
 841:.\Generated_Source\PSoC5/USB_Bootloader.c ****                 #endif   /*  USB_Bootloader_DMA3_REMOVE */
 842:.\Generated_Source\PSoC5/USB_Bootloader.c ****                 break;
 843:.\Generated_Source\PSoC5/USB_Bootloader.c ****             case USB_Bootloader_EP4:
 844:.\Generated_Source\PSoC5/USB_Bootloader.c ****                 #if(USB_Bootloader_DMA4_REMOVE == 0u)
 845:.\Generated_Source\PSoC5/USB_Bootloader.c ****                     USB_Bootloader_DmaChan[epNumber] = USB_Bootloader_ep4_DmaInitialize(
 846:.\Generated_Source\PSoC5/USB_Bootloader.c ****                         USB_Bootloader_DMA_BYTES_PER_BURST, USB_Bootloader_DMA_REQUEST_PER_BURST, s
 847:.\Generated_Source\PSoC5/USB_Bootloader.c ****                 #endif   /*  USB_Bootloader_DMA4_REMOVE */
 848:.\Generated_Source\PSoC5/USB_Bootloader.c ****                 break;
 849:.\Generated_Source\PSoC5/USB_Bootloader.c ****             case USB_Bootloader_EP5:
 850:.\Generated_Source\PSoC5/USB_Bootloader.c ****                 #if(USB_Bootloader_DMA5_REMOVE == 0u)
 851:.\Generated_Source\PSoC5/USB_Bootloader.c ****                     USB_Bootloader_DmaChan[epNumber] = USB_Bootloader_ep5_DmaInitialize(
 852:.\Generated_Source\PSoC5/USB_Bootloader.c ****                         USB_Bootloader_DMA_BYTES_PER_BURST, USB_Bootloader_DMA_REQUEST_PER_BURST, s
 853:.\Generated_Source\PSoC5/USB_Bootloader.c ****                 #endif   /*  USB_Bootloader_DMA5_REMOVE */
 854:.\Generated_Source\PSoC5/USB_Bootloader.c ****                 break;
 855:.\Generated_Source\PSoC5/USB_Bootloader.c ****             case USB_Bootloader_EP6:
 856:.\Generated_Source\PSoC5/USB_Bootloader.c ****                 #if(USB_Bootloader_DMA6_REMOVE == 0u)
 857:.\Generated_Source\PSoC5/USB_Bootloader.c ****                     USB_Bootloader_DmaChan[epNumber] = USB_Bootloader_ep6_DmaInitialize(
 858:.\Generated_Source\PSoC5/USB_Bootloader.c ****                         USB_Bootloader_DMA_BYTES_PER_BURST, USB_Bootloader_DMA_REQUEST_PER_BURST, s
 859:.\Generated_Source\PSoC5/USB_Bootloader.c ****                 #endif   /*  USB_Bootloader_DMA6_REMOVE */
 860:.\Generated_Source\PSoC5/USB_Bootloader.c ****                 break;
 861:.\Generated_Source\PSoC5/USB_Bootloader.c ****             case USB_Bootloader_EP7:
 862:.\Generated_Source\PSoC5/USB_Bootloader.c ****                 #if(USB_Bootloader_DMA7_REMOVE == 0u)
 863:.\Generated_Source\PSoC5/USB_Bootloader.c ****                     USB_Bootloader_DmaChan[epNumber] = USB_Bootloader_ep7_DmaInitialize(
 864:.\Generated_Source\PSoC5/USB_Bootloader.c ****                         USB_Bootloader_DMA_BYTES_PER_BURST, USB_Bootloader_DMA_REQUEST_PER_BURST, s
 865:.\Generated_Source\PSoC5/USB_Bootloader.c ****                 #endif   /*  USB_Bootloader_DMA7_REMOVE */
 866:.\Generated_Source\PSoC5/USB_Bootloader.c ****                 break;
 867:.\Generated_Source\PSoC5/USB_Bootloader.c ****             case USB_Bootloader_EP8:
 868:.\Generated_Source\PSoC5/USB_Bootloader.c ****                 #if(USB_Bootloader_DMA8_REMOVE == 0u)
 869:.\Generated_Source\PSoC5/USB_Bootloader.c ****                     USB_Bootloader_DmaChan[epNumber] = USB_Bootloader_ep8_DmaInitialize(
 870:.\Generated_Source\PSoC5/USB_Bootloader.c ****                         USB_Bootloader_DMA_BYTES_PER_BURST, USB_Bootloader_DMA_REQUEST_PER_BURST, s
 871:.\Generated_Source\PSoC5/USB_Bootloader.c ****                 #endif   /*  USB_Bootloader_DMA8_REMOVE */
 872:.\Generated_Source\PSoC5/USB_Bootloader.c ****                 break;
 873:.\Generated_Source\PSoC5/USB_Bootloader.c ****             default:
 874:.\Generated_Source\PSoC5/USB_Bootloader.c ****                 /* Do not support EP0 DMA transfers */
 875:.\Generated_Source\PSoC5/USB_Bootloader.c ****                 break;
 876:.\Generated_Source\PSoC5/USB_Bootloader.c ****         }
 877:.\Generated_Source\PSoC5/USB_Bootloader.c ****         if((epNumber > USB_Bootloader_EP0) && (epNumber < USB_Bootloader_MAX_EP))
 878:.\Generated_Source\PSoC5/USB_Bootloader.c ****         {
 879:.\Generated_Source\PSoC5/USB_Bootloader.c ****             USB_Bootloader_DmaTd[epNumber] = CyDmaTdAllocate();
 880:.\Generated_Source\PSoC5/USB_Bootloader.c ****             #if ((USB_Bootloader_EP_MM == USB_Bootloader__EP_DMAAUTO) && (USB_Bootloader_EP_DMA_AUT
 881:.\Generated_Source\PSoC5/USB_Bootloader.c ****                 USB_Bootloader_DmaNextTd[epNumber] = CyDmaTdAllocate();
 882:.\Generated_Source\PSoC5/USB_Bootloader.c ****             #endif /*  ((USB_Bootloader_EP_MM == USB_Bootloader__EP_DMAAUTO) && (USB_Bootloader_EP_
 883:.\Generated_Source\PSoC5/USB_Bootloader.c **** 
 884:.\Generated_Source\PSoC5/USB_Bootloader.c ****         }
 885:.\Generated_Source\PSoC5/USB_Bootloader.c ****     }
 886:.\Generated_Source\PSoC5/USB_Bootloader.c **** 
ARM GAS  C:\Users\Robert\AppData\Local\Temp\ccGEgqLk.s 			page 30


 887:.\Generated_Source\PSoC5/USB_Bootloader.c **** 
 888:.\Generated_Source\PSoC5/USB_Bootloader.c ****     /*******************************************************************************
 889:.\Generated_Source\PSoC5/USB_Bootloader.c ****     * Function Name: USB_Bootloader_Stop_DMA
 890:.\Generated_Source\PSoC5/USB_Bootloader.c ****     ********************************************************************************
 891:.\Generated_Source\PSoC5/USB_Bootloader.c ****     *
 892:.\Generated_Source\PSoC5/USB_Bootloader.c ****     * Summary: Stops and free DMA
 893:.\Generated_Source\PSoC5/USB_Bootloader.c ****     *
 894:.\Generated_Source\PSoC5/USB_Bootloader.c ****     * Parameters:
 895:.\Generated_Source\PSoC5/USB_Bootloader.c ****     *  epNumber: Contains the data endpoint number or
 896:.\Generated_Source\PSoC5/USB_Bootloader.c ****     *           USB_Bootloader_MAX_EP to stop all DMAs
 897:.\Generated_Source\PSoC5/USB_Bootloader.c ****     *
 898:.\Generated_Source\PSoC5/USB_Bootloader.c ****     * Return:
 899:.\Generated_Source\PSoC5/USB_Bootloader.c ****     *  None.
 900:.\Generated_Source\PSoC5/USB_Bootloader.c ****     *
 901:.\Generated_Source\PSoC5/USB_Bootloader.c ****     * Reentrant:
 902:.\Generated_Source\PSoC5/USB_Bootloader.c ****     *  No.
 903:.\Generated_Source\PSoC5/USB_Bootloader.c ****     *
 904:.\Generated_Source\PSoC5/USB_Bootloader.c ****     *******************************************************************************/
 905:.\Generated_Source\PSoC5/USB_Bootloader.c ****     void USB_Bootloader_Stop_DMA(uint8 epNumber) 
 906:.\Generated_Source\PSoC5/USB_Bootloader.c ****     {
 907:.\Generated_Source\PSoC5/USB_Bootloader.c ****         uint8 i;
 908:.\Generated_Source\PSoC5/USB_Bootloader.c ****         i = (epNumber < USB_Bootloader_MAX_EP) ? epNumber : USB_Bootloader_EP1;
 909:.\Generated_Source\PSoC5/USB_Bootloader.c ****         do
 910:.\Generated_Source\PSoC5/USB_Bootloader.c ****         {
 911:.\Generated_Source\PSoC5/USB_Bootloader.c ****             if(USB_Bootloader_DmaTd[i] != DMA_INVALID_TD)
 912:.\Generated_Source\PSoC5/USB_Bootloader.c ****             {
 913:.\Generated_Source\PSoC5/USB_Bootloader.c ****                 (void) CyDmaChDisable(USB_Bootloader_DmaChan[i]);
 914:.\Generated_Source\PSoC5/USB_Bootloader.c ****                 CyDmaTdFree(USB_Bootloader_DmaTd[i]);
 915:.\Generated_Source\PSoC5/USB_Bootloader.c ****                 USB_Bootloader_DmaTd[i] = DMA_INVALID_TD;
 916:.\Generated_Source\PSoC5/USB_Bootloader.c ****             }
 917:.\Generated_Source\PSoC5/USB_Bootloader.c ****             #if ((USB_Bootloader_EP_MM == USB_Bootloader__EP_DMAAUTO) && (USB_Bootloader_EP_DMA_AUT
 918:.\Generated_Source\PSoC5/USB_Bootloader.c ****                 if(USB_Bootloader_DmaNextTd[i] != DMA_INVALID_TD)
 919:.\Generated_Source\PSoC5/USB_Bootloader.c ****                 {
 920:.\Generated_Source\PSoC5/USB_Bootloader.c ****                     CyDmaTdFree(USB_Bootloader_DmaNextTd[i]);
 921:.\Generated_Source\PSoC5/USB_Bootloader.c ****                     USB_Bootloader_DmaNextTd[i] = DMA_INVALID_TD;
 922:.\Generated_Source\PSoC5/USB_Bootloader.c ****                 }
 923:.\Generated_Source\PSoC5/USB_Bootloader.c ****             #endif /* ((USB_Bootloader_EP_MM == USB_Bootloader__EP_DMAAUTO) && (USB_Bootloader_EP_D
 924:.\Generated_Source\PSoC5/USB_Bootloader.c ****             i++;
 925:.\Generated_Source\PSoC5/USB_Bootloader.c ****         }while((i < USB_Bootloader_MAX_EP) && (epNumber == USB_Bootloader_MAX_EP));
 926:.\Generated_Source\PSoC5/USB_Bootloader.c ****     }
 927:.\Generated_Source\PSoC5/USB_Bootloader.c **** 
 928:.\Generated_Source\PSoC5/USB_Bootloader.c **** #endif /*  USB_Bootloader_EP_MM != USB_Bootloader__EP_MANUAL */
 929:.\Generated_Source\PSoC5/USB_Bootloader.c **** 
 930:.\Generated_Source\PSoC5/USB_Bootloader.c **** 
 931:.\Generated_Source\PSoC5/USB_Bootloader.c **** #if ((USB_Bootloader_EP_MM == USB_Bootloader__EP_DMAAUTO) && (USB_Bootloader_EP_DMA_AUTO_OPT == 0u)
 932:.\Generated_Source\PSoC5/USB_Bootloader.c **** 
 933:.\Generated_Source\PSoC5/USB_Bootloader.c **** 
 934:.\Generated_Source\PSoC5/USB_Bootloader.c ****     /*******************************************************************************
 935:.\Generated_Source\PSoC5/USB_Bootloader.c ****     * Function Name: USB_Bootloader_LoadNextInEP
 936:.\Generated_Source\PSoC5/USB_Bootloader.c ****     ********************************************************************************
 937:.\Generated_Source\PSoC5/USB_Bootloader.c ****     *
 938:.\Generated_Source\PSoC5/USB_Bootloader.c ****     * Summary:
 939:.\Generated_Source\PSoC5/USB_Bootloader.c ****     *  This internal function is used for IN endpoint DMA reconfiguration in
 940:.\Generated_Source\PSoC5/USB_Bootloader.c ****     *  Auto DMA mode.
 941:.\Generated_Source\PSoC5/USB_Bootloader.c ****     *
 942:.\Generated_Source\PSoC5/USB_Bootloader.c ****     * Parameters:
 943:.\Generated_Source\PSoC5/USB_Bootloader.c ****     *  epNumber: Contains the data endpoint number.
ARM GAS  C:\Users\Robert\AppData\Local\Temp\ccGEgqLk.s 			page 31


 944:.\Generated_Source\PSoC5/USB_Bootloader.c ****     *  mode:   0 - Configure DMA to send the the rest of data.
 945:.\Generated_Source\PSoC5/USB_Bootloader.c ****     *          1 - Configure DMA to repeat 2 last bytes of the first burst.
 946:.\Generated_Source\PSoC5/USB_Bootloader.c ****     *
 947:.\Generated_Source\PSoC5/USB_Bootloader.c ****     * Return:
 948:.\Generated_Source\PSoC5/USB_Bootloader.c ****     *  None.
 949:.\Generated_Source\PSoC5/USB_Bootloader.c ****     *
 950:.\Generated_Source\PSoC5/USB_Bootloader.c ****     *******************************************************************************/
 951:.\Generated_Source\PSoC5/USB_Bootloader.c ****     void USB_Bootloader_LoadNextInEP(uint8 epNumber, uint8 mode) 
 952:.\Generated_Source\PSoC5/USB_Bootloader.c ****     {
 953:.\Generated_Source\PSoC5/USB_Bootloader.c ****         reg16 *convert;
 954:.\Generated_Source\PSoC5/USB_Bootloader.c **** 
 955:.\Generated_Source\PSoC5/USB_Bootloader.c ****         if(mode == 0u)
 956:.\Generated_Source\PSoC5/USB_Bootloader.c ****         {
 957:.\Generated_Source\PSoC5/USB_Bootloader.c ****             /* Configure DMA to send the the rest of data */
 958:.\Generated_Source\PSoC5/USB_Bootloader.c ****             /* CyDmaTdSetConfiguration API is optimised to change only transfer length and configur
 959:.\Generated_Source\PSoC5/USB_Bootloader.c ****             convert = (reg16 *) &CY_DMA_TDMEM_STRUCT_PTR[USB_Bootloader_DmaTd[epNumber]].TD0[0u];
 960:.\Generated_Source\PSoC5/USB_Bootloader.c ****             /* Set transfer length */
 961:.\Generated_Source\PSoC5/USB_Bootloader.c ****             CY_SET_REG16(convert, USB_Bootloader_inLength[epNumber] - USB_Bootloader_DMA_BYTES_PER_
 962:.\Generated_Source\PSoC5/USB_Bootloader.c ****             /* CyDmaTdSetAddress API is optimized to change only source address */
 963:.\Generated_Source\PSoC5/USB_Bootloader.c ****             convert = (reg16 *) &CY_DMA_TDMEM_STRUCT_PTR[USB_Bootloader_DmaTd[epNumber]].TD1[0u];
 964:.\Generated_Source\PSoC5/USB_Bootloader.c ****             CY_SET_REG16(convert, LO16((uint32)USB_Bootloader_inDataPointer[epNumber] +
 965:.\Generated_Source\PSoC5/USB_Bootloader.c ****                                             USB_Bootloader_DMA_BYTES_PER_BURST));
 966:.\Generated_Source\PSoC5/USB_Bootloader.c ****             USB_Bootloader_inBufFull[epNumber] = 1u;
 967:.\Generated_Source\PSoC5/USB_Bootloader.c ****         }
 968:.\Generated_Source\PSoC5/USB_Bootloader.c ****         else
 969:.\Generated_Source\PSoC5/USB_Bootloader.c ****         {
 970:.\Generated_Source\PSoC5/USB_Bootloader.c ****             /* Configure DMA to repeat 2 last bytes of the first burst. */
 971:.\Generated_Source\PSoC5/USB_Bootloader.c ****             /* CyDmaTdSetConfiguration API is optimised to change only transfer length and configur
 972:.\Generated_Source\PSoC5/USB_Bootloader.c ****             convert = (reg16 *) &CY_DMA_TDMEM_STRUCT_PTR[USB_Bootloader_DmaTd[epNumber]].TD0[0u];
 973:.\Generated_Source\PSoC5/USB_Bootloader.c ****             /* Set transfer length */
 974:.\Generated_Source\PSoC5/USB_Bootloader.c ****             CY_SET_REG16(convert, USB_Bootloader_DMA_BYTES_REPEAT);
 975:.\Generated_Source\PSoC5/USB_Bootloader.c ****             /* CyDmaTdSetAddress API is optimized to change only source address */
 976:.\Generated_Source\PSoC5/USB_Bootloader.c ****             convert = (reg16 *) &CY_DMA_TDMEM_STRUCT_PTR[USB_Bootloader_DmaTd[epNumber]].TD1[0u];
 977:.\Generated_Source\PSoC5/USB_Bootloader.c ****             CY_SET_REG16(convert,  LO16((uint32)USB_Bootloader_inDataPointer[epNumber] +
 978:.\Generated_Source\PSoC5/USB_Bootloader.c ****                                    USB_Bootloader_DMA_BYTES_PER_BURST - USB_Bootloader_DMA_BYTES_RE
 979:.\Generated_Source\PSoC5/USB_Bootloader.c ****         }
 980:.\Generated_Source\PSoC5/USB_Bootloader.c **** 
 981:.\Generated_Source\PSoC5/USB_Bootloader.c ****         /* CyDmaChSetInitialTd API is optimised to init TD */
 982:.\Generated_Source\PSoC5/USB_Bootloader.c ****         CY_DMA_CH_STRUCT_PTR[USB_Bootloader_DmaChan[epNumber]].basic_status[1u] = USB_Bootloader_Dm
 983:.\Generated_Source\PSoC5/USB_Bootloader.c ****     }
 984:.\Generated_Source\PSoC5/USB_Bootloader.c **** #endif /* ((USB_Bootloader_EP_MM == USB_Bootloader__EP_DMAAUTO) && (USB_Bootloader_EP_DMA_AUTO_OPT 
 985:.\Generated_Source\PSoC5/USB_Bootloader.c **** 
 986:.\Generated_Source\PSoC5/USB_Bootloader.c **** 
 987:.\Generated_Source\PSoC5/USB_Bootloader.c **** /*******************************************************************************
 988:.\Generated_Source\PSoC5/USB_Bootloader.c **** * Function Name: USB_Bootloader_LoadInEP
 989:.\Generated_Source\PSoC5/USB_Bootloader.c **** ********************************************************************************
 990:.\Generated_Source\PSoC5/USB_Bootloader.c **** *
 991:.\Generated_Source\PSoC5/USB_Bootloader.c **** * Summary:
 992:.\Generated_Source\PSoC5/USB_Bootloader.c **** *  Loads and enables the specified USB data endpoint for an IN transfer.
 993:.\Generated_Source\PSoC5/USB_Bootloader.c **** *
 994:.\Generated_Source\PSoC5/USB_Bootloader.c **** * Parameters:
 995:.\Generated_Source\PSoC5/USB_Bootloader.c **** *  epNumber: Contains the data endpoint number.
 996:.\Generated_Source\PSoC5/USB_Bootloader.c **** *            Valid values are between 1 and 8.
 997:.\Generated_Source\PSoC5/USB_Bootloader.c **** *  *pData: A pointer to a data array from which the data for the endpoint space
 998:.\Generated_Source\PSoC5/USB_Bootloader.c **** *          is loaded.
 999:.\Generated_Source\PSoC5/USB_Bootloader.c **** *  length: The number of bytes to transfer from the array and then send as a
1000:.\Generated_Source\PSoC5/USB_Bootloader.c **** *          result of an IN request. Valid values are between 0 and 512.
ARM GAS  C:\Users\Robert\AppData\Local\Temp\ccGEgqLk.s 			page 32


1001:.\Generated_Source\PSoC5/USB_Bootloader.c **** *
1002:.\Generated_Source\PSoC5/USB_Bootloader.c **** * Return:
1003:.\Generated_Source\PSoC5/USB_Bootloader.c **** *  None.
1004:.\Generated_Source\PSoC5/USB_Bootloader.c **** *
1005:.\Generated_Source\PSoC5/USB_Bootloader.c **** * Reentrant:
1006:.\Generated_Source\PSoC5/USB_Bootloader.c **** *  No.
1007:.\Generated_Source\PSoC5/USB_Bootloader.c **** *
1008:.\Generated_Source\PSoC5/USB_Bootloader.c **** *******************************************************************************/
1009:.\Generated_Source\PSoC5/USB_Bootloader.c **** void USB_Bootloader_LoadInEP(uint8 epNumber, const uint8 pData[], uint16 length)
1010:.\Generated_Source\PSoC5/USB_Bootloader.c ****                                                                         
1011:.\Generated_Source\PSoC5/USB_Bootloader.c **** {
 757              		.loc 1 1011 0
 758              		.cfi_startproc
 759              		@ args = 0, pretend = 0, frame = 0
 760              		@ frame_needed = 0, uses_anonymous_args = 0
 761              		@ link register save eliminated.
 762              	.LVL53:
 763 0000 70B4     		push	{r4, r5, r6}
 764              		.cfi_def_cfa_offset 12
 765              		.cfi_offset 4, -12
 766              		.cfi_offset 5, -8
 767              		.cfi_offset 6, -4
1012:.\Generated_Source\PSoC5/USB_Bootloader.c ****     uint8 ri;
1013:.\Generated_Source\PSoC5/USB_Bootloader.c ****     reg8 *p;
1014:.\Generated_Source\PSoC5/USB_Bootloader.c ****     #if(USB_Bootloader_EP_MM == USB_Bootloader__EP_MANUAL)
1015:.\Generated_Source\PSoC5/USB_Bootloader.c ****         uint16 i;
1016:.\Generated_Source\PSoC5/USB_Bootloader.c ****     #endif /*  USB_Bootloader_EP_MM == USB_Bootloader__EP_MANUAL */
1017:.\Generated_Source\PSoC5/USB_Bootloader.c **** 
1018:.\Generated_Source\PSoC5/USB_Bootloader.c ****     if((epNumber > USB_Bootloader_EP0) && (epNumber < USB_Bootloader_MAX_EP))
 768              		.loc 1 1018 0
 769 0002 451E     		subs	r5, r0, #1
 770 0004 EDB2     		uxtb	r5, r5
 771 0006 072D     		cmp	r5, #7
 772 0008 38D8     		bhi	.L51
1019:.\Generated_Source\PSoC5/USB_Bootloader.c ****     {
1020:.\Generated_Source\PSoC5/USB_Bootloader.c ****         ri = ((epNumber - USB_Bootloader_EP1) << USB_Bootloader_EPX_CNTX_ADDR_SHIFT);
 773              		.loc 1 1020 0
 774 000a 2D01     		lsls	r5, r5, #4
 775 000c EDB2     		uxtb	r5, r5
1021:.\Generated_Source\PSoC5/USB_Bootloader.c ****         p = (reg8 *)(USB_Bootloader_ARB_RW1_DR_IND + ri);
 776              		.loc 1 1021 0
 777 000e 1C4E     		ldr	r6, .L59
 778 0010 2E44     		add	r6, r6, r5
 779              	.LVL54:
1022:.\Generated_Source\PSoC5/USB_Bootloader.c **** 
1023:.\Generated_Source\PSoC5/USB_Bootloader.c ****         #if(USB_Bootloader_EP_MM != USB_Bootloader__EP_DMAAUTO)
1024:.\Generated_Source\PSoC5/USB_Bootloader.c ****             /* Limits length to available buffer space, auto MM could send packets up to 1024 bytes
1025:.\Generated_Source\PSoC5/USB_Bootloader.c ****             if(length > (USB_Bootloader_EPX_DATA_BUF_MAX - USB_Bootloader_EP[epNumber].buffOffset))
 780              		.loc 1 1025 0
 781 0012 00EB4003 		add	r3, r0, r0, lsl #1
 782 0016 9B00     		lsls	r3, r3, #2
 783 0018 1A4C     		ldr	r4, .L59+4
 784 001a 2344     		add	r3, r3, r4
 785 001c DB88     		ldrh	r3, [r3, #6]
 786 001e 9BB2     		uxth	r3, r3
 787 0020 C3F50073 		rsb	r3, r3, #512
 788 0024 9A42     		cmp	r2, r3
ARM GAS  C:\Users\Robert\AppData\Local\Temp\ccGEgqLk.s 			page 33


 789 0026 07D9     		bls	.L53
1026:.\Generated_Source\PSoC5/USB_Bootloader.c ****             {
1027:.\Generated_Source\PSoC5/USB_Bootloader.c ****                 length = USB_Bootloader_EPX_DATA_BUF_MAX - USB_Bootloader_EP[epNumber].buffOffset;
 790              		.loc 1 1027 0
 791 0028 00EB4003 		add	r3, r0, r0, lsl #1
 792 002c 9B00     		lsls	r3, r3, #2
 793 002e 2344     		add	r3, r3, r4
 794 0030 DA88     		ldrh	r2, [r3, #6]
 795              	.LVL55:
 796 0032 C2F50072 		rsb	r2, r2, #512
 797 0036 92B2     		uxth	r2, r2
 798              	.LVL56:
 799              	.L53:
1028:.\Generated_Source\PSoC5/USB_Bootloader.c ****             }
1029:.\Generated_Source\PSoC5/USB_Bootloader.c ****         #endif /*  USB_Bootloader_EP_MM != USB_Bootloader__EP_DMAAUTO */
1030:.\Generated_Source\PSoC5/USB_Bootloader.c **** 
1031:.\Generated_Source\PSoC5/USB_Bootloader.c ****         /* Set the count and data toggle */
1032:.\Generated_Source\PSoC5/USB_Bootloader.c ****         CY_SET_REG8((reg8 *)(USB_Bootloader_SIE_EP1_CNT0_IND + ri),
 800              		.loc 1 1032 0
 801 0038 00EB4003 		add	r3, r0, r0, lsl #1
 802 003c 9B00     		lsls	r3, r3, #2
 803 003e 114C     		ldr	r4, .L59+4
 804 0040 2344     		add	r3, r3, r4
 805 0042 DB78     		ldrb	r3, [r3, #3]	@ zero_extendqisi2
 806 0044 43EA1223 		orr	r3, r3, r2, lsr #8
 807 0048 0F4C     		ldr	r4, .L59+8
 808 004a 2B55     		strb	r3, [r5, r4]
1033:.\Generated_Source\PSoC5/USB_Bootloader.c ****                             (length >> 8u) | (USB_Bootloader_EP[epNumber].epToggle));
1034:.\Generated_Source\PSoC5/USB_Bootloader.c ****         CY_SET_REG8((reg8 *)(USB_Bootloader_SIE_EP1_CNT1_IND + ri),  length & 0xFFu);
 809              		.loc 1 1034 0
 810 004c D3B2     		uxtb	r3, r2
 811 004e 0134     		adds	r4, r4, #1
 812 0050 2B55     		strb	r3, [r5, r4]
1035:.\Generated_Source\PSoC5/USB_Bootloader.c **** 
1036:.\Generated_Source\PSoC5/USB_Bootloader.c ****         #if(USB_Bootloader_EP_MM == USB_Bootloader__EP_MANUAL)
1037:.\Generated_Source\PSoC5/USB_Bootloader.c ****             if(pData != NULL)
 813              		.loc 1 1037 0
 814 0052 29B9     		cbnz	r1, .L57
 815 0054 07E0     		b	.L55
 816              	.LVL57:
 817              	.L56:
1038:.\Generated_Source\PSoC5/USB_Bootloader.c ****             {
1039:.\Generated_Source\PSoC5/USB_Bootloader.c ****                 /* Copy the data using the arbiter data register */
1040:.\Generated_Source\PSoC5/USB_Bootloader.c ****                 for (i = 0u; i < length; i++)
1041:.\Generated_Source\PSoC5/USB_Bootloader.c ****                 {
1042:.\Generated_Source\PSoC5/USB_Bootloader.c ****                     CY_SET_REG8(p, pData[i]);
 818              		.loc 1 1042 0 discriminator 3
 819 0056 CC5C     		ldrb	r4, [r1, r3]	@ zero_extendqisi2
 820 0058 3470     		strb	r4, [r6]
1040:.\Generated_Source\PSoC5/USB_Bootloader.c ****                 {
 821              		.loc 1 1040 0 discriminator 3
 822 005a 0133     		adds	r3, r3, #1
 823              	.LVL58:
 824 005c 9BB2     		uxth	r3, r3
 825              	.LVL59:
 826 005e 00E0     		b	.L54
 827              	.LVL60:
ARM GAS  C:\Users\Robert\AppData\Local\Temp\ccGEgqLk.s 			page 34


 828              	.L57:
 829 0060 0023     		movs	r3, #0
 830              	.L54:
 831              	.LVL61:
1040:.\Generated_Source\PSoC5/USB_Bootloader.c ****                 {
 832              		.loc 1 1040 0 is_stmt 0 discriminator 1
 833 0062 9342     		cmp	r3, r2
 834 0064 F7D3     		bcc	.L56
 835              	.LVL62:
 836              	.L55:
1043:.\Generated_Source\PSoC5/USB_Bootloader.c ****                 }
1044:.\Generated_Source\PSoC5/USB_Bootloader.c ****             }
1045:.\Generated_Source\PSoC5/USB_Bootloader.c ****             USB_Bootloader_EP[epNumber].apiEpState = USB_Bootloader_NO_EVENT_PENDING;
 837              		.loc 1 1045 0 is_stmt 1
 838 0066 074A     		ldr	r2, .L59+4
 839              	.LVL63:
 840 0068 4100     		lsls	r1, r0, #1
 841              	.LVL64:
 842 006a 0B18     		adds	r3, r1, r0
 843 006c 9B00     		lsls	r3, r3, #2
 844 006e 1344     		add	r3, r3, r2
 845 0070 0024     		movs	r4, #0
 846 0072 5C70     		strb	r4, [r3, #1]
1046:.\Generated_Source\PSoC5/USB_Bootloader.c ****             /* Write the Mode register */
1047:.\Generated_Source\PSoC5/USB_Bootloader.c ****             CY_SET_REG8((reg8 *)(USB_Bootloader_SIE_EP1_CR0_IND + ri), USB_Bootloader_EP[epNumber].
 847              		.loc 1 1047 0
 848 0074 5B79     		ldrb	r3, [r3, #5]	@ zero_extendqisi2
 849 0076 DBB2     		uxtb	r3, r3
 850 0078 044A     		ldr	r2, .L59+12
 851 007a AB54     		strb	r3, [r5, r2]
 852              	.LVL65:
 853              	.L51:
1048:.\Generated_Source\PSoC5/USB_Bootloader.c ****         #else
1049:.\Generated_Source\PSoC5/USB_Bootloader.c ****             /* Init DMA if it was not initialized */
1050:.\Generated_Source\PSoC5/USB_Bootloader.c ****             if (USB_Bootloader_DmaTd[epNumber] == DMA_INVALID_TD)
1051:.\Generated_Source\PSoC5/USB_Bootloader.c ****             {
1052:.\Generated_Source\PSoC5/USB_Bootloader.c ****                 USB_Bootloader_InitEP_DMA(epNumber, pData);
1053:.\Generated_Source\PSoC5/USB_Bootloader.c ****             }
1054:.\Generated_Source\PSoC5/USB_Bootloader.c ****         #endif /*  USB_Bootloader_EP_MM == USB_Bootloader__EP_MANUAL */
1055:.\Generated_Source\PSoC5/USB_Bootloader.c **** 
1056:.\Generated_Source\PSoC5/USB_Bootloader.c ****         #if(USB_Bootloader_EP_MM == USB_Bootloader__EP_DMAMANUAL)
1057:.\Generated_Source\PSoC5/USB_Bootloader.c ****             USB_Bootloader_EP[epNumber].apiEpState = USB_Bootloader_NO_EVENT_PENDING;
1058:.\Generated_Source\PSoC5/USB_Bootloader.c ****             if ((pData != NULL) && (length > 0u))
1059:.\Generated_Source\PSoC5/USB_Bootloader.c ****             {
1060:.\Generated_Source\PSoC5/USB_Bootloader.c ****                 /* Enable DMA in mode2 for transferring data */
1061:.\Generated_Source\PSoC5/USB_Bootloader.c ****                 (void) CyDmaChDisable(USB_Bootloader_DmaChan[epNumber]);
1062:.\Generated_Source\PSoC5/USB_Bootloader.c ****                 (void) CyDmaTdSetConfiguration(USB_Bootloader_DmaTd[epNumber], length, CY_DMA_DISAB
1063:.\Generated_Source\PSoC5/USB_Bootloader.c ****                                                                                  TD_TERMIN_EN | TD_
1064:.\Generated_Source\PSoC5/USB_Bootloader.c ****                 (void) CyDmaTdSetAddress(USB_Bootloader_DmaTd[epNumber],  LO16((uint32)pData), LO16
1065:.\Generated_Source\PSoC5/USB_Bootloader.c ****                 /* Enable the DMA */
1066:.\Generated_Source\PSoC5/USB_Bootloader.c ****                 (void) CyDmaChSetInitialTd(USB_Bootloader_DmaChan[epNumber], USB_Bootloader_DmaTd[e
1067:.\Generated_Source\PSoC5/USB_Bootloader.c ****                 (void) CyDmaChEnable(USB_Bootloader_DmaChan[epNumber], 1u);
1068:.\Generated_Source\PSoC5/USB_Bootloader.c ****                 /* Generate DMA request */
1069:.\Generated_Source\PSoC5/USB_Bootloader.c ****                 * (reg8 *)(USB_Bootloader_ARB_EP1_CFG_IND + ri) |= USB_Bootloader_ARB_EPX_CFG_DMA_R
1070:.\Generated_Source\PSoC5/USB_Bootloader.c ****                 * (reg8 *)(USB_Bootloader_ARB_EP1_CFG_IND + ri) &= ((uint8)(~USB_Bootloader_ARB_EPX
1071:.\Generated_Source\PSoC5/USB_Bootloader.c ****                 /* Mode register will be written in arb ISR after DMA transfer complete */
1072:.\Generated_Source\PSoC5/USB_Bootloader.c ****             }
ARM GAS  C:\Users\Robert\AppData\Local\Temp\ccGEgqLk.s 			page 35


1073:.\Generated_Source\PSoC5/USB_Bootloader.c ****             else
1074:.\Generated_Source\PSoC5/USB_Bootloader.c ****             {
1075:.\Generated_Source\PSoC5/USB_Bootloader.c ****                 /* When zero-length packet - write the Mode register directly */
1076:.\Generated_Source\PSoC5/USB_Bootloader.c ****                 CY_SET_REG8((reg8 *)(USB_Bootloader_SIE_EP1_CR0_IND + ri), USB_Bootloader_EP[epNumb
1077:.\Generated_Source\PSoC5/USB_Bootloader.c ****             }
1078:.\Generated_Source\PSoC5/USB_Bootloader.c ****         #endif /*  USB_Bootloader_EP_MM == USB_Bootloader__EP_DMAMANUAL */
1079:.\Generated_Source\PSoC5/USB_Bootloader.c **** 
1080:.\Generated_Source\PSoC5/USB_Bootloader.c ****         #if(USB_Bootloader_EP_MM == USB_Bootloader__EP_DMAAUTO)
1081:.\Generated_Source\PSoC5/USB_Bootloader.c ****             if (pData != NULL)
1082:.\Generated_Source\PSoC5/USB_Bootloader.c ****             {
1083:.\Generated_Source\PSoC5/USB_Bootloader.c ****                 /* Enable DMA in mode3 for transferring data */
1084:.\Generated_Source\PSoC5/USB_Bootloader.c ****                 (void) CyDmaChDisable(USB_Bootloader_DmaChan[epNumber]);
1085:.\Generated_Source\PSoC5/USB_Bootloader.c ****             #if (USB_Bootloader_EP_DMA_AUTO_OPT == 0u)
1086:.\Generated_Source\PSoC5/USB_Bootloader.c ****                 USB_Bootloader_inLength[epNumber] = length;
1087:.\Generated_Source\PSoC5/USB_Bootloader.c ****                 USB_Bootloader_inDataPointer[epNumber] = pData;
1088:.\Generated_Source\PSoC5/USB_Bootloader.c ****                 /* Configure DMA to send the data only for the first burst */
1089:.\Generated_Source\PSoC5/USB_Bootloader.c ****                 (void) CyDmaTdSetConfiguration(USB_Bootloader_DmaTd[epNumber],
1090:.\Generated_Source\PSoC5/USB_Bootloader.c ****                     (length > USB_Bootloader_DMA_BYTES_PER_BURST) ? USB_Bootloader_DMA_BYTES_PER_BU
1091:.\Generated_Source\PSoC5/USB_Bootloader.c ****                     USB_Bootloader_DmaNextTd[epNumber], TD_TERMIN_EN | TD_INC_SRC_ADR);
1092:.\Generated_Source\PSoC5/USB_Bootloader.c ****                 (void) CyDmaTdSetAddress(USB_Bootloader_DmaTd[epNumber],  LO16((uint32)pData), LO16
1093:.\Generated_Source\PSoC5/USB_Bootloader.c ****                 /* The second TD will be executed only when the first one fails.
1094:.\Generated_Source\PSoC5/USB_Bootloader.c ****                 *  The intention of this TD is to generate NRQ interrupt
1095:.\Generated_Source\PSoC5/USB_Bootloader.c ****                 *  and repeat 2 last bytes of the first burst.
1096:.\Generated_Source\PSoC5/USB_Bootloader.c ****                 */
1097:.\Generated_Source\PSoC5/USB_Bootloader.c ****                 (void) CyDmaTdSetConfiguration(USB_Bootloader_DmaNextTd[epNumber], 1u,
1098:.\Generated_Source\PSoC5/USB_Bootloader.c ****                                                USB_Bootloader_DmaNextTd[epNumber],
1099:.\Generated_Source\PSoC5/USB_Bootloader.c ****                                                USB_Bootloader_epX_TD_TERMOUT_EN[epNumber]);
1100:.\Generated_Source\PSoC5/USB_Bootloader.c ****                 /* Configure DmaNextTd to clear Data ready status */
1101:.\Generated_Source\PSoC5/USB_Bootloader.c ****                 (void) CyDmaTdSetAddress(USB_Bootloader_DmaNextTd[epNumber],  LO16((uint32)&clearIn
1102:.\Generated_Source\PSoC5/USB_Bootloader.c ****                                                                 LO16((uint32)(USB_Bootloader_ARB_EP
1103:.\Generated_Source\PSoC5/USB_Bootloader.c ****             #else /* Configure DMA to send all data*/
1104:.\Generated_Source\PSoC5/USB_Bootloader.c ****                 (void) CyDmaTdSetConfiguration(USB_Bootloader_DmaTd[epNumber], length,
1105:.\Generated_Source\PSoC5/USB_Bootloader.c ****                                                USB_Bootloader_DmaTd[epNumber], TD_TERMIN_EN | TD_IN
1106:.\Generated_Source\PSoC5/USB_Bootloader.c ****                 (void) CyDmaTdSetAddress(USB_Bootloader_DmaTd[epNumber],  LO16((uint32)pData), LO16
1107:.\Generated_Source\PSoC5/USB_Bootloader.c ****             #endif /* USB_Bootloader_EP_DMA_AUTO_OPT == 0u */
1108:.\Generated_Source\PSoC5/USB_Bootloader.c **** 
1109:.\Generated_Source\PSoC5/USB_Bootloader.c ****                 /* Clear Any potential pending DMA requests before starting the DMA channel to tran
1110:.\Generated_Source\PSoC5/USB_Bootloader.c ****                 (void) CyDmaClearPendingDrq(USB_Bootloader_DmaChan[epNumber]);
1111:.\Generated_Source\PSoC5/USB_Bootloader.c ****                 /* Enable the DMA */
1112:.\Generated_Source\PSoC5/USB_Bootloader.c ****                 (void) CyDmaChSetInitialTd(USB_Bootloader_DmaChan[epNumber], USB_Bootloader_DmaTd[e
1113:.\Generated_Source\PSoC5/USB_Bootloader.c ****                 (void) CyDmaChEnable(USB_Bootloader_DmaChan[epNumber], 1u);
1114:.\Generated_Source\PSoC5/USB_Bootloader.c ****             }
1115:.\Generated_Source\PSoC5/USB_Bootloader.c ****             else
1116:.\Generated_Source\PSoC5/USB_Bootloader.c ****             {
1117:.\Generated_Source\PSoC5/USB_Bootloader.c ****                 USB_Bootloader_EP[epNumber].apiEpState = USB_Bootloader_NO_EVENT_PENDING;
1118:.\Generated_Source\PSoC5/USB_Bootloader.c ****                 if(length > 0u)
1119:.\Generated_Source\PSoC5/USB_Bootloader.c ****                 {
1120:.\Generated_Source\PSoC5/USB_Bootloader.c ****                 #if (USB_Bootloader_EP_DMA_AUTO_OPT == 0u)
1121:.\Generated_Source\PSoC5/USB_Bootloader.c ****                     USB_Bootloader_inLength[epNumber] = length;
1122:.\Generated_Source\PSoC5/USB_Bootloader.c ****                     USB_Bootloader_inBufFull[epNumber] = 0u;
1123:.\Generated_Source\PSoC5/USB_Bootloader.c ****                     (void) CyDmaChDisable(USB_Bootloader_DmaChan[epNumber]);
1124:.\Generated_Source\PSoC5/USB_Bootloader.c ****                     /* Configure DMA to send the data only for the first burst */
1125:.\Generated_Source\PSoC5/USB_Bootloader.c ****                     (void) CyDmaTdSetConfiguration(
1126:.\Generated_Source\PSoC5/USB_Bootloader.c ****                         USB_Bootloader_DmaTd[epNumber], (length > USB_Bootloader_DMA_BYTES_PER_BURS
1127:.\Generated_Source\PSoC5/USB_Bootloader.c ****                         USB_Bootloader_DMA_BYTES_PER_BURST : length,
1128:.\Generated_Source\PSoC5/USB_Bootloader.c ****                         USB_Bootloader_DmaNextTd[epNumber], TD_TERMIN_EN | TD_INC_SRC_ADR );
1129:.\Generated_Source\PSoC5/USB_Bootloader.c ****                     (void) CyDmaTdSetAddress(USB_Bootloader_DmaTd[epNumber],
ARM GAS  C:\Users\Robert\AppData\Local\Temp\ccGEgqLk.s 			page 36


1130:.\Generated_Source\PSoC5/USB_Bootloader.c ****                                              LO16((uint32)USB_Bootloader_inDataPointer[epNumber]), 
1131:.\Generated_Source\PSoC5/USB_Bootloader.c ****                     /* Clear Any potential pending DMA requests before starting the DMA channel to 
1132:.\Generated_Source\PSoC5/USB_Bootloader.c ****                     (void) CyDmaClearPendingDrq(USB_Bootloader_DmaChan[epNumber]);
1133:.\Generated_Source\PSoC5/USB_Bootloader.c ****                     /* Enable the DMA */
1134:.\Generated_Source\PSoC5/USB_Bootloader.c ****                     (void) CyDmaChSetInitialTd(USB_Bootloader_DmaChan[epNumber], USB_Bootloader_Dma
1135:.\Generated_Source\PSoC5/USB_Bootloader.c ****                     (void) CyDmaChEnable(USB_Bootloader_DmaChan[epNumber], 1u);
1136:.\Generated_Source\PSoC5/USB_Bootloader.c ****                 #endif /* (USB_Bootloader_EP_DMA_AUTO_OPT == 0u) */
1137:.\Generated_Source\PSoC5/USB_Bootloader.c **** 
1138:.\Generated_Source\PSoC5/USB_Bootloader.c ****                     /* Set Data ready status, This will generate DMA request */
1139:.\Generated_Source\PSoC5/USB_Bootloader.c ****                     #ifndef USB_Bootloader_MANUAL_IN_EP_ARM
1140:.\Generated_Source\PSoC5/USB_Bootloader.c ****                         * (reg8 *)(USB_Bootloader_ARB_EP1_CFG_IND + ri) |= USB_Bootloader_ARB_EPX_C
1141:.\Generated_Source\PSoC5/USB_Bootloader.c ****                     #endif  /* USB_Bootloader_MANUAL_IN_EP_ARM */
1142:.\Generated_Source\PSoC5/USB_Bootloader.c ****                     /* Mode register will be written in arb ISR(In Buffer Full) after first DMA tra
1143:.\Generated_Source\PSoC5/USB_Bootloader.c ****                 }
1144:.\Generated_Source\PSoC5/USB_Bootloader.c ****                 else
1145:.\Generated_Source\PSoC5/USB_Bootloader.c ****                 {
1146:.\Generated_Source\PSoC5/USB_Bootloader.c ****                     /* When zero-length packet - write the Mode register directly */
1147:.\Generated_Source\PSoC5/USB_Bootloader.c ****                     CY_SET_REG8((reg8 *)(USB_Bootloader_SIE_EP1_CR0_IND + ri), USB_Bootloader_EP[ep
1148:.\Generated_Source\PSoC5/USB_Bootloader.c ****                 }
1149:.\Generated_Source\PSoC5/USB_Bootloader.c ****             }
1150:.\Generated_Source\PSoC5/USB_Bootloader.c ****         #endif /*  USB_Bootloader_EP_MM == USB_Bootloader__EP_DMAAUTO */
1151:.\Generated_Source\PSoC5/USB_Bootloader.c ****     }
1152:.\Generated_Source\PSoC5/USB_Bootloader.c **** }
 854              		.loc 1 1152 0
 855 007c 70BC     		pop	{r4, r5, r6}
 856              		.cfi_restore 6
 857              		.cfi_restore 5
 858              		.cfi_restore 4
 859              		.cfi_def_cfa_offset 0
 860 007e 7047     		bx	lr
 861              	.L60:
 862              		.align	2
 863              	.L59:
 864 0080 88600040 		.word	1073766536
 865 0084 00000000 		.word	USB_Bootloader_EP
 866 0088 0C600040 		.word	1073766412
 867 008c 0E600040 		.word	1073766414
 868              		.cfi_endproc
 869              	.LFE11:
 870              		.size	USB_Bootloader_LoadInEP, .-USB_Bootloader_LoadInEP
 871              		.section	.text.USB_Bootloader_EnableOutEP,"ax",%progbits
 872              		.align	2
 873              		.global	USB_Bootloader_EnableOutEP
 874              		.thumb
 875              		.thumb_func
 876              		.type	USB_Bootloader_EnableOutEP, %function
 877              	USB_Bootloader_EnableOutEP:
 878              	.LFB13:
1153:.\Generated_Source\PSoC5/USB_Bootloader.c **** 
1154:.\Generated_Source\PSoC5/USB_Bootloader.c **** 
1155:.\Generated_Source\PSoC5/USB_Bootloader.c **** /*******************************************************************************
1156:.\Generated_Source\PSoC5/USB_Bootloader.c **** * Function Name: USB_Bootloader_ReadOutEP
1157:.\Generated_Source\PSoC5/USB_Bootloader.c **** ********************************************************************************
1158:.\Generated_Source\PSoC5/USB_Bootloader.c **** *
1159:.\Generated_Source\PSoC5/USB_Bootloader.c **** * Summary:
1160:.\Generated_Source\PSoC5/USB_Bootloader.c **** *  Read data from an endpoint.  The application must call
1161:.\Generated_Source\PSoC5/USB_Bootloader.c **** *  USB_Bootloader_GetEPState to see if an event is pending.
ARM GAS  C:\Users\Robert\AppData\Local\Temp\ccGEgqLk.s 			page 37


1162:.\Generated_Source\PSoC5/USB_Bootloader.c **** *
1163:.\Generated_Source\PSoC5/USB_Bootloader.c **** * Parameters:
1164:.\Generated_Source\PSoC5/USB_Bootloader.c **** *  epNumber: Contains the data endpoint number.
1165:.\Generated_Source\PSoC5/USB_Bootloader.c **** *            Valid values are between 1 and 8.
1166:.\Generated_Source\PSoC5/USB_Bootloader.c **** *  pData: A pointer to a data array from which the data for the endpoint space
1167:.\Generated_Source\PSoC5/USB_Bootloader.c **** *         is loaded.
1168:.\Generated_Source\PSoC5/USB_Bootloader.c **** *  length: The number of bytes to transfer from the USB Out endpoint and loads
1169:.\Generated_Source\PSoC5/USB_Bootloader.c **** *          it into data array. Valid values are between 0 and 1023. The function
1170:.\Generated_Source\PSoC5/USB_Bootloader.c **** *          moves fewer than the requested number of bytes if the host sends
1171:.\Generated_Source\PSoC5/USB_Bootloader.c **** *          fewer bytes than requested.
1172:.\Generated_Source\PSoC5/USB_Bootloader.c **** *
1173:.\Generated_Source\PSoC5/USB_Bootloader.c **** * Returns:
1174:.\Generated_Source\PSoC5/USB_Bootloader.c **** *  Number of bytes received, 0 for an invalid endpoint.
1175:.\Generated_Source\PSoC5/USB_Bootloader.c **** *
1176:.\Generated_Source\PSoC5/USB_Bootloader.c **** * Reentrant:
1177:.\Generated_Source\PSoC5/USB_Bootloader.c **** *  No.
1178:.\Generated_Source\PSoC5/USB_Bootloader.c **** *
1179:.\Generated_Source\PSoC5/USB_Bootloader.c **** *******************************************************************************/
1180:.\Generated_Source\PSoC5/USB_Bootloader.c **** uint16 USB_Bootloader_ReadOutEP(uint8 epNumber, uint8 pData[], uint16 length)
1181:.\Generated_Source\PSoC5/USB_Bootloader.c ****                                                                         
1182:.\Generated_Source\PSoC5/USB_Bootloader.c **** {
1183:.\Generated_Source\PSoC5/USB_Bootloader.c ****     uint8 ri;
1184:.\Generated_Source\PSoC5/USB_Bootloader.c ****     reg8 *p;
1185:.\Generated_Source\PSoC5/USB_Bootloader.c ****     #if(USB_Bootloader_EP_MM == USB_Bootloader__EP_MANUAL)
1186:.\Generated_Source\PSoC5/USB_Bootloader.c ****         uint16 i;
1187:.\Generated_Source\PSoC5/USB_Bootloader.c ****     #endif /*  USB_Bootloader_EP_MM == USB_Bootloader__EP_MANUAL */
1188:.\Generated_Source\PSoC5/USB_Bootloader.c ****     #if(USB_Bootloader_EP_MM != USB_Bootloader__EP_DMAAUTO)
1189:.\Generated_Source\PSoC5/USB_Bootloader.c ****         uint16 xferCount;
1190:.\Generated_Source\PSoC5/USB_Bootloader.c ****     #endif /*  USB_Bootloader_EP_MM != USB_Bootloader__EP_DMAAUTO */
1191:.\Generated_Source\PSoC5/USB_Bootloader.c **** 
1192:.\Generated_Source\PSoC5/USB_Bootloader.c ****     if((epNumber > USB_Bootloader_EP0) && (epNumber < USB_Bootloader_MAX_EP) && (pData != NULL))
1193:.\Generated_Source\PSoC5/USB_Bootloader.c ****     {
1194:.\Generated_Source\PSoC5/USB_Bootloader.c ****         ri = ((epNumber - USB_Bootloader_EP1) << USB_Bootloader_EPX_CNTX_ADDR_SHIFT);
1195:.\Generated_Source\PSoC5/USB_Bootloader.c ****         p = (reg8 *)(USB_Bootloader_ARB_RW1_DR_IND + ri);
1196:.\Generated_Source\PSoC5/USB_Bootloader.c **** 
1197:.\Generated_Source\PSoC5/USB_Bootloader.c ****         #if(USB_Bootloader_EP_MM != USB_Bootloader__EP_DMAAUTO)
1198:.\Generated_Source\PSoC5/USB_Bootloader.c ****             /* Determine which is smaller the requested data or the available data */
1199:.\Generated_Source\PSoC5/USB_Bootloader.c ****             xferCount = USB_Bootloader_GetEPCount(epNumber);
1200:.\Generated_Source\PSoC5/USB_Bootloader.c ****             if (length > xferCount)
1201:.\Generated_Source\PSoC5/USB_Bootloader.c ****             {
1202:.\Generated_Source\PSoC5/USB_Bootloader.c ****                 length = xferCount;
1203:.\Generated_Source\PSoC5/USB_Bootloader.c ****             }
1204:.\Generated_Source\PSoC5/USB_Bootloader.c ****         #endif /*  USB_Bootloader_EP_MM != USB_Bootloader__EP_DMAAUTO */
1205:.\Generated_Source\PSoC5/USB_Bootloader.c **** 
1206:.\Generated_Source\PSoC5/USB_Bootloader.c ****         #if(USB_Bootloader_EP_MM == USB_Bootloader__EP_MANUAL)
1207:.\Generated_Source\PSoC5/USB_Bootloader.c ****             /* Copy the data using the arbiter data register */
1208:.\Generated_Source\PSoC5/USB_Bootloader.c ****             for (i = 0u; i < length; i++)
1209:.\Generated_Source\PSoC5/USB_Bootloader.c ****             {
1210:.\Generated_Source\PSoC5/USB_Bootloader.c ****                 pData[i] = CY_GET_REG8(p);
1211:.\Generated_Source\PSoC5/USB_Bootloader.c ****             }
1212:.\Generated_Source\PSoC5/USB_Bootloader.c **** 
1213:.\Generated_Source\PSoC5/USB_Bootloader.c ****             /* (re)arming of OUT endpoint */
1214:.\Generated_Source\PSoC5/USB_Bootloader.c ****             USB_Bootloader_EnableOutEP(epNumber);
1215:.\Generated_Source\PSoC5/USB_Bootloader.c ****         #else
1216:.\Generated_Source\PSoC5/USB_Bootloader.c ****             /*Init DMA if it was not initialized */
1217:.\Generated_Source\PSoC5/USB_Bootloader.c ****             if(USB_Bootloader_DmaTd[epNumber] == DMA_INVALID_TD)
1218:.\Generated_Source\PSoC5/USB_Bootloader.c ****             {
ARM GAS  C:\Users\Robert\AppData\Local\Temp\ccGEgqLk.s 			page 38


1219:.\Generated_Source\PSoC5/USB_Bootloader.c ****                 USB_Bootloader_InitEP_DMA(epNumber, pData);
1220:.\Generated_Source\PSoC5/USB_Bootloader.c ****             }
1221:.\Generated_Source\PSoC5/USB_Bootloader.c **** 
1222:.\Generated_Source\PSoC5/USB_Bootloader.c ****         #endif /*  USB_Bootloader_EP_MM == USB_Bootloader__EP_MANUAL */
1223:.\Generated_Source\PSoC5/USB_Bootloader.c **** 
1224:.\Generated_Source\PSoC5/USB_Bootloader.c ****         #if(USB_Bootloader_EP_MM == USB_Bootloader__EP_DMAMANUAL)
1225:.\Generated_Source\PSoC5/USB_Bootloader.c ****             /* Enable DMA in mode2 for transferring data */
1226:.\Generated_Source\PSoC5/USB_Bootloader.c ****             (void) CyDmaChDisable(USB_Bootloader_DmaChan[epNumber]);
1227:.\Generated_Source\PSoC5/USB_Bootloader.c ****             (void) CyDmaTdSetConfiguration(USB_Bootloader_DmaTd[epNumber], length, CY_DMA_DISABLE_T
1228:.\Generated_Source\PSoC5/USB_Bootloader.c ****                                                                                 TD_TERMIN_EN | TD_I
1229:.\Generated_Source\PSoC5/USB_Bootloader.c ****             (void) CyDmaTdSetAddress(USB_Bootloader_DmaTd[epNumber],  LO16((uint32)p), LO16((uint32
1230:.\Generated_Source\PSoC5/USB_Bootloader.c ****             /* Enable the DMA */
1231:.\Generated_Source\PSoC5/USB_Bootloader.c ****             (void) CyDmaChSetInitialTd(USB_Bootloader_DmaChan[epNumber], USB_Bootloader_DmaTd[epNum
1232:.\Generated_Source\PSoC5/USB_Bootloader.c ****             (void) CyDmaChEnable(USB_Bootloader_DmaChan[epNumber], 1u);
1233:.\Generated_Source\PSoC5/USB_Bootloader.c **** 
1234:.\Generated_Source\PSoC5/USB_Bootloader.c ****             /* Generate DMA request */
1235:.\Generated_Source\PSoC5/USB_Bootloader.c ****             * (reg8 *)(USB_Bootloader_ARB_EP1_CFG_IND + ri) |= USB_Bootloader_ARB_EPX_CFG_DMA_REQ;
1236:.\Generated_Source\PSoC5/USB_Bootloader.c ****             * (reg8 *)(USB_Bootloader_ARB_EP1_CFG_IND + ri) &= ((uint8)(~USB_Bootloader_ARB_EPX_CFG
1237:.\Generated_Source\PSoC5/USB_Bootloader.c ****             /* Out EP will be (re)armed in arb ISR after transfer complete */
1238:.\Generated_Source\PSoC5/USB_Bootloader.c ****         #endif /*  USB_Bootloader_EP_MM == USB_Bootloader__EP_DMAMANUAL */
1239:.\Generated_Source\PSoC5/USB_Bootloader.c **** 
1240:.\Generated_Source\PSoC5/USB_Bootloader.c ****         #if(USB_Bootloader_EP_MM == USB_Bootloader__EP_DMAAUTO)
1241:.\Generated_Source\PSoC5/USB_Bootloader.c ****             /* Enable DMA in mode3 for transferring data */
1242:.\Generated_Source\PSoC5/USB_Bootloader.c ****             (void) CyDmaChDisable(USB_Bootloader_DmaChan[epNumber]);
1243:.\Generated_Source\PSoC5/USB_Bootloader.c ****             (void) CyDmaTdSetConfiguration(USB_Bootloader_DmaTd[epNumber], length, USB_Bootloader_D
1244:.\Generated_Source\PSoC5/USB_Bootloader.c ****                                                                                 TD_TERMIN_EN | TD_I
1245:.\Generated_Source\PSoC5/USB_Bootloader.c ****             (void) CyDmaTdSetAddress(USB_Bootloader_DmaTd[epNumber],  LO16((uint32)p), LO16((uint32
1246:.\Generated_Source\PSoC5/USB_Bootloader.c **** 
1247:.\Generated_Source\PSoC5/USB_Bootloader.c ****             /* Clear Any potential pending DMA requests before starting the DMA channel to transfer
1248:.\Generated_Source\PSoC5/USB_Bootloader.c ****             (void) CyDmaClearPendingDrq(USB_Bootloader_DmaChan[epNumber]);
1249:.\Generated_Source\PSoC5/USB_Bootloader.c ****             /* Enable the DMA */
1250:.\Generated_Source\PSoC5/USB_Bootloader.c ****             (void) CyDmaChSetInitialTd(USB_Bootloader_DmaChan[epNumber], USB_Bootloader_DmaTd[epNum
1251:.\Generated_Source\PSoC5/USB_Bootloader.c ****             (void) CyDmaChEnable(USB_Bootloader_DmaChan[epNumber], 1u);
1252:.\Generated_Source\PSoC5/USB_Bootloader.c ****             /* Out EP will be (re)armed in arb ISR after transfer complete */
1253:.\Generated_Source\PSoC5/USB_Bootloader.c ****         #endif /*  USB_Bootloader_EP_MM == USB_Bootloader__EP_DMAAUTO */
1254:.\Generated_Source\PSoC5/USB_Bootloader.c **** 
1255:.\Generated_Source\PSoC5/USB_Bootloader.c ****     }
1256:.\Generated_Source\PSoC5/USB_Bootloader.c ****     else
1257:.\Generated_Source\PSoC5/USB_Bootloader.c ****     {
1258:.\Generated_Source\PSoC5/USB_Bootloader.c ****         length = 0u;
1259:.\Generated_Source\PSoC5/USB_Bootloader.c ****     }
1260:.\Generated_Source\PSoC5/USB_Bootloader.c **** 
1261:.\Generated_Source\PSoC5/USB_Bootloader.c ****     return(length);
1262:.\Generated_Source\PSoC5/USB_Bootloader.c **** }
1263:.\Generated_Source\PSoC5/USB_Bootloader.c **** 
1264:.\Generated_Source\PSoC5/USB_Bootloader.c **** 
1265:.\Generated_Source\PSoC5/USB_Bootloader.c **** /*******************************************************************************
1266:.\Generated_Source\PSoC5/USB_Bootloader.c **** * Function Name: USB_Bootloader_EnableOutEP
1267:.\Generated_Source\PSoC5/USB_Bootloader.c **** ********************************************************************************
1268:.\Generated_Source\PSoC5/USB_Bootloader.c **** *
1269:.\Generated_Source\PSoC5/USB_Bootloader.c **** * Summary:
1270:.\Generated_Source\PSoC5/USB_Bootloader.c **** *  This function enables an OUT endpoint.  It should not be
1271:.\Generated_Source\PSoC5/USB_Bootloader.c **** *  called for an IN endpoint.
1272:.\Generated_Source\PSoC5/USB_Bootloader.c **** *
1273:.\Generated_Source\PSoC5/USB_Bootloader.c **** * Parameters:
1274:.\Generated_Source\PSoC5/USB_Bootloader.c **** *  epNumber: Endpoint Number
1275:.\Generated_Source\PSoC5/USB_Bootloader.c **** *            Valid values are between 1 and 8.
ARM GAS  C:\Users\Robert\AppData\Local\Temp\ccGEgqLk.s 			page 39


1276:.\Generated_Source\PSoC5/USB_Bootloader.c **** *
1277:.\Generated_Source\PSoC5/USB_Bootloader.c **** * Return:
1278:.\Generated_Source\PSoC5/USB_Bootloader.c **** *   None.
1279:.\Generated_Source\PSoC5/USB_Bootloader.c **** *
1280:.\Generated_Source\PSoC5/USB_Bootloader.c **** * Global variables:
1281:.\Generated_Source\PSoC5/USB_Bootloader.c **** *  USB_Bootloader_EP[epNumber].apiEpState - set to NO_EVENT_PENDING
1282:.\Generated_Source\PSoC5/USB_Bootloader.c **** *
1283:.\Generated_Source\PSoC5/USB_Bootloader.c **** * Reentrant:
1284:.\Generated_Source\PSoC5/USB_Bootloader.c **** *  No.
1285:.\Generated_Source\PSoC5/USB_Bootloader.c **** *
1286:.\Generated_Source\PSoC5/USB_Bootloader.c **** *******************************************************************************/
1287:.\Generated_Source\PSoC5/USB_Bootloader.c **** void USB_Bootloader_EnableOutEP(uint8 epNumber) 
1288:.\Generated_Source\PSoC5/USB_Bootloader.c **** {
 879              		.loc 1 1288 0
 880              		.cfi_startproc
 881              		@ args = 0, pretend = 0, frame = 0
 882              		@ frame_needed = 0, uses_anonymous_args = 0
 883              		@ link register save eliminated.
 884              	.LVL66:
1289:.\Generated_Source\PSoC5/USB_Bootloader.c ****     uint8 ri;
1290:.\Generated_Source\PSoC5/USB_Bootloader.c **** 
1291:.\Generated_Source\PSoC5/USB_Bootloader.c ****     if((epNumber > USB_Bootloader_EP0) && (epNumber < USB_Bootloader_MAX_EP))
 885              		.loc 1 1291 0
 886 0000 431E     		subs	r3, r0, #1
 887 0002 DBB2     		uxtb	r3, r3
 888 0004 072B     		cmp	r3, #7
 889 0006 0ED8     		bhi	.L65
1288:.\Generated_Source\PSoC5/USB_Bootloader.c ****     uint8 ri;
 890              		.loc 1 1288 0
 891 0008 30B4     		push	{r4, r5}
 892              		.cfi_def_cfa_offset 8
 893              		.cfi_offset 4, -8
 894              		.cfi_offset 5, -4
1292:.\Generated_Source\PSoC5/USB_Bootloader.c ****     {
1293:.\Generated_Source\PSoC5/USB_Bootloader.c ****         ri = ((epNumber - USB_Bootloader_EP1) << USB_Bootloader_EPX_CNTX_ADDR_SHIFT);
 895              		.loc 1 1293 0
 896 000a 1B01     		lsls	r3, r3, #4
 897 000c DBB2     		uxtb	r3, r3
 898              	.LVL67:
1294:.\Generated_Source\PSoC5/USB_Bootloader.c ****         USB_Bootloader_EP[epNumber].apiEpState = USB_Bootloader_NO_EVENT_PENDING;
 899              		.loc 1 1294 0
 900 000e 0649     		ldr	r1, .L66
 901 0010 4400     		lsls	r4, r0, #1
 902 0012 2218     		adds	r2, r4, r0
 903 0014 9200     		lsls	r2, r2, #2
 904 0016 0A44     		add	r2, r2, r1
 905 0018 0025     		movs	r5, #0
 906 001a 5570     		strb	r5, [r2, #1]
1295:.\Generated_Source\PSoC5/USB_Bootloader.c ****         /* Write the Mode register */
1296:.\Generated_Source\PSoC5/USB_Bootloader.c ****         CY_SET_REG8((reg8 *)(USB_Bootloader_SIE_EP1_CR0_IND + ri), USB_Bootloader_EP[epNumber].epMo
 907              		.loc 1 1296 0
 908 001c 5279     		ldrb	r2, [r2, #5]	@ zero_extendqisi2
 909 001e D2B2     		uxtb	r2, r2
 910 0020 0249     		ldr	r1, .L66+4
 911 0022 5A54     		strb	r2, [r3, r1]
1297:.\Generated_Source\PSoC5/USB_Bootloader.c ****     }
1298:.\Generated_Source\PSoC5/USB_Bootloader.c **** }
ARM GAS  C:\Users\Robert\AppData\Local\Temp\ccGEgqLk.s 			page 40


 912              		.loc 1 1298 0
 913 0024 30BC     		pop	{r4, r5}
 914              		.cfi_restore 5
 915              		.cfi_restore 4
 916              		.cfi_def_cfa_offset 0
 917              	.LVL68:
 918              	.L65:
 919 0026 7047     		bx	lr
 920              	.L67:
 921              		.align	2
 922              	.L66:
 923 0028 00000000 		.word	USB_Bootloader_EP
 924 002c 0E600040 		.word	1073766414
 925              		.cfi_endproc
 926              	.LFE13:
 927              		.size	USB_Bootloader_EnableOutEP, .-USB_Bootloader_EnableOutEP
 928              		.section	.text.USB_Bootloader_ReadOutEP,"ax",%progbits
 929              		.align	2
 930              		.global	USB_Bootloader_ReadOutEP
 931              		.thumb
 932              		.thumb_func
 933              		.type	USB_Bootloader_ReadOutEP, %function
 934              	USB_Bootloader_ReadOutEP:
 935              	.LFB12:
1182:.\Generated_Source\PSoC5/USB_Bootloader.c ****     uint8 ri;
 936              		.loc 1 1182 0
 937              		.cfi_startproc
 938              		@ args = 0, pretend = 0, frame = 0
 939              		@ frame_needed = 0, uses_anonymous_args = 0
 940              	.LVL69:
 941 0000 2DE9F041 		push	{r4, r5, r6, r7, r8, lr}
 942              		.cfi_def_cfa_offset 24
 943              		.cfi_offset 4, -24
 944              		.cfi_offset 5, -20
 945              		.cfi_offset 6, -16
 946              		.cfi_offset 7, -12
 947              		.cfi_offset 8, -8
 948              		.cfi_offset 14, -4
1192:.\Generated_Source\PSoC5/USB_Bootloader.c ****     {
 949              		.loc 1 1192 0
 950 0004 431E     		subs	r3, r0, #1
 951 0006 DBB2     		uxtb	r3, r3
 952 0008 072B     		cmp	r3, #7
 953 000a 19D8     		bhi	.L73
1192:.\Generated_Source\PSoC5/USB_Bootloader.c ****     {
 954              		.loc 1 1192 0 is_stmt 0 discriminator 1
 955 000c D1B1     		cbz	r1, .L74
 956 000e 9046     		mov	r8, r2
 957 0010 0D46     		mov	r5, r1
 958 0012 0646     		mov	r6, r0
1194:.\Generated_Source\PSoC5/USB_Bootloader.c ****         p = (reg8 *)(USB_Bootloader_ARB_RW1_DR_IND + ri);
 959              		.loc 1 1194 0 is_stmt 1
 960 0014 1B01     		lsls	r3, r3, #4
 961 0016 DBB2     		uxtb	r3, r3
 962              	.LVL70:
1195:.\Generated_Source\PSoC5/USB_Bootloader.c **** 
 963              		.loc 1 1195 0
ARM GAS  C:\Users\Robert\AppData\Local\Temp\ccGEgqLk.s 			page 41


 964 0018 0C4F     		ldr	r7, .L76
 965 001a 1F44     		add	r7, r7, r3
 966              	.LVL71:
1199:.\Generated_Source\PSoC5/USB_Bootloader.c ****             if (length > xferCount)
 967              		.loc 1 1199 0
 968 001c FFF7FEFF 		bl	USB_Bootloader_GetEPCount
 969              	.LVL72:
 970 0020 0446     		mov	r4, r0
 971              	.LVL73:
1200:.\Generated_Source\PSoC5/USB_Bootloader.c ****             {
 972              		.loc 1 1200 0
 973 0022 8045     		cmp	r8, r0
 974 0024 00D8     		bhi	.L70
 975 0026 4446     		mov	r4, r8
 976              	.L70:
 977              	.LVL74:
1208:.\Generated_Source\PSoC5/USB_Bootloader.c ****             {
 978              		.loc 1 1208 0
 979 0028 0023     		movs	r3, #0
 980 002a 03E0     		b	.L71
 981              	.LVL75:
 982              	.L72:
1210:.\Generated_Source\PSoC5/USB_Bootloader.c ****             }
 983              		.loc 1 1210 0 discriminator 3
 984 002c 3A78     		ldrb	r2, [r7]	@ zero_extendqisi2
 985 002e EA54     		strb	r2, [r5, r3]
1208:.\Generated_Source\PSoC5/USB_Bootloader.c ****             {
 986              		.loc 1 1208 0 discriminator 3
 987 0030 0133     		adds	r3, r3, #1
 988              	.LVL76:
 989 0032 9BB2     		uxth	r3, r3
 990              	.LVL77:
 991              	.L71:
1208:.\Generated_Source\PSoC5/USB_Bootloader.c ****             {
 992              		.loc 1 1208 0 is_stmt 0 discriminator 1
 993 0034 A342     		cmp	r3, r4
 994 0036 F9D3     		bcc	.L72
1214:.\Generated_Source\PSoC5/USB_Bootloader.c ****         #else
 995              		.loc 1 1214 0 is_stmt 1
 996 0038 3046     		mov	r0, r6
 997              	.LVL78:
 998 003a FFF7FEFF 		bl	USB_Bootloader_EnableOutEP
 999              	.LVL79:
 1000 003e 02E0     		b	.L69
 1001              	.LVL80:
 1002              	.L73:
1258:.\Generated_Source\PSoC5/USB_Bootloader.c ****     }
 1003              		.loc 1 1258 0
 1004 0040 0024     		movs	r4, #0
 1005 0042 00E0     		b	.L69
 1006              	.L74:
 1007 0044 0024     		movs	r4, #0
 1008              	.LVL81:
 1009              	.L69:
1262:.\Generated_Source\PSoC5/USB_Bootloader.c **** 
 1010              		.loc 1 1262 0
 1011 0046 2046     		mov	r0, r4
ARM GAS  C:\Users\Robert\AppData\Local\Temp\ccGEgqLk.s 			page 42


 1012 0048 BDE8F081 		pop	{r4, r5, r6, r7, r8, pc}
 1013              	.LVL82:
 1014              	.L77:
 1015              		.align	2
 1016              	.L76:
 1017 004c 88600040 		.word	1073766536
 1018              		.cfi_endproc
 1019              	.LFE12:
 1020              		.size	USB_Bootloader_ReadOutEP, .-USB_Bootloader_ReadOutEP
 1021              		.section	.text.USB_Bootloader_DisableOutEP,"ax",%progbits
 1022              		.align	2
 1023              		.global	USB_Bootloader_DisableOutEP
 1024              		.thumb
 1025              		.thumb_func
 1026              		.type	USB_Bootloader_DisableOutEP, %function
 1027              	USB_Bootloader_DisableOutEP:
 1028              	.LFB14:
1299:.\Generated_Source\PSoC5/USB_Bootloader.c **** 
1300:.\Generated_Source\PSoC5/USB_Bootloader.c **** 
1301:.\Generated_Source\PSoC5/USB_Bootloader.c **** /*******************************************************************************
1302:.\Generated_Source\PSoC5/USB_Bootloader.c **** * Function Name: USB_Bootloader_DisableOutEP
1303:.\Generated_Source\PSoC5/USB_Bootloader.c **** ********************************************************************************
1304:.\Generated_Source\PSoC5/USB_Bootloader.c **** *
1305:.\Generated_Source\PSoC5/USB_Bootloader.c **** * Summary:
1306:.\Generated_Source\PSoC5/USB_Bootloader.c **** *  This function disables an OUT endpoint.  It should not be
1307:.\Generated_Source\PSoC5/USB_Bootloader.c **** *  called for an IN endpoint.
1308:.\Generated_Source\PSoC5/USB_Bootloader.c **** *
1309:.\Generated_Source\PSoC5/USB_Bootloader.c **** * Parameters:
1310:.\Generated_Source\PSoC5/USB_Bootloader.c **** *  epNumber: Endpoint Number
1311:.\Generated_Source\PSoC5/USB_Bootloader.c **** *            Valid values are between 1 and 8.
1312:.\Generated_Source\PSoC5/USB_Bootloader.c **** *
1313:.\Generated_Source\PSoC5/USB_Bootloader.c **** * Return:
1314:.\Generated_Source\PSoC5/USB_Bootloader.c **** *  None.
1315:.\Generated_Source\PSoC5/USB_Bootloader.c **** *
1316:.\Generated_Source\PSoC5/USB_Bootloader.c **** *******************************************************************************/
1317:.\Generated_Source\PSoC5/USB_Bootloader.c **** void USB_Bootloader_DisableOutEP(uint8 epNumber) 
1318:.\Generated_Source\PSoC5/USB_Bootloader.c **** {
 1029              		.loc 1 1318 0
 1030              		.cfi_startproc
 1031              		@ args = 0, pretend = 0, frame = 0
 1032              		@ frame_needed = 0, uses_anonymous_args = 0
 1033              		@ link register save eliminated.
 1034              	.LVL83:
1319:.\Generated_Source\PSoC5/USB_Bootloader.c ****     uint8 ri ;
1320:.\Generated_Source\PSoC5/USB_Bootloader.c **** 
1321:.\Generated_Source\PSoC5/USB_Bootloader.c ****     if((epNumber > USB_Bootloader_EP0) && (epNumber < USB_Bootloader_MAX_EP))
 1035              		.loc 1 1321 0
 1036 0000 0138     		subs	r0, r0, #1
 1037              	.LVL84:
 1038 0002 C0B2     		uxtb	r0, r0
 1039 0004 0728     		cmp	r0, #7
 1040 0006 04D8     		bhi	.L78
1322:.\Generated_Source\PSoC5/USB_Bootloader.c ****     {
1323:.\Generated_Source\PSoC5/USB_Bootloader.c ****         ri = ((epNumber - USB_Bootloader_EP1) << USB_Bootloader_EPX_CNTX_ADDR_SHIFT);
 1041              		.loc 1 1323 0
 1042 0008 0001     		lsls	r0, r0, #4
 1043 000a C0B2     		uxtb	r0, r0
ARM GAS  C:\Users\Robert\AppData\Local\Temp\ccGEgqLk.s 			page 43


 1044              	.LVL85:
1324:.\Generated_Source\PSoC5/USB_Bootloader.c ****         /* Write the Mode register */
1325:.\Generated_Source\PSoC5/USB_Bootloader.c ****         CY_SET_REG8((reg8 *)(USB_Bootloader_SIE_EP1_CR0_IND + ri), USB_Bootloader_MODE_NAK_OUT);
 1045              		.loc 1 1325 0
 1046 000c 0822     		movs	r2, #8
 1047 000e 014B     		ldr	r3, .L80
 1048 0010 C254     		strb	r2, [r0, r3]
 1049              	.LVL86:
 1050              	.L78:
 1051 0012 7047     		bx	lr
 1052              	.L81:
 1053              		.align	2
 1054              	.L80:
 1055 0014 0E600040 		.word	1073766414
 1056              		.cfi_endproc
 1057              	.LFE14:
 1058              		.size	USB_Bootloader_DisableOutEP, .-USB_Bootloader_DisableOutEP
 1059              		.section	.text.USB_Bootloader_Force,"ax",%progbits
 1060              		.align	2
 1061              		.global	USB_Bootloader_Force
 1062              		.thumb
 1063              		.thumb_func
 1064              		.type	USB_Bootloader_Force, %function
 1065              	USB_Bootloader_Force:
 1066              	.LFB15:
1326:.\Generated_Source\PSoC5/USB_Bootloader.c ****     }
1327:.\Generated_Source\PSoC5/USB_Bootloader.c **** }
1328:.\Generated_Source\PSoC5/USB_Bootloader.c **** 
1329:.\Generated_Source\PSoC5/USB_Bootloader.c **** 
1330:.\Generated_Source\PSoC5/USB_Bootloader.c **** /*******************************************************************************
1331:.\Generated_Source\PSoC5/USB_Bootloader.c **** * Function Name: USB_Bootloader_Force
1332:.\Generated_Source\PSoC5/USB_Bootloader.c **** ********************************************************************************
1333:.\Generated_Source\PSoC5/USB_Bootloader.c **** *
1334:.\Generated_Source\PSoC5/USB_Bootloader.c **** * Summary:
1335:.\Generated_Source\PSoC5/USB_Bootloader.c **** *  Forces the bus state
1336:.\Generated_Source\PSoC5/USB_Bootloader.c **** *
1337:.\Generated_Source\PSoC5/USB_Bootloader.c **** * Parameters:
1338:.\Generated_Source\PSoC5/USB_Bootloader.c **** *  bState
1339:.\Generated_Source\PSoC5/USB_Bootloader.c **** *    USB_Bootloader_FORCE_J
1340:.\Generated_Source\PSoC5/USB_Bootloader.c **** *    USB_Bootloader_FORCE_K
1341:.\Generated_Source\PSoC5/USB_Bootloader.c **** *    USB_Bootloader_FORCE_SE0
1342:.\Generated_Source\PSoC5/USB_Bootloader.c **** *    USB_Bootloader_FORCE_NONE
1343:.\Generated_Source\PSoC5/USB_Bootloader.c **** *
1344:.\Generated_Source\PSoC5/USB_Bootloader.c **** * Return:
1345:.\Generated_Source\PSoC5/USB_Bootloader.c **** *  None.
1346:.\Generated_Source\PSoC5/USB_Bootloader.c **** *
1347:.\Generated_Source\PSoC5/USB_Bootloader.c **** *******************************************************************************/
1348:.\Generated_Source\PSoC5/USB_Bootloader.c **** void USB_Bootloader_Force(uint8 bState) 
1349:.\Generated_Source\PSoC5/USB_Bootloader.c **** {
 1067              		.loc 1 1349 0
 1068              		.cfi_startproc
 1069              		@ args = 0, pretend = 0, frame = 0
 1070              		@ frame_needed = 0, uses_anonymous_args = 0
 1071              		@ link register save eliminated.
 1072              	.LVL87:
1350:.\Generated_Source\PSoC5/USB_Bootloader.c ****     CY_SET_REG8(USB_Bootloader_USBIO_CR0_PTR, bState);
 1073              		.loc 1 1350 0
ARM GAS  C:\Users\Robert\AppData\Local\Temp\ccGEgqLk.s 			page 44


 1074 0000 014B     		ldr	r3, .L83
 1075 0002 1870     		strb	r0, [r3]
 1076 0004 7047     		bx	lr
 1077              	.L84:
 1078 0006 00BF     		.align	2
 1079              	.L83:
 1080 0008 10600040 		.word	1073766416
 1081              		.cfi_endproc
 1082              	.LFE15:
 1083              		.size	USB_Bootloader_Force, .-USB_Bootloader_Force
 1084              		.section	.text.USB_Bootloader_GetEPAckState,"ax",%progbits
 1085              		.align	2
 1086              		.global	USB_Bootloader_GetEPAckState
 1087              		.thumb
 1088              		.thumb_func
 1089              		.type	USB_Bootloader_GetEPAckState, %function
 1090              	USB_Bootloader_GetEPAckState:
 1091              	.LFB16:
1351:.\Generated_Source\PSoC5/USB_Bootloader.c **** }
1352:.\Generated_Source\PSoC5/USB_Bootloader.c **** 
1353:.\Generated_Source\PSoC5/USB_Bootloader.c **** 
1354:.\Generated_Source\PSoC5/USB_Bootloader.c **** /*******************************************************************************
1355:.\Generated_Source\PSoC5/USB_Bootloader.c **** * Function Name: USB_Bootloader_GetEPAckState
1356:.\Generated_Source\PSoC5/USB_Bootloader.c **** ********************************************************************************
1357:.\Generated_Source\PSoC5/USB_Bootloader.c **** *
1358:.\Generated_Source\PSoC5/USB_Bootloader.c **** * Summary:
1359:.\Generated_Source\PSoC5/USB_Bootloader.c **** *  Returns the ACK of the CR0 Register (ACKD)
1360:.\Generated_Source\PSoC5/USB_Bootloader.c **** *
1361:.\Generated_Source\PSoC5/USB_Bootloader.c **** * Parameters:
1362:.\Generated_Source\PSoC5/USB_Bootloader.c **** *  epNumber: Endpoint Number
1363:.\Generated_Source\PSoC5/USB_Bootloader.c **** *            Valid values are between 1 and 8.
1364:.\Generated_Source\PSoC5/USB_Bootloader.c **** *
1365:.\Generated_Source\PSoC5/USB_Bootloader.c **** * Returns
1366:.\Generated_Source\PSoC5/USB_Bootloader.c **** *  0 if nothing has been ACKD, non-=zero something has been ACKD
1367:.\Generated_Source\PSoC5/USB_Bootloader.c **** *
1368:.\Generated_Source\PSoC5/USB_Bootloader.c **** *******************************************************************************/
1369:.\Generated_Source\PSoC5/USB_Bootloader.c **** uint8 USB_Bootloader_GetEPAckState(uint8 epNumber) 
1370:.\Generated_Source\PSoC5/USB_Bootloader.c **** {
 1092              		.loc 1 1370 0
 1093              		.cfi_startproc
 1094              		@ args = 0, pretend = 0, frame = 0
 1095              		@ frame_needed = 0, uses_anonymous_args = 0
 1096              		@ link register save eliminated.
 1097              	.LVL88:
1371:.\Generated_Source\PSoC5/USB_Bootloader.c ****     uint8 ri;
1372:.\Generated_Source\PSoC5/USB_Bootloader.c ****     uint8 cr = 0u;
1373:.\Generated_Source\PSoC5/USB_Bootloader.c **** 
1374:.\Generated_Source\PSoC5/USB_Bootloader.c ****     if((epNumber > USB_Bootloader_EP0) && (epNumber < USB_Bootloader_MAX_EP))
 1098              		.loc 1 1374 0
 1099 0000 0138     		subs	r0, r0, #1
 1100              	.LVL89:
 1101 0002 C0B2     		uxtb	r0, r0
 1102 0004 0728     		cmp	r0, #7
 1103 0006 07D8     		bhi	.L87
1375:.\Generated_Source\PSoC5/USB_Bootloader.c ****     {
1376:.\Generated_Source\PSoC5/USB_Bootloader.c ****         ri = ((epNumber - USB_Bootloader_EP1) << USB_Bootloader_EPX_CNTX_ADDR_SHIFT);
 1104              		.loc 1 1376 0
ARM GAS  C:\Users\Robert\AppData\Local\Temp\ccGEgqLk.s 			page 45


 1105 0008 0001     		lsls	r0, r0, #4
 1106 000a C0B2     		uxtb	r0, r0
 1107              	.LVL90:
1377:.\Generated_Source\PSoC5/USB_Bootloader.c ****         cr = CY_GET_REG8((reg8 *)(USB_Bootloader_SIE_EP1_CR0_IND + ri)) & USB_Bootloader_MODE_ACKD;
 1108              		.loc 1 1377 0
 1109 000c 034B     		ldr	r3, .L88
 1110 000e C05C     		ldrb	r0, [r0, r3]	@ zero_extendqisi2
 1111              	.LVL91:
 1112 0010 00F01000 		and	r0, r0, #16
 1113 0014 C0B2     		uxtb	r0, r0
 1114              	.LVL92:
 1115 0016 7047     		bx	lr
 1116              	.LVL93:
 1117              	.L87:
1372:.\Generated_Source\PSoC5/USB_Bootloader.c **** 
 1118              		.loc 1 1372 0
 1119 0018 0020     		movs	r0, #0
 1120              	.LVL94:
1378:.\Generated_Source\PSoC5/USB_Bootloader.c ****     }
1379:.\Generated_Source\PSoC5/USB_Bootloader.c **** 
1380:.\Generated_Source\PSoC5/USB_Bootloader.c ****     return(cr);
1381:.\Generated_Source\PSoC5/USB_Bootloader.c **** }
 1121              		.loc 1 1381 0
 1122 001a 7047     		bx	lr
 1123              	.L89:
 1124              		.align	2
 1125              	.L88:
 1126 001c 0E600040 		.word	1073766414
 1127              		.cfi_endproc
 1128              	.LFE16:
 1129              		.size	USB_Bootloader_GetEPAckState, .-USB_Bootloader_GetEPAckState
 1130              		.section	.text.USB_Bootloader_SetPowerStatus,"ax",%progbits
 1131              		.align	2
 1132              		.global	USB_Bootloader_SetPowerStatus
 1133              		.thumb
 1134              		.thumb_func
 1135              		.type	USB_Bootloader_SetPowerStatus, %function
 1136              	USB_Bootloader_SetPowerStatus:
 1137              	.LFB17:
1382:.\Generated_Source\PSoC5/USB_Bootloader.c **** 
1383:.\Generated_Source\PSoC5/USB_Bootloader.c **** 
1384:.\Generated_Source\PSoC5/USB_Bootloader.c **** /*******************************************************************************
1385:.\Generated_Source\PSoC5/USB_Bootloader.c **** * Function Name: USB_Bootloader_SetPowerStatus
1386:.\Generated_Source\PSoC5/USB_Bootloader.c **** ********************************************************************************
1387:.\Generated_Source\PSoC5/USB_Bootloader.c **** *
1388:.\Generated_Source\PSoC5/USB_Bootloader.c **** * Summary:
1389:.\Generated_Source\PSoC5/USB_Bootloader.c **** *  Sets the device power status for reporting in the Get Device Status
1390:.\Generated_Source\PSoC5/USB_Bootloader.c **** *  request
1391:.\Generated_Source\PSoC5/USB_Bootloader.c **** *
1392:.\Generated_Source\PSoC5/USB_Bootloader.c **** * Parameters:
1393:.\Generated_Source\PSoC5/USB_Bootloader.c **** *  powerStatus: USB_Bootloader_DEVICE_STATUS_BUS_POWERED(0) - Bus Powered,
1394:.\Generated_Source\PSoC5/USB_Bootloader.c **** *               USB_Bootloader_DEVICE_STATUS_SELF_POWERED(1) - Self Powered
1395:.\Generated_Source\PSoC5/USB_Bootloader.c **** *
1396:.\Generated_Source\PSoC5/USB_Bootloader.c **** * Return:
1397:.\Generated_Source\PSoC5/USB_Bootloader.c **** *   None.
1398:.\Generated_Source\PSoC5/USB_Bootloader.c **** *
1399:.\Generated_Source\PSoC5/USB_Bootloader.c **** * Global variables:
ARM GAS  C:\Users\Robert\AppData\Local\Temp\ccGEgqLk.s 			page 46


1400:.\Generated_Source\PSoC5/USB_Bootloader.c **** *  USB_Bootloader_deviceStatus - set power status
1401:.\Generated_Source\PSoC5/USB_Bootloader.c **** *
1402:.\Generated_Source\PSoC5/USB_Bootloader.c **** * Reentrant:
1403:.\Generated_Source\PSoC5/USB_Bootloader.c **** *  No.
1404:.\Generated_Source\PSoC5/USB_Bootloader.c **** *
1405:.\Generated_Source\PSoC5/USB_Bootloader.c **** *******************************************************************************/
1406:.\Generated_Source\PSoC5/USB_Bootloader.c **** void USB_Bootloader_SetPowerStatus(uint8 powerStatus) 
1407:.\Generated_Source\PSoC5/USB_Bootloader.c **** {
 1138              		.loc 1 1407 0
 1139              		.cfi_startproc
 1140              		@ args = 0, pretend = 0, frame = 0
 1141              		@ frame_needed = 0, uses_anonymous_args = 0
 1142              		@ link register save eliminated.
 1143              	.LVL95:
1408:.\Generated_Source\PSoC5/USB_Bootloader.c ****     if (powerStatus != USB_Bootloader_DEVICE_STATUS_BUS_POWERED)
 1144              		.loc 1 1408 0
 1145 0000 28B1     		cbz	r0, .L91
1409:.\Generated_Source\PSoC5/USB_Bootloader.c ****     {
1410:.\Generated_Source\PSoC5/USB_Bootloader.c ****         USB_Bootloader_deviceStatus |=  USB_Bootloader_DEVICE_STATUS_SELF_POWERED;
 1146              		.loc 1 1410 0
 1147 0002 064A     		ldr	r2, .L93
 1148 0004 1378     		ldrb	r3, [r2]	@ zero_extendqisi2
 1149 0006 43F00103 		orr	r3, r3, #1
 1150 000a 1370     		strb	r3, [r2]
 1151 000c 7047     		bx	lr
 1152              	.L91:
1411:.\Generated_Source\PSoC5/USB_Bootloader.c ****     }
1412:.\Generated_Source\PSoC5/USB_Bootloader.c ****     else
1413:.\Generated_Source\PSoC5/USB_Bootloader.c ****     {
1414:.\Generated_Source\PSoC5/USB_Bootloader.c ****         USB_Bootloader_deviceStatus &=  ((uint8)(~USB_Bootloader_DEVICE_STATUS_SELF_POWERED));
 1153              		.loc 1 1414 0
 1154 000e 034A     		ldr	r2, .L93
 1155 0010 1378     		ldrb	r3, [r2]	@ zero_extendqisi2
 1156 0012 03F0FE03 		and	r3, r3, #254
 1157 0016 1370     		strb	r3, [r2]
 1158 0018 7047     		bx	lr
 1159              	.L94:
 1160 001a 00BF     		.align	2
 1161              	.L93:
 1162 001c 00000000 		.word	USB_Bootloader_deviceStatus
 1163              		.cfi_endproc
 1164              	.LFE17:
 1165              		.size	USB_Bootloader_SetPowerStatus, .-USB_Bootloader_SetPowerStatus
 1166              		.section	.text.USB_Bootloader_RWUEnabled,"ax",%progbits
 1167              		.align	2
 1168              		.global	USB_Bootloader_RWUEnabled
 1169              		.thumb
 1170              		.thumb_func
 1171              		.type	USB_Bootloader_RWUEnabled, %function
 1172              	USB_Bootloader_RWUEnabled:
 1173              	.LFB18:
1415:.\Generated_Source\PSoC5/USB_Bootloader.c ****     }
1416:.\Generated_Source\PSoC5/USB_Bootloader.c **** }
1417:.\Generated_Source\PSoC5/USB_Bootloader.c **** 
1418:.\Generated_Source\PSoC5/USB_Bootloader.c **** 
1419:.\Generated_Source\PSoC5/USB_Bootloader.c **** #if (USB_Bootloader_MON_VBUS == 1u)
1420:.\Generated_Source\PSoC5/USB_Bootloader.c **** 
ARM GAS  C:\Users\Robert\AppData\Local\Temp\ccGEgqLk.s 			page 47


1421:.\Generated_Source\PSoC5/USB_Bootloader.c ****     /*******************************************************************************
1422:.\Generated_Source\PSoC5/USB_Bootloader.c ****     * Function Name: USB_Bootloader_VBusPresent
1423:.\Generated_Source\PSoC5/USB_Bootloader.c ****     ********************************************************************************
1424:.\Generated_Source\PSoC5/USB_Bootloader.c ****     *
1425:.\Generated_Source\PSoC5/USB_Bootloader.c ****     * Summary:
1426:.\Generated_Source\PSoC5/USB_Bootloader.c ****     *  Determines VBUS presence for Self Powered Devices.
1427:.\Generated_Source\PSoC5/USB_Bootloader.c ****     *
1428:.\Generated_Source\PSoC5/USB_Bootloader.c ****     * Parameters:
1429:.\Generated_Source\PSoC5/USB_Bootloader.c ****     *  None.
1430:.\Generated_Source\PSoC5/USB_Bootloader.c ****     *
1431:.\Generated_Source\PSoC5/USB_Bootloader.c ****     * Return:
1432:.\Generated_Source\PSoC5/USB_Bootloader.c ****     *  1 if VBUS is present, otherwise 0.
1433:.\Generated_Source\PSoC5/USB_Bootloader.c ****     *
1434:.\Generated_Source\PSoC5/USB_Bootloader.c ****     *******************************************************************************/
1435:.\Generated_Source\PSoC5/USB_Bootloader.c ****     uint8 USB_Bootloader_VBusPresent(void) 
1436:.\Generated_Source\PSoC5/USB_Bootloader.c ****     {
1437:.\Generated_Source\PSoC5/USB_Bootloader.c ****         return((0u != (CY_GET_REG8(USB_Bootloader_VBUS_PS_PTR) & USB_Bootloader_VBUS_MASK)) ? 1u : 
1438:.\Generated_Source\PSoC5/USB_Bootloader.c ****     }
1439:.\Generated_Source\PSoC5/USB_Bootloader.c **** 
1440:.\Generated_Source\PSoC5/USB_Bootloader.c **** #endif /* USB_Bootloader_MON_VBUS */
1441:.\Generated_Source\PSoC5/USB_Bootloader.c **** 
1442:.\Generated_Source\PSoC5/USB_Bootloader.c **** 
1443:.\Generated_Source\PSoC5/USB_Bootloader.c **** /*******************************************************************************
1444:.\Generated_Source\PSoC5/USB_Bootloader.c **** * Function Name: USB_Bootloader_RWUEnabled
1445:.\Generated_Source\PSoC5/USB_Bootloader.c **** ********************************************************************************
1446:.\Generated_Source\PSoC5/USB_Bootloader.c **** *
1447:.\Generated_Source\PSoC5/USB_Bootloader.c **** * Summary:
1448:.\Generated_Source\PSoC5/USB_Bootloader.c **** *  Returns TRUE if Remote Wake Up is enabled, otherwise FALSE
1449:.\Generated_Source\PSoC5/USB_Bootloader.c **** *
1450:.\Generated_Source\PSoC5/USB_Bootloader.c **** * Parameters:
1451:.\Generated_Source\PSoC5/USB_Bootloader.c **** *   None.
1452:.\Generated_Source\PSoC5/USB_Bootloader.c **** *
1453:.\Generated_Source\PSoC5/USB_Bootloader.c **** * Return:
1454:.\Generated_Source\PSoC5/USB_Bootloader.c **** *  TRUE -  Remote Wake Up Enabled
1455:.\Generated_Source\PSoC5/USB_Bootloader.c **** *  FALSE - Remote Wake Up Disabled
1456:.\Generated_Source\PSoC5/USB_Bootloader.c **** *
1457:.\Generated_Source\PSoC5/USB_Bootloader.c **** * Global variables:
1458:.\Generated_Source\PSoC5/USB_Bootloader.c **** *  USB_Bootloader_deviceStatus - checked to determine remote status
1459:.\Generated_Source\PSoC5/USB_Bootloader.c **** *
1460:.\Generated_Source\PSoC5/USB_Bootloader.c **** *******************************************************************************/
1461:.\Generated_Source\PSoC5/USB_Bootloader.c **** uint8 USB_Bootloader_RWUEnabled(void) 
1462:.\Generated_Source\PSoC5/USB_Bootloader.c **** {
 1174              		.loc 1 1462 0
 1175              		.cfi_startproc
 1176              		@ args = 0, pretend = 0, frame = 0
 1177              		@ frame_needed = 0, uses_anonymous_args = 0
 1178              		@ link register save eliminated.
 1179              	.LVL96:
1463:.\Generated_Source\PSoC5/USB_Bootloader.c ****     uint8 result = USB_Bootloader_FALSE;
1464:.\Generated_Source\PSoC5/USB_Bootloader.c ****     if((USB_Bootloader_deviceStatus & USB_Bootloader_DEVICE_STATUS_REMOTE_WAKEUP) != 0u)
 1180              		.loc 1 1464 0
 1181 0000 044B     		ldr	r3, .L98
 1182 0002 1B78     		ldrb	r3, [r3]	@ zero_extendqisi2
 1183 0004 13F0020F 		tst	r3, #2
 1184 0008 01D1     		bne	.L97
1463:.\Generated_Source\PSoC5/USB_Bootloader.c ****     uint8 result = USB_Bootloader_FALSE;
 1185              		.loc 1 1463 0
ARM GAS  C:\Users\Robert\AppData\Local\Temp\ccGEgqLk.s 			page 48


 1186 000a 0020     		movs	r0, #0
 1187 000c 7047     		bx	lr
 1188              	.L97:
1465:.\Generated_Source\PSoC5/USB_Bootloader.c ****     {
1466:.\Generated_Source\PSoC5/USB_Bootloader.c ****         result = USB_Bootloader_TRUE;
 1189              		.loc 1 1466 0
 1190 000e 0120     		movs	r0, #1
 1191              	.LVL97:
1467:.\Generated_Source\PSoC5/USB_Bootloader.c ****     }
1468:.\Generated_Source\PSoC5/USB_Bootloader.c **** 
1469:.\Generated_Source\PSoC5/USB_Bootloader.c ****     return(result);
1470:.\Generated_Source\PSoC5/USB_Bootloader.c **** }
 1192              		.loc 1 1470 0
 1193 0010 7047     		bx	lr
 1194              	.L99:
 1195 0012 00BF     		.align	2
 1196              	.L98:
 1197 0014 00000000 		.word	USB_Bootloader_deviceStatus
 1198              		.cfi_endproc
 1199              	.LFE18:
 1200              		.size	USB_Bootloader_RWUEnabled, .-USB_Bootloader_RWUEnabled
 1201              		.global	USB_Bootloader_initVar
 1202              		.bss
 1203              		.set	.LANCHOR0,. + 0
 1204              		.type	USB_Bootloader_initVar, %object
 1205              		.size	USB_Bootloader_initVar, 1
 1206              	USB_Bootloader_initVar:
 1207 0000 00       		.space	1
 1208              		.text
 1209              	.Letext0:
 1210              		.file 2 "Generated_Source\\PSoC5/cytypes.h"
 1211              		.file 3 ".\\Generated_Source\\PSoC5\\USB_Bootloader.h"
 1212              		.file 4 ".\\Generated_Source\\PSoC5\\USB_Bootloader_pvt.h"
 1213              		.file 5 "Generated_Source\\PSoC5/CyLib.h"
 1214              		.section	.debug_info,"",%progbits
 1215              	.Ldebug_info0:
 1216 0000 28080000 		.4byte	0x828
 1217 0004 0400     		.2byte	0x4
 1218 0006 00000000 		.4byte	.Ldebug_abbrev0
 1219 000a 04       		.byte	0x4
 1220 000b 01       		.uleb128 0x1
 1221 000c 5E050000 		.4byte	.LASF72
 1222 0010 01       		.byte	0x1
 1223 0011 7D040000 		.4byte	.LASF73
 1224 0015 11060000 		.4byte	.LASF74
 1225 0019 00000000 		.4byte	.Ldebug_ranges0+0
 1226 001d 00000000 		.4byte	0
 1227 0021 00000000 		.4byte	.Ldebug_line0
 1228 0025 02       		.uleb128 0x2
 1229 0026 01       		.byte	0x1
 1230 0027 06       		.byte	0x6
 1231 0028 29010000 		.4byte	.LASF0
 1232 002c 02       		.uleb128 0x2
 1233 002d 01       		.byte	0x1
 1234 002e 08       		.byte	0x8
 1235 002f 6F040000 		.4byte	.LASF1
 1236 0033 02       		.uleb128 0x2
ARM GAS  C:\Users\Robert\AppData\Local\Temp\ccGEgqLk.s 			page 49


 1237 0034 02       		.byte	0x2
 1238 0035 05       		.byte	0x5
 1239 0036 0A030000 		.4byte	.LASF2
 1240 003a 02       		.uleb128 0x2
 1241 003b 02       		.byte	0x2
 1242 003c 07       		.byte	0x7
 1243 003d C2020000 		.4byte	.LASF3
 1244 0041 02       		.uleb128 0x2
 1245 0042 04       		.byte	0x4
 1246 0043 05       		.byte	0x5
 1247 0044 A8010000 		.4byte	.LASF4
 1248 0048 02       		.uleb128 0x2
 1249 0049 04       		.byte	0x4
 1250 004a 07       		.byte	0x7
 1251 004b 99020000 		.4byte	.LASF5
 1252 004f 02       		.uleb128 0x2
 1253 0050 08       		.byte	0x8
 1254 0051 05       		.byte	0x5
 1255 0052 1B010000 		.4byte	.LASF6
 1256 0056 02       		.uleb128 0x2
 1257 0057 08       		.byte	0x8
 1258 0058 07       		.byte	0x7
 1259 0059 8B000000 		.4byte	.LASF7
 1260 005d 03       		.uleb128 0x3
 1261 005e 04       		.byte	0x4
 1262 005f 05       		.byte	0x5
 1263 0060 696E7400 		.ascii	"int\000"
 1264 0064 02       		.uleb128 0x2
 1265 0065 04       		.byte	0x4
 1266 0066 07       		.byte	0x7
 1267 0067 3E020000 		.4byte	.LASF8
 1268 006b 04       		.uleb128 0x4
 1269 006c CB010000 		.4byte	.LASF9
 1270 0070 02       		.byte	0x2
 1271 0071 C2       		.byte	0xc2
 1272 0072 2C000000 		.4byte	0x2c
 1273 0076 04       		.uleb128 0x4
 1274 0077 00000000 		.4byte	.LASF10
 1275 007b 02       		.byte	0x2
 1276 007c C3       		.byte	0xc3
 1277 007d 3A000000 		.4byte	0x3a
 1278 0081 04       		.uleb128 0x4
 1279 0082 0D020000 		.4byte	.LASF11
 1280 0086 02       		.byte	0x2
 1281 0087 C4       		.byte	0xc4
 1282 0088 48000000 		.4byte	0x48
 1283 008c 02       		.uleb128 0x2
 1284 008d 04       		.byte	0x4
 1285 008e 04       		.byte	0x4
 1286 008f 10040000 		.4byte	.LASF12
 1287 0093 02       		.uleb128 0x2
 1288 0094 08       		.byte	0x8
 1289 0095 04       		.byte	0x4
 1290 0096 FA010000 		.4byte	.LASF13
 1291 009a 02       		.uleb128 0x2
 1292 009b 01       		.byte	0x1
 1293 009c 08       		.byte	0x8
ARM GAS  C:\Users\Robert\AppData\Local\Temp\ccGEgqLk.s 			page 50


 1294 009d 20050000 		.4byte	.LASF14
 1295 00a1 05       		.uleb128 0x5
 1296 00a2 6A040000 		.4byte	.LASF15
 1297 00a6 02       		.byte	0x2
 1298 00a7 6C01     		.2byte	0x16c
 1299 00a9 AD000000 		.4byte	0xad
 1300 00ad 06       		.uleb128 0x6
 1301 00ae 6B000000 		.4byte	0x6b
 1302 00b2 05       		.uleb128 0x5
 1303 00b3 54030000 		.4byte	.LASF16
 1304 00b7 02       		.byte	0x2
 1305 00b8 6E01     		.2byte	0x16e
 1306 00ba BE000000 		.4byte	0xbe
 1307 00be 06       		.uleb128 0x6
 1308 00bf 81000000 		.4byte	0x81
 1309 00c3 05       		.uleb128 0x5
 1310 00c4 2A050000 		.4byte	.LASF17
 1311 00c8 02       		.byte	0x2
 1312 00c9 7E01     		.2byte	0x17e
 1313 00cb CF000000 		.4byte	0xcf
 1314 00cf 07       		.uleb128 0x7
 1315 00d0 04       		.byte	0x4
 1316 00d1 D5000000 		.4byte	0xd5
 1317 00d5 08       		.uleb128 0x8
 1318 00d6 02       		.uleb128 0x2
 1319 00d7 04       		.byte	0x4
 1320 00d8 07       		.byte	0x7
 1321 00d9 64030000 		.4byte	.LASF18
 1322 00dd 09       		.uleb128 0x9
 1323 00de 0C       		.byte	0xc
 1324 00df 03       		.byte	0x3
 1325 00e0 80       		.byte	0x80
 1326 00e1 52010000 		.4byte	0x152
 1327 00e5 0A       		.uleb128 0xa
 1328 00e6 8D030000 		.4byte	.LASF19
 1329 00ea 03       		.byte	0x3
 1330 00eb 82       		.byte	0x82
 1331 00ec 6B000000 		.4byte	0x6b
 1332 00f0 00       		.byte	0
 1333 00f1 0A       		.uleb128 0xa
 1334 00f2 16040000 		.4byte	.LASF20
 1335 00f6 03       		.byte	0x3
 1336 00f7 83       		.byte	0x83
 1337 00f8 6B000000 		.4byte	0x6b
 1338 00fc 01       		.byte	0x1
 1339 00fd 0A       		.uleb128 0xa
 1340 00fe 5A030000 		.4byte	.LASF21
 1341 0102 03       		.byte	0x3
 1342 0103 84       		.byte	0x84
 1343 0104 6B000000 		.4byte	0x6b
 1344 0108 02       		.byte	0x2
 1345 0109 0A       		.uleb128 0xa
 1346 010a E7010000 		.4byte	.LASF22
 1347 010e 03       		.byte	0x3
 1348 010f 85       		.byte	0x85
 1349 0110 6B000000 		.4byte	0x6b
 1350 0114 03       		.byte	0x3
ARM GAS  C:\Users\Robert\AppData\Local\Temp\ccGEgqLk.s 			page 51


 1351 0115 0A       		.uleb128 0xa
 1352 0116 DA000000 		.4byte	.LASF23
 1353 011a 03       		.byte	0x3
 1354 011b 86       		.byte	0x86
 1355 011c 6B000000 		.4byte	0x6b
 1356 0120 04       		.byte	0x4
 1357 0121 0A       		.uleb128 0xa
 1358 0122 1A020000 		.4byte	.LASF24
 1359 0126 03       		.byte	0x3
 1360 0127 87       		.byte	0x87
 1361 0128 6B000000 		.4byte	0x6b
 1362 012c 05       		.byte	0x5
 1363 012d 0A       		.uleb128 0xa
 1364 012e 42050000 		.4byte	.LASF25
 1365 0132 03       		.byte	0x3
 1366 0133 88       		.byte	0x88
 1367 0134 76000000 		.4byte	0x76
 1368 0138 06       		.byte	0x6
 1369 0139 0A       		.uleb128 0xa
 1370 013a 37050000 		.4byte	.LASF26
 1371 013e 03       		.byte	0x3
 1372 013f 89       		.byte	0x89
 1373 0140 76000000 		.4byte	0x76
 1374 0144 08       		.byte	0x8
 1375 0145 0A       		.uleb128 0xa
 1376 0146 14030000 		.4byte	.LASF27
 1377 014a 03       		.byte	0x3
 1378 014b 8A       		.byte	0x8a
 1379 014c 6B000000 		.4byte	0x6b
 1380 0150 0A       		.byte	0xa
 1381 0151 00       		.byte	0
 1382 0152 04       		.uleb128 0x4
 1383 0153 8A010000 		.4byte	.LASF28
 1384 0157 03       		.byte	0x3
 1385 0158 8B       		.byte	0x8b
 1386 0159 DD000000 		.4byte	0xdd
 1387 015d 0B       		.uleb128 0xb
 1388 015e F6050000 		.4byte	.LASF29
 1389 0162 01       		.byte	0x1
 1390 0163 9E       		.byte	0x9e
 1391 0164 00000000 		.4byte	.LFB1
 1392 0168 18010000 		.4byte	.LFE1-.LFB1
 1393 016c 01       		.uleb128 0x1
 1394 016d 9C       		.byte	0x9c
 1395 016e C5020000 		.4byte	0x2c5
 1396 0172 0C       		.uleb128 0xc
 1397 0173 4D050000 		.4byte	.LASF33
 1398 0177 01       		.byte	0x1
 1399 0178 A0       		.byte	0xa0
 1400 0179 6B000000 		.4byte	0x6b
 1401 017d 00000000 		.4byte	.LLST0
 1402 0181 0D       		.uleb128 0xd
 1403 0182 06000000 		.4byte	.LVL0
 1404 0186 C1070000 		.4byte	0x7c1
 1405 018a 0E       		.uleb128 0xe
 1406 018b 3C000000 		.4byte	.LVL2
 1407 018f CC070000 		.4byte	0x7cc
ARM GAS  C:\Users\Robert\AppData\Local\Temp\ccGEgqLk.s 			page 52


 1408 0193 9D010000 		.4byte	0x19d
 1409 0197 0F       		.uleb128 0xf
 1410 0198 01       		.uleb128 0x1
 1411 0199 50       		.byte	0x50
 1412 019a 01       		.uleb128 0x1
 1413 019b 30       		.byte	0x30
 1414 019c 00       		.byte	0
 1415 019d 0E       		.uleb128 0xe
 1416 019e 5C000000 		.4byte	.LVL3
 1417 01a2 CC070000 		.4byte	0x7cc
 1418 01a6 B1010000 		.4byte	0x1b1
 1419 01aa 0F       		.uleb128 0xf
 1420 01ab 01       		.uleb128 0x1
 1421 01ac 50       		.byte	0x50
 1422 01ad 02       		.uleb128 0x2
 1423 01ae 75       		.byte	0x75
 1424 01af 00       		.sleb128 0
 1425 01b0 00       		.byte	0
 1426 01b1 0E       		.uleb128 0xe
 1427 01b2 62000000 		.4byte	.LVL4
 1428 01b6 CC070000 		.4byte	0x7cc
 1429 01ba C5010000 		.4byte	0x1c5
 1430 01be 0F       		.uleb128 0xf
 1431 01bf 01       		.uleb128 0x1
 1432 01c0 50       		.byte	0x50
 1433 01c1 02       		.uleb128 0x2
 1434 01c2 08       		.byte	0x8
 1435 01c3 28       		.byte	0x28
 1436 01c4 00       		.byte	0
 1437 01c5 0E       		.uleb128 0xe
 1438 01c6 80000000 		.4byte	.LVL5
 1439 01ca CC070000 		.4byte	0x7cc
 1440 01ce D9010000 		.4byte	0x1d9
 1441 01d2 0F       		.uleb128 0xf
 1442 01d3 01       		.uleb128 0x1
 1443 01d4 50       		.byte	0x50
 1444 01d5 02       		.uleb128 0x2
 1445 01d6 77       		.byte	0x77
 1446 01d7 00       		.sleb128 0
 1447 01d8 00       		.byte	0
 1448 01d9 0E       		.uleb128 0xe
 1449 01da 98000000 		.4byte	.LVL6
 1450 01de DD070000 		.4byte	0x7dd
 1451 01e2 ED010000 		.4byte	0x1ed
 1452 01e6 0F       		.uleb128 0xf
 1453 01e7 01       		.uleb128 0x1
 1454 01e8 50       		.byte	0x50
 1455 01e9 02       		.uleb128 0x2
 1456 01ea 76       		.byte	0x76
 1457 01eb 00       		.sleb128 0
 1458 01ec 00       		.byte	0
 1459 01ed 0E       		.uleb128 0xe
 1460 01ee A0000000 		.4byte	.LVL7
 1461 01f2 EE070000 		.4byte	0x7ee
 1462 01f6 00020000 		.4byte	0x200
 1463 01fa 0F       		.uleb128 0xf
 1464 01fb 01       		.uleb128 0x1
ARM GAS  C:\Users\Robert\AppData\Local\Temp\ccGEgqLk.s 			page 53


 1465 01fc 50       		.byte	0x50
 1466 01fd 01       		.uleb128 0x1
 1467 01fe 47       		.byte	0x47
 1468 01ff 00       		.byte	0
 1469 0200 0E       		.uleb128 0xe
 1470 0201 A8000000 		.4byte	.LVL8
 1471 0205 08080000 		.4byte	0x808
 1472 0209 18020000 		.4byte	0x218
 1473 020d 0F       		.uleb128 0xf
 1474 020e 01       		.uleb128 0x1
 1475 020f 51       		.byte	0x51
 1476 0210 01       		.uleb128 0x1
 1477 0211 37       		.byte	0x37
 1478 0212 0F       		.uleb128 0xf
 1479 0213 01       		.uleb128 0x1
 1480 0214 50       		.byte	0x50
 1481 0215 01       		.uleb128 0x1
 1482 0216 47       		.byte	0x47
 1483 0217 00       		.byte	0
 1484 0218 0E       		.uleb128 0xe
 1485 0219 B0000000 		.4byte	.LVL9
 1486 021d EE070000 		.4byte	0x7ee
 1487 0221 2B020000 		.4byte	0x22b
 1488 0225 0F       		.uleb128 0xf
 1489 0226 01       		.uleb128 0x1
 1490 0227 50       		.byte	0x50
 1491 0228 01       		.uleb128 0x1
 1492 0229 45       		.byte	0x45
 1493 022a 00       		.byte	0
 1494 022b 0E       		.uleb128 0xe
 1495 022c B8000000 		.4byte	.LVL10
 1496 0230 08080000 		.4byte	0x808
 1497 0234 43020000 		.4byte	0x243
 1498 0238 0F       		.uleb128 0xf
 1499 0239 01       		.uleb128 0x1
 1500 023a 51       		.byte	0x51
 1501 023b 01       		.uleb128 0x1
 1502 023c 37       		.byte	0x37
 1503 023d 0F       		.uleb128 0xf
 1504 023e 01       		.uleb128 0x1
 1505 023f 50       		.byte	0x50
 1506 0240 01       		.uleb128 0x1
 1507 0241 45       		.byte	0x45
 1508 0242 00       		.byte	0
 1509 0243 0E       		.uleb128 0xe
 1510 0244 C0000000 		.4byte	.LVL11
 1511 0248 EE070000 		.4byte	0x7ee
 1512 024c 56020000 		.4byte	0x256
 1513 0250 0F       		.uleb128 0xf
 1514 0251 01       		.uleb128 0x1
 1515 0252 50       		.byte	0x50
 1516 0253 01       		.uleb128 0x1
 1517 0254 48       		.byte	0x48
 1518 0255 00       		.byte	0
 1519 0256 0E       		.uleb128 0xe
 1520 0257 C8000000 		.4byte	.LVL12
 1521 025b 08080000 		.4byte	0x808
ARM GAS  C:\Users\Robert\AppData\Local\Temp\ccGEgqLk.s 			page 54


 1522 025f 6E020000 		.4byte	0x26e
 1523 0263 0F       		.uleb128 0xf
 1524 0264 01       		.uleb128 0x1
 1525 0265 51       		.byte	0x51
 1526 0266 01       		.uleb128 0x1
 1527 0267 37       		.byte	0x37
 1528 0268 0F       		.uleb128 0xf
 1529 0269 01       		.uleb128 0x1
 1530 026a 50       		.byte	0x50
 1531 026b 01       		.uleb128 0x1
 1532 026c 48       		.byte	0x48
 1533 026d 00       		.byte	0
 1534 026e 0E       		.uleb128 0xe
 1535 026f D0000000 		.4byte	.LVL13
 1536 0273 EE070000 		.4byte	0x7ee
 1537 0277 82020000 		.4byte	0x282
 1538 027b 0F       		.uleb128 0xf
 1539 027c 01       		.uleb128 0x1
 1540 027d 50       		.byte	0x50
 1541 027e 02       		.uleb128 0x2
 1542 027f 74       		.byte	0x74
 1543 0280 00       		.sleb128 0
 1544 0281 00       		.byte	0
 1545 0282 0E       		.uleb128 0xe
 1546 0283 D8000000 		.4byte	.LVL14
 1547 0287 08080000 		.4byte	0x808
 1548 028b 9B020000 		.4byte	0x29b
 1549 028f 0F       		.uleb128 0xf
 1550 0290 01       		.uleb128 0x1
 1551 0291 51       		.byte	0x51
 1552 0292 01       		.uleb128 0x1
 1553 0293 37       		.byte	0x37
 1554 0294 0F       		.uleb128 0xf
 1555 0295 01       		.uleb128 0x1
 1556 0296 50       		.byte	0x50
 1557 0297 02       		.uleb128 0x2
 1558 0298 74       		.byte	0x74
 1559 0299 00       		.sleb128 0
 1560 029a 00       		.byte	0
 1561 029b 0E       		.uleb128 0xe
 1562 029c E0000000 		.4byte	.LVL15
 1563 02a0 EE070000 		.4byte	0x7ee
 1564 02a4 AF020000 		.4byte	0x2af
 1565 02a8 0F       		.uleb128 0xf
 1566 02a9 01       		.uleb128 0x1
 1567 02aa 50       		.byte	0x50
 1568 02ab 02       		.uleb128 0x2
 1569 02ac 75       		.byte	0x75
 1570 02ad 00       		.sleb128 0
 1571 02ae 00       		.byte	0
 1572 02af 10       		.uleb128 0x10
 1573 02b0 E8000000 		.4byte	.LVL16
 1574 02b4 08080000 		.4byte	0x808
 1575 02b8 0F       		.uleb128 0xf
 1576 02b9 01       		.uleb128 0x1
 1577 02ba 51       		.byte	0x51
 1578 02bb 01       		.uleb128 0x1
ARM GAS  C:\Users\Robert\AppData\Local\Temp\ccGEgqLk.s 			page 55


 1579 02bc 37       		.byte	0x37
 1580 02bd 0F       		.uleb128 0xf
 1581 02be 01       		.uleb128 0x1
 1582 02bf 50       		.byte	0x50
 1583 02c0 02       		.uleb128 0x2
 1584 02c1 75       		.byte	0x75
 1585 02c2 00       		.sleb128 0
 1586 02c3 00       		.byte	0
 1587 02c4 00       		.byte	0
 1588 02c5 11       		.uleb128 0x11
 1589 02c6 D8040000 		.4byte	.LASF30
 1590 02ca 01       		.byte	0x1
 1591 02cb 5C01     		.2byte	0x15c
 1592 02cd 00000000 		.4byte	.LFB2
 1593 02d1 BC000000 		.4byte	.LFE2-.LFB2
 1594 02d5 01       		.uleb128 0x1
 1595 02d6 9C       		.byte	0x9c
 1596 02d7 19030000 		.4byte	0x319
 1597 02db 12       		.uleb128 0x12
 1598 02dc 14010000 		.4byte	.LASF31
 1599 02e0 01       		.byte	0x1
 1600 02e1 5C01     		.2byte	0x15c
 1601 02e3 6B000000 		.4byte	0x6b
 1602 02e7 13000000 		.4byte	.LLST1
 1603 02eb 12       		.uleb128 0x12
 1604 02ec 25050000 		.4byte	.LASF32
 1605 02f0 01       		.byte	0x1
 1606 02f1 5C01     		.2byte	0x15c
 1607 02f3 6B000000 		.4byte	0x6b
 1608 02f7 34000000 		.4byte	.LLST2
 1609 02fb 13       		.uleb128 0x13
 1610 02fc 6900     		.ascii	"i\000"
 1611 02fe 01       		.byte	0x1
 1612 02ff 6301     		.2byte	0x163
 1613 0301 6B000000 		.4byte	0x6b
 1614 0305 55000000 		.4byte	.LLST3
 1615 0309 10       		.uleb128 0x10
 1616 030a 7E000000 		.4byte	.LVL25
 1617 030e 1E080000 		.4byte	0x81e
 1618 0312 0F       		.uleb128 0xf
 1619 0313 01       		.uleb128 0x1
 1620 0314 50       		.byte	0x50
 1621 0315 01       		.uleb128 0x1
 1622 0316 31       		.byte	0x31
 1623 0317 00       		.byte	0
 1624 0318 00       		.byte	0
 1625 0319 0B       		.uleb128 0xb
 1626 031a 5C000000 		.4byte	.LASF34
 1627 031e 01       		.byte	0x1
 1628 031f 81       		.byte	0x81
 1629 0320 00000000 		.4byte	.LFB0
 1630 0324 24000000 		.4byte	.LFE0-.LFB0
 1631 0328 01       		.uleb128 0x1
 1632 0329 9C       		.byte	0x9c
 1633 032a 6C030000 		.4byte	0x36c
 1634 032e 14       		.uleb128 0x14
 1635 032f 14010000 		.4byte	.LASF31
ARM GAS  C:\Users\Robert\AppData\Local\Temp\ccGEgqLk.s 			page 56


 1636 0333 01       		.byte	0x1
 1637 0334 81       		.byte	0x81
 1638 0335 6B000000 		.4byte	0x6b
 1639 0339 7F000000 		.4byte	.LLST4
 1640 033d 14       		.uleb128 0x14
 1641 033e 25050000 		.4byte	.LASF32
 1642 0342 01       		.byte	0x1
 1643 0343 81       		.byte	0x81
 1644 0344 6B000000 		.4byte	0x6b
 1645 0348 A0000000 		.4byte	.LLST5
 1646 034c 0D       		.uleb128 0xd
 1647 034d 10000000 		.4byte	.LVL27
 1648 0351 5D010000 		.4byte	0x15d
 1649 0355 10       		.uleb128 0x10
 1650 0356 1E000000 		.4byte	.LVL28
 1651 035a C5020000 		.4byte	0x2c5
 1652 035e 0F       		.uleb128 0xf
 1653 035f 01       		.uleb128 0x1
 1654 0360 51       		.byte	0x51
 1655 0361 02       		.uleb128 0x2
 1656 0362 74       		.byte	0x74
 1657 0363 00       		.sleb128 0
 1658 0364 0F       		.uleb128 0xf
 1659 0365 01       		.uleb128 0x1
 1660 0366 50       		.byte	0x50
 1661 0367 02       		.uleb128 0x2
 1662 0368 75       		.byte	0x75
 1663 0369 00       		.sleb128 0
 1664 036a 00       		.byte	0
 1665 036b 00       		.byte	0
 1666 036c 11       		.uleb128 0x11
 1667 036d B9040000 		.4byte	.LASF35
 1668 0371 01       		.byte	0x1
 1669 0372 F201     		.2byte	0x1f2
 1670 0374 00000000 		.4byte	.LFB3
 1671 0378 64000000 		.4byte	.LFE3-.LFB3
 1672 037c 01       		.uleb128 0x1
 1673 037d 9C       		.byte	0x9c
 1674 037e 91030000 		.4byte	0x391
 1675 0382 13       		.uleb128 0x13
 1676 0383 6900     		.ascii	"i\000"
 1677 0385 01       		.byte	0x1
 1678 0386 F801     		.2byte	0x1f8
 1679 0388 6B000000 		.4byte	0x6b
 1680 038c C1000000 		.4byte	.LLST6
 1681 0390 00       		.byte	0
 1682 0391 15       		.uleb128 0x15
 1683 0392 D2030000 		.4byte	.LASF75
 1684 0396 01       		.byte	0x1
 1685 0397 3402     		.2byte	0x234
 1686 0399 00000000 		.4byte	.LFB4
 1687 039d 80000000 		.4byte	.LFE4-.LFB4
 1688 03a1 01       		.uleb128 0x1
 1689 03a2 9C       		.byte	0x9c
 1690 03a3 16       		.uleb128 0x16
 1691 03a4 4B020000 		.4byte	.LASF36
 1692 03a8 01       		.byte	0x1
ARM GAS  C:\Users\Robert\AppData\Local\Temp\ccGEgqLk.s 			page 57


 1693 03a9 7B02     		.2byte	0x27b
 1694 03ab 6B000000 		.4byte	0x6b
 1695 03af 00000000 		.4byte	.LFB5
 1696 03b3 18000000 		.4byte	.LFE5-.LFB5
 1697 03b7 01       		.uleb128 0x1
 1698 03b8 9C       		.byte	0x9c
 1699 03b9 CC030000 		.4byte	0x3cc
 1700 03bd 13       		.uleb128 0x13
 1701 03be 7200     		.ascii	"r\000"
 1702 03c0 01       		.byte	0x1
 1703 03c1 7D02     		.2byte	0x27d
 1704 03c3 6B000000 		.4byte	0x6b
 1705 03c7 EB000000 		.4byte	.LLST7
 1706 03cb 00       		.byte	0
 1707 03cc 17       		.uleb128 0x17
 1708 03cd 07000000 		.4byte	.LASF76
 1709 03d1 01       		.byte	0x1
 1710 03d2 9402     		.2byte	0x294
 1711 03d4 6B000000 		.4byte	0x6b
 1712 03d8 00000000 		.4byte	.LFB6
 1713 03dc 0C000000 		.4byte	.LFE6-.LFB6
 1714 03e0 01       		.uleb128 0x1
 1715 03e1 9C       		.byte	0x9c
 1716 03e2 16       		.uleb128 0x16
 1717 03e3 E4020000 		.4byte	.LASF37
 1718 03e7 01       		.byte	0x1
 1719 03e8 AE02     		.2byte	0x2ae
 1720 03ea 6B000000 		.4byte	0x6b
 1721 03ee 00000000 		.4byte	.LFB7
 1722 03f2 20000000 		.4byte	.LFE7-.LFB7
 1723 03f6 01       		.uleb128 0x1
 1724 03f7 9C       		.byte	0x9c
 1725 03f8 0D040000 		.4byte	0x40d
 1726 03fc 13       		.uleb128 0x13
 1727 03fd 72657300 		.ascii	"res\000"
 1728 0401 01       		.byte	0x1
 1729 0402 B002     		.2byte	0x2b0
 1730 0404 6B000000 		.4byte	0x6b
 1731 0408 FE000000 		.4byte	.LLST8
 1732 040c 00       		.byte	0
 1733 040d 16       		.uleb128 0x16
 1734 040e 67010000 		.4byte	.LASF38
 1735 0412 01       		.byte	0x1
 1736 0413 CA02     		.2byte	0x2ca
 1737 0415 6B000000 		.4byte	0x6b
 1738 0419 00000000 		.4byte	.LFB8
 1739 041d 0C000000 		.4byte	.LFE8-.LFB8
 1740 0421 01       		.uleb128 0x1
 1741 0422 9C       		.byte	0x9c
 1742 0423 38040000 		.4byte	0x438
 1743 0427 12       		.uleb128 0x12
 1744 0428 DF000000 		.4byte	.LASF39
 1745 042c 01       		.byte	0x1
 1746 042d CA02     		.2byte	0x2ca
 1747 042f 6B000000 		.4byte	0x6b
 1748 0433 34010000 		.4byte	.LLST9
 1749 0437 00       		.byte	0
ARM GAS  C:\Users\Robert\AppData\Local\Temp\ccGEgqLk.s 			page 58


 1750 0438 16       		.uleb128 0x16
 1751 0439 B1010000 		.4byte	.LASF40
 1752 043d 01       		.byte	0x1
 1753 043e DF02     		.2byte	0x2df
 1754 0440 6B000000 		.4byte	0x6b
 1755 0444 00000000 		.4byte	.LFB9
 1756 0448 14000000 		.4byte	.LFE9-.LFB9
 1757 044c 01       		.uleb128 0x1
 1758 044d 9C       		.byte	0x9c
 1759 044e 63040000 		.4byte	0x463
 1760 0452 12       		.uleb128 0x12
 1761 0453 EF000000 		.4byte	.LASF41
 1762 0457 01       		.byte	0x1
 1763 0458 DF02     		.2byte	0x2df
 1764 045a 6B000000 		.4byte	0x6b
 1765 045e 55010000 		.4byte	.LLST10
 1766 0462 00       		.byte	0
 1767 0463 16       		.uleb128 0x16
 1768 0464 71000000 		.4byte	.LASF42
 1769 0468 01       		.byte	0x1
 1770 0469 F802     		.2byte	0x2f8
 1771 046b 76000000 		.4byte	0x76
 1772 046f 00000000 		.4byte	.LFB10
 1773 0473 2C000000 		.4byte	.LFE10-.LFB10
 1774 0477 01       		.uleb128 0x1
 1775 0478 9C       		.byte	0x9c
 1776 0479 AD040000 		.4byte	0x4ad
 1777 047d 12       		.uleb128 0x12
 1778 047e EF000000 		.4byte	.LASF41
 1779 0482 01       		.byte	0x1
 1780 0483 F802     		.2byte	0x2f8
 1781 0485 6B000000 		.4byte	0x6b
 1782 0489 76010000 		.4byte	.LLST11
 1783 048d 13       		.uleb128 0x13
 1784 048e 726900   		.ascii	"ri\000"
 1785 0491 01       		.byte	0x1
 1786 0492 FA02     		.2byte	0x2fa
 1787 0494 6B000000 		.4byte	0x6b
 1788 0498 97010000 		.4byte	.LLST12
 1789 049c 18       		.uleb128 0x18
 1790 049d 0A060000 		.4byte	.LASF43
 1791 04a1 01       		.byte	0x1
 1792 04a2 FB02     		.2byte	0x2fb
 1793 04a4 76000000 		.4byte	0x76
 1794 04a8 AA010000 		.4byte	.LLST13
 1795 04ac 00       		.byte	0
 1796 04ad 11       		.uleb128 0x11
 1797 04ae 3C030000 		.4byte	.LASF44
 1798 04b2 01       		.byte	0x1
 1799 04b3 F103     		.2byte	0x3f1
 1800 04b5 00000000 		.4byte	.LFB11
 1801 04b9 90000000 		.4byte	.LFE11-.LFB11
 1802 04bd 01       		.uleb128 0x1
 1803 04be 9C       		.byte	0x9c
 1804 04bf 19050000 		.4byte	0x519
 1805 04c3 19       		.uleb128 0x19
 1806 04c4 EF000000 		.4byte	.LASF41
ARM GAS  C:\Users\Robert\AppData\Local\Temp\ccGEgqLk.s 			page 59


 1807 04c8 01       		.byte	0x1
 1808 04c9 F103     		.2byte	0x3f1
 1809 04cb 6B000000 		.4byte	0x6b
 1810 04cf 01       		.uleb128 0x1
 1811 04d0 50       		.byte	0x50
 1812 04d1 12       		.uleb128 0x12
 1813 04d2 14020000 		.4byte	.LASF45
 1814 04d6 01       		.byte	0x1
 1815 04d7 F103     		.2byte	0x3f1
 1816 04d9 19050000 		.4byte	0x519
 1817 04dd 08020000 		.4byte	.LLST14
 1818 04e1 12       		.uleb128 0x12
 1819 04e2 19050000 		.4byte	.LASF46
 1820 04e6 01       		.byte	0x1
 1821 04e7 F103     		.2byte	0x3f1
 1822 04e9 76000000 		.4byte	0x76
 1823 04ed 29020000 		.4byte	.LLST15
 1824 04f1 1A       		.uleb128 0x1a
 1825 04f2 726900   		.ascii	"ri\000"
 1826 04f5 01       		.byte	0x1
 1827 04f6 F403     		.2byte	0x3f4
 1828 04f8 6B000000 		.4byte	0x6b
 1829 04fc 13       		.uleb128 0x13
 1830 04fd 7000     		.ascii	"p\000"
 1831 04ff 01       		.byte	0x1
 1832 0500 F503     		.2byte	0x3f5
 1833 0502 24050000 		.4byte	0x524
 1834 0506 55020000 		.4byte	.LLST16
 1835 050a 13       		.uleb128 0x13
 1836 050b 6900     		.ascii	"i\000"
 1837 050d 01       		.byte	0x1
 1838 050e F703     		.2byte	0x3f7
 1839 0510 76000000 		.4byte	0x76
 1840 0514 68020000 		.4byte	.LLST17
 1841 0518 00       		.byte	0
 1842 0519 07       		.uleb128 0x7
 1843 051a 04       		.byte	0x4
 1844 051b 1F050000 		.4byte	0x51f
 1845 051f 1B       		.uleb128 0x1b
 1846 0520 6B000000 		.4byte	0x6b
 1847 0524 07       		.uleb128 0x7
 1848 0525 04       		.byte	0x4
 1849 0526 A1000000 		.4byte	0xa1
 1850 052a 11       		.uleb128 0x11
 1851 052b A2000000 		.4byte	.LASF47
 1852 052f 01       		.byte	0x1
 1853 0530 0705     		.2byte	0x507
 1854 0532 00000000 		.4byte	.LFB13
 1855 0536 30000000 		.4byte	.LFE13-.LFB13
 1856 053a 01       		.uleb128 0x1
 1857 053b 9C       		.byte	0x9c
 1858 053c 5E050000 		.4byte	0x55e
 1859 0540 19       		.uleb128 0x19
 1860 0541 EF000000 		.4byte	.LASF41
 1861 0545 01       		.byte	0x1
 1862 0546 0705     		.2byte	0x507
 1863 0548 6B000000 		.4byte	0x6b
ARM GAS  C:\Users\Robert\AppData\Local\Temp\ccGEgqLk.s 			page 60


 1864 054c 01       		.uleb128 0x1
 1865 054d 50       		.byte	0x50
 1866 054e 13       		.uleb128 0x13
 1867 054f 726900   		.ascii	"ri\000"
 1868 0552 01       		.byte	0x1
 1869 0553 0905     		.2byte	0x509
 1870 0555 6B000000 		.4byte	0x6b
 1871 0559 91020000 		.4byte	.LLST18
 1872 055d 00       		.byte	0
 1873 055e 16       		.uleb128 0x16
 1874 055f F7030000 		.4byte	.LASF48
 1875 0563 01       		.byte	0x1
 1876 0564 9C04     		.2byte	0x49c
 1877 0566 76000000 		.4byte	0x76
 1878 056a 00000000 		.4byte	.LFB12
 1879 056e 50000000 		.4byte	.LFE12-.LFB12
 1880 0572 01       		.uleb128 0x1
 1881 0573 9C       		.byte	0x9c
 1882 0574 08060000 		.4byte	0x608
 1883 0578 12       		.uleb128 0x12
 1884 0579 EF000000 		.4byte	.LASF41
 1885 057d 01       		.byte	0x1
 1886 057e 9C04     		.2byte	0x49c
 1887 0580 6B000000 		.4byte	0x6b
 1888 0584 A4020000 		.4byte	.LLST19
 1889 0588 12       		.uleb128 0x12
 1890 0589 14020000 		.4byte	.LASF45
 1891 058d 01       		.byte	0x1
 1892 058e 9C04     		.2byte	0x49c
 1893 0590 08060000 		.4byte	0x608
 1894 0594 DE020000 		.4byte	.LLST20
 1895 0598 12       		.uleb128 0x12
 1896 0599 19050000 		.4byte	.LASF46
 1897 059d 01       		.byte	0x1
 1898 059e 9C04     		.2byte	0x49c
 1899 05a0 76000000 		.4byte	0x76
 1900 05a4 15030000 		.4byte	.LLST21
 1901 05a8 13       		.uleb128 0x13
 1902 05a9 726900   		.ascii	"ri\000"
 1903 05ac 01       		.byte	0x1
 1904 05ad 9F04     		.2byte	0x49f
 1905 05af 6B000000 		.4byte	0x6b
 1906 05b3 57030000 		.4byte	.LLST22
 1907 05b7 13       		.uleb128 0x13
 1908 05b8 7000     		.ascii	"p\000"
 1909 05ba 01       		.byte	0x1
 1910 05bb A004     		.2byte	0x4a0
 1911 05bd 24050000 		.4byte	0x524
 1912 05c1 79030000 		.4byte	.LLST23
 1913 05c5 13       		.uleb128 0x13
 1914 05c6 6900     		.ascii	"i\000"
 1915 05c8 01       		.byte	0x1
 1916 05c9 A204     		.2byte	0x4a2
 1917 05cb 76000000 		.4byte	0x76
 1918 05cf 8C030000 		.4byte	.LLST24
 1919 05d3 18       		.uleb128 0x18
 1920 05d4 EC050000 		.4byte	.LASF49
ARM GAS  C:\Users\Robert\AppData\Local\Temp\ccGEgqLk.s 			page 61


 1921 05d8 01       		.byte	0x1
 1922 05d9 A504     		.2byte	0x4a5
 1923 05db 76000000 		.4byte	0x76
 1924 05df B6030000 		.4byte	.LLST25
 1925 05e3 0E       		.uleb128 0xe
 1926 05e4 20000000 		.4byte	.LVL72
 1927 05e8 63040000 		.4byte	0x463
 1928 05ec F7050000 		.4byte	0x5f7
 1929 05f0 0F       		.uleb128 0xf
 1930 05f1 01       		.uleb128 0x1
 1931 05f2 50       		.byte	0x50
 1932 05f3 02       		.uleb128 0x2
 1933 05f4 76       		.byte	0x76
 1934 05f5 00       		.sleb128 0
 1935 05f6 00       		.byte	0
 1936 05f7 10       		.uleb128 0x10
 1937 05f8 3E000000 		.4byte	.LVL79
 1938 05fc 2A050000 		.4byte	0x52a
 1939 0600 0F       		.uleb128 0xf
 1940 0601 01       		.uleb128 0x1
 1941 0602 50       		.byte	0x50
 1942 0603 02       		.uleb128 0x2
 1943 0604 76       		.byte	0x76
 1944 0605 00       		.sleb128 0
 1945 0606 00       		.byte	0
 1946 0607 00       		.byte	0
 1947 0608 07       		.uleb128 0x7
 1948 0609 04       		.byte	0x4
 1949 060a 6B000000 		.4byte	0x6b
 1950 060e 11       		.uleb128 0x11
 1951 060f F8000000 		.4byte	.LASF50
 1952 0613 01       		.byte	0x1
 1953 0614 2505     		.2byte	0x525
 1954 0616 00000000 		.4byte	.LFB14
 1955 061a 18000000 		.4byte	.LFE14-.LFB14
 1956 061e 01       		.uleb128 0x1
 1957 061f 9C       		.byte	0x9c
 1958 0620 44060000 		.4byte	0x644
 1959 0624 12       		.uleb128 0x12
 1960 0625 EF000000 		.4byte	.LASF41
 1961 0629 01       		.byte	0x1
 1962 062a 2505     		.2byte	0x525
 1963 062c 6B000000 		.4byte	0x6b
 1964 0630 C9030000 		.4byte	.LLST26
 1965 0634 13       		.uleb128 0x13
 1966 0635 726900   		.ascii	"ri\000"
 1967 0638 01       		.byte	0x1
 1968 0639 2705     		.2byte	0x527
 1969 063b 6B000000 		.4byte	0x6b
 1970 063f EA030000 		.4byte	.LLST27
 1971 0643 00       		.byte	0
 1972 0644 11       		.uleb128 0x11
 1973 0645 84020000 		.4byte	.LASF51
 1974 0649 01       		.byte	0x1
 1975 064a 4405     		.2byte	0x544
 1976 064c 00000000 		.4byte	.LFB15
 1977 0650 0C000000 		.4byte	.LFE15-.LFB15
ARM GAS  C:\Users\Robert\AppData\Local\Temp\ccGEgqLk.s 			page 62


 1978 0654 01       		.uleb128 0x1
 1979 0655 9C       		.byte	0x9c
 1980 0656 69060000 		.4byte	0x669
 1981 065a 19       		.uleb128 0x19
 1982 065b F5040000 		.4byte	.LASF52
 1983 065f 01       		.byte	0x1
 1984 0660 4405     		.2byte	0x544
 1985 0662 6B000000 		.4byte	0x6b
 1986 0666 01       		.uleb128 0x1
 1987 0667 50       		.byte	0x50
 1988 0668 00       		.byte	0
 1989 0669 16       		.uleb128 0x16
 1990 066a 21020000 		.4byte	.LASF53
 1991 066e 01       		.byte	0x1
 1992 066f 5905     		.2byte	0x559
 1993 0671 6B000000 		.4byte	0x6b
 1994 0675 00000000 		.4byte	.LFB16
 1995 0679 20000000 		.4byte	.LFE16-.LFB16
 1996 067d 01       		.uleb128 0x1
 1997 067e 9C       		.byte	0x9c
 1998 067f B2060000 		.4byte	0x6b2
 1999 0683 12       		.uleb128 0x12
 2000 0684 EF000000 		.4byte	.LASF41
 2001 0688 01       		.byte	0x1
 2002 0689 5905     		.2byte	0x559
 2003 068b 6B000000 		.4byte	0x6b
 2004 068f FD030000 		.4byte	.LLST28
 2005 0693 13       		.uleb128 0x13
 2006 0694 726900   		.ascii	"ri\000"
 2007 0697 01       		.byte	0x1
 2008 0698 5B05     		.2byte	0x55b
 2009 069a 6B000000 		.4byte	0x6b
 2010 069e 1E040000 		.4byte	.LLST29
 2011 06a2 13       		.uleb128 0x13
 2012 06a3 637200   		.ascii	"cr\000"
 2013 06a6 01       		.byte	0x1
 2014 06a7 5C05     		.2byte	0x55c
 2015 06a9 6B000000 		.4byte	0x6b
 2016 06ad 31040000 		.4byte	.LLST30
 2017 06b1 00       		.byte	0
 2018 06b2 11       		.uleb128 0x11
 2019 06b3 1E030000 		.4byte	.LASF54
 2020 06b7 01       		.byte	0x1
 2021 06b8 7E05     		.2byte	0x57e
 2022 06ba 00000000 		.4byte	.LFB17
 2023 06be 20000000 		.4byte	.LFE17-.LFB17
 2024 06c2 01       		.uleb128 0x1
 2025 06c3 9C       		.byte	0x9c
 2026 06c4 D7060000 		.4byte	0x6d7
 2027 06c8 19       		.uleb128 0x19
 2028 06c9 01020000 		.4byte	.LASF55
 2029 06cd 01       		.byte	0x1
 2030 06ce 7E05     		.2byte	0x57e
 2031 06d0 6B000000 		.4byte	0x6b
 2032 06d4 01       		.uleb128 0x1
 2033 06d5 50       		.byte	0x50
 2034 06d6 00       		.byte	0
ARM GAS  C:\Users\Robert\AppData\Local\Temp\ccGEgqLk.s 			page 63


 2035 06d7 16       		.uleb128 0x16
 2036 06d8 94030000 		.4byte	.LASF56
 2037 06dc 01       		.byte	0x1
 2038 06dd B505     		.2byte	0x5b5
 2039 06df 6B000000 		.4byte	0x6b
 2040 06e3 00000000 		.4byte	.LFB18
 2041 06e7 18000000 		.4byte	.LFE18-.LFB18
 2042 06eb 01       		.uleb128 0x1
 2043 06ec 9C       		.byte	0x9c
 2044 06ed 02070000 		.4byte	0x702
 2045 06f1 18       		.uleb128 0x18
 2046 06f2 0A060000 		.4byte	.LASF43
 2047 06f6 01       		.byte	0x1
 2048 06f7 B705     		.2byte	0x5b7
 2049 06f9 6B000000 		.4byte	0x6b
 2050 06fd 67040000 		.4byte	.LLST31
 2051 0701 00       		.byte	0
 2052 0702 1C       		.uleb128 0x1c
 2053 0703 50010000 		.4byte	.LASF57
 2054 0707 01       		.byte	0x1
 2055 0708 3B       		.byte	0x3b
 2056 0709 6B000000 		.4byte	0x6b
 2057 070d 05       		.uleb128 0x5
 2058 070e 03       		.byte	0x3
 2059 070f 00000000 		.4byte	USB_Bootloader_initVar
 2060 0713 1D       		.uleb128 0x1d
 2061 0714 D1010000 		.4byte	.LASF58
 2062 0718 03       		.byte	0x3
 2063 0719 5202     		.2byte	0x252
 2064 071b AD000000 		.4byte	0xad
 2065 071f 1D       		.uleb128 0x1d
 2066 0720 BD000000 		.4byte	.LASF59
 2067 0724 03       		.byte	0x3
 2068 0725 5302     		.2byte	0x253
 2069 0727 AD000000 		.4byte	0xad
 2070 072b 1D       		.uleb128 0x1d
 2071 072c FC040000 		.4byte	.LASF60
 2072 0730 03       		.byte	0x3
 2073 0731 5402     		.2byte	0x254
 2074 0733 AD000000 		.4byte	0xad
 2075 0737 1D       		.uleb128 0x1d
 2076 0738 AE030000 		.4byte	.LASF61
 2077 073c 03       		.byte	0x3
 2078 073d 5502     		.2byte	0x255
 2079 073f AD000000 		.4byte	0xad
 2080 0743 1D       		.uleb128 0x1d
 2081 0744 68020000 		.4byte	.LASF62
 2082 0748 03       		.byte	0x3
 2083 0749 5602     		.2byte	0x256
 2084 074b AD000000 		.4byte	0xad
 2085 074f 1E       		.uleb128 0x1e
 2086 0750 6B000000 		.4byte	0x6b
 2087 0754 5F070000 		.4byte	0x75f
 2088 0758 1F       		.uleb128 0x1f
 2089 0759 D6000000 		.4byte	0xd6
 2090 075d 00       		.byte	0
 2091 075e 00       		.byte	0
ARM GAS  C:\Users\Robert\AppData\Local\Temp\ccGEgqLk.s 			page 64


 2092 075f 1D       		.uleb128 0x1d
 2093 0760 35010000 		.4byte	.LASF63
 2094 0764 03       		.byte	0x3
 2095 0765 5A02     		.2byte	0x25a
 2096 0767 6B070000 		.4byte	0x76b
 2097 076b 06       		.uleb128 0x6
 2098 076c 4F070000 		.4byte	0x74f
 2099 0770 20       		.uleb128 0x20
 2100 0771 3D000000 		.4byte	.LASF64
 2101 0775 04       		.byte	0x4
 2102 0776 38       		.byte	0x38
 2103 0777 AD000000 		.4byte	0xad
 2104 077b 20       		.uleb128 0x20
 2105 077c 6D030000 		.4byte	.LASF65
 2106 0780 04       		.byte	0x4
 2107 0781 39       		.byte	0x39
 2108 0782 86070000 		.4byte	0x786
 2109 0786 06       		.uleb128 0x6
 2110 0787 4F070000 		.4byte	0x74f
 2111 078b 20       		.uleb128 0x20
 2112 078c 2F040000 		.4byte	.LASF66
 2113 0790 04       		.byte	0x4
 2114 0791 3B       		.byte	0x3b
 2115 0792 AD000000 		.4byte	0xad
 2116 0796 1E       		.uleb128 0x1e
 2117 0797 52010000 		.4byte	0x152
 2118 079b A6070000 		.4byte	0x7a6
 2119 079f 1F       		.uleb128 0x1f
 2120 07a0 D6000000 		.4byte	0xd6
 2121 07a4 08       		.byte	0x8
 2122 07a5 00       		.byte	0
 2123 07a6 20       		.uleb128 0x20
 2124 07a7 A7040000 		.4byte	.LASF67
 2125 07ab 04       		.byte	0x4
 2126 07ac 3F       		.byte	0x3f
 2127 07ad B1070000 		.4byte	0x7b1
 2128 07b1 06       		.uleb128 0x6
 2129 07b2 96070000 		.4byte	0x796
 2130 07b6 20       		.uleb128 0x20
 2131 07b7 4C040000 		.4byte	.LASF68
 2132 07bb 04       		.byte	0x4
 2133 07bc 4F       		.byte	0x4f
 2134 07bd AD000000 		.4byte	0xad
 2135 07c1 21       		.uleb128 0x21
 2136 07c2 AB020000 		.4byte	.LASF77
 2137 07c6 05       		.byte	0x5
 2138 07c7 7E       		.byte	0x7e
 2139 07c8 6B000000 		.4byte	0x6b
 2140 07cc 22       		.uleb128 0x22
 2141 07cd F0010000 		.4byte	.LASF69
 2142 07d1 05       		.byte	0x5
 2143 07d2 78       		.byte	0x78
 2144 07d3 DD070000 		.4byte	0x7dd
 2145 07d7 23       		.uleb128 0x23
 2146 07d8 76000000 		.4byte	0x76
 2147 07dc 00       		.byte	0
 2148 07dd 22       		.uleb128 0x22
ARM GAS  C:\Users\Robert\AppData\Local\Temp\ccGEgqLk.s 			page 65


 2149 07de 27000000 		.4byte	.LASF70
 2150 07e2 05       		.byte	0x5
 2151 07e3 7F       		.byte	0x7f
 2152 07e4 EE070000 		.4byte	0x7ee
 2153 07e8 23       		.uleb128 0x23
 2154 07e9 6B000000 		.4byte	0x6b
 2155 07ed 00       		.byte	0
 2156 07ee 24       		.uleb128 0x24
 2157 07ef D5020000 		.4byte	.LASF78
 2158 07f3 05       		.byte	0x5
 2159 07f4 89       		.byte	0x89
 2160 07f5 C3000000 		.4byte	0xc3
 2161 07f9 08080000 		.4byte	0x808
 2162 07fd 23       		.uleb128 0x23
 2163 07fe 6B000000 		.4byte	0x6b
 2164 0802 23       		.uleb128 0x23
 2165 0803 C3000000 		.4byte	0xc3
 2166 0807 00       		.byte	0
 2167 0808 22       		.uleb128 0x22
 2168 0809 E6030000 		.4byte	.LASF71
 2169 080d 05       		.byte	0x5
 2170 080e 8C       		.byte	0x8c
 2171 080f 1E080000 		.4byte	0x81e
 2172 0813 23       		.uleb128 0x23
 2173 0814 6B000000 		.4byte	0x6b
 2174 0818 23       		.uleb128 0x23
 2175 0819 6B000000 		.4byte	0x6b
 2176 081d 00       		.byte	0
 2177 081e 25       		.uleb128 0x25
 2178 081f 21040000 		.4byte	.LASF79
 2179 0823 05       		.byte	0x5
 2180 0824 7A       		.byte	0x7a
 2181 0825 23       		.uleb128 0x23
 2182 0826 81000000 		.4byte	0x81
 2183 082a 00       		.byte	0
 2184 082b 00       		.byte	0
 2185              		.section	.debug_abbrev,"",%progbits
 2186              	.Ldebug_abbrev0:
 2187 0000 01       		.uleb128 0x1
 2188 0001 11       		.uleb128 0x11
 2189 0002 01       		.byte	0x1
 2190 0003 25       		.uleb128 0x25
 2191 0004 0E       		.uleb128 0xe
 2192 0005 13       		.uleb128 0x13
 2193 0006 0B       		.uleb128 0xb
 2194 0007 03       		.uleb128 0x3
 2195 0008 0E       		.uleb128 0xe
 2196 0009 1B       		.uleb128 0x1b
 2197 000a 0E       		.uleb128 0xe
 2198 000b 55       		.uleb128 0x55
 2199 000c 17       		.uleb128 0x17
 2200 000d 11       		.uleb128 0x11
 2201 000e 01       		.uleb128 0x1
 2202 000f 10       		.uleb128 0x10
 2203 0010 17       		.uleb128 0x17
 2204 0011 00       		.byte	0
 2205 0012 00       		.byte	0
ARM GAS  C:\Users\Robert\AppData\Local\Temp\ccGEgqLk.s 			page 66


 2206 0013 02       		.uleb128 0x2
 2207 0014 24       		.uleb128 0x24
 2208 0015 00       		.byte	0
 2209 0016 0B       		.uleb128 0xb
 2210 0017 0B       		.uleb128 0xb
 2211 0018 3E       		.uleb128 0x3e
 2212 0019 0B       		.uleb128 0xb
 2213 001a 03       		.uleb128 0x3
 2214 001b 0E       		.uleb128 0xe
 2215 001c 00       		.byte	0
 2216 001d 00       		.byte	0
 2217 001e 03       		.uleb128 0x3
 2218 001f 24       		.uleb128 0x24
 2219 0020 00       		.byte	0
 2220 0021 0B       		.uleb128 0xb
 2221 0022 0B       		.uleb128 0xb
 2222 0023 3E       		.uleb128 0x3e
 2223 0024 0B       		.uleb128 0xb
 2224 0025 03       		.uleb128 0x3
 2225 0026 08       		.uleb128 0x8
 2226 0027 00       		.byte	0
 2227 0028 00       		.byte	0
 2228 0029 04       		.uleb128 0x4
 2229 002a 16       		.uleb128 0x16
 2230 002b 00       		.byte	0
 2231 002c 03       		.uleb128 0x3
 2232 002d 0E       		.uleb128 0xe
 2233 002e 3A       		.uleb128 0x3a
 2234 002f 0B       		.uleb128 0xb
 2235 0030 3B       		.uleb128 0x3b
 2236 0031 0B       		.uleb128 0xb
 2237 0032 49       		.uleb128 0x49
 2238 0033 13       		.uleb128 0x13
 2239 0034 00       		.byte	0
 2240 0035 00       		.byte	0
 2241 0036 05       		.uleb128 0x5
 2242 0037 16       		.uleb128 0x16
 2243 0038 00       		.byte	0
 2244 0039 03       		.uleb128 0x3
 2245 003a 0E       		.uleb128 0xe
 2246 003b 3A       		.uleb128 0x3a
 2247 003c 0B       		.uleb128 0xb
 2248 003d 3B       		.uleb128 0x3b
 2249 003e 05       		.uleb128 0x5
 2250 003f 49       		.uleb128 0x49
 2251 0040 13       		.uleb128 0x13
 2252 0041 00       		.byte	0
 2253 0042 00       		.byte	0
 2254 0043 06       		.uleb128 0x6
 2255 0044 35       		.uleb128 0x35
 2256 0045 00       		.byte	0
 2257 0046 49       		.uleb128 0x49
 2258 0047 13       		.uleb128 0x13
 2259 0048 00       		.byte	0
 2260 0049 00       		.byte	0
 2261 004a 07       		.uleb128 0x7
 2262 004b 0F       		.uleb128 0xf
ARM GAS  C:\Users\Robert\AppData\Local\Temp\ccGEgqLk.s 			page 67


 2263 004c 00       		.byte	0
 2264 004d 0B       		.uleb128 0xb
 2265 004e 0B       		.uleb128 0xb
 2266 004f 49       		.uleb128 0x49
 2267 0050 13       		.uleb128 0x13
 2268 0051 00       		.byte	0
 2269 0052 00       		.byte	0
 2270 0053 08       		.uleb128 0x8
 2271 0054 15       		.uleb128 0x15
 2272 0055 00       		.byte	0
 2273 0056 27       		.uleb128 0x27
 2274 0057 19       		.uleb128 0x19
 2275 0058 00       		.byte	0
 2276 0059 00       		.byte	0
 2277 005a 09       		.uleb128 0x9
 2278 005b 13       		.uleb128 0x13
 2279 005c 01       		.byte	0x1
 2280 005d 0B       		.uleb128 0xb
 2281 005e 0B       		.uleb128 0xb
 2282 005f 3A       		.uleb128 0x3a
 2283 0060 0B       		.uleb128 0xb
 2284 0061 3B       		.uleb128 0x3b
 2285 0062 0B       		.uleb128 0xb
 2286 0063 01       		.uleb128 0x1
 2287 0064 13       		.uleb128 0x13
 2288 0065 00       		.byte	0
 2289 0066 00       		.byte	0
 2290 0067 0A       		.uleb128 0xa
 2291 0068 0D       		.uleb128 0xd
 2292 0069 00       		.byte	0
 2293 006a 03       		.uleb128 0x3
 2294 006b 0E       		.uleb128 0xe
 2295 006c 3A       		.uleb128 0x3a
 2296 006d 0B       		.uleb128 0xb
 2297 006e 3B       		.uleb128 0x3b
 2298 006f 0B       		.uleb128 0xb
 2299 0070 49       		.uleb128 0x49
 2300 0071 13       		.uleb128 0x13
 2301 0072 38       		.uleb128 0x38
 2302 0073 0B       		.uleb128 0xb
 2303 0074 00       		.byte	0
 2304 0075 00       		.byte	0
 2305 0076 0B       		.uleb128 0xb
 2306 0077 2E       		.uleb128 0x2e
 2307 0078 01       		.byte	0x1
 2308 0079 3F       		.uleb128 0x3f
 2309 007a 19       		.uleb128 0x19
 2310 007b 03       		.uleb128 0x3
 2311 007c 0E       		.uleb128 0xe
 2312 007d 3A       		.uleb128 0x3a
 2313 007e 0B       		.uleb128 0xb
 2314 007f 3B       		.uleb128 0x3b
 2315 0080 0B       		.uleb128 0xb
 2316 0081 27       		.uleb128 0x27
 2317 0082 19       		.uleb128 0x19
 2318 0083 11       		.uleb128 0x11
 2319 0084 01       		.uleb128 0x1
ARM GAS  C:\Users\Robert\AppData\Local\Temp\ccGEgqLk.s 			page 68


 2320 0085 12       		.uleb128 0x12
 2321 0086 06       		.uleb128 0x6
 2322 0087 40       		.uleb128 0x40
 2323 0088 18       		.uleb128 0x18
 2324 0089 9742     		.uleb128 0x2117
 2325 008b 19       		.uleb128 0x19
 2326 008c 01       		.uleb128 0x1
 2327 008d 13       		.uleb128 0x13
 2328 008e 00       		.byte	0
 2329 008f 00       		.byte	0
 2330 0090 0C       		.uleb128 0xc
 2331 0091 34       		.uleb128 0x34
 2332 0092 00       		.byte	0
 2333 0093 03       		.uleb128 0x3
 2334 0094 0E       		.uleb128 0xe
 2335 0095 3A       		.uleb128 0x3a
 2336 0096 0B       		.uleb128 0xb
 2337 0097 3B       		.uleb128 0x3b
 2338 0098 0B       		.uleb128 0xb
 2339 0099 49       		.uleb128 0x49
 2340 009a 13       		.uleb128 0x13
 2341 009b 02       		.uleb128 0x2
 2342 009c 17       		.uleb128 0x17
 2343 009d 00       		.byte	0
 2344 009e 00       		.byte	0
 2345 009f 0D       		.uleb128 0xd
 2346 00a0 898201   		.uleb128 0x4109
 2347 00a3 00       		.byte	0
 2348 00a4 11       		.uleb128 0x11
 2349 00a5 01       		.uleb128 0x1
 2350 00a6 31       		.uleb128 0x31
 2351 00a7 13       		.uleb128 0x13
 2352 00a8 00       		.byte	0
 2353 00a9 00       		.byte	0
 2354 00aa 0E       		.uleb128 0xe
 2355 00ab 898201   		.uleb128 0x4109
 2356 00ae 01       		.byte	0x1
 2357 00af 11       		.uleb128 0x11
 2358 00b0 01       		.uleb128 0x1
 2359 00b1 31       		.uleb128 0x31
 2360 00b2 13       		.uleb128 0x13
 2361 00b3 01       		.uleb128 0x1
 2362 00b4 13       		.uleb128 0x13
 2363 00b5 00       		.byte	0
 2364 00b6 00       		.byte	0
 2365 00b7 0F       		.uleb128 0xf
 2366 00b8 8A8201   		.uleb128 0x410a
 2367 00bb 00       		.byte	0
 2368 00bc 02       		.uleb128 0x2
 2369 00bd 18       		.uleb128 0x18
 2370 00be 9142     		.uleb128 0x2111
 2371 00c0 18       		.uleb128 0x18
 2372 00c1 00       		.byte	0
 2373 00c2 00       		.byte	0
 2374 00c3 10       		.uleb128 0x10
 2375 00c4 898201   		.uleb128 0x4109
 2376 00c7 01       		.byte	0x1
ARM GAS  C:\Users\Robert\AppData\Local\Temp\ccGEgqLk.s 			page 69


 2377 00c8 11       		.uleb128 0x11
 2378 00c9 01       		.uleb128 0x1
 2379 00ca 31       		.uleb128 0x31
 2380 00cb 13       		.uleb128 0x13
 2381 00cc 00       		.byte	0
 2382 00cd 00       		.byte	0
 2383 00ce 11       		.uleb128 0x11
 2384 00cf 2E       		.uleb128 0x2e
 2385 00d0 01       		.byte	0x1
 2386 00d1 3F       		.uleb128 0x3f
 2387 00d2 19       		.uleb128 0x19
 2388 00d3 03       		.uleb128 0x3
 2389 00d4 0E       		.uleb128 0xe
 2390 00d5 3A       		.uleb128 0x3a
 2391 00d6 0B       		.uleb128 0xb
 2392 00d7 3B       		.uleb128 0x3b
 2393 00d8 05       		.uleb128 0x5
 2394 00d9 27       		.uleb128 0x27
 2395 00da 19       		.uleb128 0x19
 2396 00db 11       		.uleb128 0x11
 2397 00dc 01       		.uleb128 0x1
 2398 00dd 12       		.uleb128 0x12
 2399 00de 06       		.uleb128 0x6
 2400 00df 40       		.uleb128 0x40
 2401 00e0 18       		.uleb128 0x18
 2402 00e1 9742     		.uleb128 0x2117
 2403 00e3 19       		.uleb128 0x19
 2404 00e4 01       		.uleb128 0x1
 2405 00e5 13       		.uleb128 0x13
 2406 00e6 00       		.byte	0
 2407 00e7 00       		.byte	0
 2408 00e8 12       		.uleb128 0x12
 2409 00e9 05       		.uleb128 0x5
 2410 00ea 00       		.byte	0
 2411 00eb 03       		.uleb128 0x3
 2412 00ec 0E       		.uleb128 0xe
 2413 00ed 3A       		.uleb128 0x3a
 2414 00ee 0B       		.uleb128 0xb
 2415 00ef 3B       		.uleb128 0x3b
 2416 00f0 05       		.uleb128 0x5
 2417 00f1 49       		.uleb128 0x49
 2418 00f2 13       		.uleb128 0x13
 2419 00f3 02       		.uleb128 0x2
 2420 00f4 17       		.uleb128 0x17
 2421 00f5 00       		.byte	0
 2422 00f6 00       		.byte	0
 2423 00f7 13       		.uleb128 0x13
 2424 00f8 34       		.uleb128 0x34
 2425 00f9 00       		.byte	0
 2426 00fa 03       		.uleb128 0x3
 2427 00fb 08       		.uleb128 0x8
 2428 00fc 3A       		.uleb128 0x3a
 2429 00fd 0B       		.uleb128 0xb
 2430 00fe 3B       		.uleb128 0x3b
 2431 00ff 05       		.uleb128 0x5
 2432 0100 49       		.uleb128 0x49
 2433 0101 13       		.uleb128 0x13
ARM GAS  C:\Users\Robert\AppData\Local\Temp\ccGEgqLk.s 			page 70


 2434 0102 02       		.uleb128 0x2
 2435 0103 17       		.uleb128 0x17
 2436 0104 00       		.byte	0
 2437 0105 00       		.byte	0
 2438 0106 14       		.uleb128 0x14
 2439 0107 05       		.uleb128 0x5
 2440 0108 00       		.byte	0
 2441 0109 03       		.uleb128 0x3
 2442 010a 0E       		.uleb128 0xe
 2443 010b 3A       		.uleb128 0x3a
 2444 010c 0B       		.uleb128 0xb
 2445 010d 3B       		.uleb128 0x3b
 2446 010e 0B       		.uleb128 0xb
 2447 010f 49       		.uleb128 0x49
 2448 0110 13       		.uleb128 0x13
 2449 0111 02       		.uleb128 0x2
 2450 0112 17       		.uleb128 0x17
 2451 0113 00       		.byte	0
 2452 0114 00       		.byte	0
 2453 0115 15       		.uleb128 0x15
 2454 0116 2E       		.uleb128 0x2e
 2455 0117 00       		.byte	0
 2456 0118 3F       		.uleb128 0x3f
 2457 0119 19       		.uleb128 0x19
 2458 011a 03       		.uleb128 0x3
 2459 011b 0E       		.uleb128 0xe
 2460 011c 3A       		.uleb128 0x3a
 2461 011d 0B       		.uleb128 0xb
 2462 011e 3B       		.uleb128 0x3b
 2463 011f 05       		.uleb128 0x5
 2464 0120 27       		.uleb128 0x27
 2465 0121 19       		.uleb128 0x19
 2466 0122 11       		.uleb128 0x11
 2467 0123 01       		.uleb128 0x1
 2468 0124 12       		.uleb128 0x12
 2469 0125 06       		.uleb128 0x6
 2470 0126 40       		.uleb128 0x40
 2471 0127 18       		.uleb128 0x18
 2472 0128 9742     		.uleb128 0x2117
 2473 012a 19       		.uleb128 0x19
 2474 012b 00       		.byte	0
 2475 012c 00       		.byte	0
 2476 012d 16       		.uleb128 0x16
 2477 012e 2E       		.uleb128 0x2e
 2478 012f 01       		.byte	0x1
 2479 0130 3F       		.uleb128 0x3f
 2480 0131 19       		.uleb128 0x19
 2481 0132 03       		.uleb128 0x3
 2482 0133 0E       		.uleb128 0xe
 2483 0134 3A       		.uleb128 0x3a
 2484 0135 0B       		.uleb128 0xb
 2485 0136 3B       		.uleb128 0x3b
 2486 0137 05       		.uleb128 0x5
 2487 0138 27       		.uleb128 0x27
 2488 0139 19       		.uleb128 0x19
 2489 013a 49       		.uleb128 0x49
 2490 013b 13       		.uleb128 0x13
ARM GAS  C:\Users\Robert\AppData\Local\Temp\ccGEgqLk.s 			page 71


 2491 013c 11       		.uleb128 0x11
 2492 013d 01       		.uleb128 0x1
 2493 013e 12       		.uleb128 0x12
 2494 013f 06       		.uleb128 0x6
 2495 0140 40       		.uleb128 0x40
 2496 0141 18       		.uleb128 0x18
 2497 0142 9742     		.uleb128 0x2117
 2498 0144 19       		.uleb128 0x19
 2499 0145 01       		.uleb128 0x1
 2500 0146 13       		.uleb128 0x13
 2501 0147 00       		.byte	0
 2502 0148 00       		.byte	0
 2503 0149 17       		.uleb128 0x17
 2504 014a 2E       		.uleb128 0x2e
 2505 014b 00       		.byte	0
 2506 014c 3F       		.uleb128 0x3f
 2507 014d 19       		.uleb128 0x19
 2508 014e 03       		.uleb128 0x3
 2509 014f 0E       		.uleb128 0xe
 2510 0150 3A       		.uleb128 0x3a
 2511 0151 0B       		.uleb128 0xb
 2512 0152 3B       		.uleb128 0x3b
 2513 0153 05       		.uleb128 0x5
 2514 0154 27       		.uleb128 0x27
 2515 0155 19       		.uleb128 0x19
 2516 0156 49       		.uleb128 0x49
 2517 0157 13       		.uleb128 0x13
 2518 0158 11       		.uleb128 0x11
 2519 0159 01       		.uleb128 0x1
 2520 015a 12       		.uleb128 0x12
 2521 015b 06       		.uleb128 0x6
 2522 015c 40       		.uleb128 0x40
 2523 015d 18       		.uleb128 0x18
 2524 015e 9742     		.uleb128 0x2117
 2525 0160 19       		.uleb128 0x19
 2526 0161 00       		.byte	0
 2527 0162 00       		.byte	0
 2528 0163 18       		.uleb128 0x18
 2529 0164 34       		.uleb128 0x34
 2530 0165 00       		.byte	0
 2531 0166 03       		.uleb128 0x3
 2532 0167 0E       		.uleb128 0xe
 2533 0168 3A       		.uleb128 0x3a
 2534 0169 0B       		.uleb128 0xb
 2535 016a 3B       		.uleb128 0x3b
 2536 016b 05       		.uleb128 0x5
 2537 016c 49       		.uleb128 0x49
 2538 016d 13       		.uleb128 0x13
 2539 016e 02       		.uleb128 0x2
 2540 016f 17       		.uleb128 0x17
 2541 0170 00       		.byte	0
 2542 0171 00       		.byte	0
 2543 0172 19       		.uleb128 0x19
 2544 0173 05       		.uleb128 0x5
 2545 0174 00       		.byte	0
 2546 0175 03       		.uleb128 0x3
 2547 0176 0E       		.uleb128 0xe
ARM GAS  C:\Users\Robert\AppData\Local\Temp\ccGEgqLk.s 			page 72


 2548 0177 3A       		.uleb128 0x3a
 2549 0178 0B       		.uleb128 0xb
 2550 0179 3B       		.uleb128 0x3b
 2551 017a 05       		.uleb128 0x5
 2552 017b 49       		.uleb128 0x49
 2553 017c 13       		.uleb128 0x13
 2554 017d 02       		.uleb128 0x2
 2555 017e 18       		.uleb128 0x18
 2556 017f 00       		.byte	0
 2557 0180 00       		.byte	0
 2558 0181 1A       		.uleb128 0x1a
 2559 0182 34       		.uleb128 0x34
 2560 0183 00       		.byte	0
 2561 0184 03       		.uleb128 0x3
 2562 0185 08       		.uleb128 0x8
 2563 0186 3A       		.uleb128 0x3a
 2564 0187 0B       		.uleb128 0xb
 2565 0188 3B       		.uleb128 0x3b
 2566 0189 05       		.uleb128 0x5
 2567 018a 49       		.uleb128 0x49
 2568 018b 13       		.uleb128 0x13
 2569 018c 00       		.byte	0
 2570 018d 00       		.byte	0
 2571 018e 1B       		.uleb128 0x1b
 2572 018f 26       		.uleb128 0x26
 2573 0190 00       		.byte	0
 2574 0191 49       		.uleb128 0x49
 2575 0192 13       		.uleb128 0x13
 2576 0193 00       		.byte	0
 2577 0194 00       		.byte	0
 2578 0195 1C       		.uleb128 0x1c
 2579 0196 34       		.uleb128 0x34
 2580 0197 00       		.byte	0
 2581 0198 03       		.uleb128 0x3
 2582 0199 0E       		.uleb128 0xe
 2583 019a 3A       		.uleb128 0x3a
 2584 019b 0B       		.uleb128 0xb
 2585 019c 3B       		.uleb128 0x3b
 2586 019d 0B       		.uleb128 0xb
 2587 019e 49       		.uleb128 0x49
 2588 019f 13       		.uleb128 0x13
 2589 01a0 3F       		.uleb128 0x3f
 2590 01a1 19       		.uleb128 0x19
 2591 01a2 02       		.uleb128 0x2
 2592 01a3 18       		.uleb128 0x18
 2593 01a4 00       		.byte	0
 2594 01a5 00       		.byte	0
 2595 01a6 1D       		.uleb128 0x1d
 2596 01a7 34       		.uleb128 0x34
 2597 01a8 00       		.byte	0
 2598 01a9 03       		.uleb128 0x3
 2599 01aa 0E       		.uleb128 0xe
 2600 01ab 3A       		.uleb128 0x3a
 2601 01ac 0B       		.uleb128 0xb
 2602 01ad 3B       		.uleb128 0x3b
 2603 01ae 05       		.uleb128 0x5
 2604 01af 49       		.uleb128 0x49
ARM GAS  C:\Users\Robert\AppData\Local\Temp\ccGEgqLk.s 			page 73


 2605 01b0 13       		.uleb128 0x13
 2606 01b1 3F       		.uleb128 0x3f
 2607 01b2 19       		.uleb128 0x19
 2608 01b3 3C       		.uleb128 0x3c
 2609 01b4 19       		.uleb128 0x19
 2610 01b5 00       		.byte	0
 2611 01b6 00       		.byte	0
 2612 01b7 1E       		.uleb128 0x1e
 2613 01b8 01       		.uleb128 0x1
 2614 01b9 01       		.byte	0x1
 2615 01ba 49       		.uleb128 0x49
 2616 01bb 13       		.uleb128 0x13
 2617 01bc 01       		.uleb128 0x1
 2618 01bd 13       		.uleb128 0x13
 2619 01be 00       		.byte	0
 2620 01bf 00       		.byte	0
 2621 01c0 1F       		.uleb128 0x1f
 2622 01c1 21       		.uleb128 0x21
 2623 01c2 00       		.byte	0
 2624 01c3 49       		.uleb128 0x49
 2625 01c4 13       		.uleb128 0x13
 2626 01c5 2F       		.uleb128 0x2f
 2627 01c6 0B       		.uleb128 0xb
 2628 01c7 00       		.byte	0
 2629 01c8 00       		.byte	0
 2630 01c9 20       		.uleb128 0x20
 2631 01ca 34       		.uleb128 0x34
 2632 01cb 00       		.byte	0
 2633 01cc 03       		.uleb128 0x3
 2634 01cd 0E       		.uleb128 0xe
 2635 01ce 3A       		.uleb128 0x3a
 2636 01cf 0B       		.uleb128 0xb
 2637 01d0 3B       		.uleb128 0x3b
 2638 01d1 0B       		.uleb128 0xb
 2639 01d2 49       		.uleb128 0x49
 2640 01d3 13       		.uleb128 0x13
 2641 01d4 3F       		.uleb128 0x3f
 2642 01d5 19       		.uleb128 0x19
 2643 01d6 3C       		.uleb128 0x3c
 2644 01d7 19       		.uleb128 0x19
 2645 01d8 00       		.byte	0
 2646 01d9 00       		.byte	0
 2647 01da 21       		.uleb128 0x21
 2648 01db 2E       		.uleb128 0x2e
 2649 01dc 00       		.byte	0
 2650 01dd 3F       		.uleb128 0x3f
 2651 01de 19       		.uleb128 0x19
 2652 01df 03       		.uleb128 0x3
 2653 01e0 0E       		.uleb128 0xe
 2654 01e1 3A       		.uleb128 0x3a
 2655 01e2 0B       		.uleb128 0xb
 2656 01e3 3B       		.uleb128 0x3b
 2657 01e4 0B       		.uleb128 0xb
 2658 01e5 27       		.uleb128 0x27
 2659 01e6 19       		.uleb128 0x19
 2660 01e7 49       		.uleb128 0x49
 2661 01e8 13       		.uleb128 0x13
ARM GAS  C:\Users\Robert\AppData\Local\Temp\ccGEgqLk.s 			page 74


 2662 01e9 3C       		.uleb128 0x3c
 2663 01ea 19       		.uleb128 0x19
 2664 01eb 00       		.byte	0
 2665 01ec 00       		.byte	0
 2666 01ed 22       		.uleb128 0x22
 2667 01ee 2E       		.uleb128 0x2e
 2668 01ef 01       		.byte	0x1
 2669 01f0 3F       		.uleb128 0x3f
 2670 01f1 19       		.uleb128 0x19
 2671 01f2 03       		.uleb128 0x3
 2672 01f3 0E       		.uleb128 0xe
 2673 01f4 3A       		.uleb128 0x3a
 2674 01f5 0B       		.uleb128 0xb
 2675 01f6 3B       		.uleb128 0x3b
 2676 01f7 0B       		.uleb128 0xb
 2677 01f8 27       		.uleb128 0x27
 2678 01f9 19       		.uleb128 0x19
 2679 01fa 3C       		.uleb128 0x3c
 2680 01fb 19       		.uleb128 0x19
 2681 01fc 01       		.uleb128 0x1
 2682 01fd 13       		.uleb128 0x13
 2683 01fe 00       		.byte	0
 2684 01ff 00       		.byte	0
 2685 0200 23       		.uleb128 0x23
 2686 0201 05       		.uleb128 0x5
 2687 0202 00       		.byte	0
 2688 0203 49       		.uleb128 0x49
 2689 0204 13       		.uleb128 0x13
 2690 0205 00       		.byte	0
 2691 0206 00       		.byte	0
 2692 0207 24       		.uleb128 0x24
 2693 0208 2E       		.uleb128 0x2e
 2694 0209 01       		.byte	0x1
 2695 020a 3F       		.uleb128 0x3f
 2696 020b 19       		.uleb128 0x19
 2697 020c 03       		.uleb128 0x3
 2698 020d 0E       		.uleb128 0xe
 2699 020e 3A       		.uleb128 0x3a
 2700 020f 0B       		.uleb128 0xb
 2701 0210 3B       		.uleb128 0x3b
 2702 0211 0B       		.uleb128 0xb
 2703 0212 27       		.uleb128 0x27
 2704 0213 19       		.uleb128 0x19
 2705 0214 49       		.uleb128 0x49
 2706 0215 13       		.uleb128 0x13
 2707 0216 3C       		.uleb128 0x3c
 2708 0217 19       		.uleb128 0x19
 2709 0218 01       		.uleb128 0x1
 2710 0219 13       		.uleb128 0x13
 2711 021a 00       		.byte	0
 2712 021b 00       		.byte	0
 2713 021c 25       		.uleb128 0x25
 2714 021d 2E       		.uleb128 0x2e
 2715 021e 01       		.byte	0x1
 2716 021f 3F       		.uleb128 0x3f
 2717 0220 19       		.uleb128 0x19
 2718 0221 03       		.uleb128 0x3
ARM GAS  C:\Users\Robert\AppData\Local\Temp\ccGEgqLk.s 			page 75


 2719 0222 0E       		.uleb128 0xe
 2720 0223 3A       		.uleb128 0x3a
 2721 0224 0B       		.uleb128 0xb
 2722 0225 3B       		.uleb128 0x3b
 2723 0226 0B       		.uleb128 0xb
 2724 0227 27       		.uleb128 0x27
 2725 0228 19       		.uleb128 0x19
 2726 0229 3C       		.uleb128 0x3c
 2727 022a 19       		.uleb128 0x19
 2728 022b 00       		.byte	0
 2729 022c 00       		.byte	0
 2730 022d 00       		.byte	0
 2731              		.section	.debug_loc,"",%progbits
 2732              	.Ldebug_loc0:
 2733              	.LLST0:
 2734 0000 08000000 		.4byte	.LVL1
 2735 0004 EA000000 		.4byte	.LVL17
 2736 0008 0100     		.2byte	0x1
 2737 000a 56       		.byte	0x56
 2738 000b 00000000 		.4byte	0
 2739 000f 00000000 		.4byte	0
 2740              	.LLST1:
 2741 0013 00000000 		.4byte	.LVL18
 2742 0017 7A000000 		.4byte	.LVL24
 2743 001b 0100     		.2byte	0x1
 2744 001d 50       		.byte	0x50
 2745 001e 7A000000 		.4byte	.LVL24
 2746 0022 BC000000 		.4byte	.LFE2
 2747 0026 0400     		.2byte	0x4
 2748 0028 F3       		.byte	0xf3
 2749 0029 01       		.uleb128 0x1
 2750 002a 50       		.byte	0x50
 2751 002b 9F       		.byte	0x9f
 2752 002c 00000000 		.4byte	0
 2753 0030 00000000 		.4byte	0
 2754              	.LLST2:
 2755 0034 00000000 		.4byte	.LVL18
 2756 0038 7D000000 		.4byte	.LVL25-1
 2757 003c 0100     		.2byte	0x1
 2758 003e 51       		.byte	0x51
 2759 003f 7D000000 		.4byte	.LVL25-1
 2760 0043 BC000000 		.4byte	.LFE2
 2761 0047 0400     		.2byte	0x4
 2762 0049 F3       		.byte	0xf3
 2763 004a 01       		.uleb128 0x1
 2764 004b 51       		.byte	0x51
 2765 004c 9F       		.byte	0x9f
 2766 004d 00000000 		.4byte	0
 2767 0051 00000000 		.4byte	0
 2768              	.LLST3:
 2769 0055 02000000 		.4byte	.LVL19
 2770 0059 06000000 		.4byte	.LVL20
 2771 005d 0200     		.2byte	0x2
 2772 005f 30       		.byte	0x30
 2773 0060 9F       		.byte	0x9f
 2774 0061 06000000 		.4byte	.LVL20
 2775 0065 0E000000 		.4byte	.LVL21
ARM GAS  C:\Users\Robert\AppData\Local\Temp\ccGEgqLk.s 			page 76


 2776 0069 0100     		.2byte	0x1
 2777 006b 53       		.byte	0x53
 2778 006c 10000000 		.4byte	.LVL22
 2779 0070 16000000 		.4byte	.LVL23
 2780 0074 0100     		.2byte	0x1
 2781 0076 53       		.byte	0x53
 2782 0077 00000000 		.4byte	0
 2783 007b 00000000 		.4byte	0
 2784              	.LLST4:
 2785 007f 00000000 		.4byte	.LVL26
 2786 0083 0F000000 		.4byte	.LVL27-1
 2787 0087 0100     		.2byte	0x1
 2788 0089 50       		.byte	0x50
 2789 008a 0F000000 		.4byte	.LVL27-1
 2790 008e 24000000 		.4byte	.LFE0
 2791 0092 0400     		.2byte	0x4
 2792 0094 F3       		.byte	0xf3
 2793 0095 01       		.uleb128 0x1
 2794 0096 50       		.byte	0x50
 2795 0097 9F       		.byte	0x9f
 2796 0098 00000000 		.4byte	0
 2797 009c 00000000 		.4byte	0
 2798              	.LLST5:
 2799 00a0 00000000 		.4byte	.LVL26
 2800 00a4 0F000000 		.4byte	.LVL27-1
 2801 00a8 0100     		.2byte	0x1
 2802 00aa 51       		.byte	0x51
 2803 00ab 0F000000 		.4byte	.LVL27-1
 2804 00af 24000000 		.4byte	.LFE0
 2805 00b3 0400     		.2byte	0x4
 2806 00b5 F3       		.byte	0xf3
 2807 00b6 01       		.uleb128 0x1
 2808 00b7 51       		.byte	0x51
 2809 00b8 9F       		.byte	0x9f
 2810 00b9 00000000 		.4byte	0
 2811 00bd 00000000 		.4byte	0
 2812              	.LLST6:
 2813 00c1 00000000 		.4byte	.LVL29
 2814 00c5 04000000 		.4byte	.LVL30
 2815 00c9 0200     		.2byte	0x2
 2816 00cb 30       		.byte	0x30
 2817 00cc 9F       		.byte	0x9f
 2818 00cd 04000000 		.4byte	.LVL30
 2819 00d1 0C000000 		.4byte	.LVL31
 2820 00d5 0100     		.2byte	0x1
 2821 00d7 53       		.byte	0x53
 2822 00d8 0E000000 		.4byte	.LVL32
 2823 00dc 14000000 		.4byte	.LVL33
 2824 00e0 0100     		.2byte	0x1
 2825 00e2 53       		.byte	0x53
 2826 00e3 00000000 		.4byte	0
 2827 00e7 00000000 		.4byte	0
 2828              	.LLST7:
 2829 00eb 06000000 		.4byte	.LVL34
 2830 00ef 10000000 		.4byte	.LVL35
 2831 00f3 0100     		.2byte	0x1
 2832 00f5 50       		.byte	0x50
ARM GAS  C:\Users\Robert\AppData\Local\Temp\ccGEgqLk.s 			page 77


 2833 00f6 00000000 		.4byte	0
 2834 00fa 00000000 		.4byte	0
 2835              	.LLST8:
 2836 00fe 00000000 		.4byte	.LVL36
 2837 0102 10000000 		.4byte	.LVL37
 2838 0106 0200     		.2byte	0x2
 2839 0108 30       		.byte	0x30
 2840 0109 9F       		.byte	0x9f
 2841 010a 10000000 		.4byte	.LVL37
 2842 010e 16000000 		.4byte	.LVL38
 2843 0112 0100     		.2byte	0x1
 2844 0114 50       		.byte	0x50
 2845 0115 16000000 		.4byte	.LVL38
 2846 0119 18000000 		.4byte	.LVL39
 2847 011d 0200     		.2byte	0x2
 2848 011f 30       		.byte	0x30
 2849 0120 9F       		.byte	0x9f
 2850 0121 18000000 		.4byte	.LVL39
 2851 0125 20000000 		.4byte	.LFE7
 2852 0129 0100     		.2byte	0x1
 2853 012b 50       		.byte	0x50
 2854 012c 00000000 		.4byte	0
 2855 0130 00000000 		.4byte	0
 2856              	.LLST9:
 2857 0134 00000000 		.4byte	.LVL40
 2858 0138 04000000 		.4byte	.LVL41
 2859 013c 0100     		.2byte	0x1
 2860 013e 50       		.byte	0x50
 2861 013f 04000000 		.4byte	.LVL41
 2862 0143 0C000000 		.4byte	.LFE8
 2863 0147 0400     		.2byte	0x4
 2864 0149 F3       		.byte	0xf3
 2865 014a 01       		.uleb128 0x1
 2866 014b 50       		.byte	0x50
 2867 014c 9F       		.byte	0x9f
 2868 014d 00000000 		.4byte	0
 2869 0151 00000000 		.4byte	0
 2870              	.LLST10:
 2871 0155 00000000 		.4byte	.LVL42
 2872 0159 04000000 		.4byte	.LVL43
 2873 015d 0100     		.2byte	0x1
 2874 015f 50       		.byte	0x50
 2875 0160 04000000 		.4byte	.LVL43
 2876 0164 14000000 		.4byte	.LFE9
 2877 0168 0400     		.2byte	0x4
 2878 016a F3       		.byte	0xf3
 2879 016b 01       		.uleb128 0x1
 2880 016c 50       		.byte	0x50
 2881 016d 9F       		.byte	0x9f
 2882 016e 00000000 		.4byte	0
 2883 0172 00000000 		.4byte	0
 2884              	.LLST11:
 2885 0176 00000000 		.4byte	.LVL44
 2886 017a 02000000 		.4byte	.LVL45
 2887 017e 0100     		.2byte	0x1
 2888 0180 50       		.byte	0x50
 2889 0181 02000000 		.4byte	.LVL45
ARM GAS  C:\Users\Robert\AppData\Local\Temp\ccGEgqLk.s 			page 78


 2890 0185 2C000000 		.4byte	.LFE10
 2891 0189 0400     		.2byte	0x4
 2892 018b F3       		.byte	0xf3
 2893 018c 01       		.uleb128 0x1
 2894 018d 50       		.byte	0x50
 2895 018e 9F       		.byte	0x9f
 2896 018f 00000000 		.4byte	0
 2897 0193 00000000 		.4byte	0
 2898              	.LLST12:
 2899 0197 0C000000 		.4byte	.LVL46
 2900 019b 1C000000 		.4byte	.LVL48
 2901 019f 0100     		.2byte	0x1
 2902 01a1 50       		.byte	0x50
 2903 01a2 00000000 		.4byte	0
 2904 01a6 00000000 		.4byte	0
 2905              	.LLST13:
 2906 01aa 00000000 		.4byte	.LVL44
 2907 01ae 14000000 		.4byte	.LVL47
 2908 01b2 0200     		.2byte	0x2
 2909 01b4 30       		.byte	0x30
 2910 01b5 9F       		.byte	0x9f
 2911 01b6 14000000 		.4byte	.LVL47
 2912 01ba 1C000000 		.4byte	.LVL48
 2913 01be 0600     		.2byte	0x6
 2914 01c0 72       		.byte	0x72
 2915 01c1 00       		.sleb128 0
 2916 01c2 08       		.byte	0x8
 2917 01c3 FF       		.byte	0xff
 2918 01c4 1A       		.byte	0x1a
 2919 01c5 9F       		.byte	0x9f
 2920 01c6 1C000000 		.4byte	.LVL48
 2921 01ca 1E000000 		.4byte	.LVL49
 2922 01ce 0100     		.2byte	0x1
 2923 01d0 50       		.byte	0x50
 2924 01d1 1E000000 		.4byte	.LVL49
 2925 01d5 20000000 		.4byte	.LVL50
 2926 01d9 0300     		.2byte	0x3
 2927 01db 70       		.byte	0x70
 2928 01dc 02       		.sleb128 2
 2929 01dd 9F       		.byte	0x9f
 2930 01de 20000000 		.4byte	.LVL50
 2931 01e2 22000000 		.4byte	.LVL51
 2932 01e6 0100     		.2byte	0x1
 2933 01e8 50       		.byte	0x50
 2934 01e9 22000000 		.4byte	.LVL51
 2935 01ed 24000000 		.4byte	.LVL52
 2936 01f1 0200     		.2byte	0x2
 2937 01f3 30       		.byte	0x30
 2938 01f4 9F       		.byte	0x9f
 2939 01f5 24000000 		.4byte	.LVL52
 2940 01f9 2C000000 		.4byte	.LFE10
 2941 01fd 0100     		.2byte	0x1
 2942 01ff 50       		.byte	0x50
 2943 0200 00000000 		.4byte	0
 2944 0204 00000000 		.4byte	0
 2945              	.LLST14:
 2946 0208 00000000 		.4byte	.LVL53
ARM GAS  C:\Users\Robert\AppData\Local\Temp\ccGEgqLk.s 			page 79


 2947 020c 6A000000 		.4byte	.LVL64
 2948 0210 0100     		.2byte	0x1
 2949 0212 51       		.byte	0x51
 2950 0213 6A000000 		.4byte	.LVL64
 2951 0217 90000000 		.4byte	.LFE11
 2952 021b 0400     		.2byte	0x4
 2953 021d F3       		.byte	0xf3
 2954 021e 01       		.uleb128 0x1
 2955 021f 51       		.byte	0x51
 2956 0220 9F       		.byte	0x9f
 2957 0221 00000000 		.4byte	0
 2958 0225 00000000 		.4byte	0
 2959              	.LLST15:
 2960 0229 00000000 		.4byte	.LVL53
 2961 022d 32000000 		.4byte	.LVL55
 2962 0231 0100     		.2byte	0x1
 2963 0233 52       		.byte	0x52
 2964 0234 32000000 		.4byte	.LVL55
 2965 0238 38000000 		.4byte	.LVL56
 2966 023c 0400     		.2byte	0x4
 2967 023e F3       		.byte	0xf3
 2968 023f 01       		.uleb128 0x1
 2969 0240 52       		.byte	0x52
 2970 0241 9F       		.byte	0x9f
 2971 0242 38000000 		.4byte	.LVL56
 2972 0246 68000000 		.4byte	.LVL63
 2973 024a 0100     		.2byte	0x1
 2974 024c 52       		.byte	0x52
 2975 024d 00000000 		.4byte	0
 2976 0251 00000000 		.4byte	0
 2977              	.LLST16:
 2978 0255 12000000 		.4byte	.LVL54
 2979 0259 7C000000 		.4byte	.LVL65
 2980 025d 0100     		.2byte	0x1
 2981 025f 56       		.byte	0x56
 2982 0260 00000000 		.4byte	0
 2983 0264 00000000 		.4byte	0
 2984              	.LLST17:
 2985 0268 56000000 		.4byte	.LVL57
 2986 026c 5C000000 		.4byte	.LVL58
 2987 0270 0100     		.2byte	0x1
 2988 0272 53       		.byte	0x53
 2989 0273 5E000000 		.4byte	.LVL59
 2990 0277 60000000 		.4byte	.LVL60
 2991 027b 0100     		.2byte	0x1
 2992 027d 53       		.byte	0x53
 2993 027e 62000000 		.4byte	.LVL61
 2994 0282 66000000 		.4byte	.LVL62
 2995 0286 0100     		.2byte	0x1
 2996 0288 53       		.byte	0x53
 2997 0289 00000000 		.4byte	0
 2998 028d 00000000 		.4byte	0
 2999              	.LLST18:
 3000 0291 0E000000 		.4byte	.LVL67
 3001 0295 26000000 		.4byte	.LVL68
 3002 0299 0100     		.2byte	0x1
 3003 029b 53       		.byte	0x53
ARM GAS  C:\Users\Robert\AppData\Local\Temp\ccGEgqLk.s 			page 80


 3004 029c 00000000 		.4byte	0
 3005 02a0 00000000 		.4byte	0
 3006              	.LLST19:
 3007 02a4 00000000 		.4byte	.LVL69
 3008 02a8 1F000000 		.4byte	.LVL72-1
 3009 02ac 0100     		.2byte	0x1
 3010 02ae 50       		.byte	0x50
 3011 02af 1F000000 		.4byte	.LVL72-1
 3012 02b3 40000000 		.4byte	.LVL80
 3013 02b7 0400     		.2byte	0x4
 3014 02b9 F3       		.byte	0xf3
 3015 02ba 01       		.uleb128 0x1
 3016 02bb 50       		.byte	0x50
 3017 02bc 9F       		.byte	0x9f
 3018 02bd 40000000 		.4byte	.LVL80
 3019 02c1 46000000 		.4byte	.LVL81
 3020 02c5 0100     		.2byte	0x1
 3021 02c7 50       		.byte	0x50
 3022 02c8 46000000 		.4byte	.LVL81
 3023 02cc 50000000 		.4byte	.LFE12
 3024 02d0 0400     		.2byte	0x4
 3025 02d2 F3       		.byte	0xf3
 3026 02d3 01       		.uleb128 0x1
 3027 02d4 50       		.byte	0x50
 3028 02d5 9F       		.byte	0x9f
 3029 02d6 00000000 		.4byte	0
 3030 02da 00000000 		.4byte	0
 3031              	.LLST20:
 3032 02de 00000000 		.4byte	.LVL69
 3033 02e2 1F000000 		.4byte	.LVL72-1
 3034 02e6 0100     		.2byte	0x1
 3035 02e8 51       		.byte	0x51
 3036 02e9 1F000000 		.4byte	.LVL72-1
 3037 02ed 40000000 		.4byte	.LVL80
 3038 02f1 0100     		.2byte	0x1
 3039 02f3 55       		.byte	0x55
 3040 02f4 40000000 		.4byte	.LVL80
 3041 02f8 46000000 		.4byte	.LVL81
 3042 02fc 0100     		.2byte	0x1
 3043 02fe 51       		.byte	0x51
 3044 02ff 46000000 		.4byte	.LVL81
 3045 0303 50000000 		.4byte	.LFE12
 3046 0307 0400     		.2byte	0x4
 3047 0309 F3       		.byte	0xf3
 3048 030a 01       		.uleb128 0x1
 3049 030b 51       		.byte	0x51
 3050 030c 9F       		.byte	0x9f
 3051 030d 00000000 		.4byte	0
 3052 0311 00000000 		.4byte	0
 3053              	.LLST21:
 3054 0315 00000000 		.4byte	.LVL69
 3055 0319 1F000000 		.4byte	.LVL72-1
 3056 031d 0100     		.2byte	0x1
 3057 031f 52       		.byte	0x52
 3058 0320 1F000000 		.4byte	.LVL72-1
 3059 0324 28000000 		.4byte	.LVL74
 3060 0328 0400     		.2byte	0x4
ARM GAS  C:\Users\Robert\AppData\Local\Temp\ccGEgqLk.s 			page 81


 3061 032a F3       		.byte	0xf3
 3062 032b 01       		.uleb128 0x1
 3063 032c 52       		.byte	0x52
 3064 032d 9F       		.byte	0x9f
 3065 032e 28000000 		.4byte	.LVL74
 3066 0332 40000000 		.4byte	.LVL80
 3067 0336 0100     		.2byte	0x1
 3068 0338 54       		.byte	0x54
 3069 0339 40000000 		.4byte	.LVL80
 3070 033d 46000000 		.4byte	.LVL81
 3071 0341 0100     		.2byte	0x1
 3072 0343 52       		.byte	0x52
 3073 0344 46000000 		.4byte	.LVL81
 3074 0348 4C000000 		.4byte	.LVL82
 3075 034c 0100     		.2byte	0x1
 3076 034e 54       		.byte	0x54
 3077 034f 00000000 		.4byte	0
 3078 0353 00000000 		.4byte	0
 3079              	.LLST22:
 3080 0357 18000000 		.4byte	.LVL70
 3081 035b 1F000000 		.4byte	.LVL72-1
 3082 035f 0100     		.2byte	0x1
 3083 0361 53       		.byte	0x53
 3084 0362 1F000000 		.4byte	.LVL72-1
 3085 0366 40000000 		.4byte	.LVL80
 3086 036a 0500     		.2byte	0x5
 3087 036c 76       		.byte	0x76
 3088 036d 7F       		.sleb128 -1
 3089 036e 34       		.byte	0x34
 3090 036f 24       		.byte	0x24
 3091 0370 9F       		.byte	0x9f
 3092 0371 00000000 		.4byte	0
 3093 0375 00000000 		.4byte	0
 3094              	.LLST23:
 3095 0379 1C000000 		.4byte	.LVL71
 3096 037d 40000000 		.4byte	.LVL80
 3097 0381 0100     		.2byte	0x1
 3098 0383 57       		.byte	0x57
 3099 0384 00000000 		.4byte	0
 3100 0388 00000000 		.4byte	0
 3101              	.LLST24:
 3102 038c 28000000 		.4byte	.LVL74
 3103 0390 2C000000 		.4byte	.LVL75
 3104 0394 0200     		.2byte	0x2
 3105 0396 30       		.byte	0x30
 3106 0397 9F       		.byte	0x9f
 3107 0398 2C000000 		.4byte	.LVL75
 3108 039c 32000000 		.4byte	.LVL76
 3109 03a0 0100     		.2byte	0x1
 3110 03a2 53       		.byte	0x53
 3111 03a3 34000000 		.4byte	.LVL77
 3112 03a7 3D000000 		.4byte	.LVL79-1
 3113 03ab 0100     		.2byte	0x1
 3114 03ad 53       		.byte	0x53
 3115 03ae 00000000 		.4byte	0
 3116 03b2 00000000 		.4byte	0
 3117              	.LLST25:
ARM GAS  C:\Users\Robert\AppData\Local\Temp\ccGEgqLk.s 			page 82


 3118 03b6 22000000 		.4byte	.LVL73
 3119 03ba 3A000000 		.4byte	.LVL78
 3120 03be 0100     		.2byte	0x1
 3121 03c0 50       		.byte	0x50
 3122 03c1 00000000 		.4byte	0
 3123 03c5 00000000 		.4byte	0
 3124              	.LLST26:
 3125 03c9 00000000 		.4byte	.LVL83
 3126 03cd 02000000 		.4byte	.LVL84
 3127 03d1 0100     		.2byte	0x1
 3128 03d3 50       		.byte	0x50
 3129 03d4 02000000 		.4byte	.LVL84
 3130 03d8 18000000 		.4byte	.LFE14
 3131 03dc 0400     		.2byte	0x4
 3132 03de F3       		.byte	0xf3
 3133 03df 01       		.uleb128 0x1
 3134 03e0 50       		.byte	0x50
 3135 03e1 9F       		.byte	0x9f
 3136 03e2 00000000 		.4byte	0
 3137 03e6 00000000 		.4byte	0
 3138              	.LLST27:
 3139 03ea 0C000000 		.4byte	.LVL85
 3140 03ee 12000000 		.4byte	.LVL86
 3141 03f2 0100     		.2byte	0x1
 3142 03f4 50       		.byte	0x50
 3143 03f5 00000000 		.4byte	0
 3144 03f9 00000000 		.4byte	0
 3145              	.LLST28:
 3146 03fd 00000000 		.4byte	.LVL88
 3147 0401 02000000 		.4byte	.LVL89
 3148 0405 0100     		.2byte	0x1
 3149 0407 50       		.byte	0x50
 3150 0408 02000000 		.4byte	.LVL89
 3151 040c 20000000 		.4byte	.LFE16
 3152 0410 0400     		.2byte	0x4
 3153 0412 F3       		.byte	0xf3
 3154 0413 01       		.uleb128 0x1
 3155 0414 50       		.byte	0x50
 3156 0415 9F       		.byte	0x9f
 3157 0416 00000000 		.4byte	0
 3158 041a 00000000 		.4byte	0
 3159              	.LLST29:
 3160 041e 0C000000 		.4byte	.LVL90
 3161 0422 10000000 		.4byte	.LVL91
 3162 0426 0100     		.2byte	0x1
 3163 0428 50       		.byte	0x50
 3164 0429 00000000 		.4byte	0
 3165 042d 00000000 		.4byte	0
 3166              	.LLST30:
 3167 0431 00000000 		.4byte	.LVL88
 3168 0435 16000000 		.4byte	.LVL92
 3169 0439 0200     		.2byte	0x2
 3170 043b 30       		.byte	0x30
 3171 043c 9F       		.byte	0x9f
 3172 043d 16000000 		.4byte	.LVL92
 3173 0441 18000000 		.4byte	.LVL93
 3174 0445 0100     		.2byte	0x1
ARM GAS  C:\Users\Robert\AppData\Local\Temp\ccGEgqLk.s 			page 83


 3175 0447 50       		.byte	0x50
 3176 0448 18000000 		.4byte	.LVL93
 3177 044c 1A000000 		.4byte	.LVL94
 3178 0450 0200     		.2byte	0x2
 3179 0452 30       		.byte	0x30
 3180 0453 9F       		.byte	0x9f
 3181 0454 1A000000 		.4byte	.LVL94
 3182 0458 20000000 		.4byte	.LFE16
 3183 045c 0100     		.2byte	0x1
 3184 045e 50       		.byte	0x50
 3185 045f 00000000 		.4byte	0
 3186 0463 00000000 		.4byte	0
 3187              	.LLST31:
 3188 0467 00000000 		.4byte	.LVL96
 3189 046b 10000000 		.4byte	.LVL97
 3190 046f 0200     		.2byte	0x2
 3191 0471 30       		.byte	0x30
 3192 0472 9F       		.byte	0x9f
 3193 0473 10000000 		.4byte	.LVL97
 3194 0477 18000000 		.4byte	.LFE18
 3195 047b 0100     		.2byte	0x1
 3196 047d 50       		.byte	0x50
 3197 047e 00000000 		.4byte	0
 3198 0482 00000000 		.4byte	0
 3199              		.section	.debug_aranges,"",%progbits
 3200 0000 AC000000 		.4byte	0xac
 3201 0004 0200     		.2byte	0x2
 3202 0006 00000000 		.4byte	.Ldebug_info0
 3203 000a 04       		.byte	0x4
 3204 000b 00       		.byte	0
 3205 000c 0000     		.2byte	0
 3206 000e 0000     		.2byte	0
 3207 0010 00000000 		.4byte	.LFB1
 3208 0014 18010000 		.4byte	.LFE1-.LFB1
 3209 0018 00000000 		.4byte	.LFB2
 3210 001c BC000000 		.4byte	.LFE2-.LFB2
 3211 0020 00000000 		.4byte	.LFB0
 3212 0024 24000000 		.4byte	.LFE0-.LFB0
 3213 0028 00000000 		.4byte	.LFB3
 3214 002c 64000000 		.4byte	.LFE3-.LFB3
 3215 0030 00000000 		.4byte	.LFB4
 3216 0034 80000000 		.4byte	.LFE4-.LFB4
 3217 0038 00000000 		.4byte	.LFB5
 3218 003c 18000000 		.4byte	.LFE5-.LFB5
 3219 0040 00000000 		.4byte	.LFB6
 3220 0044 0C000000 		.4byte	.LFE6-.LFB6
 3221 0048 00000000 		.4byte	.LFB7
 3222 004c 20000000 		.4byte	.LFE7-.LFB7
 3223 0050 00000000 		.4byte	.LFB8
 3224 0054 0C000000 		.4byte	.LFE8-.LFB8
 3225 0058 00000000 		.4byte	.LFB9
 3226 005c 14000000 		.4byte	.LFE9-.LFB9
 3227 0060 00000000 		.4byte	.LFB10
 3228 0064 2C000000 		.4byte	.LFE10-.LFB10
 3229 0068 00000000 		.4byte	.LFB11
 3230 006c 90000000 		.4byte	.LFE11-.LFB11
 3231 0070 00000000 		.4byte	.LFB13
ARM GAS  C:\Users\Robert\AppData\Local\Temp\ccGEgqLk.s 			page 84


 3232 0074 30000000 		.4byte	.LFE13-.LFB13
 3233 0078 00000000 		.4byte	.LFB12
 3234 007c 50000000 		.4byte	.LFE12-.LFB12
 3235 0080 00000000 		.4byte	.LFB14
 3236 0084 18000000 		.4byte	.LFE14-.LFB14
 3237 0088 00000000 		.4byte	.LFB15
 3238 008c 0C000000 		.4byte	.LFE15-.LFB15
 3239 0090 00000000 		.4byte	.LFB16
 3240 0094 20000000 		.4byte	.LFE16-.LFB16
 3241 0098 00000000 		.4byte	.LFB17
 3242 009c 20000000 		.4byte	.LFE17-.LFB17
 3243 00a0 00000000 		.4byte	.LFB18
 3244 00a4 18000000 		.4byte	.LFE18-.LFB18
 3245 00a8 00000000 		.4byte	0
 3246 00ac 00000000 		.4byte	0
 3247              		.section	.debug_ranges,"",%progbits
 3248              	.Ldebug_ranges0:
 3249 0000 00000000 		.4byte	.LFB1
 3250 0004 18010000 		.4byte	.LFE1
 3251 0008 00000000 		.4byte	.LFB2
 3252 000c BC000000 		.4byte	.LFE2
 3253 0010 00000000 		.4byte	.LFB0
 3254 0014 24000000 		.4byte	.LFE0
 3255 0018 00000000 		.4byte	.LFB3
 3256 001c 64000000 		.4byte	.LFE3
 3257 0020 00000000 		.4byte	.LFB4
 3258 0024 80000000 		.4byte	.LFE4
 3259 0028 00000000 		.4byte	.LFB5
 3260 002c 18000000 		.4byte	.LFE5
 3261 0030 00000000 		.4byte	.LFB6
 3262 0034 0C000000 		.4byte	.LFE6
 3263 0038 00000000 		.4byte	.LFB7
 3264 003c 20000000 		.4byte	.LFE7
 3265 0040 00000000 		.4byte	.LFB8
 3266 0044 0C000000 		.4byte	.LFE8
 3267 0048 00000000 		.4byte	.LFB9
 3268 004c 14000000 		.4byte	.LFE9
 3269 0050 00000000 		.4byte	.LFB10
 3270 0054 2C000000 		.4byte	.LFE10
 3271 0058 00000000 		.4byte	.LFB11
 3272 005c 90000000 		.4byte	.LFE11
 3273 0060 00000000 		.4byte	.LFB13
 3274 0064 30000000 		.4byte	.LFE13
 3275 0068 00000000 		.4byte	.LFB12
 3276 006c 50000000 		.4byte	.LFE12
 3277 0070 00000000 		.4byte	.LFB14
 3278 0074 18000000 		.4byte	.LFE14
 3279 0078 00000000 		.4byte	.LFB15
 3280 007c 0C000000 		.4byte	.LFE15
 3281 0080 00000000 		.4byte	.LFB16
 3282 0084 20000000 		.4byte	.LFE16
 3283 0088 00000000 		.4byte	.LFB17
 3284 008c 20000000 		.4byte	.LFE17
 3285 0090 00000000 		.4byte	.LFB18
 3286 0094 18000000 		.4byte	.LFE18
 3287 0098 00000000 		.4byte	0
 3288 009c 00000000 		.4byte	0
ARM GAS  C:\Users\Robert\AppData\Local\Temp\ccGEgqLk.s 			page 85


 3289              		.section	.debug_line,"",%progbits
 3290              	.Ldebug_line0:
 3291 0000 C1020000 		.section	.debug_str,"MS",%progbits,1
 3291      02009B00 
 3291      00000201 
 3291      FB0E0D00 
 3291      01010101 
 3292              	.LASF10:
 3293 0000 75696E74 		.ascii	"uint16\000"
 3293      313600
 3294              	.LASF76:
 3295 0007 5553425F 		.ascii	"USB_Bootloader_GetConfiguration\000"
 3295      426F6F74 
 3295      6C6F6164 
 3295      65725F47 
 3295      6574436F 
 3296              	.LASF70:
 3297 0027 43794578 		.ascii	"CyExitCriticalSection\000"
 3297      69744372 
 3297      69746963 
 3297      616C5365 
 3297      6374696F 
 3298              	.LASF64:
 3299 003d 5553425F 		.ascii	"USB_Bootloader_interfaceNumber\000"
 3299      426F6F74 
 3299      6C6F6164 
 3299      65725F69 
 3299      6E746572 
 3300              	.LASF34:
 3301 005c 5553425F 		.ascii	"USB_Bootloader_Start\000"
 3301      426F6F74 
 3301      6C6F6164 
 3301      65725F53 
 3301      74617274 
 3302              	.LASF42:
 3303 0071 5553425F 		.ascii	"USB_Bootloader_GetEPCount\000"
 3303      426F6F74 
 3303      6C6F6164 
 3303      65725F47 
 3303      65744550 
 3304              	.LASF7:
 3305 008b 6C6F6E67 		.ascii	"long long unsigned int\000"
 3305      206C6F6E 
 3305      6720756E 
 3305      7369676E 
 3305      65642069 
 3306              	.LASF47:
 3307 00a2 5553425F 		.ascii	"USB_Bootloader_EnableOutEP\000"
 3307      426F6F74 
 3307      6C6F6164 
 3307      65725F45 
 3307      6E61626C 
 3308              	.LASF59:
 3309 00bd 5553425F 		.ascii	"USB_Bootloader_transferState\000"
 3309      426F6F74 
 3309      6C6F6164 
 3309      65725F74 
ARM GAS  C:\Users\Robert\AppData\Local\Temp\ccGEgqLk.s 			page 86


 3309      72616E73 
 3310              	.LASF23:
 3311 00da 61646472 		.ascii	"addr\000"
 3311      00
 3312              	.LASF39:
 3313 00df 696E7465 		.ascii	"interfaceNumber\000"
 3313      72666163 
 3313      654E756D 
 3313      62657200 
 3314              	.LASF41:
 3315 00ef 65704E75 		.ascii	"epNumber\000"
 3315      6D626572 
 3315      00
 3316              	.LASF50:
 3317 00f8 5553425F 		.ascii	"USB_Bootloader_DisableOutEP\000"
 3317      426F6F74 
 3317      6C6F6164 
 3317      65725F44 
 3317      69736162 
 3318              	.LASF31:
 3319 0114 64657669 		.ascii	"device\000"
 3319      636500
 3320              	.LASF6:
 3321 011b 6C6F6E67 		.ascii	"long long int\000"
 3321      206C6F6E 
 3321      6720696E 
 3321      7400
 3322              	.LASF0:
 3323 0129 7369676E 		.ascii	"signed char\000"
 3323      65642063 
 3323      68617200 
 3324              	.LASF63:
 3325 0135 5553425F 		.ascii	"USB_Bootloader_hidProtocol\000"
 3325      426F6F74 
 3325      6C6F6164 
 3325      65725F68 
 3325      69645072 
 3326              	.LASF57:
 3327 0150 5553425F 		.ascii	"USB_Bootloader_initVar\000"
 3327      426F6F74 
 3327      6C6F6164 
 3327      65725F69 
 3327      6E697456 
 3328              	.LASF38:
 3329 0167 5553425F 		.ascii	"USB_Bootloader_GetInterfaceSetting\000"
 3329      426F6F74 
 3329      6C6F6164 
 3329      65725F47 
 3329      6574496E 
 3330              	.LASF28:
 3331 018a 545F5553 		.ascii	"T_USB_Bootloader_EP_CTL_BLOCK\000"
 3331      425F426F 
 3331      6F746C6F 
 3331      61646572 
 3331      5F45505F 
 3332              	.LASF4:
 3333 01a8 6C6F6E67 		.ascii	"long int\000"
ARM GAS  C:\Users\Robert\AppData\Local\Temp\ccGEgqLk.s 			page 87


 3333      20696E74 
 3333      00
 3334              	.LASF40:
 3335 01b1 5553425F 		.ascii	"USB_Bootloader_GetEPState\000"
 3335      426F6F74 
 3335      6C6F6164 
 3335      65725F47 
 3335      65744550 
 3336              	.LASF9:
 3337 01cb 75696E74 		.ascii	"uint8\000"
 3337      3800
 3338              	.LASF58:
 3339 01d1 5553425F 		.ascii	"USB_Bootloader_device\000"
 3339      426F6F74 
 3339      6C6F6164 
 3339      65725F64 
 3339      65766963 
 3340              	.LASF22:
 3341 01e7 6570546F 		.ascii	"epToggle\000"
 3341      67676C65 
 3341      00
 3342              	.LASF69:
 3343 01f0 43794465 		.ascii	"CyDelayUs\000"
 3343      6C617955 
 3343      7300
 3344              	.LASF13:
 3345 01fa 646F7562 		.ascii	"double\000"
 3345      6C6500
 3346              	.LASF55:
 3347 0201 706F7765 		.ascii	"powerStatus\000"
 3347      72537461 
 3347      74757300 
 3348              	.LASF11:
 3349 020d 75696E74 		.ascii	"uint32\000"
 3349      333200
 3350              	.LASF45:
 3351 0214 70446174 		.ascii	"pData\000"
 3351      6100
 3352              	.LASF24:
 3353 021a 65704D6F 		.ascii	"epMode\000"
 3353      646500
 3354              	.LASF53:
 3355 0221 5553425F 		.ascii	"USB_Bootloader_GetEPAckState\000"
 3355      426F6F74 
 3355      6C6F6164 
 3355      65725F47 
 3355      65744550 
 3356              	.LASF8:
 3357 023e 756E7369 		.ascii	"unsigned int\000"
 3357      676E6564 
 3357      20696E74 
 3357      00
 3358              	.LASF36:
 3359 024b 5553425F 		.ascii	"USB_Bootloader_CheckActivity\000"
 3359      426F6F74 
 3359      6C6F6164 
 3359      65725F43 
ARM GAS  C:\Users\Robert\AppData\Local\Temp\ccGEgqLk.s 			page 88


 3359      6865636B 
 3360              	.LASF62:
 3361 0268 5553425F 		.ascii	"USB_Bootloader_deviceStatus\000"
 3361      426F6F74 
 3361      6C6F6164 
 3361      65725F64 
 3361      65766963 
 3362              	.LASF51:
 3363 0284 5553425F 		.ascii	"USB_Bootloader_Force\000"
 3363      426F6F74 
 3363      6C6F6164 
 3363      65725F46 
 3363      6F726365 
 3364              	.LASF5:
 3365 0299 6C6F6E67 		.ascii	"long unsigned int\000"
 3365      20756E73 
 3365      69676E65 
 3365      6420696E 
 3365      7400
 3366              	.LASF77:
 3367 02ab 4379456E 		.ascii	"CyEnterCriticalSection\000"
 3367      74657243 
 3367      72697469 
 3367      63616C53 
 3367      65637469 
 3368              	.LASF3:
 3369 02c2 73686F72 		.ascii	"short unsigned int\000"
 3369      7420756E 
 3369      7369676E 
 3369      65642069 
 3369      6E7400
 3370              	.LASF78:
 3371 02d5 4379496E 		.ascii	"CyIntSetVector\000"
 3371      74536574 
 3371      56656374 
 3371      6F7200
 3372              	.LASF37:
 3373 02e4 5553425F 		.ascii	"USB_Bootloader_IsConfigurationChanged\000"
 3373      426F6F74 
 3373      6C6F6164 
 3373      65725F49 
 3373      73436F6E 
 3374              	.LASF2:
 3375 030a 73686F72 		.ascii	"short int\000"
 3375      7420696E 
 3375      7400
 3376              	.LASF27:
 3377 0314 696E7465 		.ascii	"interface\000"
 3377      72666163 
 3377      6500
 3378              	.LASF54:
 3379 031e 5553425F 		.ascii	"USB_Bootloader_SetPowerStatus\000"
 3379      426F6F74 
 3379      6C6F6164 
 3379      65725F53 
 3379      6574506F 
 3380              	.LASF44:
ARM GAS  C:\Users\Robert\AppData\Local\Temp\ccGEgqLk.s 			page 89


 3381 033c 5553425F 		.ascii	"USB_Bootloader_LoadInEP\000"
 3381      426F6F74 
 3381      6C6F6164 
 3381      65725F4C 
 3381      6F616449 
 3382              	.LASF16:
 3383 0354 72656733 		.ascii	"reg32\000"
 3383      3200
 3384              	.LASF21:
 3385 035a 68774570 		.ascii	"hwEpState\000"
 3385      53746174 
 3385      6500
 3386              	.LASF18:
 3387 0364 73697A65 		.ascii	"sizetype\000"
 3387      74797065 
 3387      00
 3388              	.LASF65:
 3389 036d 5553425F 		.ascii	"USB_Bootloader_interfaceSetting\000"
 3389      426F6F74 
 3389      6C6F6164 
 3389      65725F69 
 3389      6E746572 
 3390              	.LASF19:
 3391 038d 61747472 		.ascii	"attrib\000"
 3391      696200
 3392              	.LASF56:
 3393 0394 5553425F 		.ascii	"USB_Bootloader_RWUEnabled\000"
 3393      426F6F74 
 3393      6C6F6164 
 3393      65725F52 
 3393      5755456E 
 3394              	.LASF61:
 3395 03ae 5553425F 		.ascii	"USB_Bootloader_configurationChanged\000"
 3395      426F6F74 
 3395      6C6F6164 
 3395      65725F63 
 3395      6F6E6669 
 3396              	.LASF75:
 3397 03d2 5553425F 		.ascii	"USB_Bootloader_Stop\000"
 3397      426F6F74 
 3397      6C6F6164 
 3397      65725F53 
 3397      746F7000 
 3398              	.LASF71:
 3399 03e6 4379496E 		.ascii	"CyIntSetPriority\000"
 3399      74536574 
 3399      5072696F 
 3399      72697479 
 3399      00
 3400              	.LASF48:
 3401 03f7 5553425F 		.ascii	"USB_Bootloader_ReadOutEP\000"
 3401      426F6F74 
 3401      6C6F6164 
 3401      65725F52 
 3401      6561644F 
 3402              	.LASF12:
 3403 0410 666C6F61 		.ascii	"float\000"
ARM GAS  C:\Users\Robert\AppData\Local\Temp\ccGEgqLk.s 			page 90


 3403      7400
 3404              	.LASF20:
 3405 0416 61706945 		.ascii	"apiEpState\000"
 3405      70537461 
 3405      746500
 3406              	.LASF79:
 3407 0421 43794465 		.ascii	"CyDelayCycles\000"
 3407      6C617943 
 3407      79636C65 
 3407      7300
 3408              	.LASF66:
 3409 042f 5553425F 		.ascii	"USB_Bootloader_deviceAddress\000"
 3409      426F6F74 
 3409      6C6F6164 
 3409      65725F64 
 3409      65766963 
 3410              	.LASF68:
 3411 044c 5553425F 		.ascii	"USB_Bootloader_lastPacketSize\000"
 3411      426F6F74 
 3411      6C6F6164 
 3411      65725F6C 
 3411      61737450 
 3412              	.LASF15:
 3413 046a 72656738 		.ascii	"reg8\000"
 3413      00
 3414              	.LASF1:
 3415 046f 756E7369 		.ascii	"unsigned char\000"
 3415      676E6564 
 3415      20636861 
 3415      7200
 3416              	.LASF73:
 3417 047d 2E5C4765 		.ascii	".\\Generated_Source\\PSoC5\\USB_Bootloader.c\000"
 3417      6E657261 
 3417      7465645F 
 3417      536F7572 
 3417      63655C50 
 3418              	.LASF67:
 3419 04a7 5553425F 		.ascii	"USB_Bootloader_EP\000"
 3419      426F6F74 
 3419      6C6F6164 
 3419      65725F45 
 3419      5000
 3420              	.LASF35:
 3421 04b9 5553425F 		.ascii	"USB_Bootloader_ReInitComponent\000"
 3421      426F6F74 
 3421      6C6F6164 
 3421      65725F52 
 3421      65496E69 
 3422              	.LASF30:
 3423 04d8 5553425F 		.ascii	"USB_Bootloader_InitComponent\000"
 3423      426F6F74 
 3423      6C6F6164 
 3423      65725F49 
 3423      6E697443 
 3424              	.LASF52:
 3425 04f5 62537461 		.ascii	"bState\000"
 3425      746500
ARM GAS  C:\Users\Robert\AppData\Local\Temp\ccGEgqLk.s 			page 91


 3426              	.LASF60:
 3427 04fc 5553425F 		.ascii	"USB_Bootloader_configuration\000"
 3427      426F6F74 
 3427      6C6F6164 
 3427      65725F63 
 3427      6F6E6669 
 3428              	.LASF46:
 3429 0519 6C656E67 		.ascii	"length\000"
 3429      746800
 3430              	.LASF14:
 3431 0520 63686172 		.ascii	"char\000"
 3431      00
 3432              	.LASF32:
 3433 0525 6D6F6465 		.ascii	"mode\000"
 3433      00
 3434              	.LASF17:
 3435 052a 63796973 		.ascii	"cyisraddress\000"
 3435      72616464 
 3435      72657373 
 3435      00
 3436              	.LASF26:
 3437 0537 62756666 		.ascii	"bufferSize\000"
 3437      65725369 
 3437      7A6500
 3438              	.LASF25:
 3439 0542 62756666 		.ascii	"buffOffset\000"
 3439      4F666673 
 3439      657400
 3440              	.LASF33:
 3441 054d 656E6162 		.ascii	"enableInterrupts\000"
 3441      6C65496E 
 3441      74657272 
 3441      75707473 
 3441      00
 3442              	.LASF72:
 3443 055e 474E5520 		.ascii	"GNU C 4.9.3 20150303 (release) [ARM/embedded-4_9-br"
 3443      4320342E 
 3443      392E3320 
 3443      32303135 
 3443      30333033 
 3444 0591 616E6368 		.ascii	"anch revision 221220] -mcpu=cortex-m3 -mthumb -g -O"
 3444      20726576 
 3444      6973696F 
 3444      6E203232 
 3444      31323230 
 3445 05c4 67202D66 		.ascii	"g -ffunction-sections -ffat-lto-objects\000"
 3445      66756E63 
 3445      74696F6E 
 3445      2D736563 
 3445      74696F6E 
 3446              	.LASF49:
 3447 05ec 78666572 		.ascii	"xferCount\000"
 3447      436F756E 
 3447      7400
 3448              	.LASF29:
 3449 05f6 5553425F 		.ascii	"USB_Bootloader_Init\000"
 3449      426F6F74 
ARM GAS  C:\Users\Robert\AppData\Local\Temp\ccGEgqLk.s 			page 92


 3449      6C6F6164 
 3449      65725F49 
 3449      6E697400 
 3450              	.LASF43:
 3451 060a 72657375 		.ascii	"result\000"
 3451      6C7400
 3452              	.LASF74:
 3453 0611 433A5C55 		.ascii	"C:\\Users\\Robert\\Documents\\PSoC Creator\\product"
 3453      73657273 
 3453      5C526F62 
 3453      6572745C 
 3453      446F6375 
 3454 063f 696F6E5F 		.ascii	"ion_108\\PSoC Creator\\pisoc_bootloader.cydsn\000"
 3454      3130385C 
 3454      50536F43 
 3454      20437265 
 3454      61746F72 
 3455              		.ident	"GCC: (GNU Tools for ARM Embedded Processors) 4.9.3 20150303 (release) [ARM/embedded-4_9-br
