ARM GAS  C:\Users\Robert\AppData\Local\Temp\cclJrXLm.s 			page 1


   1              		.syntax unified
   2              		.cpu cortex-m3
   3              		.fpu softvfp
   4              		.eabi_attribute 20, 1
   5              		.eabi_attribute 21, 1
   6              		.eabi_attribute 23, 3
   7              		.eabi_attribute 24, 1
   8              		.eabi_attribute 25, 1
   9              		.eabi_attribute 26, 1
  10              		.eabi_attribute 30, 1
  11              		.eabi_attribute 34, 1
  12              		.eabi_attribute 18, 4
  13              		.thumb
  14              		.file	"USB_Bootloader_boot.c"
  15              		.text
  16              	.Ltext0:
  17              		.cfi_sections	.debug_frame
  18              		.section	.text.USB_Bootloader_CyBtldrCommStart,"ax",%progbits
  19              		.align	2
  20              		.global	USB_Bootloader_CyBtldrCommStart
  21              		.thumb
  22              		.thumb_func
  23              		.type	USB_Bootloader_CyBtldrCommStart, %function
  24              	USB_Bootloader_CyBtldrCommStart:
  25              	.LFB0:
  26              		.file 1 ".\\Generated_Source\\PSoC5\\USB_Bootloader_boot.c"
   1:.\Generated_Source\PSoC5/USB_Bootloader_boot.c **** /*******************************************************************************
   2:.\Generated_Source\PSoC5/USB_Bootloader_boot.c **** * File Name: USB_Bootloader_boot.c
   3:.\Generated_Source\PSoC5/USB_Bootloader_boot.c **** * Version 2.80
   4:.\Generated_Source\PSoC5/USB_Bootloader_boot.c **** *
   5:.\Generated_Source\PSoC5/USB_Bootloader_boot.c **** * Description:
   6:.\Generated_Source\PSoC5/USB_Bootloader_boot.c **** *  Boot loader API for USBFS Component.
   7:.\Generated_Source\PSoC5/USB_Bootloader_boot.c **** *
   8:.\Generated_Source\PSoC5/USB_Bootloader_boot.c **** *  Note:
   9:.\Generated_Source\PSoC5/USB_Bootloader_boot.c **** *
  10:.\Generated_Source\PSoC5/USB_Bootloader_boot.c **** ********************************************************************************
  11:.\Generated_Source\PSoC5/USB_Bootloader_boot.c **** * Copyright 2008-2014, Cypress Semiconductor Corporation.  All rights reserved.
  12:.\Generated_Source\PSoC5/USB_Bootloader_boot.c **** * You may use this file only in accordance with the license, terms, conditions,
  13:.\Generated_Source\PSoC5/USB_Bootloader_boot.c **** * disclaimers, and limitations in the end user license agreement accompanying
  14:.\Generated_Source\PSoC5/USB_Bootloader_boot.c **** * the software package with which this file was provided.
  15:.\Generated_Source\PSoC5/USB_Bootloader_boot.c **** *******************************************************************************/
  16:.\Generated_Source\PSoC5/USB_Bootloader_boot.c **** 
  17:.\Generated_Source\PSoC5/USB_Bootloader_boot.c **** #include "USB_Bootloader.h"
  18:.\Generated_Source\PSoC5/USB_Bootloader_boot.c **** 
  19:.\Generated_Source\PSoC5/USB_Bootloader_boot.c **** #if defined(CYDEV_BOOTLOADER_IO_COMP) && ((CYDEV_BOOTLOADER_IO_COMP == CyBtldr_USB_Bootloader) || \
  20:.\Generated_Source\PSoC5/USB_Bootloader_boot.c ****                                           (CYDEV_BOOTLOADER_IO_COMP == CyBtldr_Custom_Interface))
  21:.\Generated_Source\PSoC5/USB_Bootloader_boot.c **** 
  22:.\Generated_Source\PSoC5/USB_Bootloader_boot.c **** 
  23:.\Generated_Source\PSoC5/USB_Bootloader_boot.c **** /***************************************
  24:.\Generated_Source\PSoC5/USB_Bootloader_boot.c **** *    Bootloader Variables
  25:.\Generated_Source\PSoC5/USB_Bootloader_boot.c **** ***************************************/
  26:.\Generated_Source\PSoC5/USB_Bootloader_boot.c **** 
  27:.\Generated_Source\PSoC5/USB_Bootloader_boot.c **** static uint8  USB_Bootloader_started = 0u;
  28:.\Generated_Source\PSoC5/USB_Bootloader_boot.c **** 
  29:.\Generated_Source\PSoC5/USB_Bootloader_boot.c **** 
  30:.\Generated_Source\PSoC5/USB_Bootloader_boot.c **** /*******************************************************************************
  31:.\Generated_Source\PSoC5/USB_Bootloader_boot.c **** * Function Name: USB_Bootloader_CyBtldrCommStart
ARM GAS  C:\Users\Robert\AppData\Local\Temp\cclJrXLm.s 			page 2


  32:.\Generated_Source\PSoC5/USB_Bootloader_boot.c **** ********************************************************************************
  33:.\Generated_Source\PSoC5/USB_Bootloader_boot.c **** *
  34:.\Generated_Source\PSoC5/USB_Bootloader_boot.c **** * Summary:
  35:.\Generated_Source\PSoC5/USB_Bootloader_boot.c **** *  Starts the component and enables the interrupt.
  36:.\Generated_Source\PSoC5/USB_Bootloader_boot.c **** *
  37:.\Generated_Source\PSoC5/USB_Bootloader_boot.c **** * Parameters:
  38:.\Generated_Source\PSoC5/USB_Bootloader_boot.c **** *  None.
  39:.\Generated_Source\PSoC5/USB_Bootloader_boot.c **** *
  40:.\Generated_Source\PSoC5/USB_Bootloader_boot.c **** * Return:
  41:.\Generated_Source\PSoC5/USB_Bootloader_boot.c **** *  None.
  42:.\Generated_Source\PSoC5/USB_Bootloader_boot.c **** *
  43:.\Generated_Source\PSoC5/USB_Bootloader_boot.c **** * Side Effects:
  44:.\Generated_Source\PSoC5/USB_Bootloader_boot.c **** *  This function starts the USB with 3V or 5V operation.
  45:.\Generated_Source\PSoC5/USB_Bootloader_boot.c **** *
  46:.\Generated_Source\PSoC5/USB_Bootloader_boot.c **** * Reentrant:
  47:.\Generated_Source\PSoC5/USB_Bootloader_boot.c **** *  No.
  48:.\Generated_Source\PSoC5/USB_Bootloader_boot.c **** *
  49:.\Generated_Source\PSoC5/USB_Bootloader_boot.c **** *******************************************************************************/
  50:.\Generated_Source\PSoC5/USB_Bootloader_boot.c **** void USB_Bootloader_CyBtldrCommStart(void) 
  51:.\Generated_Source\PSoC5/USB_Bootloader_boot.c **** {
  27              		.loc 1 51 0
  28              		.cfi_startproc
  29              		@ args = 0, pretend = 0, frame = 0
  30              		@ frame_needed = 0, uses_anonymous_args = 0
  31 0000 08B5     		push	{r3, lr}
  32              		.cfi_def_cfa_offset 8
  33              		.cfi_offset 3, -8
  34              		.cfi_offset 14, -4
  52:.\Generated_Source\PSoC5/USB_Bootloader_boot.c ****     CyGlobalIntEnable;      /* Enable Global Interrupts */
  35              		.loc 1 52 0
  36              	@ 52 ".\Generated_Source\PSoC5\USB_Bootloader_boot.c" 1
  37 0002 62B6     		CPSIE   i
  38              	@ 0 "" 2
  53:.\Generated_Source\PSoC5/USB_Bootloader_boot.c **** 
  54:.\Generated_Source\PSoC5/USB_Bootloader_boot.c ****     /*Start USBFS Operation/device 0 and with 5V or 3V operation depend on Voltage Configuration in
  55:.\Generated_Source\PSoC5/USB_Bootloader_boot.c ****     USB_Bootloader_Start(0u, USB_Bootloader_DWR_VDDD_OPERATION);
  39              		.loc 1 55 0
  40              		.thumb
  41 0004 0020     		movs	r0, #0
  42 0006 0221     		movs	r1, #2
  43 0008 FFF7FEFF 		bl	USB_Bootloader_Start
  44              	.LVL0:
  56:.\Generated_Source\PSoC5/USB_Bootloader_boot.c **** 
  57:.\Generated_Source\PSoC5/USB_Bootloader_boot.c ****     /* USB component started, the correct enumeration will be checked in first Read operation */
  58:.\Generated_Source\PSoC5/USB_Bootloader_boot.c ****     USB_Bootloader_started = 1u;
  45              		.loc 1 58 0
  46 000c 0122     		movs	r2, #1
  47 000e 014B     		ldr	r3, .L3
  48 0010 1A70     		strb	r2, [r3]
  49 0012 08BD     		pop	{r3, pc}
  50              	.L4:
  51              		.align	2
  52              	.L3:
  53 0014 00000000 		.word	.LANCHOR0
  54              		.cfi_endproc
  55              	.LFE0:
  56              		.size	USB_Bootloader_CyBtldrCommStart, .-USB_Bootloader_CyBtldrCommStart
ARM GAS  C:\Users\Robert\AppData\Local\Temp\cclJrXLm.s 			page 3


  57              		.section	.text.USB_Bootloader_CyBtldrCommStop,"ax",%progbits
  58              		.align	2
  59              		.global	USB_Bootloader_CyBtldrCommStop
  60              		.thumb
  61              		.thumb_func
  62              		.type	USB_Bootloader_CyBtldrCommStop, %function
  63              	USB_Bootloader_CyBtldrCommStop:
  64              	.LFB1:
  59:.\Generated_Source\PSoC5/USB_Bootloader_boot.c **** }
  60:.\Generated_Source\PSoC5/USB_Bootloader_boot.c **** 
  61:.\Generated_Source\PSoC5/USB_Bootloader_boot.c **** 
  62:.\Generated_Source\PSoC5/USB_Bootloader_boot.c **** /*******************************************************************************
  63:.\Generated_Source\PSoC5/USB_Bootloader_boot.c **** * Function Name: USB_Bootloader_CyBtldrCommStop.
  64:.\Generated_Source\PSoC5/USB_Bootloader_boot.c **** ********************************************************************************
  65:.\Generated_Source\PSoC5/USB_Bootloader_boot.c **** *
  66:.\Generated_Source\PSoC5/USB_Bootloader_boot.c **** * Summary:
  67:.\Generated_Source\PSoC5/USB_Bootloader_boot.c **** *  Disable the component and disable the interrupt.
  68:.\Generated_Source\PSoC5/USB_Bootloader_boot.c **** *
  69:.\Generated_Source\PSoC5/USB_Bootloader_boot.c **** * Parameters:
  70:.\Generated_Source\PSoC5/USB_Bootloader_boot.c **** *  None.
  71:.\Generated_Source\PSoC5/USB_Bootloader_boot.c **** *
  72:.\Generated_Source\PSoC5/USB_Bootloader_boot.c **** * Return:
  73:.\Generated_Source\PSoC5/USB_Bootloader_boot.c **** *  None.
  74:.\Generated_Source\PSoC5/USB_Bootloader_boot.c **** *
  75:.\Generated_Source\PSoC5/USB_Bootloader_boot.c **** *******************************************************************************/
  76:.\Generated_Source\PSoC5/USB_Bootloader_boot.c **** void USB_Bootloader_CyBtldrCommStop(void) 
  77:.\Generated_Source\PSoC5/USB_Bootloader_boot.c **** {
  65              		.loc 1 77 0
  66              		.cfi_startproc
  67              		@ args = 0, pretend = 0, frame = 0
  68              		@ frame_needed = 0, uses_anonymous_args = 0
  69 0000 08B5     		push	{r3, lr}
  70              		.cfi_def_cfa_offset 8
  71              		.cfi_offset 3, -8
  72              		.cfi_offset 14, -4
  78:.\Generated_Source\PSoC5/USB_Bootloader_boot.c ****     USB_Bootloader_Stop();
  73              		.loc 1 78 0
  74 0002 FFF7FEFF 		bl	USB_Bootloader_Stop
  75              	.LVL1:
  76 0006 08BD     		pop	{r3, pc}
  77              		.cfi_endproc
  78              	.LFE1:
  79              		.size	USB_Bootloader_CyBtldrCommStop, .-USB_Bootloader_CyBtldrCommStop
  80              		.section	.text.USB_Bootloader_CyBtldrCommReset,"ax",%progbits
  81              		.align	2
  82              		.global	USB_Bootloader_CyBtldrCommReset
  83              		.thumb
  84              		.thumb_func
  85              		.type	USB_Bootloader_CyBtldrCommReset, %function
  86              	USB_Bootloader_CyBtldrCommReset:
  87              	.LFB2:
  79:.\Generated_Source\PSoC5/USB_Bootloader_boot.c **** }
  80:.\Generated_Source\PSoC5/USB_Bootloader_boot.c **** 
  81:.\Generated_Source\PSoC5/USB_Bootloader_boot.c **** 
  82:.\Generated_Source\PSoC5/USB_Bootloader_boot.c **** /*******************************************************************************
  83:.\Generated_Source\PSoC5/USB_Bootloader_boot.c **** * Function Name: USB_Bootloader_CyBtldrCommReset.
  84:.\Generated_Source\PSoC5/USB_Bootloader_boot.c **** ********************************************************************************
ARM GAS  C:\Users\Robert\AppData\Local\Temp\cclJrXLm.s 			page 4


  85:.\Generated_Source\PSoC5/USB_Bootloader_boot.c **** *
  86:.\Generated_Source\PSoC5/USB_Bootloader_boot.c **** * Summary:
  87:.\Generated_Source\PSoC5/USB_Bootloader_boot.c **** *  Resets the receive and transmit communication Buffers.
  88:.\Generated_Source\PSoC5/USB_Bootloader_boot.c **** *
  89:.\Generated_Source\PSoC5/USB_Bootloader_boot.c **** * Parameters:
  90:.\Generated_Source\PSoC5/USB_Bootloader_boot.c **** *  None
  91:.\Generated_Source\PSoC5/USB_Bootloader_boot.c **** *
  92:.\Generated_Source\PSoC5/USB_Bootloader_boot.c **** * Return:
  93:.\Generated_Source\PSoC5/USB_Bootloader_boot.c **** *  None
  94:.\Generated_Source\PSoC5/USB_Bootloader_boot.c **** *
  95:.\Generated_Source\PSoC5/USB_Bootloader_boot.c **** * Reentrant:
  96:.\Generated_Source\PSoC5/USB_Bootloader_boot.c **** *  No
  97:.\Generated_Source\PSoC5/USB_Bootloader_boot.c **** *
  98:.\Generated_Source\PSoC5/USB_Bootloader_boot.c **** *******************************************************************************/
  99:.\Generated_Source\PSoC5/USB_Bootloader_boot.c **** void USB_Bootloader_CyBtldrCommReset(void) 
 100:.\Generated_Source\PSoC5/USB_Bootloader_boot.c **** {
  88              		.loc 1 100 0
  89              		.cfi_startproc
  90              		@ args = 0, pretend = 0, frame = 0
  91              		@ frame_needed = 0, uses_anonymous_args = 0
  92 0000 08B5     		push	{r3, lr}
  93              		.cfi_def_cfa_offset 8
  94              		.cfi_offset 3, -8
  95              		.cfi_offset 14, -4
 101:.\Generated_Source\PSoC5/USB_Bootloader_boot.c ****     USB_Bootloader_EnableOutEP(USB_Bootloader_BTLDR_OUT_EP);  /* Enable the OUT endpoint */
  96              		.loc 1 101 0
  97 0002 0120     		movs	r0, #1
  98 0004 FFF7FEFF 		bl	USB_Bootloader_EnableOutEP
  99              	.LVL2:
 100 0008 08BD     		pop	{r3, pc}
 101              		.cfi_endproc
 102              	.LFE2:
 103              		.size	USB_Bootloader_CyBtldrCommReset, .-USB_Bootloader_CyBtldrCommReset
 104 000a 00BF     		.section	.text.USB_Bootloader_CyBtldrCommWrite,"ax",%progbits
 105              		.align	2
 106              		.global	USB_Bootloader_CyBtldrCommWrite
 107              		.thumb
 108              		.thumb_func
 109              		.type	USB_Bootloader_CyBtldrCommWrite, %function
 110              	USB_Bootloader_CyBtldrCommWrite:
 111              	.LFB3:
 102:.\Generated_Source\PSoC5/USB_Bootloader_boot.c **** }
 103:.\Generated_Source\PSoC5/USB_Bootloader_boot.c **** 
 104:.\Generated_Source\PSoC5/USB_Bootloader_boot.c **** 
 105:.\Generated_Source\PSoC5/USB_Bootloader_boot.c **** /*******************************************************************************
 106:.\Generated_Source\PSoC5/USB_Bootloader_boot.c **** * Function Name: USB_Bootloader_CyBtldrCommWrite.
 107:.\Generated_Source\PSoC5/USB_Bootloader_boot.c **** ********************************************************************************
 108:.\Generated_Source\PSoC5/USB_Bootloader_boot.c **** *
 109:.\Generated_Source\PSoC5/USB_Bootloader_boot.c **** * Summary:
 110:.\Generated_Source\PSoC5/USB_Bootloader_boot.c **** *  Allows the caller to write data to the boot loader host. The function will
 111:.\Generated_Source\PSoC5/USB_Bootloader_boot.c **** *  handle polling to allow a block of data to be completely sent to the host
 112:.\Generated_Source\PSoC5/USB_Bootloader_boot.c **** *  device.
 113:.\Generated_Source\PSoC5/USB_Bootloader_boot.c **** *
 114:.\Generated_Source\PSoC5/USB_Bootloader_boot.c **** * Parameters:
 115:.\Generated_Source\PSoC5/USB_Bootloader_boot.c **** *  pData:    A pointer to the block of data to send to the device
 116:.\Generated_Source\PSoC5/USB_Bootloader_boot.c **** *  size:     The number of bytes to write.
 117:.\Generated_Source\PSoC5/USB_Bootloader_boot.c **** *  count:    Pointer to an unsigned short variable to write the number of
ARM GAS  C:\Users\Robert\AppData\Local\Temp\cclJrXLm.s 			page 5


 118:.\Generated_Source\PSoC5/USB_Bootloader_boot.c **** *             bytes actually written.
 119:.\Generated_Source\PSoC5/USB_Bootloader_boot.c **** *  timeOut:  Number of units to wait before returning because of a timeout.
 120:.\Generated_Source\PSoC5/USB_Bootloader_boot.c **** *
 121:.\Generated_Source\PSoC5/USB_Bootloader_boot.c **** * Return:
 122:.\Generated_Source\PSoC5/USB_Bootloader_boot.c **** *  Returns the value that best describes the problem.
 123:.\Generated_Source\PSoC5/USB_Bootloader_boot.c **** *
 124:.\Generated_Source\PSoC5/USB_Bootloader_boot.c **** * Reentrant:
 125:.\Generated_Source\PSoC5/USB_Bootloader_boot.c **** *  No
 126:.\Generated_Source\PSoC5/USB_Bootloader_boot.c **** *
 127:.\Generated_Source\PSoC5/USB_Bootloader_boot.c **** *******************************************************************************/
 128:.\Generated_Source\PSoC5/USB_Bootloader_boot.c **** cystatus USB_Bootloader_CyBtldrCommWrite(const uint8 pData[], uint16 size, uint16 *count, uint8 tim
 129:.\Generated_Source\PSoC5/USB_Bootloader_boot.c ****                                                             
 130:.\Generated_Source\PSoC5/USB_Bootloader_boot.c **** {
 112              		.loc 1 130 0
 113              		.cfi_startproc
 114              		@ args = 0, pretend = 0, frame = 0
 115              		@ frame_needed = 0, uses_anonymous_args = 0
 116              	.LVL3:
 117 0000 F8B5     		push	{r3, r4, r5, r6, r7, lr}
 118              		.cfi_def_cfa_offset 24
 119              		.cfi_offset 3, -24
 120              		.cfi_offset 4, -20
 121              		.cfi_offset 5, -16
 122              		.cfi_offset 6, -12
 123              		.cfi_offset 7, -8
 124              		.cfi_offset 14, -4
 125 0002 0546     		mov	r5, r0
 126 0004 0F46     		mov	r7, r1
 127 0006 1646     		mov	r6, r2
 131:.\Generated_Source\PSoC5/USB_Bootloader_boot.c ****     cystatus retCode;
 132:.\Generated_Source\PSoC5/USB_Bootloader_boot.c ****     uint16 timeoutMs;
 133:.\Generated_Source\PSoC5/USB_Bootloader_boot.c **** 
 134:.\Generated_Source\PSoC5/USB_Bootloader_boot.c ****     timeoutMs = ((uint16) 10u * timeOut);  /* Convert from 10mS check to number 1mS checks */
 128              		.loc 1 134 0
 129 0008 03EB8303 		add	r3, r3, r3, lsl #2
 130              	.LVL4:
 131 000c 5C00     		lsls	r4, r3, #1
 132 000e A4B2     		uxth	r4, r4
 133              	.LVL5:
 135:.\Generated_Source\PSoC5/USB_Bootloader_boot.c **** 
 136:.\Generated_Source\PSoC5/USB_Bootloader_boot.c ****     /* Enable IN transfer */
 137:.\Generated_Source\PSoC5/USB_Bootloader_boot.c ****     USB_Bootloader_LoadInEP(USB_Bootloader_BTLDR_IN_EP, pData, USB_Bootloader_BTLDR_SIZEOF_READ_BUF
 134              		.loc 1 137 0
 135 0010 0220     		movs	r0, #2
 136              	.LVL6:
 137 0012 2946     		mov	r1, r5
 138              	.LVL7:
 139 0014 4022     		movs	r2, #64
 140              	.LVL8:
 141 0016 FFF7FEFF 		bl	USB_Bootloader_LoadInEP
 142              	.LVL9:
 138:.\Generated_Source\PSoC5/USB_Bootloader_boot.c **** 
 139:.\Generated_Source\PSoC5/USB_Bootloader_boot.c ****     /* Wait for the master to read it. */
 140:.\Generated_Source\PSoC5/USB_Bootloader_boot.c ****     while ((USB_Bootloader_GetEPState(USB_Bootloader_BTLDR_IN_EP) == USB_Bootloader_IN_BUFFER_FULL)
 143              		.loc 1 140 0
 144 001a 04E0     		b	.L10
 145              	.L12:
ARM GAS  C:\Users\Robert\AppData\Local\Temp\cclJrXLm.s 			page 6


 141:.\Generated_Source\PSoC5/USB_Bootloader_boot.c ****            (0u != timeoutMs))
 142:.\Generated_Source\PSoC5/USB_Bootloader_boot.c ****     {
 143:.\Generated_Source\PSoC5/USB_Bootloader_boot.c ****         CyDelay(USB_Bootloader_BTLDR_WAIT_1_MS);
 146              		.loc 1 143 0
 147 001c 0120     		movs	r0, #1
 148 001e FFF7FEFF 		bl	CyDelay
 149              	.LVL10:
 144:.\Generated_Source\PSoC5/USB_Bootloader_boot.c ****         timeoutMs--;
 150              		.loc 1 144 0
 151 0022 013C     		subs	r4, r4, #1
 152              	.LVL11:
 153 0024 A4B2     		uxth	r4, r4
 154              	.LVL12:
 155              	.L10:
 140:.\Generated_Source\PSoC5/USB_Bootloader_boot.c ****            (0u != timeoutMs))
 156              		.loc 1 140 0
 157 0026 0220     		movs	r0, #2
 158 0028 FFF7FEFF 		bl	USB_Bootloader_GetEPState
 159              	.LVL13:
 160 002c 08B9     		cbnz	r0, .L11
 140:.\Generated_Source\PSoC5/USB_Bootloader_boot.c ****            (0u != timeoutMs))
 161              		.loc 1 140 0 is_stmt 0 discriminator 1
 162 002e 002C     		cmp	r4, #0
 163 0030 F4D1     		bne	.L12
 164              	.L11:
 145:.\Generated_Source\PSoC5/USB_Bootloader_boot.c ****     }
 146:.\Generated_Source\PSoC5/USB_Bootloader_boot.c **** 
 147:.\Generated_Source\PSoC5/USB_Bootloader_boot.c ****     if (USB_Bootloader_GetEPState(USB_Bootloader_BTLDR_IN_EP) == USB_Bootloader_IN_BUFFER_FULL)
 165              		.loc 1 147 0 is_stmt 1
 166 0032 0220     		movs	r0, #2
 167 0034 FFF7FEFF 		bl	USB_Bootloader_GetEPState
 168              	.LVL14:
 169 0038 10B1     		cbz	r0, .L14
 148:.\Generated_Source\PSoC5/USB_Bootloader_boot.c ****     {
 149:.\Generated_Source\PSoC5/USB_Bootloader_boot.c ****         retCode = CYRET_TIMEOUT;
 150:.\Generated_Source\PSoC5/USB_Bootloader_boot.c ****     }
 151:.\Generated_Source\PSoC5/USB_Bootloader_boot.c ****     else
 152:.\Generated_Source\PSoC5/USB_Bootloader_boot.c ****     {
 153:.\Generated_Source\PSoC5/USB_Bootloader_boot.c ****         *count = size;
 170              		.loc 1 153 0
 171 003a 3780     		strh	r7, [r6]	@ movhi
 172              	.LVL15:
 154:.\Generated_Source\PSoC5/USB_Bootloader_boot.c ****         retCode = CYRET_SUCCESS;
 173              		.loc 1 154 0
 174 003c 0020     		movs	r0, #0
 175 003e F8BD     		pop	{r3, r4, r5, r6, r7, pc}
 176              	.LVL16:
 177              	.L14:
 149:.\Generated_Source\PSoC5/USB_Bootloader_boot.c ****     }
 178              		.loc 1 149 0
 179 0040 1020     		movs	r0, #16
 180              	.LVL17:
 155:.\Generated_Source\PSoC5/USB_Bootloader_boot.c ****     }
 156:.\Generated_Source\PSoC5/USB_Bootloader_boot.c **** 
 157:.\Generated_Source\PSoC5/USB_Bootloader_boot.c ****     return(retCode);
 158:.\Generated_Source\PSoC5/USB_Bootloader_boot.c **** }
 181              		.loc 1 158 0
ARM GAS  C:\Users\Robert\AppData\Local\Temp\cclJrXLm.s 			page 7


 182 0042 F8BD     		pop	{r3, r4, r5, r6, r7, pc}
 183              		.cfi_endproc
 184              	.LFE3:
 185              		.size	USB_Bootloader_CyBtldrCommWrite, .-USB_Bootloader_CyBtldrCommWrite
 186              		.section	.text.USB_Bootloader_CyBtldrCommRead,"ax",%progbits
 187              		.align	2
 188              		.global	USB_Bootloader_CyBtldrCommRead
 189              		.thumb
 190              		.thumb_func
 191              		.type	USB_Bootloader_CyBtldrCommRead, %function
 192              	USB_Bootloader_CyBtldrCommRead:
 193              	.LFB4:
 159:.\Generated_Source\PSoC5/USB_Bootloader_boot.c **** 
 160:.\Generated_Source\PSoC5/USB_Bootloader_boot.c **** 
 161:.\Generated_Source\PSoC5/USB_Bootloader_boot.c **** /*******************************************************************************
 162:.\Generated_Source\PSoC5/USB_Bootloader_boot.c **** * Function Name: USB_Bootloader_CyBtldrCommRead.
 163:.\Generated_Source\PSoC5/USB_Bootloader_boot.c **** ********************************************************************************
 164:.\Generated_Source\PSoC5/USB_Bootloader_boot.c **** *
 165:.\Generated_Source\PSoC5/USB_Bootloader_boot.c **** * Summary:
 166:.\Generated_Source\PSoC5/USB_Bootloader_boot.c **** *  Allows the caller to read data from the boot loader host. The function will
 167:.\Generated_Source\PSoC5/USB_Bootloader_boot.c **** *  handle polling to allow a block of data to be completely received from the
 168:.\Generated_Source\PSoC5/USB_Bootloader_boot.c **** *  host device.
 169:.\Generated_Source\PSoC5/USB_Bootloader_boot.c **** *
 170:.\Generated_Source\PSoC5/USB_Bootloader_boot.c **** * Parameters:
 171:.\Generated_Source\PSoC5/USB_Bootloader_boot.c **** *  pData:    A pointer to the area to store the block of data received
 172:.\Generated_Source\PSoC5/USB_Bootloader_boot.c **** *             from the device.
 173:.\Generated_Source\PSoC5/USB_Bootloader_boot.c **** *  size:     The number of bytes to read.
 174:.\Generated_Source\PSoC5/USB_Bootloader_boot.c **** *  count:    Pointer to an unsigned short variable to write the number
 175:.\Generated_Source\PSoC5/USB_Bootloader_boot.c **** *             of bytes actually read.
 176:.\Generated_Source\PSoC5/USB_Bootloader_boot.c **** *  timeOut:  Number of units to wait before returning because of a timeOut.
 177:.\Generated_Source\PSoC5/USB_Bootloader_boot.c **** *            Timeout is measured in 10s of ms.
 178:.\Generated_Source\PSoC5/USB_Bootloader_boot.c **** *
 179:.\Generated_Source\PSoC5/USB_Bootloader_boot.c **** * Return:
 180:.\Generated_Source\PSoC5/USB_Bootloader_boot.c **** *  Returns the value that best describes the problem.
 181:.\Generated_Source\PSoC5/USB_Bootloader_boot.c **** *
 182:.\Generated_Source\PSoC5/USB_Bootloader_boot.c **** * Reentrant:
 183:.\Generated_Source\PSoC5/USB_Bootloader_boot.c **** *  No
 184:.\Generated_Source\PSoC5/USB_Bootloader_boot.c **** *
 185:.\Generated_Source\PSoC5/USB_Bootloader_boot.c **** *******************************************************************************/
 186:.\Generated_Source\PSoC5/USB_Bootloader_boot.c **** cystatus USB_Bootloader_CyBtldrCommRead(uint8 pData[], uint16 size, uint16 *count, uint8 timeOut) C
 187:.\Generated_Source\PSoC5/USB_Bootloader_boot.c ****                                                             
 188:.\Generated_Source\PSoC5/USB_Bootloader_boot.c **** {
 194              		.loc 1 188 0
 195              		.cfi_startproc
 196              		@ args = 0, pretend = 0, frame = 0
 197              		@ frame_needed = 0, uses_anonymous_args = 0
 198              	.LVL18:
 199 0000 2DE9F041 		push	{r4, r5, r6, r7, r8, lr}
 200              		.cfi_def_cfa_offset 24
 201              		.cfi_offset 4, -24
 202              		.cfi_offset 5, -20
 203              		.cfi_offset 6, -16
 204              		.cfi_offset 7, -12
 205              		.cfi_offset 8, -8
 206              		.cfi_offset 14, -4
 207 0004 8046     		mov	r8, r0
 208 0006 0E46     		mov	r6, r1
ARM GAS  C:\Users\Robert\AppData\Local\Temp\cclJrXLm.s 			page 8


 209 0008 1746     		mov	r7, r2
 189:.\Generated_Source\PSoC5/USB_Bootloader_boot.c ****     cystatus retCode;
 190:.\Generated_Source\PSoC5/USB_Bootloader_boot.c ****     uint16 timeoutMs;
 191:.\Generated_Source\PSoC5/USB_Bootloader_boot.c **** 
 192:.\Generated_Source\PSoC5/USB_Bootloader_boot.c ****     timeoutMs = ((uint16) 10u * timeOut);  /* Convert from 10mS check to number 1mS checks */
 210              		.loc 1 192 0
 211 000a 03EB8303 		add	r3, r3, r3, lsl #2
 212              	.LVL19:
 213 000e 5C00     		lsls	r4, r3, #1
 214 0010 A4B2     		uxth	r4, r4
 215              	.LVL20:
 193:.\Generated_Source\PSoC5/USB_Bootloader_boot.c **** 
 194:.\Generated_Source\PSoC5/USB_Bootloader_boot.c ****     if (size > USB_Bootloader_BTLDR_SIZEOF_WRITE_BUFFER)
 216              		.loc 1 194 0
 217 0012 4029     		cmp	r1, #64
 218 0014 00D9     		bls	.L17
 195:.\Generated_Source\PSoC5/USB_Bootloader_boot.c ****     {
 196:.\Generated_Source\PSoC5/USB_Bootloader_boot.c ****         size = USB_Bootloader_BTLDR_SIZEOF_WRITE_BUFFER;
 219              		.loc 1 196 0
 220 0016 4026     		movs	r6, #64
 221              	.L17:
 222              	.LVL21:
 197:.\Generated_Source\PSoC5/USB_Bootloader_boot.c ****     }
 198:.\Generated_Source\PSoC5/USB_Bootloader_boot.c **** 
 199:.\Generated_Source\PSoC5/USB_Bootloader_boot.c ****     /* Wait on enumeration in first time */
 200:.\Generated_Source\PSoC5/USB_Bootloader_boot.c ****     if (0u != USB_Bootloader_started)
 223              		.loc 1 200 0
 224 0018 204B     		ldr	r3, .L32
 225 001a 1B78     		ldrb	r3, [r3]	@ zero_extendqisi2
 226 001c 33B9     		cbnz	r3, .L29
 227 001e 16E0     		b	.L30
 228              	.LVL22:
 229              	.L21:
 201:.\Generated_Source\PSoC5/USB_Bootloader_boot.c ****     {
 202:.\Generated_Source\PSoC5/USB_Bootloader_boot.c ****         /* Wait for Device to enumerate */
 203:.\Generated_Source\PSoC5/USB_Bootloader_boot.c ****         while ((0u ==USB_Bootloader_GetConfiguration()) && (0u != timeoutMs))
 204:.\Generated_Source\PSoC5/USB_Bootloader_boot.c ****         {
 205:.\Generated_Source\PSoC5/USB_Bootloader_boot.c ****             CyDelay(USB_Bootloader_BTLDR_WAIT_1_MS);
 230              		.loc 1 205 0
 231 0020 0120     		movs	r0, #1
 232 0022 FFF7FEFF 		bl	CyDelay
 233              	.LVL23:
 206:.\Generated_Source\PSoC5/USB_Bootloader_boot.c ****             timeoutMs--;
 234              		.loc 1 206 0
 235 0026 013D     		subs	r5, r5, #1
 236              	.LVL24:
 237 0028 ADB2     		uxth	r5, r5
 238              	.LVL25:
 239 002a 00E0     		b	.L18
 240              	.LVL26:
 241              	.L29:
 242 002c 2546     		mov	r5, r4
 243              	.LVL27:
 244              	.L18:
 203:.\Generated_Source\PSoC5/USB_Bootloader_boot.c ****         {
 245              		.loc 1 203 0
 246 002e FFF7FEFF 		bl	USB_Bootloader_GetConfiguration
ARM GAS  C:\Users\Robert\AppData\Local\Temp\cclJrXLm.s 			page 9


 247              	.LVL28:
 248 0032 08B9     		cbnz	r0, .L20
 203:.\Generated_Source\PSoC5/USB_Bootloader_boot.c ****         {
 249              		.loc 1 203 0 is_stmt 0 discriminator 1
 250 0034 002D     		cmp	r5, #0
 251 0036 F3D1     		bne	.L21
 252              	.L20:
 207:.\Generated_Source\PSoC5/USB_Bootloader_boot.c ****         }
 208:.\Generated_Source\PSoC5/USB_Bootloader_boot.c **** 
 209:.\Generated_Source\PSoC5/USB_Bootloader_boot.c ****         /* Enable first OUT, if enumeration complete */
 210:.\Generated_Source\PSoC5/USB_Bootloader_boot.c ****         if (0u != USB_Bootloader_GetConfiguration())
 253              		.loc 1 210 0 is_stmt 1
 254 0038 FFF7FEFF 		bl	USB_Bootloader_GetConfiguration
 255              	.LVL29:
 256 003c A8B1     		cbz	r0, .L23
 211:.\Generated_Source\PSoC5/USB_Bootloader_boot.c ****         {
 212:.\Generated_Source\PSoC5/USB_Bootloader_boot.c ****             (void) USB_Bootloader_IsConfigurationChanged();  /* Clear configuration changes state s
 257              		.loc 1 212 0
 258 003e FFF7FEFF 		bl	USB_Bootloader_IsConfigurationChanged
 259              	.LVL30:
 213:.\Generated_Source\PSoC5/USB_Bootloader_boot.c ****             USB_Bootloader_CyBtldrCommReset();
 260              		.loc 1 213 0
 261 0042 FFF7FEFF 		bl	USB_Bootloader_CyBtldrCommReset
 262              	.LVL31:
 214:.\Generated_Source\PSoC5/USB_Bootloader_boot.c ****             USB_Bootloader_started = 0u;
 263              		.loc 1 214 0
 264 0046 0022     		movs	r2, #0
 265 0048 144B     		ldr	r3, .L32
 266 004a 1A70     		strb	r2, [r3]
 267 004c 0DE0     		b	.L23
 268              	.LVL32:
 269              	.L30:
 215:.\Generated_Source\PSoC5/USB_Bootloader_boot.c ****         }
 216:.\Generated_Source\PSoC5/USB_Bootloader_boot.c ****     }
 217:.\Generated_Source\PSoC5/USB_Bootloader_boot.c ****     else /* Check for configuration changes, has been done by Host */
 218:.\Generated_Source\PSoC5/USB_Bootloader_boot.c ****     {
 219:.\Generated_Source\PSoC5/USB_Bootloader_boot.c ****         if (0u != USB_Bootloader_IsConfigurationChanged()) /* Host could send double SET_INTERFACE 
 270              		.loc 1 219 0
 271 004e FFF7FEFF 		bl	USB_Bootloader_IsConfigurationChanged
 272              	.LVL33:
 273 0052 50B1     		cbz	r0, .L23
 220:.\Generated_Source\PSoC5/USB_Bootloader_boot.c ****         {
 221:.\Generated_Source\PSoC5/USB_Bootloader_boot.c ****             if (0u != USB_Bootloader_GetConfiguration())   /* Init OUT endpoints when device reconf
 274              		.loc 1 221 0
 275 0054 FFF7FEFF 		bl	USB_Bootloader_GetConfiguration
 276              	.LVL34:
 277 0058 38B1     		cbz	r0, .L23
 222:.\Generated_Source\PSoC5/USB_Bootloader_boot.c ****             {
 223:.\Generated_Source\PSoC5/USB_Bootloader_boot.c ****                 USB_Bootloader_CyBtldrCommReset();
 278              		.loc 1 223 0
 279 005a FFF7FEFF 		bl	USB_Bootloader_CyBtldrCommReset
 280              	.LVL35:
 224:.\Generated_Source\PSoC5/USB_Bootloader_boot.c ****             }
 225:.\Generated_Source\PSoC5/USB_Bootloader_boot.c ****         }
 226:.\Generated_Source\PSoC5/USB_Bootloader_boot.c ****     }
 227:.\Generated_Source\PSoC5/USB_Bootloader_boot.c **** 
 228:.\Generated_Source\PSoC5/USB_Bootloader_boot.c ****     timeoutMs = ((uint16) 10u * timeOut); /* Re-arm timeout */
ARM GAS  C:\Users\Robert\AppData\Local\Temp\cclJrXLm.s 			page 10


 229:.\Generated_Source\PSoC5/USB_Bootloader_boot.c **** 
 230:.\Generated_Source\PSoC5/USB_Bootloader_boot.c ****     /* Wait on next packet */
 231:.\Generated_Source\PSoC5/USB_Bootloader_boot.c ****     while((USB_Bootloader_GetEPState(USB_Bootloader_BTLDR_OUT_EP) != USB_Bootloader_OUT_BUFFER_FULL
 281              		.loc 1 231 0
 282 005e 04E0     		b	.L23
 283              	.L25:
 232:.\Generated_Source\PSoC5/USB_Bootloader_boot.c ****           (0u != timeoutMs))
 233:.\Generated_Source\PSoC5/USB_Bootloader_boot.c ****     {
 234:.\Generated_Source\PSoC5/USB_Bootloader_boot.c ****         CyDelay(USB_Bootloader_BTLDR_WAIT_1_MS);
 284              		.loc 1 234 0
 285 0060 0120     		movs	r0, #1
 286 0062 FFF7FEFF 		bl	CyDelay
 287              	.LVL36:
 235:.\Generated_Source\PSoC5/USB_Bootloader_boot.c ****         timeoutMs--;
 288              		.loc 1 235 0
 289 0066 013C     		subs	r4, r4, #1
 290              	.LVL37:
 291 0068 A4B2     		uxth	r4, r4
 292              	.LVL38:
 293              	.L23:
 231:.\Generated_Source\PSoC5/USB_Bootloader_boot.c ****           (0u != timeoutMs))
 294              		.loc 1 231 0
 295 006a 0120     		movs	r0, #1
 296 006c FFF7FEFF 		bl	USB_Bootloader_GetEPState
 297              	.LVL39:
 298 0070 0128     		cmp	r0, #1
 299 0072 01D0     		beq	.L24
 231:.\Generated_Source\PSoC5/USB_Bootloader_boot.c ****           (0u != timeoutMs))
 300              		.loc 1 231 0 is_stmt 0 discriminator 1
 301 0074 002C     		cmp	r4, #0
 302 0076 F3D1     		bne	.L25
 303              	.L24:
 236:.\Generated_Source\PSoC5/USB_Bootloader_boot.c ****     }
 237:.\Generated_Source\PSoC5/USB_Bootloader_boot.c **** 
 238:.\Generated_Source\PSoC5/USB_Bootloader_boot.c ****     /* OUT EP has completed */
 239:.\Generated_Source\PSoC5/USB_Bootloader_boot.c ****     if (USB_Bootloader_GetEPState(USB_Bootloader_BTLDR_OUT_EP) == USB_Bootloader_OUT_BUFFER_FULL)
 304              		.loc 1 239 0 is_stmt 1
 305 0078 0120     		movs	r0, #1
 306 007a FFF7FEFF 		bl	USB_Bootloader_GetEPState
 307              	.LVL40:
 308 007e 0128     		cmp	r0, #1
 309 0080 07D1     		bne	.L26
 240:.\Generated_Source\PSoC5/USB_Bootloader_boot.c ****     {
 241:.\Generated_Source\PSoC5/USB_Bootloader_boot.c ****         *count = USB_Bootloader_ReadOutEP(USB_Bootloader_BTLDR_OUT_EP, pData, size);
 310              		.loc 1 241 0
 311 0082 4146     		mov	r1, r8
 312 0084 3246     		mov	r2, r6
 313 0086 FFF7FEFF 		bl	USB_Bootloader_ReadOutEP
 314              	.LVL41:
 315 008a 3880     		strh	r0, [r7]	@ movhi
 316              	.LVL42:
 242:.\Generated_Source\PSoC5/USB_Bootloader_boot.c ****         retCode = CYRET_SUCCESS;
 317              		.loc 1 242 0
 318 008c 0020     		movs	r0, #0
 319 008e BDE8F081 		pop	{r4, r5, r6, r7, r8, pc}
 320              	.LVL43:
 321              	.L26:
ARM GAS  C:\Users\Robert\AppData\Local\Temp\cclJrXLm.s 			page 11


 243:.\Generated_Source\PSoC5/USB_Bootloader_boot.c ****     }
 244:.\Generated_Source\PSoC5/USB_Bootloader_boot.c ****     else
 245:.\Generated_Source\PSoC5/USB_Bootloader_boot.c ****     {
 246:.\Generated_Source\PSoC5/USB_Bootloader_boot.c ****         *count = 0u;
 322              		.loc 1 246 0
 323 0092 0023     		movs	r3, #0
 324 0094 3B80     		strh	r3, [r7]	@ movhi
 325              	.LVL44:
 247:.\Generated_Source\PSoC5/USB_Bootloader_boot.c ****         retCode = CYRET_TIMEOUT;
 326              		.loc 1 247 0
 327 0096 1020     		movs	r0, #16
 328              	.LVL45:
 248:.\Generated_Source\PSoC5/USB_Bootloader_boot.c ****     }
 249:.\Generated_Source\PSoC5/USB_Bootloader_boot.c **** 
 250:.\Generated_Source\PSoC5/USB_Bootloader_boot.c ****     return(retCode);
 251:.\Generated_Source\PSoC5/USB_Bootloader_boot.c **** }
 329              		.loc 1 251 0
 330 0098 BDE8F081 		pop	{r4, r5, r6, r7, r8, pc}
 331              	.LVL46:
 332              	.L33:
 333              		.align	2
 334              	.L32:
 335 009c 00000000 		.word	.LANCHOR0
 336              		.cfi_endproc
 337              	.LFE4:
 338              		.size	USB_Bootloader_CyBtldrCommRead, .-USB_Bootloader_CyBtldrCommRead
 339              		.bss
 340              		.set	.LANCHOR0,. + 0
 341              		.type	USB_Bootloader_started, %object
 342              		.size	USB_Bootloader_started, 1
 343              	USB_Bootloader_started:
 344 0000 00       		.space	1
 345              		.text
 346              	.Letext0:
 347              		.file 2 ".\\Generated_Source\\PSoC5\\cytypes.h"
 348              		.file 3 ".\\Generated_Source\\PSoC5\\USB_Bootloader.h"
 349              		.file 4 ".\\Generated_Source\\PSoC5\\CyLib.h"