ARM GAS  C:\Users\Robert\AppData\Local\Temp\ccGEgqLk.s 			page 1


   1              		.syntax unified
   2              		.cpu cortex-m3
   3              		.fpu softvfp
   4              		.eabi_attribute 20, 1
   5              		.eabi_attribute 21, 1
   6              		.eabi_attribute 23, 3
   7              		.eabi_attribute 24, 1
   8              		.eabi_attribute 25, 1
   9              		.eabi_attribute 26, 1
  10              		.eabi_attribute 30, 1
  11              		.eabi_attribute 34, 1
  12              		.eabi_attribute 18, 4
  13              		.thumb
  14              		.file	"USB_Bootloader.c"
  15              		.text
  16              	.Ltext0:
  17              		.cfi_sections	.debug_frame
  18              		.section	.text.USB_Bootloader_Init,"ax",%progbits
  19              		.align	2
  20              		.global	USB_Bootloader_Init
  21              		.thumb
  22              		.thumb_func
  23              		.type	USB_Bootloader_Init, %function
  24              	USB_Bootloader_Init:
  25              	.LFB1:
  26              		.file 1 ".\\Generated_Source\\PSoC5\\USB_Bootloader.c"
   1:.\Generated_Source\PSoC5/USB_Bootloader.c **** /*******************************************************************************
   2:.\Generated_Source\PSoC5/USB_Bootloader.c **** * File Name: USB_Bootloader.c
   3:.\Generated_Source\PSoC5/USB_Bootloader.c **** * Version 2.80
   4:.\Generated_Source\PSoC5/USB_Bootloader.c **** *
   5:.\Generated_Source\PSoC5/USB_Bootloader.c **** * Description:
   6:.\Generated_Source\PSoC5/USB_Bootloader.c **** *  API for USBFS Component.
   7:.\Generated_Source\PSoC5/USB_Bootloader.c **** *
   8:.\Generated_Source\PSoC5/USB_Bootloader.c **** * Note:
   9:.\Generated_Source\PSoC5/USB_Bootloader.c **** *  Many of the functions use endpoint number.  RAM arrays are sized with 9
  10:.\Generated_Source\PSoC5/USB_Bootloader.c **** *  elements so they are indexed directly by epNumber.  The SIE and ARB
  11:.\Generated_Source\PSoC5/USB_Bootloader.c **** *  registers are indexed by variations of epNumber - 1.
  12:.\Generated_Source\PSoC5/USB_Bootloader.c **** *
  13:.\Generated_Source\PSoC5/USB_Bootloader.c **** ********************************************************************************
  14:.\Generated_Source\PSoC5/USB_Bootloader.c **** * Copyright 2008-2014, Cypress Semiconductor Corporation.  All rights reserved.
  15:.\Generated_Source\PSoC5/USB_Bootloader.c **** * You may use this file only in accordance with the license, terms, conditions,
  16:.\Generated_Source\PSoC5/USB_Bootloader.c **** * disclaimers, and limitations in the end user license agreement accompanying
  17:.\Generated_Source\PSoC5/USB_Bootloader.c **** * the software package with which this file was provided.
  18:.\Generated_Source\PSoC5/USB_Bootloader.c **** *******************************************************************************/
  19:.\Generated_Source\PSoC5/USB_Bootloader.c **** 
  20:.\Generated_Source\PSoC5/USB_Bootloader.c **** #include <CyDmac.h>
  21:.\Generated_Source\PSoC5/USB_Bootloader.c **** #include "USB_Bootloader.h"
  22:.\Generated_Source\PSoC5/USB_Bootloader.c **** #include "USB_Bootloader_pvt.h"
  23:.\Generated_Source\PSoC5/USB_Bootloader.c **** #include "USB_Bootloader_hid.h"
  24:.\Generated_Source\PSoC5/USB_Bootloader.c **** #if(USB_Bootloader_DMA1_REMOVE == 0u)
  25:.\Generated_Source\PSoC5/USB_Bootloader.c ****     #include "USB_Bootloader_ep1_dma.h"
  26:.\Generated_Source\PSoC5/USB_Bootloader.c **** #endif   /*  USB_Bootloader_DMA1_REMOVE */
  27:.\Generated_Source\PSoC5/USB_Bootloader.c **** #if(USB_Bootloader_DMA2_REMOVE == 0u)
  28:.\Generated_Source\PSoC5/USB_Bootloader.c ****     #include "USB_Bootloader_ep2_dma.h"
  29:.\Generated_Source\PSoC5/USB_Bootloader.c **** #endif   /*  USB_Bootloader_DMA2_REMOVE */
  30:.\Generated_Source\PSoC5/USB_Bootloader.c **** #if(USB_Bootloader_DMA3_REMOVE == 0u)
  31:.\Generated_Source\PSoC5/USB_Bootloader.c ****     #include "USB_Bootloader_ep3_dma.h"
ARM GAS  C:\Users\Robert\AppData\Local\Temp\ccGEgqLk.s 			page 2


  32:.\Generated_Source\PSoC5/USB_Bootloader.c **** #endif   /*  USB_Bootloader_DMA3_REMOVE */
  33:.\Generated_Source\PSoC5/USB_Bootloader.c **** #if(USB_Bootloader_DMA4_REMOVE == 0u)
  34:.\Generated_Source\PSoC5/USB_Bootloader.c ****     #include "USB_Bootloader_ep4_dma.h"
  35:.\Generated_Source\PSoC5/USB_Bootloader.c **** #endif   /*  USB_Bootloader_DMA4_REMOVE */
  36:.\Generated_Source\PSoC5/USB_Bootloader.c **** #if(USB_Bootloader_DMA5_REMOVE == 0u)
  37:.\Generated_Source\PSoC5/USB_Bootloader.c ****     #include "USB_Bootloader_ep5_dma.h"
  38:.\Generated_Source\PSoC5/USB_Bootloader.c **** #endif   /*  USB_Bootloader_DMA5_REMOVE */
  39:.\Generated_Source\PSoC5/USB_Bootloader.c **** #if(USB_Bootloader_DMA6_REMOVE == 0u)
  40:.\Generated_Source\PSoC5/USB_Bootloader.c ****     #include "USB_Bootloader_ep6_dma.h"
  41:.\Generated_Source\PSoC5/USB_Bootloader.c **** #endif   /*  USB_Bootloader_DMA6_REMOVE */
  42:.\Generated_Source\PSoC5/USB_Bootloader.c **** #if(USB_Bootloader_DMA7_REMOVE == 0u)
  43:.\Generated_Source\PSoC5/USB_Bootloader.c ****     #include "USB_Bootloader_ep7_dma.h"
  44:.\Generated_Source\PSoC5/USB_Bootloader.c **** #endif   /*  USB_Bootloader_DMA7_REMOVE */
  45:.\Generated_Source\PSoC5/USB_Bootloader.c **** #if(USB_Bootloader_DMA8_REMOVE == 0u)
  46:.\Generated_Source\PSoC5/USB_Bootloader.c ****     #include "USB_Bootloader_ep8_dma.h"
  47:.\Generated_Source\PSoC5/USB_Bootloader.c **** #endif   /*  USB_Bootloader_DMA8_REMOVE */
  48:.\Generated_Source\PSoC5/USB_Bootloader.c **** #if((USB_Bootloader_EP_MM == USB_Bootloader__EP_DMAAUTO) && (USB_Bootloader_EP_DMA_AUTO_OPT == 0u))
  49:.\Generated_Source\PSoC5/USB_Bootloader.c ****     #include "USB_Bootloader_EP_DMA_Done_isr.h"
  50:.\Generated_Source\PSoC5/USB_Bootloader.c ****     #include "USB_Bootloader_EP8_DMA_Done_SR.h"
  51:.\Generated_Source\PSoC5/USB_Bootloader.c ****     #include "USB_Bootloader_EP17_DMA_Done_SR.h"
  52:.\Generated_Source\PSoC5/USB_Bootloader.c **** #endif /* ((USB_Bootloader_EP_MM == USB_Bootloader__EP_DMAAUTO) && (USB_Bootloader_EP_DMA_AUTO_OPT 
  53:.\Generated_Source\PSoC5/USB_Bootloader.c **** 
  54:.\Generated_Source\PSoC5/USB_Bootloader.c **** 
  55:.\Generated_Source\PSoC5/USB_Bootloader.c **** /***************************************
  56:.\Generated_Source\PSoC5/USB_Bootloader.c **** * Global data allocation
  57:.\Generated_Source\PSoC5/USB_Bootloader.c **** ***************************************/
  58:.\Generated_Source\PSoC5/USB_Bootloader.c **** 
  59:.\Generated_Source\PSoC5/USB_Bootloader.c **** uint8 USB_Bootloader_initVar = 0u;
  60:.\Generated_Source\PSoC5/USB_Bootloader.c **** #if(USB_Bootloader_EP_MM != USB_Bootloader__EP_MANUAL)
  61:.\Generated_Source\PSoC5/USB_Bootloader.c ****     uint8 USB_Bootloader_DmaChan[USB_Bootloader_MAX_EP];
  62:.\Generated_Source\PSoC5/USB_Bootloader.c ****     uint8 USB_Bootloader_DmaTd[USB_Bootloader_MAX_EP];
  63:.\Generated_Source\PSoC5/USB_Bootloader.c **** #endif /*  USB_Bootloader_EP_MM */
  64:.\Generated_Source\PSoC5/USB_Bootloader.c **** #if((USB_Bootloader_EP_MM == USB_Bootloader__EP_DMAAUTO) && (USB_Bootloader_EP_DMA_AUTO_OPT == 0u))
  65:.\Generated_Source\PSoC5/USB_Bootloader.c ****     static uint8 clearInDataRdyStatus = USB_Bootloader_ARB_EPX_CFG_DEFAULT;
  66:.\Generated_Source\PSoC5/USB_Bootloader.c ****     uint8 USB_Bootloader_DmaNextTd[USB_Bootloader_MAX_EP];
  67:.\Generated_Source\PSoC5/USB_Bootloader.c ****     const uint8 USB_Bootloader_epX_TD_TERMOUT_EN[USB_Bootloader_MAX_EP] =
  68:.\Generated_Source\PSoC5/USB_Bootloader.c ****     {   0u,
  69:.\Generated_Source\PSoC5/USB_Bootloader.c ****         USB_Bootloader_ep1_TD_TERMOUT_EN,
  70:.\Generated_Source\PSoC5/USB_Bootloader.c ****         USB_Bootloader_ep2_TD_TERMOUT_EN,
  71:.\Generated_Source\PSoC5/USB_Bootloader.c ****         USB_Bootloader_ep3_TD_TERMOUT_EN,
  72:.\Generated_Source\PSoC5/USB_Bootloader.c ****         USB_Bootloader_ep4_TD_TERMOUT_EN,
  73:.\Generated_Source\PSoC5/USB_Bootloader.c ****         USB_Bootloader_ep5_TD_TERMOUT_EN,
  74:.\Generated_Source\PSoC5/USB_Bootloader.c ****         USB_Bootloader_ep6_TD_TERMOUT_EN,
  75:.\Generated_Source\PSoC5/USB_Bootloader.c ****         USB_Bootloader_ep7_TD_TERMOUT_EN,
  76:.\Generated_Source\PSoC5/USB_Bootloader.c ****         USB_Bootloader_ep8_TD_TERMOUT_EN
  77:.\Generated_Source\PSoC5/USB_Bootloader.c ****     };
  78:.\Generated_Source\PSoC5/USB_Bootloader.c ****     volatile uint16 USB_Bootloader_inLength[USB_Bootloader_MAX_EP];
  79:.\Generated_Source\PSoC5/USB_Bootloader.c ****     const uint8 *USB_Bootloader_inDataPointer[USB_Bootloader_MAX_EP];
  80:.\Generated_Source\PSoC5/USB_Bootloader.c ****     volatile uint8 USB_Bootloader_inBufFull[USB_Bootloader_MAX_EP];
  81:.\Generated_Source\PSoC5/USB_Bootloader.c **** #endif /* ((USB_Bootloader_EP_MM == USB_Bootloader__EP_DMAAUTO) && (USB_Bootloader_EP_DMA_AUTO_OPT 
  82:.\Generated_Source\PSoC5/USB_Bootloader.c **** 
  83:.\Generated_Source\PSoC5/USB_Bootloader.c **** 
  84:.\Generated_Source\PSoC5/USB_Bootloader.c **** /*******************************************************************************
  85:.\Generated_Source\PSoC5/USB_Bootloader.c **** * Function Name: USB_Bootloader_Start
  86:.\Generated_Source\PSoC5/USB_Bootloader.c **** ********************************************************************************
  87:.\Generated_Source\PSoC5/USB_Bootloader.c **** *
  88:.\Generated_Source\PSoC5/USB_Bootloader.c **** * Summary:
ARM GAS  C:\Users\Robert\AppData\Local\Temp\ccGEgqLk.s 			page 3


  89:.\Generated_Source\PSoC5/USB_Bootloader.c **** *  This function initialize the USB SIE, arbiter and the
  90:.\Generated_Source\PSoC5/USB_Bootloader.c **** *  endpoint APIs, including setting the D+ Pullup
  91:.\Generated_Source\PSoC5/USB_Bootloader.c **** *
  92:.\Generated_Source\PSoC5/USB_Bootloader.c **** * Parameters:
  93:.\Generated_Source\PSoC5/USB_Bootloader.c **** *  device: Contains the device number of the desired device descriptor.
  94:.\Generated_Source\PSoC5/USB_Bootloader.c **** *          The device number can be found in the Device Descriptor Tab of
  95:.\Generated_Source\PSoC5/USB_Bootloader.c **** *          "Configure" dialog, under the settings of desired Device Descriptor,
  96:.\Generated_Source\PSoC5/USB_Bootloader.c **** *          in the "Device Number" field.
  97:.\Generated_Source\PSoC5/USB_Bootloader.c **** *  mode: The operating voltage. This determines whether the voltage regulator
  98:.\Generated_Source\PSoC5/USB_Bootloader.c **** *        is enabled for 5V operation or if pass through mode is used for 3.3V
  99:.\Generated_Source\PSoC5/USB_Bootloader.c **** *        operation. Symbolic names and their associated values are given in the
 100:.\Generated_Source\PSoC5/USB_Bootloader.c **** *        following table.
 101:.\Generated_Source\PSoC5/USB_Bootloader.c **** *       USB_Bootloader_3V_OPERATION - Disable voltage regulator and pass-thru
 102:.\Generated_Source\PSoC5/USB_Bootloader.c **** *                                       Vcc for pull-up
 103:.\Generated_Source\PSoC5/USB_Bootloader.c **** *       USB_Bootloader_5V_OPERATION - Enable voltage regulator and use
 104:.\Generated_Source\PSoC5/USB_Bootloader.c **** *                                       regulator for pull-up
 105:.\Generated_Source\PSoC5/USB_Bootloader.c **** *       USB_Bootloader_DWR_VDDD_OPERATION - Enable or Disable voltage
 106:.\Generated_Source\PSoC5/USB_Bootloader.c **** *                         regulator depend on Vddd Voltage configuration in DWR.
 107:.\Generated_Source\PSoC5/USB_Bootloader.c **** *
 108:.\Generated_Source\PSoC5/USB_Bootloader.c **** * Return:
 109:.\Generated_Source\PSoC5/USB_Bootloader.c **** *   None.
 110:.\Generated_Source\PSoC5/USB_Bootloader.c **** *
 111:.\Generated_Source\PSoC5/USB_Bootloader.c **** * Global variables:
 112:.\Generated_Source\PSoC5/USB_Bootloader.c **** *  The USB_Bootloader_intiVar variable is used to indicate initial
 113:.\Generated_Source\PSoC5/USB_Bootloader.c **** *  configuration of this component. The variable is initialized to zero (0u)
 114:.\Generated_Source\PSoC5/USB_Bootloader.c **** *  and set to one (1u) the first time USB_Bootloader_Start() is called.
 115:.\Generated_Source\PSoC5/USB_Bootloader.c **** *  This allows for component Re-Start without unnecessary re-initialization
 116:.\Generated_Source\PSoC5/USB_Bootloader.c **** *  in all subsequent calls to the USB_Bootloader_Start() routine.
 117:.\Generated_Source\PSoC5/USB_Bootloader.c **** *  If re-initialization of the component is required the variable should be set
 118:.\Generated_Source\PSoC5/USB_Bootloader.c **** *  to zero before call of UART_Start() routine, or the user may call
 119:.\Generated_Source\PSoC5/USB_Bootloader.c **** *  USB_Bootloader_Init() and USB_Bootloader_InitComponent() as done
 120:.\Generated_Source\PSoC5/USB_Bootloader.c **** *  in the USB_Bootloader_Start() routine.
 121:.\Generated_Source\PSoC5/USB_Bootloader.c **** *
 122:.\Generated_Source\PSoC5/USB_Bootloader.c **** * Side Effects:
 123:.\Generated_Source\PSoC5/USB_Bootloader.c **** *   This function will reset all communication states to default.
 124:.\Generated_Source\PSoC5/USB_Bootloader.c **** *
 125:.\Generated_Source\PSoC5/USB_Bootloader.c **** * Reentrant:
 126:.\Generated_Source\PSoC5/USB_Bootloader.c **** *  No.
 127:.\Generated_Source\PSoC5/USB_Bootloader.c **** *
 128:.\Generated_Source\PSoC5/USB_Bootloader.c **** *******************************************************************************/
 129:.\Generated_Source\PSoC5/USB_Bootloader.c **** void USB_Bootloader_Start(uint8 device, uint8 mode) 
 130:.\Generated_Source\PSoC5/USB_Bootloader.c **** {
 131:.\Generated_Source\PSoC5/USB_Bootloader.c ****     /* If not Initialized then initialize all required hardware and software */
 132:.\Generated_Source\PSoC5/USB_Bootloader.c ****     if(USB_Bootloader_initVar == 0u)
 133:.\Generated_Source\PSoC5/USB_Bootloader.c ****     {
 134:.\Generated_Source\PSoC5/USB_Bootloader.c ****         USB_Bootloader_Init();
 135:.\Generated_Source\PSoC5/USB_Bootloader.c ****         USB_Bootloader_initVar = 1u;
 136:.\Generated_Source\PSoC5/USB_Bootloader.c ****     }
 137:.\Generated_Source\PSoC5/USB_Bootloader.c ****     USB_Bootloader_InitComponent(device, mode);
 138:.\Generated_Source\PSoC5/USB_Bootloader.c **** }
 139:.\Generated_Source\PSoC5/USB_Bootloader.c **** 
 140:.\Generated_Source\PSoC5/USB_Bootloader.c **** 
 141:.\Generated_Source\PSoC5/USB_Bootloader.c **** /*******************************************************************************
 142:.\Generated_Source\PSoC5/USB_Bootloader.c **** * Function Name: USB_Bootloader_Init
 143:.\Generated_Source\PSoC5/USB_Bootloader.c **** ********************************************************************************
 144:.\Generated_Source\PSoC5/USB_Bootloader.c **** *
 145:.\Generated_Source\PSoC5/USB_Bootloader.c **** * Summary:
ARM GAS  C:\Users\Robert\AppData\Local\Temp\ccGEgqLk.s 			page 4


 146:.\Generated_Source\PSoC5/USB_Bootloader.c **** *  Initialize component's hardware. Usually called in USB_Bootloader_Start().
 147:.\Generated_Source\PSoC5/USB_Bootloader.c **** *
 148:.\Generated_Source\PSoC5/USB_Bootloader.c **** * Parameters:
 149:.\Generated_Source\PSoC5/USB_Bootloader.c **** *  None.
 150:.\Generated_Source\PSoC5/USB_Bootloader.c **** *
 151:.\Generated_Source\PSoC5/USB_Bootloader.c **** * Return:
 152:.\Generated_Source\PSoC5/USB_Bootloader.c **** *  None.
 153:.\Generated_Source\PSoC5/USB_Bootloader.c **** *
 154:.\Generated_Source\PSoC5/USB_Bootloader.c **** * Reentrant:
 155:.\Generated_Source\PSoC5/USB_Bootloader.c **** *  No.
 156:.\Generated_Source\PSoC5/USB_Bootloader.c **** *
 157:.\Generated_Source\PSoC5/USB_Bootloader.c **** *******************************************************************************/
 158:.\Generated_Source\PSoC5/USB_Bootloader.c **** void USB_Bootloader_Init(void) 
 159:.\Generated_Source\PSoC5/USB_Bootloader.c **** {
  27              		.loc 1 159 0
  28              		.cfi_startproc
  29              		@ args = 0, pretend = 0, frame = 0
  30              		@ frame_needed = 0, uses_anonymous_args = 0
  31 0000 F8B5     		push	{r3, r4, r5, r6, r7, lr}
  32              		.cfi_def_cfa_offset 24
  33              		.cfi_offset 3, -24
  34              		.cfi_offset 4, -20
  35              		.cfi_offset 5, -16
  36              		.cfi_offset 6, -12
  37              		.cfi_offset 7, -8
  38              		.cfi_offset 14, -4
 160:.\Generated_Source\PSoC5/USB_Bootloader.c ****     uint8 enableInterrupts;
 161:.\Generated_Source\PSoC5/USB_Bootloader.c ****     #if(USB_Bootloader_EP_MM != USB_Bootloader__EP_MANUAL)
 162:.\Generated_Source\PSoC5/USB_Bootloader.c ****         uint16 i;
 163:.\Generated_Source\PSoC5/USB_Bootloader.c ****     #endif   /*  USB_Bootloader_EP_MM != USB_Bootloader__EP_MANUAL */
 164:.\Generated_Source\PSoC5/USB_Bootloader.c **** 
 165:.\Generated_Source\PSoC5/USB_Bootloader.c ****     enableInterrupts = CyEnterCriticalSection();
  39              		.loc 1 165 0
  40 0002 FFF7FEFF 		bl	CyEnterCriticalSection
  41              	.LVL0:
  42 0006 0646     		mov	r6, r0
  43              	.LVL1:
 166:.\Generated_Source\PSoC5/USB_Bootloader.c **** 
 167:.\Generated_Source\PSoC5/USB_Bootloader.c ****     /* Enable USB block  */
 168:.\Generated_Source\PSoC5/USB_Bootloader.c ****     USB_Bootloader_PM_ACT_CFG_REG |= USB_Bootloader_PM_ACT_EN_FSUSB;
  44              		.loc 1 168 0
  45 0008 384A     		ldr	r2, .L3
  46 000a 1378     		ldrb	r3, [r2]	@ zero_extendqisi2
  47 000c 43F00103 		orr	r3, r3, #1
  48 0010 1370     		strb	r3, [r2]
 169:.\Generated_Source\PSoC5/USB_Bootloader.c ****     /* Enable USB block for Standby Power Mode */
 170:.\Generated_Source\PSoC5/USB_Bootloader.c ****     USB_Bootloader_PM_STBY_CFG_REG |= USB_Bootloader_PM_STBY_EN_FSUSB;
  49              		.loc 1 170 0
  50 0012 1032     		adds	r2, r2, #16
  51 0014 1378     		ldrb	r3, [r2]	@ zero_extendqisi2
  52 0016 43F00103 		orr	r3, r3, #1
  53 001a 1370     		strb	r3, [r2]
 171:.\Generated_Source\PSoC5/USB_Bootloader.c **** 
 172:.\Generated_Source\PSoC5/USB_Bootloader.c ****     /* Enable core clock */
 173:.\Generated_Source\PSoC5/USB_Bootloader.c ****     USB_Bootloader_USB_CLK_EN_REG = USB_Bootloader_USB_CLK_ENABLE;
  54              		.loc 1 173 0
  55 001c 0125     		movs	r5, #1
ARM GAS  C:\Users\Robert\AppData\Local\Temp\ccGEgqLk.s 			page 5


  56 001e 344B     		ldr	r3, .L3+4
  57 0020 1D70     		strb	r5, [r3]
 174:.\Generated_Source\PSoC5/USB_Bootloader.c **** 
 175:.\Generated_Source\PSoC5/USB_Bootloader.c ****     USB_Bootloader_CR1_REG = USB_Bootloader_CR1_ENABLE_LOCK;
  58              		.loc 1 175 0
  59 0022 0227     		movs	r7, #2
  60 0024 943B     		subs	r3, r3, #148
  61 0026 1F70     		strb	r7, [r3]
 176:.\Generated_Source\PSoC5/USB_Bootloader.c **** 
 177:.\Generated_Source\PSoC5/USB_Bootloader.c ****     /* ENABLING USBIO PADS IN USB MODE FROM I/O MODE */
 178:.\Generated_Source\PSoC5/USB_Bootloader.c ****     /* Ensure USB transmit enable is low (USB_USBIO_CR0.ten). - Manual Transmission - Disabled */
 179:.\Generated_Source\PSoC5/USB_Bootloader.c ****     USB_Bootloader_USBIO_CR0_REG &= ((uint8)(~USB_Bootloader_USBIO_CR0_TEN));
  62              		.loc 1 179 0
  63 0028 02F5E252 		add	r2, r2, #7232
  64 002c 1B32     		adds	r2, r2, #27
  65 002e 1378     		ldrb	r3, [r2]	@ zero_extendqisi2
  66 0030 03F07F03 		and	r3, r3, #127
  67 0034 1370     		strb	r3, [r2]
 180:.\Generated_Source\PSoC5/USB_Bootloader.c ****     CyDelayUs(0u);  /*~50ns delay */
  68              		.loc 1 180 0
  69 0036 0020     		movs	r0, #0
  70 0038 FFF7FEFF 		bl	CyDelayUs
  71              	.LVL2:
 181:.\Generated_Source\PSoC5/USB_Bootloader.c ****     /* Disable the USBIO by asserting PM.USB_CR0.fsusbio_pd_n(Inverted)
 182:.\Generated_Source\PSoC5/USB_Bootloader.c ****     *  high. This will have been set low by the power manger out of reset.
 183:.\Generated_Source\PSoC5/USB_Bootloader.c ****     *  Also confirm USBIO pull-up disabled
 184:.\Generated_Source\PSoC5/USB_Bootloader.c ****     */
 185:.\Generated_Source\PSoC5/USB_Bootloader.c ****     USB_Bootloader_PM_USB_CR0_REG &= ((uint8)(~(USB_Bootloader_PM_USB_CR0_PD_N |
  72              		.loc 1 185 0
  73 003c 2D4C     		ldr	r4, .L3+8
  74 003e 2378     		ldrb	r3, [r4]	@ zero_extendqisi2
  75 0040 03F0F903 		and	r3, r3, #249
  76 0044 2370     		strb	r3, [r4]
 186:.\Generated_Source\PSoC5/USB_Bootloader.c ****                                                   USB_Bootloader_PM_USB_CR0_PD_PULLUP_N)));
 187:.\Generated_Source\PSoC5/USB_Bootloader.c **** 
 188:.\Generated_Source\PSoC5/USB_Bootloader.c ****     /* Select iomode to USB mode*/
 189:.\Generated_Source\PSoC5/USB_Bootloader.c ****     USB_Bootloader_USBIO_CR1_REG &= ((uint8)(~USB_Bootloader_USBIO_CR1_IOMODE));
  77              		.loc 1 189 0
  78 0046 2C4A     		ldr	r2, .L3+12
  79 0048 1378     		ldrb	r3, [r2]	@ zero_extendqisi2
  80 004a 03F0DF03 		and	r3, r3, #223
  81 004e 1370     		strb	r3, [r2]
 190:.\Generated_Source\PSoC5/USB_Bootloader.c **** 
 191:.\Generated_Source\PSoC5/USB_Bootloader.c ****     /* Enable the USBIO reference by setting PM.USB_CR0.fsusbio_ref_en.*/
 192:.\Generated_Source\PSoC5/USB_Bootloader.c ****     USB_Bootloader_PM_USB_CR0_REG |= USB_Bootloader_PM_USB_CR0_REF_EN;
  82              		.loc 1 192 0
  83 0050 2378     		ldrb	r3, [r4]	@ zero_extendqisi2
  84 0052 2B43     		orrs	r3, r3, r5
  85 0054 2370     		strb	r3, [r4]
 193:.\Generated_Source\PSoC5/USB_Bootloader.c ****     /* The reference will be available 1 us after the regulator is enabled */
 194:.\Generated_Source\PSoC5/USB_Bootloader.c ****     CyDelayUs(1u);
  86              		.loc 1 194 0
  87 0056 2846     		mov	r0, r5
  88 0058 FFF7FEFF 		bl	CyDelayUs
  89              	.LVL3:
 195:.\Generated_Source\PSoC5/USB_Bootloader.c ****     /* OR 40us after power restored */
 196:.\Generated_Source\PSoC5/USB_Bootloader.c ****     CyDelayUs(40u);
ARM GAS  C:\Users\Robert\AppData\Local\Temp\ccGEgqLk.s 			page 6


  90              		.loc 1 196 0
  91 005c 2820     		movs	r0, #40
  92 005e FFF7FEFF 		bl	CyDelayUs
  93              	.LVL4:
 197:.\Generated_Source\PSoC5/USB_Bootloader.c ****     /* Ensure the single ended disable bits are low (PRT15.INP_DIS[7:6])(input receiver enabled). *
 198:.\Generated_Source\PSoC5/USB_Bootloader.c ****     USB_Bootloader_DM_INP_DIS_REG &= ((uint8)(~USB_Bootloader_DM_MASK));
  94              		.loc 1 198 0
  95 0062 264B     		ldr	r3, .L3+16
  96 0064 1A78     		ldrb	r2, [r3]	@ zero_extendqisi2
  97 0066 02F07F02 		and	r2, r2, #127
  98 006a 1A70     		strb	r2, [r3]
 199:.\Generated_Source\PSoC5/USB_Bootloader.c ****     USB_Bootloader_DP_INP_DIS_REG &= ((uint8)(~USB_Bootloader_DP_MASK));
  99              		.loc 1 199 0
 100 006c 1A78     		ldrb	r2, [r3]	@ zero_extendqisi2
 101 006e 02F0BF02 		and	r2, r2, #191
 102 0072 1A70     		strb	r2, [r3]
 200:.\Generated_Source\PSoC5/USB_Bootloader.c **** 
 201:.\Generated_Source\PSoC5/USB_Bootloader.c ****     /* Enable USBIO */
 202:.\Generated_Source\PSoC5/USB_Bootloader.c ****     USB_Bootloader_PM_USB_CR0_REG |= USB_Bootloader_PM_USB_CR0_PD_N;
 103              		.loc 1 202 0
 104 0074 2378     		ldrb	r3, [r4]	@ zero_extendqisi2
 105 0076 3B43     		orrs	r3, r3, r7
 106 0078 2370     		strb	r3, [r4]
 203:.\Generated_Source\PSoC5/USB_Bootloader.c ****     CyDelayUs(2u);
 107              		.loc 1 203 0
 108 007a 3846     		mov	r0, r7
 109 007c FFF7FEFF 		bl	CyDelayUs
 110              	.LVL5:
 204:.\Generated_Source\PSoC5/USB_Bootloader.c ****     /* Set the USBIO pull-up enable */
 205:.\Generated_Source\PSoC5/USB_Bootloader.c ****     USB_Bootloader_PM_USB_CR0_REG |= USB_Bootloader_PM_USB_CR0_PD_PULLUP_N;
 111              		.loc 1 205 0
 112 0080 2378     		ldrb	r3, [r4]	@ zero_extendqisi2
 113 0082 43F00403 		orr	r3, r3, #4
 114 0086 2370     		strb	r3, [r4]
 206:.\Generated_Source\PSoC5/USB_Bootloader.c **** 
 207:.\Generated_Source\PSoC5/USB_Bootloader.c ****     /* Write WAx */
 208:.\Generated_Source\PSoC5/USB_Bootloader.c ****     CY_SET_REG8(USB_Bootloader_ARB_RW1_WA_PTR,     0u);
 115              		.loc 1 208 0
 116 0088 0024     		movs	r4, #0
 117 008a 1D4B     		ldr	r3, .L3+20
 118 008c 1C70     		strb	r4, [r3]
 209:.\Generated_Source\PSoC5/USB_Bootloader.c ****     CY_SET_REG8(USB_Bootloader_ARB_RW1_WA_MSB_PTR, 0u);
 119              		.loc 1 209 0
 120 008e 0133     		adds	r3, r3, #1
 121 0090 1C70     		strb	r4, [r3]
 210:.\Generated_Source\PSoC5/USB_Bootloader.c **** 
 211:.\Generated_Source\PSoC5/USB_Bootloader.c ****     #if(USB_Bootloader_EP_MM != USB_Bootloader__EP_MANUAL)
 212:.\Generated_Source\PSoC5/USB_Bootloader.c ****         /* Init transfer descriptor. This will be used to detect the DMA state - initialized or not
 213:.\Generated_Source\PSoC5/USB_Bootloader.c ****         for (i = 0u; i < USB_Bootloader_MAX_EP; i++)
 214:.\Generated_Source\PSoC5/USB_Bootloader.c ****         {
 215:.\Generated_Source\PSoC5/USB_Bootloader.c ****             USB_Bootloader_DmaTd[i] = DMA_INVALID_TD;
 216:.\Generated_Source\PSoC5/USB_Bootloader.c ****             #if ((USB_Bootloader_EP_MM == USB_Bootloader__EP_DMAAUTO) && (USB_Bootloader_EP_DMA_AUT
 217:.\Generated_Source\PSoC5/USB_Bootloader.c ****                 USB_Bootloader_DmaNextTd[i] = DMA_INVALID_TD;
 218:.\Generated_Source\PSoC5/USB_Bootloader.c ****             #endif /* ((USB_Bootloader_EP_MM == USB_Bootloader__EP_DMAAUTO) && (USB_Bootloader_EP_D
 219:.\Generated_Source\PSoC5/USB_Bootloader.c ****         }
 220:.\Generated_Source\PSoC5/USB_Bootloader.c ****     #endif   /*  USB_Bootloader_EP_MM != USB_Bootloader__EP_MANUAL */
 221:.\Generated_Source\PSoC5/USB_Bootloader.c **** 
ARM GAS  C:\Users\Robert\AppData\Local\Temp\ccGEgqLk.s 			page 7


 222:.\Generated_Source\PSoC5/USB_Bootloader.c ****     CyExitCriticalSection(enableInterrupts);
 122              		.loc 1 222 0
 123 0092 3046     		mov	r0, r6
 124 0094 FFF7FEFF 		bl	CyExitCriticalSection
 125              	.LVL6:
 223:.\Generated_Source\PSoC5/USB_Bootloader.c **** 
 224:.\Generated_Source\PSoC5/USB_Bootloader.c **** 
 225:.\Generated_Source\PSoC5/USB_Bootloader.c ****     /* Set the bus reset Interrupt. */
 226:.\Generated_Source\PSoC5/USB_Bootloader.c ****     (void) CyIntSetVector(USB_Bootloader_BUS_RESET_VECT_NUM,   &USB_Bootloader_BUS_RESET_ISR);
 126              		.loc 1 226 0
 127 0098 1720     		movs	r0, #23
 128 009a 1A49     		ldr	r1, .L3+24
 129 009c FFF7FEFF 		bl	CyIntSetVector
 130              	.LVL7:
 227:.\Generated_Source\PSoC5/USB_Bootloader.c ****     CyIntSetPriority(USB_Bootloader_BUS_RESET_VECT_NUM, USB_Bootloader_BUS_RESET_PRIOR);
 131              		.loc 1 227 0
 132 00a0 1720     		movs	r0, #23
 133 00a2 0721     		movs	r1, #7
 134 00a4 FFF7FEFF 		bl	CyIntSetPriority
 135              	.LVL8:
 228:.\Generated_Source\PSoC5/USB_Bootloader.c **** 
 229:.\Generated_Source\PSoC5/USB_Bootloader.c ****     /* Set the SOF Interrupt. */
 230:.\Generated_Source\PSoC5/USB_Bootloader.c ****     #if(USB_Bootloader_SOF_ISR_REMOVE == 0u)
 231:.\Generated_Source\PSoC5/USB_Bootloader.c ****         (void) CyIntSetVector(USB_Bootloader_SOF_VECT_NUM,   &USB_Bootloader_SOF_ISR);
 136              		.loc 1 231 0
 137 00a8 1520     		movs	r0, #21
 138 00aa 1749     		ldr	r1, .L3+28
 139 00ac FFF7FEFF 		bl	CyIntSetVector
 140              	.LVL9:
 232:.\Generated_Source\PSoC5/USB_Bootloader.c ****         CyIntSetPriority(USB_Bootloader_SOF_VECT_NUM, USB_Bootloader_SOF_PRIOR);
 141              		.loc 1 232 0
 142 00b0 1520     		movs	r0, #21
 143 00b2 0721     		movs	r1, #7
 144 00b4 FFF7FEFF 		bl	CyIntSetPriority
 145              	.LVL10:
 233:.\Generated_Source\PSoC5/USB_Bootloader.c ****     #endif   /*  USB_Bootloader_SOF_ISR_REMOVE */
 234:.\Generated_Source\PSoC5/USB_Bootloader.c **** 
 235:.\Generated_Source\PSoC5/USB_Bootloader.c ****     /* Set the Control Endpoint Interrupt. */
 236:.\Generated_Source\PSoC5/USB_Bootloader.c ****     (void) CyIntSetVector(USB_Bootloader_EP_0_VECT_NUM,   &USB_Bootloader_EP_0_ISR);
 146              		.loc 1 236 0
 147 00b8 1820     		movs	r0, #24
 148 00ba 1449     		ldr	r1, .L3+32
 149 00bc FFF7FEFF 		bl	CyIntSetVector
 150              	.LVL11:
 237:.\Generated_Source\PSoC5/USB_Bootloader.c ****     CyIntSetPriority(USB_Bootloader_EP_0_VECT_NUM, USB_Bootloader_EP_0_PRIOR);
 151              		.loc 1 237 0
 152 00c0 1820     		movs	r0, #24
 153 00c2 0721     		movs	r1, #7
 154 00c4 FFF7FEFF 		bl	CyIntSetPriority
 155              	.LVL12:
 238:.\Generated_Source\PSoC5/USB_Bootloader.c **** 
 239:.\Generated_Source\PSoC5/USB_Bootloader.c ****     /* Set the Data Endpoint 1 Interrupt. */
 240:.\Generated_Source\PSoC5/USB_Bootloader.c ****     #if(USB_Bootloader_EP1_ISR_REMOVE == 0u)
 241:.\Generated_Source\PSoC5/USB_Bootloader.c ****         (void) CyIntSetVector(USB_Bootloader_EP_1_VECT_NUM,   &USB_Bootloader_EP_1_ISR);
 156              		.loc 1 241 0
 157 00c8 2046     		mov	r0, r4
 158 00ca 1149     		ldr	r1, .L3+36
ARM GAS  C:\Users\Robert\AppData\Local\Temp\ccGEgqLk.s 			page 8


 159 00cc FFF7FEFF 		bl	CyIntSetVector
 160              	.LVL13:
 242:.\Generated_Source\PSoC5/USB_Bootloader.c ****         CyIntSetPriority(USB_Bootloader_EP_1_VECT_NUM, USB_Bootloader_EP_1_PRIOR);
 161              		.loc 1 242 0
 162 00d0 2046     		mov	r0, r4
 163 00d2 0721     		movs	r1, #7
 164 00d4 FFF7FEFF 		bl	CyIntSetPriority
 165              	.LVL14:
 243:.\Generated_Source\PSoC5/USB_Bootloader.c ****     #endif   /*  USB_Bootloader_EP1_ISR_REMOVE */
 244:.\Generated_Source\PSoC5/USB_Bootloader.c **** 
 245:.\Generated_Source\PSoC5/USB_Bootloader.c ****     /* Set the Data Endpoint 2 Interrupt. */
 246:.\Generated_Source\PSoC5/USB_Bootloader.c ****     #if(USB_Bootloader_EP2_ISR_REMOVE == 0u)
 247:.\Generated_Source\PSoC5/USB_Bootloader.c ****         (void) CyIntSetVector(USB_Bootloader_EP_2_VECT_NUM,   &USB_Bootloader_EP_2_ISR);
 166              		.loc 1 247 0
 167 00d8 2846     		mov	r0, r5
 168 00da 0E49     		ldr	r1, .L3+40
 169 00dc FFF7FEFF 		bl	CyIntSetVector
 170              	.LVL15:
 248:.\Generated_Source\PSoC5/USB_Bootloader.c ****         CyIntSetPriority(USB_Bootloader_EP_2_VECT_NUM, USB_Bootloader_EP_2_PRIOR);
 171              		.loc 1 248 0
 172 00e0 2846     		mov	r0, r5
 173 00e2 0721     		movs	r1, #7
 174 00e4 FFF7FEFF 		bl	CyIntSetPriority
 175              	.LVL16:
 176 00e8 F8BD     		pop	{r3, r4, r5, r6, r7, pc}
 177              	.LVL17:
 178              	.L4:
 179 00ea 00BF     		.align	2
 180              	.L3:
 181 00ec A5430040 		.word	1073759141
 182 00f0 9D600040 		.word	1073766557
 183 00f4 94430040 		.word	1073759124
 184 00f8 12600040 		.word	1073766418
 185 00fc F8510040 		.word	1073762808
 186 0100 84600040 		.word	1073766532
 187 0104 00000000 		.word	USB_Bootloader_BUS_RESET_ISR
 188 0108 00000000 		.word	USB_Bootloader_SOF_ISR
 189 010c 00000000 		.word	USB_Bootloader_EP_0_ISR
 190 0110 00000000 		.word	USB_Bootloader_EP_1_ISR
 191 0114 00000000 		.word	USB_Bootloader_EP_2_ISR
 192              		.cfi_endproc
 193              	.LFE1:
 194              		.size	USB_Bootloader_Init, .-USB_Bootloader_Init
 195              		.section	.text.USB_Bootloader_InitComponent,"ax",%progbits
 196              		.align	2
 197              		.global	USB_Bootloader_InitComponent
 198              		.thumb
 199              		.thumb_func
 200              		.type	USB_Bootloader_InitComponent, %function
 201              	USB_Bootloader_InitComponent:
 202              	.LFB2:
 249:.\Generated_Source\PSoC5/USB_Bootloader.c ****     #endif   /*  USB_Bootloader_EP2_ISR_REMOVE */
 250:.\Generated_Source\PSoC5/USB_Bootloader.c **** 
 251:.\Generated_Source\PSoC5/USB_Bootloader.c ****     /* Set the Data Endpoint 3 Interrupt. */
 252:.\Generated_Source\PSoC5/USB_Bootloader.c ****     #if(USB_Bootloader_EP3_ISR_REMOVE == 0u)
 253:.\Generated_Source\PSoC5/USB_Bootloader.c ****         (void) CyIntSetVector(USB_Bootloader_EP_3_VECT_NUM,   &USB_Bootloader_EP_3_ISR);
 254:.\Generated_Source\PSoC5/USB_Bootloader.c ****         CyIntSetPriority(USB_Bootloader_EP_3_VECT_NUM, USB_Bootloader_EP_3_PRIOR);
ARM GAS  C:\Users\Robert\AppData\Local\Temp\ccGEgqLk.s 			page 9


 255:.\Generated_Source\PSoC5/USB_Bootloader.c ****     #endif   /*  USB_Bootloader_EP3_ISR_REMOVE */
 256:.\Generated_Source\PSoC5/USB_Bootloader.c **** 
 257:.\Generated_Source\PSoC5/USB_Bootloader.c ****     /* Set the Data Endpoint 4 Interrupt. */
 258:.\Generated_Source\PSoC5/USB_Bootloader.c ****     #if(USB_Bootloader_EP4_ISR_REMOVE == 0u)
 259:.\Generated_Source\PSoC5/USB_Bootloader.c ****         (void) CyIntSetVector(USB_Bootloader_EP_4_VECT_NUM,   &USB_Bootloader_EP_4_ISR);
 260:.\Generated_Source\PSoC5/USB_Bootloader.c ****         CyIntSetPriority(USB_Bootloader_EP_4_VECT_NUM, USB_Bootloader_EP_4_PRIOR);
 261:.\Generated_Source\PSoC5/USB_Bootloader.c ****     #endif   /*  USB_Bootloader_EP4_ISR_REMOVE */
 262:.\Generated_Source\PSoC5/USB_Bootloader.c **** 
 263:.\Generated_Source\PSoC5/USB_Bootloader.c ****     /* Set the Data Endpoint 5 Interrupt. */
 264:.\Generated_Source\PSoC5/USB_Bootloader.c ****     #if(USB_Bootloader_EP5_ISR_REMOVE == 0u)
 265:.\Generated_Source\PSoC5/USB_Bootloader.c ****         (void) CyIntSetVector(USB_Bootloader_EP_5_VECT_NUM,   &USB_Bootloader_EP_5_ISR);
 266:.\Generated_Source\PSoC5/USB_Bootloader.c ****         CyIntSetPriority(USB_Bootloader_EP_5_VECT_NUM, USB_Bootloader_EP_5_PRIOR);
 267:.\Generated_Source\PSoC5/USB_Bootloader.c ****     #endif   /*  USB_Bootloader_EP5_ISR_REMOVE */
 268:.\Generated_Source\PSoC5/USB_Bootloader.c **** 
 269:.\Generated_Source\PSoC5/USB_Bootloader.c ****     /* Set the Data Endpoint 6 Interrupt. */
 270:.\Generated_Source\PSoC5/USB_Bootloader.c ****     #if(USB_Bootloader_EP6_ISR_REMOVE == 0u)
 271:.\Generated_Source\PSoC5/USB_Bootloader.c ****         (void) CyIntSetVector(USB_Bootloader_EP_6_VECT_NUM,   &USB_Bootloader_EP_6_ISR);
 272:.\Generated_Source\PSoC5/USB_Bootloader.c ****         CyIntSetPriority(USB_Bootloader_EP_6_VECT_NUM, USB_Bootloader_EP_6_PRIOR);
 273:.\Generated_Source\PSoC5/USB_Bootloader.c ****     #endif   /*  USB_Bootloader_EP6_ISR_REMOVE */
 274:.\Generated_Source\PSoC5/USB_Bootloader.c **** 
 275:.\Generated_Source\PSoC5/USB_Bootloader.c ****      /* Set the Data Endpoint 7 Interrupt. */
 276:.\Generated_Source\PSoC5/USB_Bootloader.c ****     #if(USB_Bootloader_EP7_ISR_REMOVE == 0u)
 277:.\Generated_Source\PSoC5/USB_Bootloader.c ****         (void) CyIntSetVector(USB_Bootloader_EP_7_VECT_NUM,   &USB_Bootloader_EP_7_ISR);
 278:.\Generated_Source\PSoC5/USB_Bootloader.c ****         CyIntSetPriority(USB_Bootloader_EP_7_VECT_NUM, USB_Bootloader_EP_7_PRIOR);
 279:.\Generated_Source\PSoC5/USB_Bootloader.c ****     #endif   /*  USB_Bootloader_EP7_ISR_REMOVE */
 280:.\Generated_Source\PSoC5/USB_Bootloader.c **** 
 281:.\Generated_Source\PSoC5/USB_Bootloader.c ****     /* Set the Data Endpoint 8 Interrupt. */
 282:.\Generated_Source\PSoC5/USB_Bootloader.c ****     #if(USB_Bootloader_EP8_ISR_REMOVE == 0u)
 283:.\Generated_Source\PSoC5/USB_Bootloader.c ****         (void) CyIntSetVector(USB_Bootloader_EP_8_VECT_NUM,   &USB_Bootloader_EP_8_ISR);
 284:.\Generated_Source\PSoC5/USB_Bootloader.c ****         CyIntSetPriority(USB_Bootloader_EP_8_VECT_NUM, USB_Bootloader_EP_8_PRIOR);
 285:.\Generated_Source\PSoC5/USB_Bootloader.c ****     #endif   /*  USB_Bootloader_EP8_ISR_REMOVE */
 286:.\Generated_Source\PSoC5/USB_Bootloader.c **** 
 287:.\Generated_Source\PSoC5/USB_Bootloader.c ****     #if((USB_Bootloader_EP_MM != USB_Bootloader__EP_MANUAL) && (USB_Bootloader_ARB_ISR_REMOVE == 0u
 288:.\Generated_Source\PSoC5/USB_Bootloader.c ****         /* Set the ARB Interrupt. */
 289:.\Generated_Source\PSoC5/USB_Bootloader.c ****         (void) CyIntSetVector(USB_Bootloader_ARB_VECT_NUM,   &USB_Bootloader_ARB_ISR);
 290:.\Generated_Source\PSoC5/USB_Bootloader.c ****         CyIntSetPriority(USB_Bootloader_ARB_VECT_NUM, USB_Bootloader_ARB_PRIOR);
 291:.\Generated_Source\PSoC5/USB_Bootloader.c ****     #endif   /*  USB_Bootloader_EP_MM != USB_Bootloader__EP_MANUAL */
 292:.\Generated_Source\PSoC5/USB_Bootloader.c **** 
 293:.\Generated_Source\PSoC5/USB_Bootloader.c **** }
 294:.\Generated_Source\PSoC5/USB_Bootloader.c **** 
 295:.\Generated_Source\PSoC5/USB_Bootloader.c **** 
 296:.\Generated_Source\PSoC5/USB_Bootloader.c **** /*******************************************************************************
 297:.\Generated_Source\PSoC5/USB_Bootloader.c **** * Function Name: USB_Bootloader_InitComponent
 298:.\Generated_Source\PSoC5/USB_Bootloader.c **** ********************************************************************************
 299:.\Generated_Source\PSoC5/USB_Bootloader.c **** *
 300:.\Generated_Source\PSoC5/USB_Bootloader.c **** * Summary:
 301:.\Generated_Source\PSoC5/USB_Bootloader.c **** *  Initialize the component, except for the HW which is done one time in
 302:.\Generated_Source\PSoC5/USB_Bootloader.c **** *  the Start function.  This function pulls up D+.
 303:.\Generated_Source\PSoC5/USB_Bootloader.c **** *
 304:.\Generated_Source\PSoC5/USB_Bootloader.c **** * Parameters:
 305:.\Generated_Source\PSoC5/USB_Bootloader.c **** *  device: Contains the device number of the desired device descriptor.
 306:.\Generated_Source\PSoC5/USB_Bootloader.c **** *          The device number can be found in the Device Descriptor Tab of
 307:.\Generated_Source\PSoC5/USB_Bootloader.c **** *          "Configure" dialog, under the settings of desired Device Descriptor,
 308:.\Generated_Source\PSoC5/USB_Bootloader.c **** *          in the "Device Number" field.
 309:.\Generated_Source\PSoC5/USB_Bootloader.c **** *  mode: The operating voltage. This determines whether the voltage regulator
 310:.\Generated_Source\PSoC5/USB_Bootloader.c **** *        is enabled for 5V operation or if pass through mode is used for 3.3V
 311:.\Generated_Source\PSoC5/USB_Bootloader.c **** *        operation. Symbolic names and their associated values are given in the
ARM GAS  C:\Users\Robert\AppData\Local\Temp\ccGEgqLk.s 			page 10


 312:.\Generated_Source\PSoC5/USB_Bootloader.c **** *        following table.
 313:.\Generated_Source\PSoC5/USB_Bootloader.c **** *       USB_Bootloader_3V_OPERATION - Disable voltage regulator and pass-thru
 314:.\Generated_Source\PSoC5/USB_Bootloader.c **** *                                       Vcc for pull-up
 315:.\Generated_Source\PSoC5/USB_Bootloader.c **** *       USB_Bootloader_5V_OPERATION - Enable voltage regulator and use
 316:.\Generated_Source\PSoC5/USB_Bootloader.c **** *                                       regulator for pull-up
 317:.\Generated_Source\PSoC5/USB_Bootloader.c **** *       USB_Bootloader_DWR_VDDD_OPERATION - Enable or Disable voltage
 318:.\Generated_Source\PSoC5/USB_Bootloader.c **** *                         regulator depend on Vddd Voltage configuration in DWR.
 319:.\Generated_Source\PSoC5/USB_Bootloader.c **** *
 320:.\Generated_Source\PSoC5/USB_Bootloader.c **** * Return:
 321:.\Generated_Source\PSoC5/USB_Bootloader.c **** *   None.
 322:.\Generated_Source\PSoC5/USB_Bootloader.c **** *
 323:.\Generated_Source\PSoC5/USB_Bootloader.c **** * Global variables:
 324:.\Generated_Source\PSoC5/USB_Bootloader.c **** *   USB_Bootloader_device: Contains the device number of the desired device
 325:.\Generated_Source\PSoC5/USB_Bootloader.c **** *       descriptor. The device number can be found in the Device Descriptor Tab
 326:.\Generated_Source\PSoC5/USB_Bootloader.c **** *       of "Configure" dialog, under the settings of desired Device Descriptor,
 327:.\Generated_Source\PSoC5/USB_Bootloader.c **** *       in the "Device Number" field.
 328:.\Generated_Source\PSoC5/USB_Bootloader.c **** *   USB_Bootloader_transferState: This variable used by the communication
 329:.\Generated_Source\PSoC5/USB_Bootloader.c **** *       functions to handle current transfer state. Initialized to
 330:.\Generated_Source\PSoC5/USB_Bootloader.c **** *       TRANS_STATE_IDLE in this API.
 331:.\Generated_Source\PSoC5/USB_Bootloader.c **** *   USB_Bootloader_configuration: Contains current configuration number
 332:.\Generated_Source\PSoC5/USB_Bootloader.c **** *       which is set by the Host using SET_CONFIGURATION request.
 333:.\Generated_Source\PSoC5/USB_Bootloader.c **** *       Initialized to zero in this API.
 334:.\Generated_Source\PSoC5/USB_Bootloader.c **** *   USB_Bootloader_deviceAddress: Contains current device address. This
 335:.\Generated_Source\PSoC5/USB_Bootloader.c **** *       variable is initialized to zero in this API. Host starts to communicate
 336:.\Generated_Source\PSoC5/USB_Bootloader.c **** *      to device with address 0 and then set it to whatever value using
 337:.\Generated_Source\PSoC5/USB_Bootloader.c **** *      SET_ADDRESS request.
 338:.\Generated_Source\PSoC5/USB_Bootloader.c **** *   USB_Bootloader_deviceStatus: initialized to 0.
 339:.\Generated_Source\PSoC5/USB_Bootloader.c **** *       This is two bit variable which contain power status in first bit
 340:.\Generated_Source\PSoC5/USB_Bootloader.c **** *       (DEVICE_STATUS_BUS_POWERED or DEVICE_STATUS_SELF_POWERED) and remote
 341:.\Generated_Source\PSoC5/USB_Bootloader.c **** *       wakeup status (DEVICE_STATUS_REMOTE_WAKEUP) in second bit.
 342:.\Generated_Source\PSoC5/USB_Bootloader.c **** *   USB_Bootloader_lastPacketSize initialized to 0;
 343:.\Generated_Source\PSoC5/USB_Bootloader.c **** *
 344:.\Generated_Source\PSoC5/USB_Bootloader.c **** * Reentrant:
 345:.\Generated_Source\PSoC5/USB_Bootloader.c **** *  No.
 346:.\Generated_Source\PSoC5/USB_Bootloader.c **** *
 347:.\Generated_Source\PSoC5/USB_Bootloader.c **** *******************************************************************************/
 348:.\Generated_Source\PSoC5/USB_Bootloader.c **** void USB_Bootloader_InitComponent(uint8 device, uint8 mode) 
 349:.\Generated_Source\PSoC5/USB_Bootloader.c **** {
 203              		.loc 1 349 0
 204              		.cfi_startproc
 205              		@ args = 0, pretend = 0, frame = 0
 206              		@ frame_needed = 0, uses_anonymous_args = 0
 207              	.LVL18:
 208 0000 10B5     		push	{r4, lr}
 209              		.cfi_def_cfa_offset 8
 210              		.cfi_offset 4, -8
 211              		.cfi_offset 14, -4
 212              	.LVL19:
 350:.\Generated_Source\PSoC5/USB_Bootloader.c ****     /* Initialize _hidProtocol variable to comply with
 351:.\Generated_Source\PSoC5/USB_Bootloader.c ****     *  HID 7.2.6 Set_Protocol Request:
 352:.\Generated_Source\PSoC5/USB_Bootloader.c ****     *  "When initialized, all devices default to report protocol."
 353:.\Generated_Source\PSoC5/USB_Bootloader.c ****     */
 354:.\Generated_Source\PSoC5/USB_Bootloader.c ****     #if defined(USB_Bootloader_ENABLE_HID_CLASS)
 355:.\Generated_Source\PSoC5/USB_Bootloader.c ****         uint8 i;
 356:.\Generated_Source\PSoC5/USB_Bootloader.c **** 
 357:.\Generated_Source\PSoC5/USB_Bootloader.c ****         for (i = 0u; i < USB_Bootloader_MAX_INTERFACES_NUMBER; i++)
 213              		.loc 1 357 0
ARM GAS  C:\Users\Robert\AppData\Local\Temp\ccGEgqLk.s 			page 11


 214 0002 0023     		movs	r3, #0
 215 0004 04E0     		b	.L6
 216              	.LVL20:
 217              	.L7:
 358:.\Generated_Source\PSoC5/USB_Bootloader.c ****         {
 359:.\Generated_Source\PSoC5/USB_Bootloader.c ****             USB_Bootloader_hidProtocol[i] = USB_Bootloader_PROTOCOL_REPORT;
 218              		.loc 1 359 0 discriminator 3
 219 0006 0124     		movs	r4, #1
 220 0008 1F4A     		ldr	r2, .L14
 221 000a D454     		strb	r4, [r2, r3]
 357:.\Generated_Source\PSoC5/USB_Bootloader.c ****         {
 222              		.loc 1 357 0 discriminator 3
 223 000c 2344     		add	r3, r3, r4
 224              	.LVL21:
 225 000e DBB2     		uxtb	r3, r3
 226              	.LVL22:
 227              	.L6:
 357:.\Generated_Source\PSoC5/USB_Bootloader.c ****         {
 228              		.loc 1 357 0 is_stmt 0 discriminator 1
 229 0010 002B     		cmp	r3, #0
 230 0012 F8D0     		beq	.L7
 360:.\Generated_Source\PSoC5/USB_Bootloader.c ****         }
 361:.\Generated_Source\PSoC5/USB_Bootloader.c ****     #endif /* USB_Bootloader_ENABLE_HID_CLASS */
 362:.\Generated_Source\PSoC5/USB_Bootloader.c **** 
 363:.\Generated_Source\PSoC5/USB_Bootloader.c ****     /* Enable Interrupts. */
 364:.\Generated_Source\PSoC5/USB_Bootloader.c ****     CyIntEnable(USB_Bootloader_BUS_RESET_VECT_NUM);
 231              		.loc 1 364 0 is_stmt 1
 232 0014 1D4B     		ldr	r3, .L14+4
 233              	.LVL23:
 234 0016 4FF40002 		mov	r2, #8388608
 235 001a 1A60     		str	r2, [r3]
 365:.\Generated_Source\PSoC5/USB_Bootloader.c ****     CyIntEnable(USB_Bootloader_EP_0_VECT_NUM);
 236              		.loc 1 365 0
 237 001c 4FF08072 		mov	r2, #16777216
 238 0020 1A60     		str	r2, [r3]
 366:.\Generated_Source\PSoC5/USB_Bootloader.c ****     #if(USB_Bootloader_EP1_ISR_REMOVE == 0u)
 367:.\Generated_Source\PSoC5/USB_Bootloader.c ****         CyIntEnable(USB_Bootloader_EP_1_VECT_NUM);
 239              		.loc 1 367 0
 240 0022 0122     		movs	r2, #1
 241 0024 1A60     		str	r2, [r3]
 368:.\Generated_Source\PSoC5/USB_Bootloader.c ****     #endif   /*  USB_Bootloader_EP1_ISR_REMOVE */
 369:.\Generated_Source\PSoC5/USB_Bootloader.c ****     #if(USB_Bootloader_EP2_ISR_REMOVE == 0u)
 370:.\Generated_Source\PSoC5/USB_Bootloader.c ****         CyIntEnable(USB_Bootloader_EP_2_VECT_NUM);
 242              		.loc 1 370 0
 243 0026 0222     		movs	r2, #2
 244 0028 1A60     		str	r2, [r3]
 371:.\Generated_Source\PSoC5/USB_Bootloader.c ****     #endif   /*  USB_Bootloader_EP2_ISR_REMOVE */
 372:.\Generated_Source\PSoC5/USB_Bootloader.c ****     #if(USB_Bootloader_EP3_ISR_REMOVE == 0u)
 373:.\Generated_Source\PSoC5/USB_Bootloader.c ****         CyIntEnable(USB_Bootloader_EP_3_VECT_NUM);
 374:.\Generated_Source\PSoC5/USB_Bootloader.c ****     #endif   /*  USB_Bootloader_EP3_ISR_REMOVE */
 375:.\Generated_Source\PSoC5/USB_Bootloader.c ****     #if(USB_Bootloader_EP4_ISR_REMOVE == 0u)
 376:.\Generated_Source\PSoC5/USB_Bootloader.c ****         CyIntEnable(USB_Bootloader_EP_4_VECT_NUM);
 377:.\Generated_Source\PSoC5/USB_Bootloader.c ****     #endif   /*  USB_Bootloader_EP4_ISR_REMOVE */
 378:.\Generated_Source\PSoC5/USB_Bootloader.c ****     #if(USB_Bootloader_EP5_ISR_REMOVE == 0u)
 379:.\Generated_Source\PSoC5/USB_Bootloader.c ****         CyIntEnable(USB_Bootloader_EP_5_VECT_NUM);
 380:.\Generated_Source\PSoC5/USB_Bootloader.c ****     #endif   /*  USB_Bootloader_EP5_ISR_REMOVE */
 381:.\Generated_Source\PSoC5/USB_Bootloader.c ****     #if(USB_Bootloader_EP6_ISR_REMOVE == 0u)
ARM GAS  C:\Users\Robert\AppData\Local\Temp\ccGEgqLk.s 			page 12


 382:.\Generated_Source\PSoC5/USB_Bootloader.c ****         CyIntEnable(USB_Bootloader_EP_6_VECT_NUM);
 383:.\Generated_Source\PSoC5/USB_Bootloader.c ****     #endif   /*  USB_Bootloader_EP6_ISR_REMOVE */
 384:.\Generated_Source\PSoC5/USB_Bootloader.c ****     #if(USB_Bootloader_EP7_ISR_REMOVE == 0u)
 385:.\Generated_Source\PSoC5/USB_Bootloader.c ****         CyIntEnable(USB_Bootloader_EP_7_VECT_NUM);
 386:.\Generated_Source\PSoC5/USB_Bootloader.c ****     #endif   /*  USB_Bootloader_EP7_ISR_REMOVE */
 387:.\Generated_Source\PSoC5/USB_Bootloader.c ****     #if(USB_Bootloader_EP8_ISR_REMOVE == 0u)
 388:.\Generated_Source\PSoC5/USB_Bootloader.c ****         CyIntEnable(USB_Bootloader_EP_8_VECT_NUM);
 389:.\Generated_Source\PSoC5/USB_Bootloader.c ****     #endif   /*  USB_Bootloader_EP8_ISR_REMOVE */
 390:.\Generated_Source\PSoC5/USB_Bootloader.c ****     #if((USB_Bootloader_EP_MM != USB_Bootloader__EP_MANUAL) && (USB_Bootloader_ARB_ISR_REMOVE == 0u
 391:.\Generated_Source\PSoC5/USB_Bootloader.c ****         /* usb arb interrupt enable */
 392:.\Generated_Source\PSoC5/USB_Bootloader.c ****         USB_Bootloader_ARB_INT_EN_REG = USB_Bootloader_ARB_INT_MASK;
 393:.\Generated_Source\PSoC5/USB_Bootloader.c ****         CyIntEnable(USB_Bootloader_ARB_VECT_NUM);
 394:.\Generated_Source\PSoC5/USB_Bootloader.c ****     #endif   /*  USB_Bootloader_EP_MM != USB_Bootloader__EP_MANUAL */
 395:.\Generated_Source\PSoC5/USB_Bootloader.c **** 
 396:.\Generated_Source\PSoC5/USB_Bootloader.c ****     /* Arbiter configuration for DMA transfers */
 397:.\Generated_Source\PSoC5/USB_Bootloader.c ****     #if(USB_Bootloader_EP_MM != USB_Bootloader__EP_MANUAL)
 398:.\Generated_Source\PSoC5/USB_Bootloader.c ****         #if(USB_Bootloader_EP_MM == USB_Bootloader__EP_DMAMANUAL)
 399:.\Generated_Source\PSoC5/USB_Bootloader.c ****             USB_Bootloader_ARB_CFG_REG = USB_Bootloader_ARB_CFG_MANUAL_DMA;
 400:.\Generated_Source\PSoC5/USB_Bootloader.c ****         #endif   /*  USB_Bootloader_EP_MM == USB_Bootloader__EP_DMAMANUAL */
 401:.\Generated_Source\PSoC5/USB_Bootloader.c ****         #if(USB_Bootloader_EP_MM == USB_Bootloader__EP_DMAAUTO)
 402:.\Generated_Source\PSoC5/USB_Bootloader.c ****             /*Set cfg cmplt this rises DMA request when the full configuration is done */
 403:.\Generated_Source\PSoC5/USB_Bootloader.c ****             USB_Bootloader_ARB_CFG_REG = USB_Bootloader_ARB_CFG_AUTO_DMA | USB_Bootloader_ARB_CFG_A
 404:.\Generated_Source\PSoC5/USB_Bootloader.c ****             #if(USB_Bootloader_EP_DMA_AUTO_OPT == 0u)
 405:.\Generated_Source\PSoC5/USB_Bootloader.c ****                 /* Init interrupt which handles verification of the successful DMA transaction */
 406:.\Generated_Source\PSoC5/USB_Bootloader.c ****                 USB_Bootloader_EP_DMA_Done_isr_StartEx(&USB_Bootloader_EP_DMA_DONE_ISR);
 407:.\Generated_Source\PSoC5/USB_Bootloader.c ****                 USB_Bootloader_EP17_DMA_Done_SR_InterruptEnable();
 408:.\Generated_Source\PSoC5/USB_Bootloader.c ****                 USB_Bootloader_EP8_DMA_Done_SR_InterruptEnable();
 409:.\Generated_Source\PSoC5/USB_Bootloader.c ****             #endif /* USB_Bootloader_EP_DMA_AUTO_OPT == 0u */
 410:.\Generated_Source\PSoC5/USB_Bootloader.c ****         #endif   /*  USB_Bootloader_EP_MM == USB_Bootloader__EP_DMAAUTO */
 411:.\Generated_Source\PSoC5/USB_Bootloader.c ****     #endif   /*  USB_Bootloader_EP_MM != USB_Bootloader__EP_MANUAL */
 412:.\Generated_Source\PSoC5/USB_Bootloader.c **** 
 413:.\Generated_Source\PSoC5/USB_Bootloader.c ****     USB_Bootloader_transferState = USB_Bootloader_TRANS_STATE_IDLE;
 245              		.loc 1 413 0
 246 002a 0022     		movs	r2, #0
 247 002c 184B     		ldr	r3, .L14+8
 248 002e 1A70     		strb	r2, [r3]
 414:.\Generated_Source\PSoC5/USB_Bootloader.c **** 
 415:.\Generated_Source\PSoC5/USB_Bootloader.c ****     /* USB Locking: Enabled, VRegulator: depend on mode or DWR Voltage configuration*/
 416:.\Generated_Source\PSoC5/USB_Bootloader.c ****     switch(mode)
 249              		.loc 1 416 0
 250 0030 11B1     		cbz	r1, .L9
 251 0032 0129     		cmp	r1, #1
 252 0034 04D0     		beq	.L10
 253 0036 07E0     		b	.L12
 254              	.L9:
 417:.\Generated_Source\PSoC5/USB_Bootloader.c ****     {
 418:.\Generated_Source\PSoC5/USB_Bootloader.c ****         case USB_Bootloader_3V_OPERATION:
 419:.\Generated_Source\PSoC5/USB_Bootloader.c ****             USB_Bootloader_CR1_REG = USB_Bootloader_CR1_ENABLE_LOCK;
 255              		.loc 1 419 0
 256 0038 0222     		movs	r2, #2
 257 003a 164B     		ldr	r3, .L14+12
 258 003c 1A70     		strb	r2, [r3]
 420:.\Generated_Source\PSoC5/USB_Bootloader.c ****             break;
 259              		.loc 1 420 0
 260 003e 06E0     		b	.L11
 261              	.L10:
 421:.\Generated_Source\PSoC5/USB_Bootloader.c ****         case USB_Bootloader_5V_OPERATION:
ARM GAS  C:\Users\Robert\AppData\Local\Temp\ccGEgqLk.s 			page 13


 422:.\Generated_Source\PSoC5/USB_Bootloader.c ****             USB_Bootloader_CR1_REG = USB_Bootloader_CR1_ENABLE_LOCK | USB_Bootloader_CR1_REG_ENABLE
 262              		.loc 1 422 0
 263 0040 0322     		movs	r2, #3
 264 0042 144B     		ldr	r3, .L14+12
 265 0044 1A70     		strb	r2, [r3]
 423:.\Generated_Source\PSoC5/USB_Bootloader.c ****             break;
 266              		.loc 1 423 0
 267 0046 02E0     		b	.L11
 268              	.L12:
 424:.\Generated_Source\PSoC5/USB_Bootloader.c ****         default:   /*USB_Bootloader_DWR_VDDD_OPERATION */
 425:.\Generated_Source\PSoC5/USB_Bootloader.c ****             #if(USB_Bootloader_VDDD_MV < USB_Bootloader_3500MV)
 426:.\Generated_Source\PSoC5/USB_Bootloader.c ****                 USB_Bootloader_CR1_REG = USB_Bootloader_CR1_ENABLE_LOCK;
 427:.\Generated_Source\PSoC5/USB_Bootloader.c ****             #else
 428:.\Generated_Source\PSoC5/USB_Bootloader.c ****                 USB_Bootloader_CR1_REG = USB_Bootloader_CR1_ENABLE_LOCK | USB_Bootloader_CR1_REG_EN
 269              		.loc 1 428 0
 270 0048 0322     		movs	r2, #3
 271 004a 124B     		ldr	r3, .L14+12
 272 004c 1A70     		strb	r2, [r3]
 273              	.L11:
 429:.\Generated_Source\PSoC5/USB_Bootloader.c ****             #endif /*  USB_Bootloader_VDDD_MV < USB_Bootloader_3500MV */
 430:.\Generated_Source\PSoC5/USB_Bootloader.c ****             break;
 431:.\Generated_Source\PSoC5/USB_Bootloader.c ****     }
 432:.\Generated_Source\PSoC5/USB_Bootloader.c **** 
 433:.\Generated_Source\PSoC5/USB_Bootloader.c ****     /* Record the descriptor selection */
 434:.\Generated_Source\PSoC5/USB_Bootloader.c ****     USB_Bootloader_device = device;
 274              		.loc 1 434 0
 275 004e 124B     		ldr	r3, .L14+16
 276 0050 1870     		strb	r0, [r3]
 435:.\Generated_Source\PSoC5/USB_Bootloader.c **** 
 436:.\Generated_Source\PSoC5/USB_Bootloader.c ****     /* Clear all of the component data */
 437:.\Generated_Source\PSoC5/USB_Bootloader.c ****     USB_Bootloader_configuration = 0u;
 277              		.loc 1 437 0
 278 0052 0023     		movs	r3, #0
 279 0054 114A     		ldr	r2, .L14+20
 280 0056 1370     		strb	r3, [r2]
 438:.\Generated_Source\PSoC5/USB_Bootloader.c ****     USB_Bootloader_interfaceNumber = 0u;
 281              		.loc 1 438 0
 282 0058 114A     		ldr	r2, .L14+24
 283 005a 1370     		strb	r3, [r2]
 439:.\Generated_Source\PSoC5/USB_Bootloader.c ****     USB_Bootloader_configurationChanged = 0u;
 284              		.loc 1 439 0
 285 005c 114A     		ldr	r2, .L14+28
 286 005e 1370     		strb	r3, [r2]
 440:.\Generated_Source\PSoC5/USB_Bootloader.c ****     USB_Bootloader_deviceAddress  = 0u;
 287              		.loc 1 440 0
 288 0060 114A     		ldr	r2, .L14+32
 289 0062 1370     		strb	r3, [r2]
 441:.\Generated_Source\PSoC5/USB_Bootloader.c ****     USB_Bootloader_deviceStatus = 0u;
 290              		.loc 1 441 0
 291 0064 114A     		ldr	r2, .L14+36
 292 0066 1370     		strb	r3, [r2]
 442:.\Generated_Source\PSoC5/USB_Bootloader.c **** 
 443:.\Generated_Source\PSoC5/USB_Bootloader.c ****     USB_Bootloader_lastPacketSize = 0u;
 293              		.loc 1 443 0
 294 0068 114A     		ldr	r2, .L14+40
 295 006a 1370     		strb	r3, [r2]
 444:.\Generated_Source\PSoC5/USB_Bootloader.c **** 
ARM GAS  C:\Users\Robert\AppData\Local\Temp\ccGEgqLk.s 			page 14


 445:.\Generated_Source\PSoC5/USB_Bootloader.c ****     /*  ACK Setup, Stall IN/OUT */
 446:.\Generated_Source\PSoC5/USB_Bootloader.c ****     CY_SET_REG8(USB_Bootloader_EP0_CR_PTR, USB_Bootloader_MODE_STALL_IN_OUT);
 296              		.loc 1 446 0
 297 006c 0322     		movs	r2, #3
 298 006e 114B     		ldr	r3, .L14+44
 299 0070 1A70     		strb	r2, [r3]
 447:.\Generated_Source\PSoC5/USB_Bootloader.c **** 
 448:.\Generated_Source\PSoC5/USB_Bootloader.c ****     /* Enable the SIE with an address 0 */
 449:.\Generated_Source\PSoC5/USB_Bootloader.c ****     CY_SET_REG8(USB_Bootloader_CR0_PTR, USB_Bootloader_CR0_ENABLE);
 300              		.loc 1 449 0
 301 0072 8022     		movs	r2, #128
 302 0074 203B     		subs	r3, r3, #32
 303 0076 1A70     		strb	r2, [r3]
 450:.\Generated_Source\PSoC5/USB_Bootloader.c **** 
 451:.\Generated_Source\PSoC5/USB_Bootloader.c ****     /* Workaround for PSOC5LP */
 452:.\Generated_Source\PSoC5/USB_Bootloader.c ****     CyDelayCycles(1u);
 304              		.loc 1 452 0
 305 0078 0120     		movs	r0, #1
 306              	.LVL24:
 307 007a FFF7FEFF 		bl	CyDelayCycles
 308              	.LVL25:
 453:.\Generated_Source\PSoC5/USB_Bootloader.c **** 
 454:.\Generated_Source\PSoC5/USB_Bootloader.c ****     /* Finally, Enable d+ pullup and select iomode to USB mode*/
 455:.\Generated_Source\PSoC5/USB_Bootloader.c ****     CY_SET_REG8(USB_Bootloader_USBIO_CR1_PTR, USB_Bootloader_USBIO_CR1_USBPUEN);
 309              		.loc 1 455 0
 310 007e 0422     		movs	r2, #4
 311 0080 0D4B     		ldr	r3, .L14+48
 312 0082 1A70     		strb	r2, [r3]
 313 0084 10BD     		pop	{r4, pc}
 314              	.L15:
 315 0086 00BF     		.align	2
 316              	.L14:
 317 0088 00000000 		.word	USB_Bootloader_hidProtocol
 318 008c 00E100E0 		.word	-536813312
 319 0090 00000000 		.word	USB_Bootloader_transferState
 320 0094 09600040 		.word	1073766409
 321 0098 00000000 		.word	USB_Bootloader_device
 322 009c 00000000 		.word	USB_Bootloader_configuration
 323 00a0 00000000 		.word	USB_Bootloader_interfaceNumber
 324 00a4 00000000 		.word	USB_Bootloader_configurationChanged
 325 00a8 00000000 		.word	USB_Bootloader_deviceAddress
 326 00ac 00000000 		.word	USB_Bootloader_deviceStatus
 327 00b0 00000000 		.word	USB_Bootloader_lastPacketSize
 328 00b4 28600040 		.word	1073766440
 329 00b8 12600040 		.word	1073766418
 330              		.cfi_endproc
 331              	.LFE2:
 332              		.size	USB_Bootloader_InitComponent, .-USB_Bootloader_InitComponent
 333              		.section	.text.USB_Bootloader_Start,"ax",%progbits
 334              		.align	2
 335              		.global	USB_Bootloader_Start
 336              		.thumb
 337              		.thumb_func
 338              		.type	USB_Bootloader_Start, %function
 339              	USB_Bootloader_Start:
 340              	.LFB0:
 130:.\Generated_Source\PSoC5/USB_Bootloader.c ****     /* If not Initialized then initialize all required hardware and software */
ARM GAS  C:\Users\Robert\AppData\Local\Temp\ccGEgqLk.s 			page 15


 341              		.loc 1 130 0
 342              		.cfi_startproc
 343              		@ args = 0, pretend = 0, frame = 0
 344              		@ frame_needed = 0, uses_anonymous_args = 0
 345              	.LVL26:
 346 0000 38B5     		push	{r3, r4, r5, lr}
 347              		.cfi_def_cfa_offset 16
 348              		.cfi_offset 3, -16
 349              		.cfi_offset 4, -12
 350              		.cfi_offset 5, -8
 351              		.cfi_offset 14, -4
 352 0002 0546     		mov	r5, r0
 353 0004 0C46     		mov	r4, r1
 132:.\Generated_Source\PSoC5/USB_Bootloader.c ****     {
 354              		.loc 1 132 0
 355 0006 064B     		ldr	r3, .L19
 356 0008 1B78     		ldrb	r3, [r3]	@ zero_extendqisi2
 357 000a 23B9     		cbnz	r3, .L17
 134:.\Generated_Source\PSoC5/USB_Bootloader.c ****         USB_Bootloader_initVar = 1u;
 358              		.loc 1 134 0
 359 000c FFF7FEFF 		bl	USB_Bootloader_Init
 360              	.LVL27:
 135:.\Generated_Source\PSoC5/USB_Bootloader.c ****     }
 361              		.loc 1 135 0
 362 0010 0122     		movs	r2, #1
 363 0012 034B     		ldr	r3, .L19
 364 0014 1A70     		strb	r2, [r3]
 365              	.L17:
 137:.\Generated_Source\PSoC5/USB_Bootloader.c **** }
 366              		.loc 1 137 0
 367 0016 2846     		mov	r0, r5
 368 0018 2146     		mov	r1, r4
 369 001a FFF7FEFF 		bl	USB_Bootloader_InitComponent
 370              	.LVL28:
 371 001e 38BD     		pop	{r3, r4, r5, pc}
 372              	.L20:
 373              		.align	2
 374              	.L19:
 375 0020 00000000 		.word	.LANCHOR0
 376              		.cfi_endproc
 377              	.LFE0:
 378              		.size	USB_Bootloader_Start, .-USB_Bootloader_Start
 379              		.section	.text.USB_Bootloader_ReInitComponent,"ax",%progbits
 380              		.align	2
 381              		.global	USB_Bootloader_ReInitComponent
 382              		.thumb
 383              		.thumb_func
 384              		.type	USB_Bootloader_ReInitComponent, %function
 385              	USB_Bootloader_ReInitComponent:
 386              	.LFB3:
 456:.\Generated_Source\PSoC5/USB_Bootloader.c **** }
 457:.\Generated_Source\PSoC5/USB_Bootloader.c **** 
 458:.\Generated_Source\PSoC5/USB_Bootloader.c **** 
 459:.\Generated_Source\PSoC5/USB_Bootloader.c **** /*******************************************************************************
 460:.\Generated_Source\PSoC5/USB_Bootloader.c **** * Function Name: USB_Bootloader_ReInitComponent
 461:.\Generated_Source\PSoC5/USB_Bootloader.c **** ********************************************************************************
 462:.\Generated_Source\PSoC5/USB_Bootloader.c **** *
ARM GAS  C:\Users\Robert\AppData\Local\Temp\ccGEgqLk.s 			page 16


 463:.\Generated_Source\PSoC5/USB_Bootloader.c **** * Summary:
 464:.\Generated_Source\PSoC5/USB_Bootloader.c **** *  This function reinitialize the component configuration and is
 465:.\Generated_Source\PSoC5/USB_Bootloader.c **** *  intend to be called from the Reset interrupt.
 466:.\Generated_Source\PSoC5/USB_Bootloader.c **** *
 467:.\Generated_Source\PSoC5/USB_Bootloader.c **** * Parameters:
 468:.\Generated_Source\PSoC5/USB_Bootloader.c **** *  None.
 469:.\Generated_Source\PSoC5/USB_Bootloader.c **** *
 470:.\Generated_Source\PSoC5/USB_Bootloader.c **** * Return:
 471:.\Generated_Source\PSoC5/USB_Bootloader.c **** *   None.
 472:.\Generated_Source\PSoC5/USB_Bootloader.c **** *
 473:.\Generated_Source\PSoC5/USB_Bootloader.c **** * Global variables:
 474:.\Generated_Source\PSoC5/USB_Bootloader.c **** *   USB_Bootloader_device: Contains the device number of the desired device
 475:.\Generated_Source\PSoC5/USB_Bootloader.c **** *        descriptor. The device number can be found in the Device Descriptor Tab
 476:.\Generated_Source\PSoC5/USB_Bootloader.c **** *       of "Configure" dialog, under the settings of desired Device Descriptor,
 477:.\Generated_Source\PSoC5/USB_Bootloader.c **** *       in the "Device Number" field.
 478:.\Generated_Source\PSoC5/USB_Bootloader.c **** *   USB_Bootloader_transferState: This variable used by the communication
 479:.\Generated_Source\PSoC5/USB_Bootloader.c **** *       functions to handle current transfer state. Initialized to
 480:.\Generated_Source\PSoC5/USB_Bootloader.c **** *       TRANS_STATE_IDLE in this API.
 481:.\Generated_Source\PSoC5/USB_Bootloader.c **** *   USB_Bootloader_configuration: Contains current configuration number
 482:.\Generated_Source\PSoC5/USB_Bootloader.c **** *       which is set by the Host using SET_CONFIGURATION request.
 483:.\Generated_Source\PSoC5/USB_Bootloader.c **** *       Initialized to zero in this API.
 484:.\Generated_Source\PSoC5/USB_Bootloader.c **** *   USB_Bootloader_deviceAddress: Contains current device address. This
 485:.\Generated_Source\PSoC5/USB_Bootloader.c **** *       variable is initialized to zero in this API. Host starts to communicate
 486:.\Generated_Source\PSoC5/USB_Bootloader.c **** *      to device with address 0 and then set it to whatever value using
 487:.\Generated_Source\PSoC5/USB_Bootloader.c **** *      SET_ADDRESS request.
 488:.\Generated_Source\PSoC5/USB_Bootloader.c **** *   USB_Bootloader_deviceStatus: initialized to 0.
 489:.\Generated_Source\PSoC5/USB_Bootloader.c **** *       This is two bit variable which contain power status in first bit
 490:.\Generated_Source\PSoC5/USB_Bootloader.c **** *       (DEVICE_STATUS_BUS_POWERED or DEVICE_STATUS_SELF_POWERED) and remote
 491:.\Generated_Source\PSoC5/USB_Bootloader.c **** *       wakeup status (DEVICE_STATUS_REMOTE_WAKEUP) in second bit.
 492:.\Generated_Source\PSoC5/USB_Bootloader.c **** *   USB_Bootloader_lastPacketSize initialized to 0;
 493:.\Generated_Source\PSoC5/USB_Bootloader.c **** *
 494:.\Generated_Source\PSoC5/USB_Bootloader.c **** * Reentrant:
 495:.\Generated_Source\PSoC5/USB_Bootloader.c **** *  No.
 496:.\Generated_Source\PSoC5/USB_Bootloader.c **** *
 497:.\Generated_Source\PSoC5/USB_Bootloader.c **** *******************************************************************************/
 498:.\Generated_Source\PSoC5/USB_Bootloader.c **** void USB_Bootloader_ReInitComponent(void) 
 499:.\Generated_Source\PSoC5/USB_Bootloader.c **** {
 387              		.loc 1 499 0
 388              		.cfi_startproc
 389              		@ args = 0, pretend = 0, frame = 0
 390              		@ frame_needed = 0, uses_anonymous_args = 0
 391              		@ link register save eliminated.
 392              	.LVL29:
 500:.\Generated_Source\PSoC5/USB_Bootloader.c ****     /* Initialize _hidProtocol variable to comply with HID 7.2.6 Set_Protocol
 501:.\Generated_Source\PSoC5/USB_Bootloader.c ****     *  Request: "When initialized, all devices default to report protocol."
 502:.\Generated_Source\PSoC5/USB_Bootloader.c ****     */
 503:.\Generated_Source\PSoC5/USB_Bootloader.c ****     #if defined(USB_Bootloader_ENABLE_HID_CLASS)
 504:.\Generated_Source\PSoC5/USB_Bootloader.c ****         uint8 i;
 505:.\Generated_Source\PSoC5/USB_Bootloader.c **** 
 506:.\Generated_Source\PSoC5/USB_Bootloader.c ****         for (i = 0u; i < USB_Bootloader_MAX_INTERFACES_NUMBER; i++)
 393              		.loc 1 506 0
 394 0000 0023     		movs	r3, #0
 395 0002 04E0     		b	.L22
 396              	.LVL30:
 397              	.L23:
 507:.\Generated_Source\PSoC5/USB_Bootloader.c ****         {
 508:.\Generated_Source\PSoC5/USB_Bootloader.c ****             USB_Bootloader_hidProtocol[i] = USB_Bootloader_PROTOCOL_REPORT;
ARM GAS  C:\Users\Robert\AppData\Local\Temp\ccGEgqLk.s 			page 17


 398              		.loc 1 508 0 discriminator 3
 399 0004 0121     		movs	r1, #1
 400 0006 0E4A     		ldr	r2, .L24
 401 0008 D154     		strb	r1, [r2, r3]
 506:.\Generated_Source\PSoC5/USB_Bootloader.c ****         {
 402              		.loc 1 506 0 discriminator 3
 403 000a 0B44     		add	r3, r3, r1
 404              	.LVL31:
 405 000c DBB2     		uxtb	r3, r3
 406              	.LVL32:
 407              	.L22:
 506:.\Generated_Source\PSoC5/USB_Bootloader.c ****         {
 408              		.loc 1 506 0 is_stmt 0 discriminator 1
 409 000e 002B     		cmp	r3, #0
 410 0010 F8D0     		beq	.L23
 509:.\Generated_Source\PSoC5/USB_Bootloader.c ****         }
 510:.\Generated_Source\PSoC5/USB_Bootloader.c ****     #endif /* USB_Bootloader_ENABLE_HID_CLASS */
 511:.\Generated_Source\PSoC5/USB_Bootloader.c **** 
 512:.\Generated_Source\PSoC5/USB_Bootloader.c ****     USB_Bootloader_transferState = USB_Bootloader_TRANS_STATE_IDLE;
 411              		.loc 1 512 0 is_stmt 1
 412 0012 0023     		movs	r3, #0
 413              	.LVL33:
 414 0014 0B4A     		ldr	r2, .L24+4
 415 0016 1370     		strb	r3, [r2]
 513:.\Generated_Source\PSoC5/USB_Bootloader.c **** 
 514:.\Generated_Source\PSoC5/USB_Bootloader.c ****     /* Clear all of the component data */
 515:.\Generated_Source\PSoC5/USB_Bootloader.c ****     USB_Bootloader_configuration = 0u;
 416              		.loc 1 515 0
 417 0018 0B4A     		ldr	r2, .L24+8
 418 001a 1370     		strb	r3, [r2]
 516:.\Generated_Source\PSoC5/USB_Bootloader.c ****     USB_Bootloader_interfaceNumber = 0u;
 419              		.loc 1 516 0
 420 001c 0B4A     		ldr	r2, .L24+12
 421 001e 1370     		strb	r3, [r2]
 517:.\Generated_Source\PSoC5/USB_Bootloader.c ****     USB_Bootloader_configurationChanged = 0u;
 422              		.loc 1 517 0
 423 0020 0B4A     		ldr	r2, .L24+16
 424 0022 1370     		strb	r3, [r2]
 518:.\Generated_Source\PSoC5/USB_Bootloader.c ****     USB_Bootloader_deviceAddress  = 0u;
 425              		.loc 1 518 0
 426 0024 0B4A     		ldr	r2, .L24+20
 427 0026 1370     		strb	r3, [r2]
 519:.\Generated_Source\PSoC5/USB_Bootloader.c ****     USB_Bootloader_deviceStatus = 0u;
 428              		.loc 1 519 0
 429 0028 0B4A     		ldr	r2, .L24+24
 430 002a 1370     		strb	r3, [r2]
 520:.\Generated_Source\PSoC5/USB_Bootloader.c **** 
 521:.\Generated_Source\PSoC5/USB_Bootloader.c ****     USB_Bootloader_lastPacketSize = 0u;
 431              		.loc 1 521 0
 432 002c 0B4A     		ldr	r2, .L24+28
 433 002e 1370     		strb	r3, [r2]
 522:.\Generated_Source\PSoC5/USB_Bootloader.c **** 
 523:.\Generated_Source\PSoC5/USB_Bootloader.c **** 
 524:.\Generated_Source\PSoC5/USB_Bootloader.c ****     /*  ACK Setup, Stall IN/OUT */
 525:.\Generated_Source\PSoC5/USB_Bootloader.c ****     CY_SET_REG8(USB_Bootloader_EP0_CR_PTR, USB_Bootloader_MODE_STALL_IN_OUT);
 434              		.loc 1 525 0
 435 0030 0322     		movs	r2, #3
ARM GAS  C:\Users\Robert\AppData\Local\Temp\ccGEgqLk.s 			page 18


 436 0032 0B4B     		ldr	r3, .L24+32
 437 0034 1A70     		strb	r2, [r3]
 526:.\Generated_Source\PSoC5/USB_Bootloader.c **** 
 527:.\Generated_Source\PSoC5/USB_Bootloader.c ****     /* Enable the SIE with an address 0 */
 528:.\Generated_Source\PSoC5/USB_Bootloader.c ****     CY_SET_REG8(USB_Bootloader_CR0_PTR, USB_Bootloader_CR0_ENABLE);
 438              		.loc 1 528 0
 439 0036 8022     		movs	r2, #128
 440 0038 203B     		subs	r3, r3, #32
 441 003a 1A70     		strb	r2, [r3]
 442 003c 7047     		bx	lr
 443              	.L25:
 444 003e 00BF     		.align	2
 445              	.L24:
 446 0040 00000000 		.word	USB_Bootloader_hidProtocol
 447 0044 00000000 		.word	USB_Bootloader_transferState
 448 0048 00000000 		.word	USB_Bootloader_configuration
 449 004c 00000000 		.word	USB_Bootloader_interfaceNumber
 450 0050 00000000 		.word	USB_Bootloader_configurationChanged
 451 0054 00000000 		.word	USB_Bootloader_deviceAddress
 452 0058 00000000 		.word	USB_Bootloader_deviceStatus
 453 005c 00000000 		.word	USB_Bootloader_lastPacketSize
 454 0060 28600040 		.word	1073766440
 455              		.cfi_endproc
 456              	.LFE3:
 457              		.size	USB_Bootloader_ReInitComponent, .-USB_Bootloader_ReInitComponent
 458              		.section	.text.USB_Bootloader_Stop,"ax",%progbits
 459              		.align	2
 460              		.global	USB_Bootloader_Stop
 461              		.thumb
 462              		.thumb_func
 463              		.type	USB_Bootloader_Stop, %function
 464              	USB_Bootloader_Stop:
 465              	.LFB4:
 529:.\Generated_Source\PSoC5/USB_Bootloader.c **** 
 530:.\Generated_Source\PSoC5/USB_Bootloader.c **** }
 531:.\Generated_Source\PSoC5/USB_Bootloader.c **** 
 532:.\Generated_Source\PSoC5/USB_Bootloader.c **** 
 533:.\Generated_Source\PSoC5/USB_Bootloader.c **** /*******************************************************************************
 534:.\Generated_Source\PSoC5/USB_Bootloader.c **** * Function Name: USB_Bootloader_Stop
 535:.\Generated_Source\PSoC5/USB_Bootloader.c **** ********************************************************************************
 536:.\Generated_Source\PSoC5/USB_Bootloader.c **** *
 537:.\Generated_Source\PSoC5/USB_Bootloader.c **** * Summary:
 538:.\Generated_Source\PSoC5/USB_Bootloader.c **** *  This function shuts down the USB function including to release
 539:.\Generated_Source\PSoC5/USB_Bootloader.c **** *  the D+ Pullup and disabling the SIE.
 540:.\Generated_Source\PSoC5/USB_Bootloader.c **** *
 541:.\Generated_Source\PSoC5/USB_Bootloader.c **** * Parameters:
 542:.\Generated_Source\PSoC5/USB_Bootloader.c **** *  None.
 543:.\Generated_Source\PSoC5/USB_Bootloader.c **** *
 544:.\Generated_Source\PSoC5/USB_Bootloader.c **** * Return:
 545:.\Generated_Source\PSoC5/USB_Bootloader.c **** *  None.
 546:.\Generated_Source\PSoC5/USB_Bootloader.c **** *
 547:.\Generated_Source\PSoC5/USB_Bootloader.c **** * Global variables:
 548:.\Generated_Source\PSoC5/USB_Bootloader.c **** *   USB_Bootloader_configuration: Contains current configuration number
 549:.\Generated_Source\PSoC5/USB_Bootloader.c **** *       which is set by the Host using SET_CONFIGURATION request.
 550:.\Generated_Source\PSoC5/USB_Bootloader.c **** *       Initialized to zero in this API.
 551:.\Generated_Source\PSoC5/USB_Bootloader.c **** *   USB_Bootloader_deviceAddress: Contains current device address. This
 552:.\Generated_Source\PSoC5/USB_Bootloader.c **** *       variable is initialized to zero in this API. Host starts to communicate
ARM GAS  C:\Users\Robert\AppData\Local\Temp\ccGEgqLk.s 			page 19


 553:.\Generated_Source\PSoC5/USB_Bootloader.c **** *      to device with address 0 and then set it to whatever value using
 554:.\Generated_Source\PSoC5/USB_Bootloader.c **** *      SET_ADDRESS request.
 555:.\Generated_Source\PSoC5/USB_Bootloader.c **** *   USB_Bootloader_deviceStatus: initialized to 0.
 556:.\Generated_Source\PSoC5/USB_Bootloader.c **** *       This is two bit variable which contain power status in first bit
 557:.\Generated_Source\PSoC5/USB_Bootloader.c **** *       (DEVICE_STATUS_BUS_POWERED or DEVICE_STATUS_SELF_POWERED) and remote
 558:.\Generated_Source\PSoC5/USB_Bootloader.c **** *       wakeup status (DEVICE_STATUS_REMOTE_WAKEUP) in second bit.
 559:.\Generated_Source\PSoC5/USB_Bootloader.c **** *   USB_Bootloader_configurationChanged: This variable is set to one after
 560:.\Generated_Source\PSoC5/USB_Bootloader.c **** *       SET_CONFIGURATION request and cleared in this function.
 561:.\Generated_Source\PSoC5/USB_Bootloader.c **** *   USB_Bootloader_intiVar variable is set to zero
 562:.\Generated_Source\PSoC5/USB_Bootloader.c **** *
 563:.\Generated_Source\PSoC5/USB_Bootloader.c **** *******************************************************************************/
 564:.\Generated_Source\PSoC5/USB_Bootloader.c **** void USB_Bootloader_Stop(void) 
 565:.\Generated_Source\PSoC5/USB_Bootloader.c **** {
 466              		.loc 1 565 0
 467              		.cfi_startproc
 468              		@ args = 0, pretend = 0, frame = 0
 469              		@ frame_needed = 0, uses_anonymous_args = 0
 470              		@ link register save eliminated.
 566:.\Generated_Source\PSoC5/USB_Bootloader.c **** 
 567:.\Generated_Source\PSoC5/USB_Bootloader.c ****     #if(USB_Bootloader_EP_MM != USB_Bootloader__EP_MANUAL)
 568:.\Generated_Source\PSoC5/USB_Bootloader.c ****         USB_Bootloader_Stop_DMA(USB_Bootloader_MAX_EP);     /* Stop all DMAs */
 569:.\Generated_Source\PSoC5/USB_Bootloader.c ****     #endif   /*  USB_Bootloader_EP_MM != USB_Bootloader__EP_MANUAL */
 570:.\Generated_Source\PSoC5/USB_Bootloader.c **** 
 571:.\Generated_Source\PSoC5/USB_Bootloader.c ****     /* Disable the SIE */
 572:.\Generated_Source\PSoC5/USB_Bootloader.c ****     USB_Bootloader_CR0_REG &= (uint8)(~USB_Bootloader_CR0_ENABLE);
 471              		.loc 1 572 0
 472 0000 174A     		ldr	r2, .L27
 473 0002 1378     		ldrb	r3, [r2]	@ zero_extendqisi2
 474 0004 03F07F03 		and	r3, r3, #127
 475 0008 1370     		strb	r3, [r2]
 573:.\Generated_Source\PSoC5/USB_Bootloader.c ****     /* Disable the d+ pullup */
 574:.\Generated_Source\PSoC5/USB_Bootloader.c ****     USB_Bootloader_USBIO_CR1_REG &= (uint8)(~USB_Bootloader_USBIO_CR1_USBPUEN);
 476              		.loc 1 574 0
 477 000a 0A32     		adds	r2, r2, #10
 478 000c 1378     		ldrb	r3, [r2]	@ zero_extendqisi2
 479 000e 03F0FB03 		and	r3, r3, #251
 480 0012 1370     		strb	r3, [r2]
 575:.\Generated_Source\PSoC5/USB_Bootloader.c ****     /* Disable USB in ACT PM */
 576:.\Generated_Source\PSoC5/USB_Bootloader.c ****     USB_Bootloader_PM_ACT_CFG_REG &= (uint8)(~USB_Bootloader_PM_ACT_EN_FSUSB);
 481              		.loc 1 576 0
 482 0014 A2F5E352 		sub	r2, r2, #7264
 483 0018 0D3A     		subs	r2, r2, #13
 484 001a 1378     		ldrb	r3, [r2]	@ zero_extendqisi2
 485 001c 03F0FE03 		and	r3, r3, #254
 486 0020 1370     		strb	r3, [r2]
 577:.\Generated_Source\PSoC5/USB_Bootloader.c ****     /* Disable USB block for Standby Power Mode */
 578:.\Generated_Source\PSoC5/USB_Bootloader.c ****     USB_Bootloader_PM_STBY_CFG_REG &= (uint8)(~USB_Bootloader_PM_STBY_EN_FSUSB);
 487              		.loc 1 578 0
 488 0022 1032     		adds	r2, r2, #16
 489 0024 1378     		ldrb	r3, [r2]	@ zero_extendqisi2
 490 0026 03F0FE03 		and	r3, r3, #254
 491 002a 1370     		strb	r3, [r2]
 579:.\Generated_Source\PSoC5/USB_Bootloader.c **** 
 580:.\Generated_Source\PSoC5/USB_Bootloader.c ****     /* Disable the reset and EP interrupts */
 581:.\Generated_Source\PSoC5/USB_Bootloader.c ****     CyIntDisable(USB_Bootloader_BUS_RESET_VECT_NUM);
 492              		.loc 1 581 0
 493 002c 0D4B     		ldr	r3, .L27+4
ARM GAS  C:\Users\Robert\AppData\Local\Temp\ccGEgqLk.s 			page 20


 494 002e 4FF40002 		mov	r2, #8388608
 495 0032 1A60     		str	r2, [r3]
 582:.\Generated_Source\PSoC5/USB_Bootloader.c ****     CyIntDisable(USB_Bootloader_EP_0_VECT_NUM);
 496              		.loc 1 582 0
 497 0034 4FF08072 		mov	r2, #16777216
 498 0038 1A60     		str	r2, [r3]
 583:.\Generated_Source\PSoC5/USB_Bootloader.c ****     #if(USB_Bootloader_EP1_ISR_REMOVE == 0u)
 584:.\Generated_Source\PSoC5/USB_Bootloader.c ****         CyIntDisable(USB_Bootloader_EP_1_VECT_NUM);
 499              		.loc 1 584 0
 500 003a 0122     		movs	r2, #1
 501 003c 1A60     		str	r2, [r3]
 585:.\Generated_Source\PSoC5/USB_Bootloader.c ****     #endif   /*  USB_Bootloader_EP1_ISR_REMOVE */
 586:.\Generated_Source\PSoC5/USB_Bootloader.c ****     #if(USB_Bootloader_EP2_ISR_REMOVE == 0u)
 587:.\Generated_Source\PSoC5/USB_Bootloader.c ****         CyIntDisable(USB_Bootloader_EP_2_VECT_NUM);
 502              		.loc 1 587 0
 503 003e 0222     		movs	r2, #2
 504 0040 1A60     		str	r2, [r3]
 588:.\Generated_Source\PSoC5/USB_Bootloader.c ****     #endif   /*  USB_Bootloader_EP2_ISR_REMOVE */
 589:.\Generated_Source\PSoC5/USB_Bootloader.c ****     #if(USB_Bootloader_EP3_ISR_REMOVE == 0u)
 590:.\Generated_Source\PSoC5/USB_Bootloader.c ****         CyIntDisable(USB_Bootloader_EP_3_VECT_NUM);
 591:.\Generated_Source\PSoC5/USB_Bootloader.c ****     #endif   /*  USB_Bootloader_EP3_ISR_REMOVE */
 592:.\Generated_Source\PSoC5/USB_Bootloader.c ****     #if(USB_Bootloader_EP4_ISR_REMOVE == 0u)
 593:.\Generated_Source\PSoC5/USB_Bootloader.c ****         CyIntDisable(USB_Bootloader_EP_4_VECT_NUM);
 594:.\Generated_Source\PSoC5/USB_Bootloader.c ****     #endif   /*  USB_Bootloader_EP4_ISR_REMOVE */
 595:.\Generated_Source\PSoC5/USB_Bootloader.c ****     #if(USB_Bootloader_EP5_ISR_REMOVE == 0u)
 596:.\Generated_Source\PSoC5/USB_Bootloader.c ****         CyIntDisable(USB_Bootloader_EP_5_VECT_NUM);
 597:.\Generated_Source\PSoC5/USB_Bootloader.c ****     #endif   /*  USB_Bootloader_EP5_ISR_REMOVE */
 598:.\Generated_Source\PSoC5/USB_Bootloader.c ****     #if(USB_Bootloader_EP6_ISR_REMOVE == 0u)
 599:.\Generated_Source\PSoC5/USB_Bootloader.c ****         CyIntDisable(USB_Bootloader_EP_6_VECT_NUM);
 600:.\Generated_Source\PSoC5/USB_Bootloader.c ****     #endif   /*  USB_Bootloader_EP6_ISR_REMOVE */
 601:.\Generated_Source\PSoC5/USB_Bootloader.c ****     #if(USB_Bootloader_EP7_ISR_REMOVE == 0u)
 602:.\Generated_Source\PSoC5/USB_Bootloader.c ****         CyIntDisable(USB_Bootloader_EP_7_VECT_NUM);
 603:.\Generated_Source\PSoC5/USB_Bootloader.c ****     #endif   /*  USB_Bootloader_EP7_ISR_REMOVE */
 604:.\Generated_Source\PSoC5/USB_Bootloader.c ****     #if(USB_Bootloader_EP8_ISR_REMOVE == 0u)
 605:.\Generated_Source\PSoC5/USB_Bootloader.c ****         CyIntDisable(USB_Bootloader_EP_8_VECT_NUM);
 606:.\Generated_Source\PSoC5/USB_Bootloader.c ****     #endif   /*  USB_Bootloader_EP8_ISR_REMOVE */
 607:.\Generated_Source\PSoC5/USB_Bootloader.c **** 
 608:.\Generated_Source\PSoC5/USB_Bootloader.c ****     /* Clear all of the component data */
 609:.\Generated_Source\PSoC5/USB_Bootloader.c ****     USB_Bootloader_configuration = 0u;
 505              		.loc 1 609 0
 506 0042 0023     		movs	r3, #0
 507 0044 084A     		ldr	r2, .L27+8
 508 0046 1370     		strb	r3, [r2]
 610:.\Generated_Source\PSoC5/USB_Bootloader.c ****     USB_Bootloader_interfaceNumber = 0u;
 509              		.loc 1 610 0
 510 0048 084A     		ldr	r2, .L27+12
 511 004a 1370     		strb	r3, [r2]
 611:.\Generated_Source\PSoC5/USB_Bootloader.c ****     USB_Bootloader_configurationChanged = 0u;
 512              		.loc 1 611 0
 513 004c 084A     		ldr	r2, .L27+16
 514 004e 1370     		strb	r3, [r2]
 612:.\Generated_Source\PSoC5/USB_Bootloader.c ****     USB_Bootloader_deviceAddress  = 0u;
 515              		.loc 1 612 0
 516 0050 084A     		ldr	r2, .L27+20
 517 0052 1370     		strb	r3, [r2]
 613:.\Generated_Source\PSoC5/USB_Bootloader.c ****     USB_Bootloader_deviceStatus = 0u;
 518              		.loc 1 613 0
ARM GAS  C:\Users\Robert\AppData\Local\Temp\ccGEgqLk.s 			page 21


 519 0054 084A     		ldr	r2, .L27+24
 520 0056 1370     		strb	r3, [r2]
 614:.\Generated_Source\PSoC5/USB_Bootloader.c ****     USB_Bootloader_initVar = 0u;
 521              		.loc 1 614 0
 522 0058 084A     		ldr	r2, .L27+28
 523 005a 1370     		strb	r3, [r2]
 524 005c 7047     		bx	lr
 525              	.L28:
 526 005e 00BF     		.align	2
 527              	.L27:
 528 0060 08600040 		.word	1073766408
 529 0064 80E100E0 		.word	-536813184
 530 0068 00000000 		.word	USB_Bootloader_configuration
 531 006c 00000000 		.word	USB_Bootloader_interfaceNumber
 532 0070 00000000 		.word	USB_Bootloader_configurationChanged
 533 0074 00000000 		.word	USB_Bootloader_deviceAddress
 534 0078 00000000 		.word	USB_Bootloader_deviceStatus
 535 007c 00000000 		.word	.LANCHOR0
 536              		.cfi_endproc
 537              	.LFE4:
 538              		.size	USB_Bootloader_Stop, .-USB_Bootloader_Stop
 539              		.section	.text.USB_Bootloader_CheckActivity,"ax",%progbits
 540              		.align	2
 541              		.global	USB_Bootloader_CheckActivity
 542              		.thumb
 543              		.thumb_func
 544              		.type	USB_Bootloader_CheckActivity, %function
 545              	USB_Bootloader_CheckActivity:
 546              	.LFB5:
 615:.\Generated_Source\PSoC5/USB_Bootloader.c **** 
 616:.\Generated_Source\PSoC5/USB_Bootloader.c **** }
 617:.\Generated_Source\PSoC5/USB_Bootloader.c **** 
 618:.\Generated_Source\PSoC5/USB_Bootloader.c **** 
 619:.\Generated_Source\PSoC5/USB_Bootloader.c **** /*******************************************************************************
 620:.\Generated_Source\PSoC5/USB_Bootloader.c **** * Function Name: USB_Bootloader_CheckActivity
 621:.\Generated_Source\PSoC5/USB_Bootloader.c **** ********************************************************************************
 622:.\Generated_Source\PSoC5/USB_Bootloader.c **** *
 623:.\Generated_Source\PSoC5/USB_Bootloader.c **** * Summary:
 624:.\Generated_Source\PSoC5/USB_Bootloader.c **** *  Returns the activity status of the bus.  Clears the status hardware to
 625:.\Generated_Source\PSoC5/USB_Bootloader.c **** *  provide fresh activity status on the next call of this routine.
 626:.\Generated_Source\PSoC5/USB_Bootloader.c **** *
 627:.\Generated_Source\PSoC5/USB_Bootloader.c **** * Parameters:
 628:.\Generated_Source\PSoC5/USB_Bootloader.c **** *  None.
 629:.\Generated_Source\PSoC5/USB_Bootloader.c **** *
 630:.\Generated_Source\PSoC5/USB_Bootloader.c **** * Return:
 631:.\Generated_Source\PSoC5/USB_Bootloader.c **** *  1 - If bus activity was detected since the last call to this function
 632:.\Generated_Source\PSoC5/USB_Bootloader.c **** *  0 - If bus activity not was detected since the last call to this function
 633:.\Generated_Source\PSoC5/USB_Bootloader.c **** *
 634:.\Generated_Source\PSoC5/USB_Bootloader.c **** *******************************************************************************/
 635:.\Generated_Source\PSoC5/USB_Bootloader.c **** uint8 USB_Bootloader_CheckActivity(void) 
 636:.\Generated_Source\PSoC5/USB_Bootloader.c **** {
 547              		.loc 1 636 0
 548              		.cfi_startproc
 549              		@ args = 0, pretend = 0, frame = 0
 550              		@ frame_needed = 0, uses_anonymous_args = 0
 551              		@ link register save eliminated.
 637:.\Generated_Source\PSoC5/USB_Bootloader.c ****     uint8 r;
ARM GAS  C:\Users\Robert\AppData\Local\Temp\ccGEgqLk.s 			page 22


 638:.\Generated_Source\PSoC5/USB_Bootloader.c **** 
 639:.\Generated_Source\PSoC5/USB_Bootloader.c ****     r = CY_GET_REG8(USB_Bootloader_CR1_PTR);
 552              		.loc 1 639 0
 553 0000 044B     		ldr	r3, .L30
 554 0002 1878     		ldrb	r0, [r3]	@ zero_extendqisi2
 555 0004 C0B2     		uxtb	r0, r0
 556              	.LVL34:
 640:.\Generated_Source\PSoC5/USB_Bootloader.c ****     CY_SET_REG8(USB_Bootloader_CR1_PTR, (r & ((uint8)(~USB_Bootloader_CR1_BUS_ACTIVITY))));
 557              		.loc 1 640 0
 558 0006 00F0FB02 		and	r2, r0, #251
 559 000a 1A70     		strb	r2, [r3]
 641:.\Generated_Source\PSoC5/USB_Bootloader.c **** 
 642:.\Generated_Source\PSoC5/USB_Bootloader.c ****     return((r & USB_Bootloader_CR1_BUS_ACTIVITY) >> USB_Bootloader_CR1_BUS_ACTIVITY_SHIFT);
 643:.\Generated_Source\PSoC5/USB_Bootloader.c **** }
 560              		.loc 1 643 0
 561 000c C0F38000 		ubfx	r0, r0, #2, #1
 562              	.LVL35:
 563 0010 7047     		bx	lr
 564              	.L31:
 565 0012 00BF     		.align	2
 566              	.L30:
 567 0014 09600040 		.word	1073766409
 568              		.cfi_endproc
 569              	.LFE5:
 570              		.size	USB_Bootloader_CheckActivity, .-USB_Bootloader_CheckActivity
 571              		.section	.text.USB_Bootloader_GetConfiguration,"ax",%progbits
 572              		.align	2
 573              		.global	USB_Bootloader_GetConfiguration
 574              		.thumb
 575              		.thumb_func
 576              		.type	USB_Bootloader_GetConfiguration, %function
 577              	USB_Bootloader_GetConfiguration:
 578              	.LFB6:
 644:.\Generated_Source\PSoC5/USB_Bootloader.c **** 
 645:.\Generated_Source\PSoC5/USB_Bootloader.c **** 
 646:.\Generated_Source\PSoC5/USB_Bootloader.c **** /*******************************************************************************
 647:.\Generated_Source\PSoC5/USB_Bootloader.c **** * Function Name: USB_Bootloader_GetConfiguration
 648:.\Generated_Source\PSoC5/USB_Bootloader.c **** ********************************************************************************
 649:.\Generated_Source\PSoC5/USB_Bootloader.c **** *
 650:.\Generated_Source\PSoC5/USB_Bootloader.c **** * Summary:
 651:.\Generated_Source\PSoC5/USB_Bootloader.c **** *  Returns the current configuration setting
 652:.\Generated_Source\PSoC5/USB_Bootloader.c **** *
 653:.\Generated_Source\PSoC5/USB_Bootloader.c **** * Parameters:
 654:.\Generated_Source\PSoC5/USB_Bootloader.c **** *  None.
 655:.\Generated_Source\PSoC5/USB_Bootloader.c **** *
 656:.\Generated_Source\PSoC5/USB_Bootloader.c **** * Return:
 657:.\Generated_Source\PSoC5/USB_Bootloader.c **** *  configuration.
 658:.\Generated_Source\PSoC5/USB_Bootloader.c **** *
 659:.\Generated_Source\PSoC5/USB_Bootloader.c **** *******************************************************************************/
 660:.\Generated_Source\PSoC5/USB_Bootloader.c **** uint8 USB_Bootloader_GetConfiguration(void) 
 661:.\Generated_Source\PSoC5/USB_Bootloader.c **** {
 579              		.loc 1 661 0
 580              		.cfi_startproc
 581              		@ args = 0, pretend = 0, frame = 0
 582              		@ frame_needed = 0, uses_anonymous_args = 0
 583              		@ link register save eliminated.
 662:.\Generated_Source\PSoC5/USB_Bootloader.c ****     return(USB_Bootloader_configuration);
ARM GAS  C:\Users\Robert\AppData\Local\Temp\ccGEgqLk.s 			page 23


 584              		.loc 1 662 0
 585 0000 014B     		ldr	r3, .L33
 586 0002 1878     		ldrb	r0, [r3]	@ zero_extendqisi2
 663:.\Generated_Source\PSoC5/USB_Bootloader.c **** }
 587              		.loc 1 663 0
 588 0004 7047     		bx	lr
 589              	.L34:
 590 0006 00BF     		.align	2
 591              	.L33:
 592 0008 00000000 		.word	USB_Bootloader_configuration
 593              		.cfi_endproc
 594              	.LFE6:
 595              		.size	USB_Bootloader_GetConfiguration, .-USB_Bootloader_GetConfiguration
 596              		.section	.text.USB_Bootloader_IsConfigurationChanged,"ax",%progbits
 597              		.align	2
 598              		.global	USB_Bootloader_IsConfigurationChanged
 599              		.thumb
 600              		.thumb_func
 601              		.type	USB_Bootloader_IsConfigurationChanged, %function
 602              	USB_Bootloader_IsConfigurationChanged:
 603              	.LFB7:
 664:.\Generated_Source\PSoC5/USB_Bootloader.c **** 
 665:.\Generated_Source\PSoC5/USB_Bootloader.c **** 
 666:.\Generated_Source\PSoC5/USB_Bootloader.c **** /*******************************************************************************
 667:.\Generated_Source\PSoC5/USB_Bootloader.c **** * Function Name: USB_Bootloader_IsConfigurationChanged
 668:.\Generated_Source\PSoC5/USB_Bootloader.c **** ********************************************************************************
 669:.\Generated_Source\PSoC5/USB_Bootloader.c **** *
 670:.\Generated_Source\PSoC5/USB_Bootloader.c **** * Summary:
 671:.\Generated_Source\PSoC5/USB_Bootloader.c **** *  Returns the clear on read configuration state. It is usefull when PC send
 672:.\Generated_Source\PSoC5/USB_Bootloader.c **** *  double SET_CONFIGURATION request with same configuration number.
 673:.\Generated_Source\PSoC5/USB_Bootloader.c **** *
 674:.\Generated_Source\PSoC5/USB_Bootloader.c **** * Parameters:
 675:.\Generated_Source\PSoC5/USB_Bootloader.c **** *  None.
 676:.\Generated_Source\PSoC5/USB_Bootloader.c **** *
 677:.\Generated_Source\PSoC5/USB_Bootloader.c **** * Return:
 678:.\Generated_Source\PSoC5/USB_Bootloader.c **** *  Not zero value when new configuration has been changed, otherwise zero is
 679:.\Generated_Source\PSoC5/USB_Bootloader.c **** *  returned.
 680:.\Generated_Source\PSoC5/USB_Bootloader.c **** *
 681:.\Generated_Source\PSoC5/USB_Bootloader.c **** * Global variables:
 682:.\Generated_Source\PSoC5/USB_Bootloader.c **** *   USB_Bootloader_configurationChanged: This variable is set to one after
 683:.\Generated_Source\PSoC5/USB_Bootloader.c **** *       SET_CONFIGURATION request and cleared in this function.
 684:.\Generated_Source\PSoC5/USB_Bootloader.c **** *
 685:.\Generated_Source\PSoC5/USB_Bootloader.c **** *******************************************************************************/
 686:.\Generated_Source\PSoC5/USB_Bootloader.c **** uint8 USB_Bootloader_IsConfigurationChanged(void) 
 687:.\Generated_Source\PSoC5/USB_Bootloader.c **** {
 604              		.loc 1 687 0
 605              		.cfi_startproc
 606              		@ args = 0, pretend = 0, frame = 0
 607              		@ frame_needed = 0, uses_anonymous_args = 0
 608              		@ link register save eliminated.
 609              	.LVL36:
 688:.\Generated_Source\PSoC5/USB_Bootloader.c ****     uint8 res = 0u;
 689:.\Generated_Source\PSoC5/USB_Bootloader.c **** 
 690:.\Generated_Source\PSoC5/USB_Bootloader.c ****     if(USB_Bootloader_configurationChanged != 0u)
 610              		.loc 1 690 0
 611 0000 064B     		ldr	r3, .L38
 612 0002 1B78     		ldrb	r3, [r3]	@ zero_extendqisi2
ARM GAS  C:\Users\Robert\AppData\Local\Temp\ccGEgqLk.s 			page 24


 613 0004 13F0FF0F 		tst	r3, #255
 614 0008 05D0     		beq	.L37
 691:.\Generated_Source\PSoC5/USB_Bootloader.c ****     {
 692:.\Generated_Source\PSoC5/USB_Bootloader.c ****         res = USB_Bootloader_configurationChanged;
 615              		.loc 1 692 0
 616 000a 044B     		ldr	r3, .L38
 617 000c 1878     		ldrb	r0, [r3]	@ zero_extendqisi2
 618 000e C0B2     		uxtb	r0, r0
 619              	.LVL37:
 693:.\Generated_Source\PSoC5/USB_Bootloader.c ****         USB_Bootloader_configurationChanged = 0u;
 620              		.loc 1 693 0
 621 0010 0022     		movs	r2, #0
 622 0012 1A70     		strb	r2, [r3]
 623 0014 7047     		bx	lr
 624              	.LVL38:
 625              	.L37:
 688:.\Generated_Source\PSoC5/USB_Bootloader.c ****     uint8 res = 0u;
 626              		.loc 1 688 0
 627 0016 0020     		movs	r0, #0
 628              	.LVL39:
 694:.\Generated_Source\PSoC5/USB_Bootloader.c ****     }
 695:.\Generated_Source\PSoC5/USB_Bootloader.c **** 
 696:.\Generated_Source\PSoC5/USB_Bootloader.c ****     return(res);
 697:.\Generated_Source\PSoC5/USB_Bootloader.c **** }
 629              		.loc 1 697 0
 630 0018 7047     		bx	lr
 631              	.L39:
 632 001a 00BF     		.align	2
 633              	.L38:
 634 001c 00000000 		.word	USB_Bootloader_configurationChanged
 635              		.cfi_endproc
 636              	.LFE7:
 637              		.size	USB_Bootloader_IsConfigurationChanged, .-USB_Bootloader_IsConfigurationChanged
 638              		.section	.text.USB_Bootloader_GetInterfaceSetting,"ax",%progbits
 639              		.align	2
 640              		.global	USB_Bootloader_GetInterfaceSetting
 641              		.thumb
 642              		.thumb_func
 643              		.type	USB_Bootloader_GetInterfaceSetting, %function
 644              	USB_Bootloader_GetInterfaceSetting:
 645              	.LFB8:
 698:.\Generated_Source\PSoC5/USB_Bootloader.c **** 
 699:.\Generated_Source\PSoC5/USB_Bootloader.c **** 
 700:.\Generated_Source\PSoC5/USB_Bootloader.c **** /*******************************************************************************
 701:.\Generated_Source\PSoC5/USB_Bootloader.c **** * Function Name: USB_Bootloader_GetInterfaceSetting
 702:.\Generated_Source\PSoC5/USB_Bootloader.c **** ********************************************************************************
 703:.\Generated_Source\PSoC5/USB_Bootloader.c **** *
 704:.\Generated_Source\PSoC5/USB_Bootloader.c **** * Summary:
 705:.\Generated_Source\PSoC5/USB_Bootloader.c **** *  Returns the alternate setting from current interface
 706:.\Generated_Source\PSoC5/USB_Bootloader.c **** *
 707:.\Generated_Source\PSoC5/USB_Bootloader.c **** * Parameters:
 708:.\Generated_Source\PSoC5/USB_Bootloader.c **** *  uint8 interfaceNumber, interface number
 709:.\Generated_Source\PSoC5/USB_Bootloader.c **** *
 710:.\Generated_Source\PSoC5/USB_Bootloader.c **** * Return:
 711:.\Generated_Source\PSoC5/USB_Bootloader.c **** *  Alternate setting.
 712:.\Generated_Source\PSoC5/USB_Bootloader.c **** *
 713:.\Generated_Source\PSoC5/USB_Bootloader.c **** *******************************************************************************/
ARM GAS  C:\Users\Robert\AppData\Local\Temp\ccGEgqLk.s 			page 25


 714:.\Generated_Source\PSoC5/USB_Bootloader.c **** uint8  USB_Bootloader_GetInterfaceSetting(uint8 interfaceNumber)
 715:.\Generated_Source\PSoC5/USB_Bootloader.c ****                                                     
 716:.\Generated_Source\PSoC5/USB_Bootloader.c **** {
 646              		.loc 1 716 0
 647              		.cfi_startproc
 648              		@ args = 0, pretend = 0, frame = 0
 649              		@ frame_needed = 0, uses_anonymous_args = 0
 650              		@ link register save eliminated.
 651              	.LVL40:
 717:.\Generated_Source\PSoC5/USB_Bootloader.c ****     return(USB_Bootloader_interfaceSetting[interfaceNumber]);
 652              		.loc 1 717 0
 653 0000 014B     		ldr	r3, .L41
 654 0002 185C     		ldrb	r0, [r3, r0]	@ zero_extendqisi2
 655              	.LVL41:
 718:.\Generated_Source\PSoC5/USB_Bootloader.c **** }
 656              		.loc 1 718 0
 657 0004 7047     		bx	lr
 658              	.L42:
 659 0006 00BF     		.align	2
 660              	.L41:
 661 0008 00000000 		.word	USB_Bootloader_interfaceSetting
 662              		.cfi_endproc
 663              	.LFE8:
 664              		.size	USB_Bootloader_GetInterfaceSetting, .-USB_Bootloader_GetInterfaceSetting
 665              		.section	.text.USB_Bootloader_GetEPState,"ax",%progbits
 666              		.align	2
 667              		.global	USB_Bootloader_GetEPState
 668              		.thumb
 669              		.thumb_func
 670              		.type	USB_Bootloader_GetEPState, %function
 671              	USB_Bootloader_GetEPState:
 672              	.LFB9:
 719:.\Generated_Source\PSoC5/USB_Bootloader.c **** 
 720:.\Generated_Source\PSoC5/USB_Bootloader.c **** 
 721:.\Generated_Source\PSoC5/USB_Bootloader.c **** /*******************************************************************************
 722:.\Generated_Source\PSoC5/USB_Bootloader.c **** * Function Name: USB_Bootloader_GetEPState
 723:.\Generated_Source\PSoC5/USB_Bootloader.c **** ********************************************************************************
 724:.\Generated_Source\PSoC5/USB_Bootloader.c **** *
 725:.\Generated_Source\PSoC5/USB_Bootloader.c **** * Summary:
 726:.\Generated_Source\PSoC5/USB_Bootloader.c **** *  Returned the state of the requested endpoint.
 727:.\Generated_Source\PSoC5/USB_Bootloader.c **** *
 728:.\Generated_Source\PSoC5/USB_Bootloader.c **** * Parameters:
 729:.\Generated_Source\PSoC5/USB_Bootloader.c **** *  epNumber: Endpoint Number
 730:.\Generated_Source\PSoC5/USB_Bootloader.c **** *
 731:.\Generated_Source\PSoC5/USB_Bootloader.c **** * Return:
 732:.\Generated_Source\PSoC5/USB_Bootloader.c **** *  State of the requested endpoint.
 733:.\Generated_Source\PSoC5/USB_Bootloader.c **** *
 734:.\Generated_Source\PSoC5/USB_Bootloader.c **** *******************************************************************************/
 735:.\Generated_Source\PSoC5/USB_Bootloader.c **** uint8 USB_Bootloader_GetEPState(uint8 epNumber) 
 736:.\Generated_Source\PSoC5/USB_Bootloader.c **** {
 673              		.loc 1 736 0
 674              		.cfi_startproc
 675              		@ args = 0, pretend = 0, frame = 0
 676              		@ frame_needed = 0, uses_anonymous_args = 0
 677              		@ link register save eliminated.
 678              	.LVL42:
 737:.\Generated_Source\PSoC5/USB_Bootloader.c ****     return(USB_Bootloader_EP[epNumber].apiEpState);
ARM GAS  C:\Users\Robert\AppData\Local\Temp\ccGEgqLk.s 			page 26


 679              		.loc 1 737 0
 680 0000 00EB4000 		add	r0, r0, r0, lsl #1
 681              	.LVL43:
 682 0004 8000     		lsls	r0, r0, #2
 683 0006 024B     		ldr	r3, .L44
 684 0008 1844     		add	r0, r0, r3
 685 000a 4078     		ldrb	r0, [r0, #1]	@ zero_extendqisi2
 738:.\Generated_Source\PSoC5/USB_Bootloader.c **** }
 686              		.loc 1 738 0
 687 000c 7047     		bx	lr
 688              	.L45:
 689 000e 00BF     		.align	2
 690              	.L44:
 691 0010 00000000 		.word	USB_Bootloader_EP
 692              		.cfi_endproc
 693              	.LFE9:
 694              		.size	USB_Bootloader_GetEPState, .-USB_Bootloader_GetEPState
 695              		.section	.text.USB_Bootloader_GetEPCount,"ax",%progbits
 696              		.align	2
 697              		.global	USB_Bootloader_GetEPCount
 698              		.thumb
 699              		.thumb_func
 700              		.type	USB_Bootloader_GetEPCount, %function
 701              	USB_Bootloader_GetEPCount:
 702              	.LFB10:
 739:.\Generated_Source\PSoC5/USB_Bootloader.c **** 
 740:.\Generated_Source\PSoC5/USB_Bootloader.c **** 
 741:.\Generated_Source\PSoC5/USB_Bootloader.c **** /*******************************************************************************
 742:.\Generated_Source\PSoC5/USB_Bootloader.c **** * Function Name: USB_Bootloader_GetEPCount
 743:.\Generated_Source\PSoC5/USB_Bootloader.c **** ********************************************************************************
 744:.\Generated_Source\PSoC5/USB_Bootloader.c **** *
 745:.\Generated_Source\PSoC5/USB_Bootloader.c **** * Summary:
 746:.\Generated_Source\PSoC5/USB_Bootloader.c **** *  This function supports Data Endpoints only(EP1-EP8).
 747:.\Generated_Source\PSoC5/USB_Bootloader.c **** *  Returns the transfer count for the requested endpoint.  The value from
 748:.\Generated_Source\PSoC5/USB_Bootloader.c **** *  the count registers includes 2 counts for the two byte checksum of the
 749:.\Generated_Source\PSoC5/USB_Bootloader.c **** *  packet.  This function subtracts the two counts.
 750:.\Generated_Source\PSoC5/USB_Bootloader.c **** *
 751:.\Generated_Source\PSoC5/USB_Bootloader.c **** * Parameters:
 752:.\Generated_Source\PSoC5/USB_Bootloader.c **** *  epNumber: Data Endpoint Number.
 753:.\Generated_Source\PSoC5/USB_Bootloader.c **** *            Valid values are between 1 and 8.
 754:.\Generated_Source\PSoC5/USB_Bootloader.c **** *
 755:.\Generated_Source\PSoC5/USB_Bootloader.c **** * Return:
 756:.\Generated_Source\PSoC5/USB_Bootloader.c **** *  Returns the current byte count from the specified endpoint or 0 for an
 757:.\Generated_Source\PSoC5/USB_Bootloader.c **** *  invalid endpoint.
 758:.\Generated_Source\PSoC5/USB_Bootloader.c **** *
 759:.\Generated_Source\PSoC5/USB_Bootloader.c **** *******************************************************************************/
 760:.\Generated_Source\PSoC5/USB_Bootloader.c **** uint16 USB_Bootloader_GetEPCount(uint8 epNumber) 
 761:.\Generated_Source\PSoC5/USB_Bootloader.c **** {
 703              		.loc 1 761 0
 704              		.cfi_startproc
 705              		@ args = 0, pretend = 0, frame = 0
 706              		@ frame_needed = 0, uses_anonymous_args = 0
 707              		@ link register save eliminated.
 708              	.LVL44:
 762:.\Generated_Source\PSoC5/USB_Bootloader.c ****     uint8 ri;
 763:.\Generated_Source\PSoC5/USB_Bootloader.c ****     uint16 result = 0u;
 764:.\Generated_Source\PSoC5/USB_Bootloader.c **** 
ARM GAS  C:\Users\Robert\AppData\Local\Temp\ccGEgqLk.s 			page 27


 765:.\Generated_Source\PSoC5/USB_Bootloader.c ****     if((epNumber > USB_Bootloader_EP0) && (epNumber < USB_Bootloader_MAX_EP))
 709              		.loc 1 765 0
 710 0000 0138     		subs	r0, r0, #1
 711              	.LVL45:
 712 0002 C0B2     		uxtb	r0, r0
 713 0004 0728     		cmp	r0, #7
 714 0006 0CD8     		bhi	.L48
 766:.\Generated_Source\PSoC5/USB_Bootloader.c ****     {
 767:.\Generated_Source\PSoC5/USB_Bootloader.c ****         ri = ((epNumber - USB_Bootloader_EP1) << USB_Bootloader_EPX_CNTX_ADDR_SHIFT);
 715              		.loc 1 767 0
 716 0008 0001     		lsls	r0, r0, #4
 717 000a C0B2     		uxtb	r0, r0
 718              	.LVL46:
 768:.\Generated_Source\PSoC5/USB_Bootloader.c **** 
 769:.\Generated_Source\PSoC5/USB_Bootloader.c ****         result = (uint8)(CY_GET_REG8((reg8 *)(USB_Bootloader_SIE_EP1_CNT0_IND + ri)) &
 719              		.loc 1 769 0
 720 000c 064B     		ldr	r3, .L49
 721 000e C25C     		ldrb	r2, [r0, r3]	@ zero_extendqisi2
 722 0010 02F00F02 		and	r2, r2, #15
 723              	.LVL47:
 770:.\Generated_Source\PSoC5/USB_Bootloader.c ****                           USB_Bootloader_EPX_CNT0_MASK);
 771:.\Generated_Source\PSoC5/USB_Bootloader.c ****         result = (result << 8u) | CY_GET_REG8((reg8 *)(USB_Bootloader_SIE_EP1_CNT1_IND + ri));
 724              		.loc 1 771 0
 725 0014 0133     		adds	r3, r3, #1
 726 0016 C35C     		ldrb	r3, [r0, r3]	@ zero_extendqisi2
 727 0018 43EA0220 		orr	r0, r3, r2, lsl #8
 728              	.LVL48:
 772:.\Generated_Source\PSoC5/USB_Bootloader.c ****         result -= USB_Bootloader_EPX_CNTX_CRC_COUNT;
 729              		.loc 1 772 0
 730 001c 0238     		subs	r0, r0, #2
 731              	.LVL49:
 732 001e 80B2     		uxth	r0, r0
 733              	.LVL50:
 734 0020 7047     		bx	lr
 735              	.LVL51:
 736              	.L48:
 763:.\Generated_Source\PSoC5/USB_Bootloader.c **** 
 737              		.loc 1 763 0
 738 0022 0020     		movs	r0, #0
 739              	.LVL52:
 773:.\Generated_Source\PSoC5/USB_Bootloader.c ****     }
 774:.\Generated_Source\PSoC5/USB_Bootloader.c ****     return(result);
 775:.\Generated_Source\PSoC5/USB_Bootloader.c **** }
 740              		.loc 1 775 0
 741 0024 7047     		bx	lr
 742              	.L50:
 743 0026 00BF     		.align	2
 744              	.L49:
 745 0028 0C600040 		.word	1073766412
 746              		.cfi_endproc
 747              	.LFE10:
 748              		.size	USB_Bootloader_GetEPCount, .-USB_Bootloader_GetEPCount
 749              		.section	.text.USB_Bootloader_LoadInEP,"ax",%progbits
 750              		.align	2
 751              		.global	USB_Bootloader_LoadInEP
 752              		.thumb
 753              		.thumb_func
ARM GAS  C:\Users\Robert\AppData\Local\Temp\ccGEgqLk.s 			page 28


 754              		.type	USB_Bootloader_LoadInEP, %function
 755              	USB_Bootloader_LoadInEP:
 756              	.LFB11:
 776:.\Generated_Source\PSoC5/USB_Bootloader.c **** 
 777:.\Generated_Source\PSoC5/USB_Bootloader.c **** 
 778:.\Generated_Source\PSoC5/USB_Bootloader.c **** #if(USB_Bootloader_EP_MM != USB_Bootloader__EP_MANUAL)
 779:.\Generated_Source\PSoC5/USB_Bootloader.c **** 
 780:.\Generated_Source\PSoC5/USB_Bootloader.c **** 
 781:.\Generated_Source\PSoC5/USB_Bootloader.c ****     /*******************************************************************************
 782:.\Generated_Source\PSoC5/USB_Bootloader.c ****     * Function Name: USB_Bootloader_InitEP_DMA
 783:.\Generated_Source\PSoC5/USB_Bootloader.c ****     ********************************************************************************
 784:.\Generated_Source\PSoC5/USB_Bootloader.c ****     *
 785:.\Generated_Source\PSoC5/USB_Bootloader.c ****     * Summary:
 786:.\Generated_Source\PSoC5/USB_Bootloader.c ****     *  This function allocates and initializes a DMA channel to be used by the
 787:.\Generated_Source\PSoC5/USB_Bootloader.c ****     *  USB_Bootloader_LoadInEP() or USB_Bootloader_ReadOutEP() APIs for data
 788:.\Generated_Source\PSoC5/USB_Bootloader.c ****     *  transfer.
 789:.\Generated_Source\PSoC5/USB_Bootloader.c ****     *
 790:.\Generated_Source\PSoC5/USB_Bootloader.c ****     * Parameters:
 791:.\Generated_Source\PSoC5/USB_Bootloader.c ****     *  epNumber: Contains the data endpoint number.
 792:.\Generated_Source\PSoC5/USB_Bootloader.c ****     *            Valid values are between 1 and 8.
 793:.\Generated_Source\PSoC5/USB_Bootloader.c ****     *  *pData: Pointer to a data array that is related to the EP transfers.
 794:.\Generated_Source\PSoC5/USB_Bootloader.c ****     *
 795:.\Generated_Source\PSoC5/USB_Bootloader.c ****     * Return:
 796:.\Generated_Source\PSoC5/USB_Bootloader.c ****     *  None.
 797:.\Generated_Source\PSoC5/USB_Bootloader.c ****     *
 798:.\Generated_Source\PSoC5/USB_Bootloader.c ****     * Reentrant:
 799:.\Generated_Source\PSoC5/USB_Bootloader.c ****     *  No.
 800:.\Generated_Source\PSoC5/USB_Bootloader.c ****     *
 801:.\Generated_Source\PSoC5/USB_Bootloader.c ****     *******************************************************************************/
 802:.\Generated_Source\PSoC5/USB_Bootloader.c ****     void USB_Bootloader_InitEP_DMA(uint8 epNumber, const uint8* pData)
 803:.\Generated_Source\PSoC5/USB_Bootloader.c ****                                                                     
 804:.\Generated_Source\PSoC5/USB_Bootloader.c ****     {
 805:.\Generated_Source\PSoC5/USB_Bootloader.c ****         uint16 src;
 806:.\Generated_Source\PSoC5/USB_Bootloader.c ****         uint16 dst;
 807:.\Generated_Source\PSoC5/USB_Bootloader.c ****         #if (CY_PSOC3)                  /* PSoC 3 */
 808:.\Generated_Source\PSoC5/USB_Bootloader.c ****             src = HI16(CYDEV_SRAM_BASE);
 809:.\Generated_Source\PSoC5/USB_Bootloader.c ****             dst = HI16(CYDEV_PERIPH_BASE);
 810:.\Generated_Source\PSoC5/USB_Bootloader.c ****             pData = pData;
 811:.\Generated_Source\PSoC5/USB_Bootloader.c ****         #else                           /* PSoC 5 */
 812:.\Generated_Source\PSoC5/USB_Bootloader.c ****             if((USB_Bootloader_EP[epNumber].addr & USB_Bootloader_DIR_IN) != 0u )
 813:.\Generated_Source\PSoC5/USB_Bootloader.c ****             {   /* for the IN EP source is the SRAM memory buffer */
 814:.\Generated_Source\PSoC5/USB_Bootloader.c ****                 src = HI16(pData);
 815:.\Generated_Source\PSoC5/USB_Bootloader.c ****                 dst = HI16(CYDEV_PERIPH_BASE);
 816:.\Generated_Source\PSoC5/USB_Bootloader.c ****             }
 817:.\Generated_Source\PSoC5/USB_Bootloader.c ****             else
 818:.\Generated_Source\PSoC5/USB_Bootloader.c ****             {   /* for the OUT EP source is the SIE register */
 819:.\Generated_Source\PSoC5/USB_Bootloader.c ****                 src = HI16(CYDEV_PERIPH_BASE);
 820:.\Generated_Source\PSoC5/USB_Bootloader.c ****                 dst = HI16(pData);
 821:.\Generated_Source\PSoC5/USB_Bootloader.c ****             }
 822:.\Generated_Source\PSoC5/USB_Bootloader.c ****         #endif  /*  C51 */
 823:.\Generated_Source\PSoC5/USB_Bootloader.c ****         switch(epNumber)
 824:.\Generated_Source\PSoC5/USB_Bootloader.c ****         {
 825:.\Generated_Source\PSoC5/USB_Bootloader.c ****             case USB_Bootloader_EP1:
 826:.\Generated_Source\PSoC5/USB_Bootloader.c ****                 #if(USB_Bootloader_DMA1_REMOVE == 0u)
 827:.\Generated_Source\PSoC5/USB_Bootloader.c ****                     USB_Bootloader_DmaChan[epNumber] = USB_Bootloader_ep1_DmaInitialize(
 828:.\Generated_Source\PSoC5/USB_Bootloader.c ****                         USB_Bootloader_DMA_BYTES_PER_BURST, USB_Bootloader_DMA_REQUEST_PER_BURST, s
 829:.\Generated_Source\PSoC5/USB_Bootloader.c ****                 #endif   /*  USB_Bootloader_DMA1_REMOVE */
ARM GAS  C:\Users\Robert\AppData\Local\Temp\ccGEgqLk.s 			page 29


 830:.\Generated_Source\PSoC5/USB_Bootloader.c ****                 break;
 831:.\Generated_Source\PSoC5/USB_Bootloader.c ****             case USB_Bootloader_EP2:
 832:.\Generated_Source\PSoC5/USB_Bootloader.c ****                 #if(USB_Bootloader_DMA2_REMOVE == 0u)
 833:.\Generated_Source\PSoC5/USB_Bootloader.c ****                     USB_Bootloader_DmaChan[epNumber] = USB_Bootloader_ep2_DmaInitialize(
 834:.\Generated_Source\PSoC5/USB_Bootloader.c ****                         USB_Bootloader_DMA_BYTES_PER_BURST, USB_Bootloader_DMA_REQUEST_PER_BURST, s
 835:.\Generated_Source\PSoC5/USB_Bootloader.c ****                 #endif   /*  USB_Bootloader_DMA2_REMOVE */
 836:.\Generated_Source\PSoC5/USB_Bootloader.c ****                 break;
 837:.\Generated_Source\PSoC5/USB_Bootloader.c ****             case USB_Bootloader_EP3:
 838:.\Generated_Source\PSoC5/USB_Bootloader.c ****                 #if(USB_Bootloader_DMA3_REMOVE == 0u)
 839:.\Generated_Source\PSoC5/USB_Bootloader.c ****                     USB_Bootloader_DmaChan[epNumber] = USB_Bootloader_ep3_DmaInitialize(
 840:.\Generated_Source\PSoC5/USB_Bootloader.c ****                         USB_Bootloader_DMA_BYTES_PER_BURST, USB_Bootloader_DMA_REQUEST_PER_BURST, s
 841:.\Generated_Source\PSoC5/USB_Bootloader.c ****                 #endif   /*  USB_Bootloader_DMA3_REMOVE */
 842:.\Generated_Source\PSoC5/USB_Bootloader.c ****                 break;
 843:.\Generated_Source\PSoC5/USB_Bootloader.c ****             case USB_Bootloader_EP4:
 844:.\Generated_Source\PSoC5/USB_Bootloader.c ****                 #if(USB_Bootloader_DMA4_REMOVE == 0u)
 845:.\Generated_Source\PSoC5/USB_Bootloader.c ****                     USB_Bootloader_DmaChan[epNumber] = USB_Bootloader_ep4_DmaInitialize(
 846:.\Generated_Source\PSoC5/USB_Bootloader.c ****                         USB_Bootloader_DMA_BYTES_PER_BURST, USB_Bootloader_DMA_REQUEST_PER_BURST, s
 847:.\Generated_Source\PSoC5/USB_Bootloader.c ****                 #endif   /*  USB_Bootloader_DMA4_REMOVE */
 848:.\Generated_Source\PSoC5/USB_Bootloader.c ****                 break;
 849:.\Generated_Source\PSoC5/USB_Bootloader.c ****             case USB_Bootloader_EP5:
 850:.\Generated_Source\PSoC5/USB_Bootloader.c ****                 #if(USB_Bootloader_DMA5_REMOVE == 0u)
 851:.\Generated_Source\PSoC5/USB_Bootloader.c ****                     USB_Bootloader_DmaChan[epNumber] = USB_Bootloader_ep5_DmaInitialize(
 852:.\Generated_Source\PSoC5/USB_Bootloader.c ****                         USB_Bootloader_DMA_BYTES_PER_BURST, USB_Bootloader_DMA_REQUEST_PER_BURST, s
 853:.\Generated_Source\PSoC5/USB_Bootloader.c ****                 #endif   /*  USB_Bootloader_DMA5_REMOVE */
 854:.\Generated_Source\PSoC5/USB_Bootloader.c ****                 break;
 855:.\Generated_Source\PSoC5/USB_Bootloader.c ****             case USB_Bootloader_EP6:
 856:.\Generated_Source\PSoC5/USB_Bootloader.c ****                 #if(USB_Bootloader_DMA6_REMOVE == 0u)
 857:.\Generated_Source\PSoC5/USB_Bootloader.c ****                     USB_Bootloader_DmaChan[epNumber] = USB_Bootloader_ep6_DmaInitialize(
 858:.\Generated_Source\PSoC5/USB_Bootloader.c ****                         USB_Bootloader_DMA_BYTES_PER_BURST, USB_Bootloader_DMA_REQUEST_PER_BURST, s
 859:.\Generated_Source\PSoC5/USB_Bootloader.c ****                 #endif   /*  USB_Bootloader_DMA6_REMOVE */
 860:.\Generated_Source\PSoC5/USB_Bootloader.c ****                 break;
 861:.\Generated_Source\PSoC5/USB_Bootloader.c ****             case USB_Bootloader_EP7:
 862:.\Generated_Source\PSoC5/USB_Bootloader.c ****                 #if(USB_Bootloader_DMA7_REMOVE == 0u)
 863:.\Generated_Source\PSoC5/USB_Bootloader.c ****                     USB_Bootloader_DmaChan[epNumber] = USB_Bootloader_ep7_DmaInitialize(
 864:.\Generated_Source\PSoC5/USB_Bootloader.c ****                         USB_Bootloader_DMA_BYTES_PER_BURST, USB_Bootloader_DMA_REQUEST_PER_BURST, s
 865:.\Generated_Source\PSoC5/USB_Bootloader.c ****                 #endif   /*  USB_Bootloader_DMA7_REMOVE */
 866:.\Generated_Source\PSoC5/USB_Bootloader.c ****                 break;
 867:.\Generated_Source\PSoC5/USB_Bootloader.c ****             case USB_Bootloader_EP8:
 868:.\Generated_Source\PSoC5/USB_Bootloader.c ****                 #if(USB_Bootloader_DMA8_REMOVE == 0u)
 869:.\Generated_Source\PSoC5/USB_Bootloader.c ****                     USB_Bootloader_DmaChan[epNumber] = USB_Bootloader_ep8_DmaInitialize(
 870:.\Generated_Source\PSoC5/USB_Bootloader.c ****                         USB_Bootloader_DMA_BYTES_PER_BURST, USB_Bootloader_DMA_REQUEST_PER_BURST, s
 871:.\Generated_Source\PSoC5/USB_Bootloader.c ****                 #endif   /*  USB_Bootloader_DMA8_REMOVE */
 872:.\Generated_Source\PSoC5/USB_Bootloader.c ****                 break;
 873:.\Generated_Source\PSoC5/USB_Bootloader.c ****             default:
 874:.\Generated_Source\PSoC5/USB_Bootloader.c ****                 /* Do not support EP0 DMA transfers */
 875:.\Generated_Source\PSoC5/USB_Bootloader.c ****                 break;
 876:.\Generated_Source\PSoC5/USB_Bootloader.c ****         }
 877:.\Generated_Source\PSoC5/USB_Bootloader.c ****         if((epNumber > USB_Bootloader_EP0) && (epNumber < USB_Bootloader_MAX_EP))
 878:.\Generated_Source\PSoC5/USB_Bootloader.c ****         {
 879:.\Generated_Source\PSoC5/USB_Bootloader.c ****             USB_Bootloader_DmaTd[epNumber] = CyDmaTdAllocate();
 880:.\Generated_Source\PSoC5/USB_Bootloader.c ****             #if ((USB_Bootloader_EP_MM == USB_Bootloader__EP_DMAAUTO) && (USB_Bootloader_EP_DMA_AUT
 881:.\Generated_Source\PSoC5/USB_Bootloader.c ****                 USB_Bootloader_DmaNextTd[epNumber] = CyDmaTdAllocate();
 882:.\Generated_Source\PSoC5/USB_Bootloader.c ****             #endif /*  ((USB_Bootloader_EP_MM == USB_Bootloader__EP_DMAAUTO) && (USB_Bootloader_EP_
 883:.\Generated_Source\PSoC5/USB_Bootloader.c **** 
 884:.\Generated_Source\PSoC5/USB_Bootloader.c ****         }
 885:.\Generated_Source\PSoC5/USB_Bootloader.c ****     }
 886:.\Generated_Source\PSoC5/USB_Bootloader.c **** 
ARM GAS  C:\Users\Robert\AppData\Local\Temp\ccGEgqLk.s 			page 30


 887:.\Generated_Source\PSoC5/USB_Bootloader.c **** 
 888:.\Generated_Source\PSoC5/USB_Bootloader.c ****     /*******************************************************************************
 889:.\Generated_Source\PSoC5/USB_Bootloader.c ****     * Function Name: USB_Bootloader_Stop_DMA
 890:.\Generated_Source\PSoC5/USB_Bootloader.c ****     ********************************************************************************
 891:.\Generated_Source\PSoC5/USB_Bootloader.c ****     *
 892:.\Generated_Source\PSoC5/USB_Bootloader.c ****     * Summary: Stops and free DMA
 893:.\Generated_Source\PSoC5/USB_Bootloader.c ****     *
 894:.\Generated_Source\PSoC5/USB_Bootloader.c ****     * Parameters:
 895:.\Generated_Source\PSoC5/USB_Bootloader.c ****     *  epNumber: Contains the data endpoint number or
 896:.\Generated_Source\PSoC5/USB_Bootloader.c ****     *           USB_Bootloader_MAX_EP to stop all DMAs
 897:.\Generated_Source\PSoC5/USB_Bootloader.c ****     *
 898:.\Generated_Source\PSoC5/USB_Bootloader.c ****     * Return:
 899:.\Generated_Source\PSoC5/USB_Bootloader.c ****     *  None.
 900:.\Generated_Source\PSoC5/USB_Bootloader.c ****     *
 901:.\Generated_Source\PSoC5/USB_Bootloader.c ****     * Reentrant:
 902:.\Generated_Source\PSoC5/USB_Bootloader.c ****     *  No.
 903:.\Generated_Source\PSoC5/USB_Bootloader.c ****     *
 904:.\Generated_Source\PSoC5/USB_Bootloader.c ****     *******************************************************************************/
 905:.\Generated_Source\PSoC5/USB_Bootloader.c ****     void USB_Bootloader_Stop_DMA(uint8 epNumber) 
 906:.\Generated_Source\PSoC5/USB_Bootloader.c ****     {
 907:.\Generated_Source\PSoC5/USB_Bootloader.c ****         uint8 i;
 908:.\Generated_Source\PSoC5/USB_Bootloader.c ****         i = (epNumber < USB_Bootloader_MAX_EP) ? epNumber : USB_Bootloader_EP1;
 909:.\Generated_Source\PSoC5/USB_Bootloader.c ****         do
 910:.\Generated_Source\PSoC5/USB_Bootloader.c ****         {
 911:.\Generated_Source\PSoC5/USB_Bootloader.c ****             if(USB_Bootloader_DmaTd[i] != DMA_INVALID_TD)
 912:.\Generated_Source\PSoC5/USB_Bootloader.c ****             {
 913:.\Generated_Source\PSoC5/USB_Bootloader.c ****                 (void) CyDmaChDisable(USB_Bootloader_DmaChan[i]);
 914:.\Generated_Source\PSoC5/USB_Bootloader.c ****                 CyDmaTdFree(USB_Bootloader_DmaTd[i]);
 915:.\Generated_Source\PSoC5/USB_Bootloader.c ****                 USB_Bootloader_DmaTd[i] = DMA_INVALID_TD;
 916:.\Generated_Source\PSoC5/USB_Bootloader.c ****             }
 917:.\Generated_Source\PSoC5/USB_Bootloader.c ****             #if ((USB_Bootloader_EP_MM == USB_Bootloader__EP_DMAAUTO) && (USB_Bootloader_EP_DMA_AUT
 918:.\Generated_Source\PSoC5/USB_Bootloader.c ****                 if(USB_Bootloader_DmaNextTd[i] != DMA_INVALID_TD)
 919:.\Generated_Source\PSoC5/USB_Bootloader.c ****                 {
 920:.\Generated_Source\PSoC5/USB_Bootloader.c ****                     CyDmaTdFree(USB_Bootloader_DmaNextTd[i]);
 921:.\Generated_Source\PSoC5/USB_Bootloader.c ****                     USB_Bootloader_DmaNextTd[i] = DMA_INVALID_TD;
 922:.\Generated_Source\PSoC5/USB_Bootloader.c ****                 }
 923:.\Generated_Source\PSoC5/USB_Bootloader.c ****             #endif /* ((USB_Bootloader_EP_MM == USB_Bootloader__EP_DMAAUTO) && (USB_Bootloader_EP_D
 924:.\Generated_Source\PSoC5/USB_Bootloader.c ****             i++;
 925:.\Generated_Source\PSoC5/USB_Bootloader.c ****         }while((i < USB_Bootloader_MAX_EP) && (epNumber == USB_Bootloader_MAX_EP));
 926:.\Generated_Source\PSoC5/USB_Bootloader.c ****     }
 927:.\Generated_Source\PSoC5/USB_Bootloader.c **** 
 928:.\Generated_Source\PSoC5/USB_Bootloader.c **** #endif /*  USB_Bootloader_EP_MM != USB_Bootloader__EP_MANUAL */
 929:.\Generated_Source\PSoC5/USB_Bootloader.c **** 
 930:.\Generated_Source\PSoC5/USB_Bootloader.c **** 
 931:.\Generated_Source\PSoC5/USB_Bootloader.c **** #if ((USB_Bootloader_EP_MM == USB_Bootloader__EP_DMAAUTO) && (USB_Bootloader_EP_DMA_AUTO_OPT == 0u)
 932:.\Generated_Source\PSoC5/USB_Bootloader.c **** 
 933:.\Generated_Source\PSoC5/USB_Bootloader.c **** 
 934:.\Generated_Source\PSoC5/USB_Bootloader.c ****     /*******************************************************************************
 935:.\Generated_Source\PSoC5/USB_Bootloader.c ****     * Function Name: USB_Bootloader_LoadNextInEP
 936:.\Generated_Source\PSoC5/USB_Bootloader.c ****     ********************************************************************************
 937:.\Generated_Source\PSoC5/USB_Bootloader.c ****     *
 938:.\Generated_Source\PSoC5/USB_Bootloader.c ****     * Summary:
 939:.\Generated_Source\PSoC5/USB_Bootloader.c ****     *  This internal function is used for IN endpoint DMA reconfiguration in
 940:.\Generated_Source\PSoC5/USB_Bootloader.c ****     *  Auto DMA mode.
 941:.\Generated_Source\PSoC5/USB_Bootloader.c ****     *
 942:.\Generated_Source\PSoC5/USB_Bootloader.c ****     * Parameters:
 943:.\Generated_Source\PSoC5/USB_Bootloader.c ****     *  epNumber: Contains the data endpoint number.
ARM GAS  C:\Users\Robert\AppData\Local\Temp\ccGEgqLk.s 			page 31


 944:.\Generated_Source\PSoC5/USB_Bootloader.c ****     *  mode:   0 - Configure DMA to send the the rest of data.
 945:.\Generated_Source\PSoC5/USB_Bootloader.c ****     *          1 - Configure DMA to repeat 2 last bytes of the first burst.
 946:.\Generated_Source\PSoC5/USB_Bootloader.c ****     *
 947:.\Generated_Source\PSoC5/USB_Bootloader.c ****     * Return:
 948:.\Generated_Source\PSoC5/USB_Bootloader.c ****     *  None.
 949:.\Generated_Source\PSoC5/USB_Bootloader.c ****     *
 950:.\Generated_Source\PSoC5/USB_Bootloader.c ****     *******************************************************************************/
 951:.\Generated_Source\PSoC5/USB_Bootloader.c ****     void USB_Bootloader_LoadNextInEP(uint8 epNumber, uint8 mode) 
 952:.\Generated_Source\PSoC5/USB_Bootloader.c ****     {
 953:.\Generated_Source\PSoC5/USB_Bootloader.c ****         reg16 *convert;
 954:.\Generated_Source\PSoC5/USB_Bootloader.c **** 
 955:.\Generated_Source\PSoC5/USB_Bootloader.c ****         if(mode == 0u)
 956:.\Generated_Source\PSoC5/USB_Bootloader.c ****         {
 957:.\Generated_Source\PSoC5/USB_Bootloader.c ****             /* Configure DMA to send the the rest of data */
 958:.\Generated_Source\PSoC5/USB_Bootloader.c ****             /* CyDmaTdSetConfiguration API is optimised to change only transfer length and configur
 959:.\Generated_Source\PSoC5/USB_Bootloader.c ****             convert = (reg16 *) &CY_DMA_TDMEM_STRUCT_PTR[USB_Bootloader_DmaTd[epNumber]].TD0[0u];
 960:.\Generated_Source\PSoC5/USB_Bootloader.c ****             /* Set transfer length */
 961:.\Generated_Source\PSoC5/USB_Bootloader.c ****             CY_SET_REG16(convert, USB_Bootloader_inLength[epNumber] - USB_Bootloader_DMA_BYTES_PER_
 962:.\Generated_Source\PSoC5/USB_Bootloader.c ****             /* CyDmaTdSetAddress API is optimized to change only source address */
 963:.\Generated_Source\PSoC5/USB_Bootloader.c ****             convert = (reg16 *) &CY_DMA_TDMEM_STRUCT_PTR[USB_Bootloader_DmaTd[epNumber]].TD1[0u];
 964:.\Generated_Source\PSoC5/USB_Bootloader.c ****             CY_SET_REG16(convert, LO16((uint32)USB_Bootloader_inDataPointer[epNumber] +
 965:.\Generated_Source\PSoC5/USB_Bootloader.c ****                                             USB_Bootloader_DMA_BYTES_PER_BURST));
 966:.\Generated_Source\PSoC5/USB_Bootloader.c ****             USB_Bootloader_inBufFull[epNumber] = 1u;
 967:.\Generated_Source\PSoC5/USB_Bootloader.c ****         }
 968:.\Generated_Source\PSoC5/USB_Bootloader.c ****         else
 969:.\Generated_Source\PSoC5/USB_Bootloader.c ****         {
 970:.\Generated_Source\PSoC5/USB_Bootloader.c ****             /* Configure DMA to repeat 2 last bytes of the first burst. */
 971:.\Generated_Source\PSoC5/USB_Bootloader.c ****             /* CyDmaTdSetConfiguration API is optimised to change only transfer length and configur
 972:.\Generated_Source\PSoC5/USB_Bootloader.c ****             convert = (reg16 *) &CY_DMA_TDMEM_STRUCT_PTR[USB_Bootloader_DmaTd[epNumber]].TD0[0u];
 973:.\Generated_Source\PSoC5/USB_Bootloader.c ****             /* Set transfer length */
 974:.\Generated_Source\PSoC5/USB_Bootloader.c ****             CY_SET_REG16(convert, USB_Bootloader_DMA_BYTES_REPEAT);
 975:.\Generated_Source\PSoC5/USB_Bootloader.c ****             /* CyDmaTdSetAddress API is optimized to change only source address */
 976:.\Generated_Source\PSoC5/USB_Bootloader.c ****             convert = (reg16 *) &CY_DMA_TDMEM_STRUCT_PTR[USB_Bootloader_DmaTd[epNumber]].TD1[0u];
 977:.\Generated_Source\PSoC5/USB_Bootloader.c ****             CY_SET_REG16(convert,  LO16((uint32)USB_Bootloader_inDataPointer[epNumber] +
 978:.\Generated_Source\PSoC5/USB_Bootloader.c ****                                    USB_Bootloader_DMA_BYTES_PER_BURST - USB_Bootloader_DMA_BYTES_RE
 979:.\Generated_Source\PSoC5/USB_Bootloader.c ****         }
 980:.\Generated_Source\PSoC5/USB_Bootloader.c **** 
 981:.\Generated_Source\PSoC5/USB_Bootloader.c ****         /* CyDmaChSetInitialTd API is optimised to init TD */
 982:.\Generated_Source\PSoC5/USB_Bootloader.c ****         CY_DMA_CH_STRUCT_PTR[USB_Bootloader_DmaChan[epNumber]].basic_status[1u] = USB_Bootloader_Dm
 983:.\Generated_Source\PSoC5/USB_Bootloader.c ****     }
 984:.\Generated_Source\PSoC5/USB_Bootloader.c **** #endif /* ((USB_Bootloader_EP_MM == USB_Bootloader__EP_DMAAUTO) && (USB_Bootloader_EP_DMA_AUTO_OPT 
 985:.\Generated_Source\PSoC5/USB_Bootloader.c **** 
 986:.\Generated_Source\PSoC5/USB_Bootloader.c **** 
 987:.\Generated_Source\PSoC5/USB_Bootloader.c **** /*******************************************************************************
 988:.\Generated_Source\PSoC5/USB_Bootloader.c **** * Function Name: USB_Bootloader_LoadInEP
 989:.\Generated_Source\PSoC5/USB_Bootloader.c **** ********************************************************************************
 990:.\Generated_Source\PSoC5/USB_Bootloader.c **** *
 991:.\Generated_Source\PSoC5/USB_Bootloader.c **** * Summary:
 992:.\Generated_Source\PSoC5/USB_Bootloader.c **** *  Loads and enables the specified USB data endpoint for an IN transfer.
 993:.\Generated_Source\PSoC5/USB_Bootloader.c **** *
 994:.\Generated_Source\PSoC5/USB_Bootloader.c **** * Parameters:
 995:.\Generated_Source\PSoC5/USB_Bootloader.c **** *  epNumber: Contains the data endpoint number.
 996:.\Generated_Source\PSoC5/USB_Bootloader.c **** *            Valid values are between 1 and 8.
 997:.\Generated_Source\PSoC5/USB_Bootloader.c **** *  *pData: A pointer to a data array from which the data for the endpoint space
 998:.\Generated_Source\PSoC5/USB_Bootloader.c **** *          is loaded.
 999:.\Generated_Source\PSoC5/USB_Bootloader.c **** *  length: The number of bytes to transfer from the array and then send as a
1000:.\Generated_Source\PSoC5/USB_Bootloader.c **** *          result of an IN request. Valid values are between 0 and 512.
ARM GAS  C:\Users\Robert\AppData\Local\Temp\ccGEgqLk.s 			page 32


1001:.\Generated_Source\PSoC5/USB_Bootloader.c **** *
1002:.\Generated_Source\PSoC5/USB_Bootloader.c **** * Return:
1003:.\Generated_Source\PSoC5/USB_Bootloader.c **** *  None.
1004:.\Generated_Source\PSoC5/USB_Bootloader.c **** *
1005:.\Generated_Source\PSoC5/USB_Bootloader.c **** * Reentrant:
1006:.\Generated_Source\PSoC5/USB_Bootloader.c **** *  No.
1007:.\Generated_Source\PSoC5/USB_Bootloader.c **** *
1008:.\Generated_Source\PSoC5/USB_Bootloader.c **** *******************************************************************************/
1009:.\Generated_Source\PSoC5/USB_Bootloader.c **** void USB_Bootloader_LoadInEP(uint8 epNumber, const uint8 pData[], uint16 length)
1010:.\Generated_Source\PSoC5/USB_Bootloader.c ****                                                                         
1011:.\Generated_Source\PSoC5/USB_Bootloader.c **** {
 757              		.loc 1 1011 0
 758              		.cfi_startproc
 759              		@ args = 0, pretend = 0, frame = 0
 760              		@ frame_needed = 0, uses_anonymous_args = 0
 761              		@ link register save eliminated.
 762              	.LVL53:
 763 0000 70B4     		push	{r4, r5, r6}
 764              		.cfi_def_cfa_offset 12
 765              		.cfi_offset 4, -12
 766              		.cfi_offset 5, -8
 767              		.cfi_offset 6, -4
1012:.\Generated_Source\PSoC5/USB_Bootloader.c ****     uint8 ri;
1013:.\Generated_Source\PSoC5/USB_Bootloader.c ****     reg8 *p;
1014:.\Generated_Source\PSoC5/USB_Bootloader.c ****     #if(USB_Bootloader_EP_MM == USB_Bootloader__EP_MANUAL)
1015:.\Generated_Source\PSoC5/USB_Bootloader.c ****         uint16 i;
1016:.\Generated_Source\PSoC5/USB_Bootloader.c ****     #endif /*  USB_Bootloader_EP_MM == USB_Bootloader__EP_MANUAL */
1017:.\Generated_Source\PSoC5/USB_Bootloader.c **** 
1018:.\Generated_Source\PSoC5/USB_Bootloader.c ****     if((epNumber > USB_Bootloader_EP0) && (epNumber < USB_Bootloader_MAX_EP))
 768              		.loc 1 1018 0
 769 0002 451E     		subs	r5, r0, #1
 770 0004 EDB2     		uxtb	r5, r5
 771 0006 072D     		cmp	r5, #7
 772 0008 38D8     		bhi	.L51
1019:.\Generated_Source\PSoC5/USB_Bootloader.c ****     {
1020:.\Generated_Source\PSoC5/USB_Bootloader.c ****         ri = ((epNumber - USB_Bootloader_EP1) << USB_Bootloader_EPX_CNTX_ADDR_SHIFT);
 773              		.loc 1 1020 0
 774 000a 2D01     		lsls	r5, r5, #4
 775 000c EDB2     		uxtb	r5, r5
1021:.\Generated_Source\PSoC5/USB_Bootloader.c ****         p = (reg8 *)(USB_Bootloader_ARB_RW1_DR_IND + ri);
 776              		.loc 1 1021 0
 777 000e 1C4E     		ldr	r6, .L59
 778 0010 2E44     		add	r6, r6, r5
 779              	.LVL54:
1022:.\Generated_Source\PSoC5/USB_Bootloader.c **** 
1023:.\Generated_Source\PSoC5/USB_Bootloader.c ****         #if(USB_Bootloader_EP_MM != USB_Bootloader__EP_DMAAUTO)
1024:.\Generated_Source\PSoC5/USB_Bootloader.c ****             /* Limits length to available buffer space, auto MM could send packets up to 1024 bytes
1025:.\Generated_Source\PSoC5/USB_Bootloader.c ****             if(length > (USB_Bootloader_EPX_DATA_BUF_MAX - USB_Bootloader_EP[epNumber].buffOffset))
 780              		.loc 1 1025 0
 781 0012 00EB4003 		add	r3, r0, r0, lsl #1
 782 0016 9B00     		lsls	r3, r3, #2
 783 0018 1A4C     		ldr	r4, .L59+4
 784 001a 2344     		add	r3, r3, r4
 785 001c DB88     		ldrh	r3, [r3, #6]
 786 001e 9BB2     		uxth	r3, r3
 787 0020 C3F50073 		rsb	r3, r3, #512
 788 0024 9A42     		cmp	r2, r3
ARM GAS  C:\Users\Robert\AppData\Local\Temp\ccGEgqLk.s 			page 33


 789 0026 07D9     		bls	.L53
1026:.\Generated_Source\PSoC5/USB_Bootloader.c ****             {
1027:.\Generated_Source\PSoC5/USB_Bootloader.c ****                 length = USB_Bootloader_EPX_DATA_BUF_MAX - USB_Bootloader_EP[epNumber].buffOffset;
 790              		.loc 1 1027 0
 791 0028 00EB4003 		add	r3, r0, r0, lsl #1
 792 002c 9B00     		lsls	r3, r3, #2
 793 002e 2344     		add	r3, r3, r4
 794 0030 DA88     		ldrh	r2, [r3, #6]
 795              	.LVL55:
 796 0032 C2F50072 		rsb	r2, r2, #512
 797 0036 92B2     		uxth	r2, r2
 798              	.LVL56:
 799              	.L53:
1028:.\Generated_Source\PSoC5/USB_Bootloader.c ****             }
1029:.\Generated_Source\PSoC5/USB_Bootloader.c ****         #endif /*  USB_Bootloader_EP_MM != USB_Bootloader__EP_DMAAUTO */
1030:.\Generated_Source\PSoC5/USB_Bootloader.c **** 
1031:.\Generated_Source\PSoC5/USB_Bootloader.c ****         /* Set the count and data toggle */
1032:.\Generated_Source\PSoC5/USB_Bootloader.c ****         CY_SET_REG8((reg8 *)(USB_Bootloader_SIE_EP1_CNT0_IND + ri),
 800              		.loc 1 1032 0
 801 0038 00EB4003 		add	r3, r0, r0, lsl #1
 802 003c 9B00     		lsls	r3, r3, #2
 803 003e 114C     		ldr	r4, .L59+4
 804 0040 2344     		add	r3, r3, r4
 805 0042 DB78     		ldrb	r3, [r3, #3]	@ zero_extendqisi2
 806 0044 43EA1223 		orr	r3, r3, r2, lsr #8
 807 0048 0F4C     		ldr	r4, .L59+8
 808 004a 2B55     		strb	r3, [r5, r4]
1033:.\Generated_Source\PSoC5/USB_Bootloader.c ****                             (length >> 8u) | (USB_Bootloader_EP[epNumber].epToggle));
1034:.\Generated_Source\PSoC5/USB_Bootloader.c ****         CY_SET_REG8((reg8 *)(USB_Bootloader_SIE_EP1_CNT1_IND + ri),  length & 0xFFu);
 809              		.loc 1 1034 0
 810 004c D3B2     		uxtb	r3, r2
 811 004e 0134     		adds	r4, r4, #1
 812 0050 2B55     		strb	r3, [r5, r4]
1035:.\Generated_Source\PSoC5/USB_Bootloader.c **** 
1036:.\Generated_Source\PSoC5/USB_Bootloader.c ****         #if(USB_Bootloader_EP_MM == USB_Bootloader__EP_MANUAL)
1037:.\Generated_Source\PSoC5/USB_Bootloader.c ****             if(pData != NULL)
 813              		.loc 1 1037 0
 814 0052 29B9     		cbnz	r1, .L57
 815 0054 07E0     		b	.L55
 816              	.LVL57:
 817              	.L56:
1038:.\Generated_Source\PSoC5/USB_Bootloader.c ****             {
1039:.\Generated_Source\PSoC5/USB_Bootloader.c ****                 /* Copy the data using the arbiter data register */
1040:.\Generated_Source\PSoC5/USB_Bootloader.c ****                 for (i = 0u; i < length; i++)
1041:.\Generated_Source\PSoC5/USB_Bootloader.c ****                 {
1042:.\Generated_Source\PSoC5/USB_Bootloader.c ****                     CY_SET_REG8(p, pData[i]);
 818              		.loc 1 1042 0 discriminator 3
 819 0056 CC5C     		ldrb	r4, [r1, r3]	@ zero_extendqisi2
 820 0058 3470     		strb	r4, [r6]
1040:.\Generated_Source\PSoC5/USB_Bootloader.c ****                 {
 821              		.loc 1 1040 0 discriminator 3
 822 005a 0133     		adds	r3, r3, #1
 823              	.LVL58:
 824 005c 9BB2     		uxth	r3, r3
 825              	.LVL59:
 826 005e 00E0     		b	.L54
 827              	.LVL60:
ARM GAS  C:\Users\Robert\AppData\Local\Temp\ccGEgqLk.s 			page 34


 828              	.L57:
 829 0060 0023     		movs	r3, #0
 830              	.L54:
 831              	.LVL61:
1040:.\Generated_Source\PSoC5/USB_Bootloader.c ****                 {
 832              		.loc 1 1040 0 is_stmt 0 discriminator 1
 833 0062 9342     		cmp	r3, r2
 834 0064 F7D3     		bcc	.L56
 835              	.LVL62:
 836              	.L55:
1043:.\Generated_Source\PSoC5/USB_Bootloader.c ****                 }
1044:.\Generated_Source\PSoC5/USB_Bootloader.c ****             }
1045:.\Generated_Source\PSoC5/USB_Bootloader.c ****             USB_Bootloader_EP[epNumber].apiEpState = USB_Bootloader_NO_EVENT_PENDING;
 837              		.loc 1 1045 0 is_stmt 1
 838 0066 074A     		ldr	r2, .L59+4
 839              	.LVL63:
 840 0068 4100     		lsls	r1, r0, #1
 841              	.LVL64:
 842 006a 0B18     		adds	r3, r1, r0
 843 006c 9B00     		lsls	r3, r3, #2
 844 006e 1344     		add	r3, r3, r2
 845 0070 0024     		movs	r4, #0
 846 0072 5C70     		strb	r4, [r3, #1]
1046:.\Generated_Source\PSoC5/USB_Bootloader.c ****             /* Write the Mode register */
1047:.\Generated_Source\PSoC5/USB_Bootloader.c ****             CY_SET_REG8((reg8 *)(USB_Bootloader_SIE_EP1_CR0_IND + ri), USB_Bootloader_EP[epNumber].
 847              		.loc 1 1047 0
 848 0074 5B79     		ldrb	r3, [r3, #5]	@ zero_extendqisi2
 849 0076 DBB2     		uxtb	r3, r3
 850 0078 044A     		ldr	r2, .L59+12
 851 007a AB54     		strb	r3, [r5, r2]
 852              	.LVL65:
 853              	.L51:
1048:.\Generated_Source\PSoC5/USB_Bootloader.c ****         #else
1049:.\Generated_Source\PSoC5/USB_Bootloader.c ****             /* Init DMA if it was not initialized */
1050:.\Generated_Source\PSoC5/USB_Bootloader.c ****             if (USB_Bootloader_DmaTd[epNumber] == DMA_INVALID_TD)
1051:.\Generated_Source\PSoC5/USB_Bootloader.c ****             {
1052:.\Generated_Source\PSoC5/USB_Bootloader.c ****                 USB_Bootloader_InitEP_DMA(epNumber, pData);
1053:.\Generated_Source\PSoC5/USB_Bootloader.c ****             }
1054:.\Generated_Source\PSoC5/USB_Bootloader.c ****         #endif /*  USB_Bootloader_EP_MM == USB_Bootloader__EP_MANUAL */
1055:.\Generated_Source\PSoC5/USB_Bootloader.c **** 
1056:.\Generated_Source\PSoC5/USB_Bootloader.c ****         #if(USB_Bootloader_EP_MM == USB_Bootloader__EP_DMAMANUAL)
1057:.\Generated_Source\PSoC5/USB_Bootloader.c ****             USB_Bootloader_EP[epNumber].apiEpState = USB_Bootloader_NO_EVENT_PENDING;
1058:.\Generated_Source\PSoC5/USB_Bootloader.c ****             if ((pData != NULL) && (length > 0u))
1059:.\Generated_Source\PSoC5/USB_Bootloader.c ****             {
1060:.\Generated_Source\PSoC5/USB_Bootloader.c ****                 /* Enable DMA in mode2 for transferring data */
1061:.\Generated_Source\PSoC5/USB_Bootloader.c ****                 (void) CyDmaChDisable(USB_Bootloader_DmaChan[epNumber]);
1062:.\Generated_Source\PSoC5/USB_Bootloader.c ****                 (void) CyDmaTdSetConfiguration(USB_Bootloader_DmaTd[epNumber], length, CY_DMA_DISAB
1063:.\Generated_Source\PSoC5/USB_Bootloader.c ****                                                                                  TD_TERMIN_EN | TD_
1064:.\Generated_Source\PSoC5/USB_Bootloader.c ****                 (void) CyDmaTdSetAddress(USB_Bootloader_DmaTd[epNumber],  LO16((uint32)pData), LO16
1065:.\Generated_Source\PSoC5/USB_Bootloader.c ****                 /* Enable the DMA */
1066:.\Generated_Source\PSoC5/USB_Bootloader.c ****                 (void) CyDmaChSetInitialTd(USB_Bootloader_DmaChan[epNumber], USB_Bootloader_DmaTd[e
1067:.\Generated_Source\PSoC5/USB_Bootloader.c ****                 (void) CyDmaChEnable(USB_Bootloader_DmaChan[epNumber], 1u);
1068:.\Generated_Source\PSoC5/USB_Bootloader.c ****                 /* Generate DMA request */
1069:.\Generated_Source\PSoC5/USB_Bootloader.c ****                 * (reg8 *)(USB_Bootloader_ARB_EP1_CFG_IND + ri) |= USB_Bootloader_ARB_EPX_CFG_DMA_R
1070:.\Generated_Source\PSoC5/USB_Bootloader.c ****                 * (reg8 *)(USB_Bootloader_ARB_EP1_CFG_IND + ri) &= ((uint8)(~USB_Bootloader_ARB_EPX
1071:.\Generated_Source\PSoC5/USB_Bootloader.c ****                 /* Mode register will be written in arb ISR after DMA transfer complete */
1072:.\Generated_Source\PSoC5/USB_Bootloader.c ****             }
ARM GAS  C:\Users\Robert\AppData\Local\Temp\ccGEgqLk.s 			page 35


1073:.\Generated_Source\PSoC5/USB_Bootloader.c ****             else
1074:.\Generated_Source\PSoC5/USB_Bootloader.c ****             {
1075:.\Generated_Source\PSoC5/USB_Bootloader.c ****                 /* When zero-length packet - write the Mode register directly */
1076:.\Generated_Source\PSoC5/USB_Bootloader.c ****                 CY_SET_REG8((reg8 *)(USB_Bootloader_SIE_EP1_CR0_IND + ri), USB_Bootloader_EP[epNumb
1077:.\Generated_Source\PSoC5/USB_Bootloader.c ****             }
1078:.\Generated_Source\PSoC5/USB_Bootloader.c ****         #endif /*  USB_Bootloader_EP_MM == USB_Bootloader__EP_DMAMANUAL */
1079:.\Generated_Source\PSoC5/USB_Bootloader.c **** 
1080:.\Generated_Source\PSoC5/USB_Bootloader.c ****         #if(USB_Bootloader_EP_MM == USB_Bootloader__EP_DMAAUTO)
1081:.\Generated_Source\PSoC5/USB_Bootloader.c ****             if (pData != NULL)
1082:.\Generated_Source\PSoC5/USB_Bootloader.c ****             {
1083:.\Generated_Source\PSoC5/USB_Bootloader.c ****                 /* Enable DMA in mode3 for transferring data */
1084:.\Generated_Source\PSoC5/USB_Bootloader.c ****                 (void) CyDmaChDisable(USB_Bootloader_DmaChan[epNumber]);
1085:.\Generated_Source\PSoC5/USB_Bootloader.c ****             #if (USB_Bootloader_EP_DMA_AUTO_OPT == 0u)
1086:.\Generated_Source\PSoC5/USB_Bootloader.c ****                 USB_Bootloader_inLength[epNumber] = length;
1087:.\Generated_Source\PSoC5/USB_Bootloader.c ****                 USB_Bootloader_inDataPointer[epNumber] = pData;
1088:.\Generated_Source\PSoC5/USB_Bootloader.c ****                 /* Configure DMA to send the data only for the first burst */
1089:.\Generated_Source\PSoC5/USB_Bootloader.c ****                 (void) CyDmaTdSetConfiguration(USB_Bootloader_DmaTd[epNumber],
1090:.\Generated_Source\PSoC5/USB_Bootloader.c ****                     (length > USB_Bootloader_DMA_BYTES_PER_BURST) ? USB_Bootloader_DMA_BYTES_PER_BU
1091:.\Generated_Source\PSoC5/USB_Bootloader.c ****                     USB_Bootloader_DmaNextTd[epNumber], TD_TERMIN_EN | TD_INC_SRC_ADR);
1092:.\Generated_Source\PSoC5/USB_Bootloader.c ****                 (void) CyDmaTdSetAddress(USB_Bootloader_DmaTd[epNumber],  LO16((uint32)pData), LO16
1093:.\Generated_Source\PSoC5/USB_Bootloader.c ****                 /* The second TD will be executed only when the first one fails.
1094:.\Generated_Source\PSoC5/USB_Bootloader.c ****                 *  The intention of this TD is to generate NRQ interrupt
1095:.\Generated_Source\PSoC5/USB_Bootloader.c ****                 *  and repeat 2 last bytes of the first burst.
1096:.\Generated_Source\PSoC5/USB_Bootloader.c ****                 */
1097:.\Generated_Source\PSoC5/USB_Bootloader.c ****                 (void) CyDmaTdSetConfiguration(USB_Bootloader_DmaNextTd[epNumber], 1u,
1098:.\Generated_Source\PSoC5/USB_Bootloader.c ****                                                USB_Bootloader_DmaNextTd[epNumber],
1099:.\Generated_Source\PSoC5/USB_Bootloader.c ****                                                USB_Bootloader_epX_TD_TERMOUT_EN[epNumber]);
1100:.\Generated_Source\PSoC5/USB_Bootloader.c ****                 /* Configure DmaNextTd to clear Data ready status */
1101:.\Generated_Source\PSoC5/USB_Bootloader.c ****                 (void) CyDmaTdSetAddress(USB_Bootloader_DmaNextTd[epNumber],  LO16((uint32)&clearIn
1102:.\Generated_Source\PSoC5/USB_Bootloader.c ****                                                                 LO16((uint32)(USB_Bootloader_ARB_EP
1103:.\Generated_Source\PSoC5/USB_Bootloader.c ****             #else /* Configure DMA to send all data*/
1104:.\Generated_Source\PSoC5/USB_Bootloader.c ****                 (void) CyDmaTdSetConfiguration(USB_Bootloader_DmaTd[epNumber], length,
1105:.\Generated_Source\PSoC5/USB_Bootloader.c ****                                                USB_Bootloader_DmaTd[epNumber], TD_TERMIN_EN | TD_IN
1106:.\Generated_Source\PSoC5/USB_Bootloader.c ****                 (void) CyDmaTdSetAddress(USB_Bootloader_DmaTd[epNumber],  LO16((uint32)pData), LO16
1107:.\Generated_Source\PSoC5/USB_Bootloader.c ****             #endif /* USB_Bootloader_EP_DMA_AUTO_OPT == 0u */
1108:.\Generated_Source\PSoC5/USB_Bootloader.c **** 
1109:.\Generated_Source\PSoC5/USB_Bootloader.c ****                 /* Clear Any potential pending DMA requests before starting the DMA channel to tran
1110:.\Generated_Source\PSoC5/USB_Bootloader.c ****                 (void) CyDmaClearPendingDrq(USB_Bootloader_DmaChan[epNumber]);
1111:.\Generated_Source\PSoC5/USB_Bootloader.c ****                 /* Enable the DMA */
1112:.\Generated_Source\PSoC5/USB_Bootloader.c ****                 (void) CyDmaChSetInitialTd(USB_Bootloader_DmaChan[epNumber], USB_Bootloader_DmaTd[e
1113:.\Generated_Source\PSoC5/USB_Bootloader.c ****                 (void) CyDmaChEnable(USB_Bootloader_DmaChan[epNumber], 1u);
1114:.\Generated_Source\PSoC5/USB_Bootloader.c ****             }
1115:.\Generated_Source\PSoC5/USB_Bootloader.c ****             else
1116:.\Generated_Source\PSoC5/USB_Bootloader.c ****             {
1117:.\Generated_Source\PSoC5/USB_Bootloader.c ****                 USB_Bootloader_EP[epNumber].apiEpState = USB_Bootloader_NO_EVENT_PENDING;
1118:.\Generated_Source\PSoC5/USB_Bootloader.c ****                 if(length > 0u)
1119:.\Generated_Source\PSoC5/USB_Bootloader.c ****                 {
1120:.\Generated_Source\PSoC5/USB_Bootloader.c ****                 #if (USB_Bootloader_EP_DMA_AUTO_OPT == 0u)
1121:.\Generated_Source\PSoC5/USB_Bootloader.c ****                     USB_Bootloader_inLength[epNumber] = length;
1122:.\Generated_Source\PSoC5/USB_Bootloader.c ****                     USB_Bootloader_inBufFull[epNumber] = 0u;
1123:.\Generated_Source\PSoC5/USB_Bootloader.c ****                     (void) CyDmaChDisable(USB_Bootloader_DmaChan[epNumber]);
1124:.\Generated_Source\PSoC5/USB_Bootloader.c ****                     /* Configure DMA to send the data only for the first burst */
1125:.\Generated_Source\PSoC5/USB_Bootloader.c ****                     (void) CyDmaTdSetConfiguration(
1126:.\Generated_Source\PSoC5/USB_Bootloader.c ****                         USB_Bootloader_DmaTd[epNumber], (length > USB_Bootloader_DMA_BYTES_PER_BURS
1127:.\Generated_Source\PSoC5/USB_Bootloader.c ****                         USB_Bootloader_DMA_BYTES_PER_BURST : length,
1128:.\Generated_Source\PSoC5/USB_Bootloader.c ****                         USB_Bootloader_DmaNextTd[epNumber], TD_TERMIN_EN | TD_INC_SRC_ADR );
1129:.\Generated_Source\PSoC5/USB_Bootloader.c ****                     (void) CyDmaTdSetAddress(USB_Bootloader_DmaTd[epNumber],
ARM GAS  C:\Users\Robert\AppData\Local\Temp\ccGEgqLk.s 			page 36


1130:.\Generated_Source\PSoC5/USB_Bootloader.c ****                                              LO16((uint32)USB_Bootloader_inDataPointer[epNumber]), 
1131:.\Generated_Source\PSoC5/USB_Bootloader.c ****                     /* Clear Any potential pending DMA requests before starting the DMA channel to 
1132:.\Generated_Source\PSoC5/USB_Bootloader.c ****                     (void) CyDmaClearPendingDrq(USB_Bootloader_DmaChan[epNumber]);
1133:.\Generated_Source\PSoC5/USB_Bootloader.c ****                     /* Enable the DMA */
1134:.\Generated_Source\PSoC5/USB_Bootloader.c ****                     (void) CyDmaChSetInitialTd(USB_Bootloader_DmaChan[epNumber], USB_Bootloader_Dma
1135:.\Generated_Source\PSoC5/USB_Bootloader.c ****                     (void) CyDmaChEnable(USB_Bootloader_DmaChan[epNumber], 1u);
1136:.\Generated_Source\PSoC5/USB_Bootloader.c ****                 #endif /* (USB_Bootloader_EP_DMA_AUTO_OPT == 0u) */
1137:.\Generated_Source\PSoC5/USB_Bootloader.c **** 
1138:.\Generated_Source\PSoC5/USB_Bootloader.c ****                     /* Set Data ready status, This will generate DMA request */
1139:.\Generated_Source\PSoC5/USB_Bootloader.c ****                     #ifndef USB_Bootloader_MANUAL_IN_EP_ARM
1140:.\Generated_Source\PSoC5/USB_Bootloader.c ****                         * (reg8 *)(USB_Bootloader_ARB_EP1_CFG_IND + ri) |= USB_Bootloader_ARB_EPX_C
1141:.\Generated_Source\PSoC5/USB_Bootloader.c ****                     #endif  /* USB_Bootloader_MANUAL_IN_EP_ARM */
1142:.\Generated_Source\PSoC5/USB_Bootloader.c ****                     /* Mode register will be written in arb ISR(In Buffer Full) after first DMA tra
1143:.\Generated_Source\PSoC5/USB_Bootloader.c ****                 }
1144:.\Generated_Source\PSoC5/USB_Bootloader.c ****                 else
1145:.\Generated_Source\PSoC5/USB_Bootloader.c ****                 {
1146:.\Generated_Source\PSoC5/USB_Bootloader.c ****                     /* When zero-length packet - write the Mode register directly */
1147:.\Generated_Source\PSoC5/USB_Bootloader.c ****                     CY_SET_REG8((reg8 *)(USB_Bootloader_SIE_EP1_CR0_IND + ri), USB_Bootloader_EP[ep
1148:.\Generated_Source\PSoC5/USB_Bootloader.c ****                 }
1149:.\Generated_Source\PSoC5/USB_Bootloader.c ****             }
1150:.\Generated_Source\PSoC5/USB_Bootloader.c ****         #endif /*  USB_Bootloader_EP_MM == USB_Bootloader__EP_DMAAUTO */
1151:.\Generated_Source\PSoC5/USB_Bootloader.c ****     }
1152:.\Generated_Source\PSoC5/USB_Bootloader.c **** }
 854              		.loc 1 1152 0
 855 007c 70BC     		pop	{r4, r5, r6}
 856              		.cfi_restore 6
 857              		.cfi_restore 5
 858              		.cfi_restore 4
 859              		.cfi_def_cfa_offset 0
 860 007e 7047     		bx	lr
 861              	.L60:
 862              		.align	2
 863              	.L59:
 864 0080 88600040 		.word	1073766536
 865 0084 00000000 		.word	USB_Bootloader_EP
 866 0088 0C600040 		.word	1073766412
 867 008c 0E600040 		.word	1073766414
 868              		.cfi_endproc
 869              	.LFE11:
 870              		.size	USB_Bootloader_LoadInEP, .-USB_Bootloader_LoadInEP
 871              		.section	.text.USB_Bootloader_EnableOutEP,"ax",%progbits
 872              		.align	2
 873              		.global	USB_Bootloader_EnableOutEP
 874              		.thumb
 875              		.thumb_func
 876              		.type	USB_Bootloader_EnableOutEP, %function
 877              	USB_Bootloader_EnableOutEP:
 878              	.LFB13:
1153:.\Generated_Source\PSoC5/USB_Bootloader.c **** 
1154:.\Generated_Source\PSoC5/USB_Bootloader.c **** 
1155:.\Generated_Source\PSoC5/USB_Bootloader.c **** /*******************************************************************************
1156:.\Generated_Source\PSoC5/USB_Bootloader.c **** * Function Name: USB_Bootloader_ReadOutEP
1157:.\Generated_Source\PSoC5/USB_Bootloader.c **** ********************************************************************************
1158:.\Generated_Source\PSoC5/USB_Bootloader.c **** *
1159:.\Generated_Source\PSoC5/USB_Bootloader.c **** * Summary:
1160:.\Generated_Source\PSoC5/USB_Bootloader.c **** *  Read data from an endpoint.  The application must call
1161:.\Generated_Source\PSoC5/USB_Bootloader.c **** *  USB_Bootloader_GetEPState to see if an event is pending.
ARM GAS  C:\Users\Robert\AppData\Local\Temp\ccGEgqLk.s 			page 37


1162:.\Generated_Source\PSoC5/USB_Bootloader.c **** *
1163:.\Generated_Source\PSoC5/USB_Bootloader.c **** * Parameters:
1164:.\Generated_Source\PSoC5/USB_Bootloader.c **** *  epNumber: Contains the data endpoint number.
1165:.\Generated_Source\PSoC5/USB_Bootloader.c **** *            Valid values are between 1 and 8.
1166:.\Generated_Source\PSoC5/USB_Bootloader.c **** *  pData: A pointer to a data array from which the data for the endpoint space
1167:.\Generated_Source\PSoC5/USB_Bootloader.c **** *         is loaded.
1168:.\Generated_Source\PSoC5/USB_Bootloader.c **** *  length: The number of bytes to transfer from the USB Out endpoint and loads
1169:.\Generated_Source\PSoC5/USB_Bootloader.c **** *          it into data array. Valid values are between 0 and 1023. The function
1170:.\Generated_Source\PSoC5/USB_Bootloader.c **** *          moves fewer than the requested number of bytes if the host sends
1171:.\Generated_Source\PSoC5/USB_Bootloader.c **** *          fewer bytes than requested.
1172:.\Generated_Source\PSoC5/USB_Bootloader.c **** *
1173:.\Generated_Source\PSoC5/USB_Bootloader.c **** * Returns:
1174:.\Generated_Source\PSoC5/USB_Bootloader.c **** *  Number of bytes received, 0 for an invalid endpoint.
1175:.\Generated_Source\PSoC5/USB_Bootloader.c **** *
1176:.\Generated_Source\PSoC5/USB_Bootloader.c **** * Reentrant:
1177:.\Generated_Source\PSoC5/USB_Bootloader.c **** *  No.
1178:.\Generated_Source\PSoC5/USB_Bootloader.c **** *
1179:.\Generated_Source\PSoC5/USB_Bootloader.c **** *******************************************************************************/
1180:.\Generated_Source\PSoC5/USB_Bootloader.c **** uint16 USB_Bootloader_ReadOutEP(uint8 epNumber, uint8 pData[], uint16 length)
1181:.\Generated_Source\PSoC5/USB_Bootloader.c ****                                                                         
1182:.\Generated_Source\PSoC5/USB_Bootloader.c **** {
1183:.\Generated_Source\PSoC5/USB_Bootloader.c ****     uint8 ri;
1184:.\Generated_Source\PSoC5/USB_Bootloader.c ****     reg8 *p;
1185:.\Generated_Source\PSoC5/USB_Bootloader.c ****     #if(USB_Bootloader_EP_MM == USB_Bootloader__EP_MANUAL)
1186:.\Generated_Source\PSoC5/USB_Bootloader.c ****         uint16 i;
1187:.\Generated_Source\PSoC5/USB_Bootloader.c ****     #endif /*  USB_Bootloader_EP_MM == USB_Bootloader__EP_MANUAL */
1188:.\Generated_Source\PSoC5/USB_Bootloader.c ****     #if(USB_Bootloader_EP_MM != USB_Bootloader__EP_DMAAUTO)
1189:.\Generated_Source\PSoC5/USB_Bootloader.c ****         uint16 xferCount;
1190:.\Generated_Source\PSoC5/USB_Bootloader.c ****     #endif /*  USB_Bootloader_EP_MM != USB_Bootloader__EP_DMAAUTO */
1191:.\Generated_Source\PSoC5/USB_Bootloader.c **** 
1192:.\Generated_Source\PSoC5/USB_Bootloader.c ****     if((epNumber > USB_Bootloader_EP0) && (epNumber < USB_Bootloader_MAX_EP) && (pData != NULL))
1193:.\Generated_Source\PSoC5/USB_Bootloader.c ****     {
1194:.\Generated_Source\PSoC5/USB_Bootloader.c ****         ri = ((epNumber - USB_Bootloader_EP1) << USB_Bootloader_EPX_CNTX_ADDR_SHIFT);
1195:.\Generated_Source\PSoC5/USB_Bootloader.c ****         p = (reg8 *)(USB_Bootloader_ARB_RW1_DR_IND + ri);
1196:.\Generated_Source\PSoC5/USB_Bootloader.c **** 
1197:.\Generated_Source\PSoC5/USB_Bootloader.c ****         #if(USB_Bootloader_EP_MM != USB_Bootloader__EP_DMAAUTO)
1198:.\Generated_Source\PSoC5/USB_Bootloader.c ****             /* Determine which is smaller the requested data or the available data */
1199:.\Generated_Source\PSoC5/USB_Bootloader.c ****             xferCount = USB_Bootloader_GetEPCount(epNumber);
1200:.\Generated_Source\PSoC5/USB_Bootloader.c ****             if (length > xferCount)
1201:.\Generated_Source\PSoC5/USB_Bootloader.c ****             {
1202:.\Generated_Source\PSoC5/USB_Bootloader.c ****                 length = xferCount;
1203:.\Generated_Source\PSoC5/USB_Bootloader.c ****             }
1204:.\Generated_Source\PSoC5/USB_Bootloader.c ****         #endif /*  USB_Bootloader_EP_MM != USB_Bootloader__EP_DMAAUTO */
1205:.\Generated_Source\PSoC5/USB_Bootloader.c **** 
1206:.\Generated_Source\PSoC5/USB_Bootloader.c ****         #if(USB_Bootloader_EP_MM == USB_Bootloader__EP_MANUAL)
1207:.\Generated_Source\PSoC5/USB_Bootloader.c ****             /* Copy the data using the arbiter data register */
1208:.\Generated_Source\PSoC5/USB_Bootloader.c ****             for (i = 0u; i < length; i++)
1209:.\Generated_Source\PSoC5/USB_Bootloader.c ****             {
1210:.\Generated_Source\PSoC5/USB_Bootloader.c ****                 pData[i] = CY_GET_REG8(p);
1211:.\Generated_Source\PSoC5/USB_Bootloader.c ****             }
1212:.\Generated_Source\PSoC5/USB_Bootloader.c **** 
1213:.\Generated_Source\PSoC5/USB_Bootloader.c ****             /* (re)arming of OUT endpoint */
1214:.\Generated_Source\PSoC5/USB_Bootloader.c ****             USB_Bootloader_EnableOutEP(epNumber);
1215:.\Generated_Source\PSoC5/USB_Bootloader.c ****         #else
1216:.\Generated_Source\PSoC5/USB_Bootloader.c ****             /*Init DMA if it was not initialized */
1217:.\Generated_Source\PSoC5/USB_Bootloader.c ****             if(USB_Bootloader_DmaTd[epNumber] == DMA_INVALID_TD)
1218:.\Generated_Source\PSoC5/USB_Bootloader.c ****             {
ARM GAS  C:\Users\Robert\AppData\Local\Temp\ccGEgqLk.s 			page 38


1219:.\Generated_Source\PSoC5/USB_Bootloader.c ****                 USB_Bootloader_InitEP_DMA(epNumber, pData);
1220:.\Generated_Source\PSoC5/USB_Bootloader.c ****             }
1221:.\Generated_Source\PSoC5/USB_Bootloader.c **** 
1222:.\Generated_Source\PSoC5/USB_Bootloader.c ****         #endif /*  USB_Bootloader_EP_MM == USB_Bootloader__EP_MANUAL */
1223:.\Generated_Source\PSoC5/USB_Bootloader.c **** 
1224:.\Generated_Source\PSoC5/USB_Bootloader.c ****         #if(USB_Bootloader_EP_MM == USB_Bootloader__EP_DMAMANUAL)
1225:.\Generated_Source\PSoC5/USB_Bootloader.c ****             /* Enable DMA in mode2 for transferring data */
1226:.\Generated_Source\PSoC5/USB_Bootloader.c ****             (void) CyDmaChDisable(USB_Bootloader_DmaChan[epNumber]);
1227:.\Generated_Source\PSoC5/USB_Bootloader.c ****             (void) CyDmaTdSetConfiguration(USB_Bootloader_DmaTd[epNumber], length, CY_DMA_DISABLE_T
1228:.\Generated_Source\PSoC5/USB_Bootloader.c ****                                                                                 TD_TERMIN_EN | TD_I
1229:.\Generated_Source\PSoC5/USB_Bootloader.c ****             (void) CyDmaTdSetAddress(USB_Bootloader_DmaTd[epNumber],  LO16((uint32)p), LO16((uint32
1230:.\Generated_Source\PSoC5/USB_Bootloader.c ****             /* Enable the DMA */
1231:.\Generated_Source\PSoC5/USB_Bootloader.c ****             (void) CyDmaChSetInitialTd(USB_Bootloader_DmaChan[epNumber], USB_Bootloader_DmaTd[epNum
1232:.\Generated_Source\PSoC5/USB_Bootloader.c ****             (void) CyDmaChEnable(USB_Bootloader_DmaChan[epNumber], 1u);
1233:.\Generated_Source\PSoC5/USB_Bootloader.c **** 
1234:.\Generated_Source\PSoC5/USB_Bootloader.c ****             /* Generate DMA request */
1235:.\Generated_Source\PSoC5/USB_Bootloader.c ****             * (reg8 *)(USB_Bootloader_ARB_EP1_CFG_IND + ri) |= USB_Bootloader_ARB_EPX_CFG_DMA_REQ;
1236:.\Generated_Source\PSoC5/USB_Bootloader.c ****             * (reg8 *)(USB_Bootloader_ARB_EP1_CFG_IND + ri) &= ((uint8)(~USB_Bootloader_ARB_EPX_CFG
1237:.\Generated_Source\PSoC5/USB_Bootloader.c ****             /* Out EP will be (re)armed in arb ISR after transfer complete */
1238:.\Generated_Source\PSoC5/USB_Bootloader.c ****         #endif /*  USB_Bootloader_EP_MM == USB_Bootloader__EP_DMAMANUAL */
1239:.\Generated_Source\PSoC5/USB_Bootloader.c **** 
1240:.\Generated_Source\PSoC5/USB_Bootloader.c ****         #if(USB_Bootloader_EP_MM == USB_Bootloader__EP_DMAAUTO)
1241:.\Generated_Source\PSoC5/USB_Bootloader.c ****             /* Enable DMA in mode3 for transferring data */
1242:.\Generated_Source\PSoC5/USB_Bootloader.c ****             (void) CyDmaChDisable(USB_Bootloader_DmaChan[epNumber]);
1243:.\Generated_Source\PSoC5/USB_Bootloader.c ****             (void) CyDmaTdSetConfiguration(USB_Bootloader_DmaTd[epNumber], length, USB_Bootloader_D
1244:.\Generated_Source\PSoC5/USB_Bootloader.c ****                                                                                 TD_TERMIN_EN | TD_I
1245:.\Generated_Source\PSoC5/USB_Bootloader.c ****             (void) CyDmaTdSetAddress(USB_Bootloader_DmaTd[epNumber],  LO16((uint32)p), LO16((uint32
1246:.\Generated_Source\PSoC5/USB_Bootloader.c **** 
1247:.\Generated_Source\PSoC5/USB_Bootloader.c ****             /* Clear Any potential pending DMA requests before starting the DMA channel to transfer
1248:.\Generated_Source\PSoC5/USB_Bootloader.c ****             (void) CyDmaClearPendingDrq(USB_Bootloader_DmaChan[epNumber]);
1249:.\Generated_Source\PSoC5/USB_Bootloader.c ****             /* Enable the DMA */
1250:.\Generated_Source\PSoC5/USB_Bootloader.c ****             (void) CyDmaChSetInitialTd(USB_Bootloader_DmaChan[epNumber], USB_Bootloader_DmaTd[epNum
1251:.\Generated_Source\PSoC5/USB_Bootloader.c ****             (void) CyDmaChEnable(USB_Bootloader_DmaChan[epNumber], 1u);
1252:.\Generated_Source\PSoC5/USB_Bootloader.c ****             /* Out EP will be (re)armed in arb ISR after transfer complete */
1253:.\Generated_Source\PSoC5/USB_Bootloader.c ****         #endif /*  USB_Bootloader_EP_MM == USB_Bootloader__EP_DMAAUTO */
1254:.\Generated_Source\PSoC5/USB_Bootloader.c **** 
1255:.\Generated_Source\PSoC5/USB_Bootloader.c ****     }
1256:.\Generated_Source\PSoC5/USB_Bootloader.c ****     else
1257:.\Generated_Source\PSoC5/USB_Bootloader.c ****     {
1258:.\Generated_Source\PSoC5/USB_Bootloader.c ****         length = 0u;
1259:.\Generated_Source\PSoC5/USB_Bootloader.c ****     }
1260:.\Generated_Source\PSoC5/USB_Bootloader.c **** 
1261:.\Generated_Source\PSoC5/USB_Bootloader.c ****     return(length);
1262:.\Generated_Source\PSoC5/USB_Bootloader.c **** }
1263:.\Generated_Source\PSoC5/USB_Bootloader.c **** 
1264:.\Generated_Source\PSoC5/USB_Bootloader.c **** 
1265:.\Generated_Source\PSoC5/USB_Bootloader.c **** /*******************************************************************************
1266:.\Generated_Source\PSoC5/USB_Bootloader.c **** * Function Name: USB_Bootloader_EnableOutEP
1267:.\Generated_Source\PSoC5/USB_Bootloader.c **** ********************************************************************************
1268:.\Generated_Source\PSoC5/USB_Bootloader.c **** *
1269:.\Generated_Source\PSoC5/USB_Bootloader.c **** * Summary:
1270:.\Generated_Source\PSoC5/USB_Bootloader.c **** *  This function enables an OUT endpoint.  It should not be
1271:.\Generated_Source\PSoC5/USB_Bootloader.c **** *  called for an IN endpoint.
1272:.\Generated_Source\PSoC5/USB_Bootloader.c **** *
1273:.\Generated_Source\PSoC5/USB_Bootloader.c **** * Parameters:
1274:.\Generated_Source\PSoC5/USB_Bootloader.c **** *  epNumber: Endpoint Number
1275:.\Generated_Source\PSoC5/USB_Bootloader.c **** *            Valid values are between 1 and 8.
ARM GAS  C:\Users\Robert\AppData\Local\Temp\ccGEgqLk.s 			page 39


1276:.\Generated_Source\PSoC5/USB_Bootloader.c **** *
1277:.\Generated_Source\PSoC5/USB_Bootloader.c **** * Return:
1278:.\Generated_Source\PSoC5/USB_Bootloader.c **** *   None.
1279:.\Generated_Source\PSoC5/USB_Bootloader.c **** *
1280:.\Generated_Source\PSoC5/USB_Bootloader.c **** * Global variables:
1281:.\Generated_Source\PSoC5/USB_Bootloader.c **** *  USB_Bootloader_EP[epNumber].apiEpState - set to NO_EVENT_PENDING
1282:.\Generated_Source\PSoC5/USB_Bootloader.c **** *
1283:.\Generated_Source\PSoC5/USB_Bootloader.c **** * Reentrant:
1284:.\Generated_Source\PSoC5/USB_Bootloader.c **** *  No.
1285:.\Generated_Source\PSoC5/USB_Bootloader.c **** *
1286:.\Generated_Source\PSoC5/USB_Bootloader.c **** *******************************************************************************/
1287:.\Generated_Source\PSoC5/USB_Bootloader.c **** void USB_Bootloader_EnableOutEP(uint8 epNumber) 
1288:.\Generated_Source\PSoC5/USB_Bootloader.c **** {
 879              		.loc 1 1288 0
 880              		.cfi_startproc
 881              		@ args = 0, pretend = 0, frame = 0
 882              		@ frame_needed = 0, uses_anonymous_args = 0
 883              		@ link register save eliminated.
 884              	.LVL66:
1289:.\Generated_Source\PSoC5/USB_Bootloader.c ****     uint8 ri;
1290:.\Generated_Source\PSoC5/USB_Bootloader.c **** 
1291:.\Generated_Source\PSoC5/USB_Bootloader.c ****     if((epNumber > USB_Bootloader_EP0) && (epNumber < USB_Bootloader_MAX_EP))
 885              		.loc 1 1291 0
 886 0000 431E     		subs	r3, r0, #1
 887 0002 DBB2     		uxtb	r3, r3
 888 0004 072B     		cmp	r3, #7
 889 0006 0ED8     		bhi	.L65
1288:.\Generated_Source\PSoC5/USB_Bootloader.c ****     uint8 ri;
 890              		.loc 1 1288 0
 891 0008 30B4     		push	{r4, r5}
 892              		.cfi_def_cfa_offset 8
 893              		.cfi_offset 4, -8
 894              		.cfi_offset 5, -4
1292:.\Generated_Source\PSoC5/USB_Bootloader.c ****     {
1293:.\Generated_Source\PSoC5/USB_Bootloader.c ****         ri = ((epNumber - USB_Bootloader_EP1) << USB_Bootloader_EPX_CNTX_ADDR_SHIFT);
 895              		.loc 1 1293 0
 896 000a 1B01     		lsls	r3, r3, #4
 897 000c DBB2     		uxtb	r3, r3
 898              	.LVL67:
1294:.\Generated_Source\PSoC5/USB_Bootloader.c ****         USB_Bootloader_EP[epNumber].apiEpState = USB_Bootloader_NO_EVENT_PENDING;
 899              		.loc 1 1294 0
 900 000e 0649     		ldr	r1, .L66
 901 0010 4400     		lsls	r4, r0, #1
 902 0012 2218     		adds	r2, r4, r0
 903 0014 9200     		lsls	r2, r2, #2
 904 0016 0A44     		add	r2, r2, r1
 905 0018 0025     		movs	r5, #0
 906 001a 5570     		strb	r5, [r2, #1]
1295:.\Generated_Source\PSoC5/USB_Bootloader.c ****         /* Write the Mode register */
1296:.\Generated_Source\PSoC5/USB_Bootloader.c ****         CY_SET_REG8((reg8 *)(USB_Bootloader_SIE_EP1_CR0_IND + ri), USB_Bootloader_EP[epNumber].epMo
 907              		.loc 1 1296 0
 908 001c 5279     		ldrb	r2, [r2, #5]	@ zero_extendqisi2
 909 001e D2B2     		uxtb	r2, r2
 910 0020 0249     		ldr	r1, .L66+4
 911 0022 5A54     		strb	r2, [r3, r1]
1297:.\Generated_Source\PSoC5/USB_Bootloader.c ****     }
1298:.\Generated_Source\PSoC5/USB_Bootloader.c **** }
ARM GAS  C:\Users\Robert\AppData\Local\Temp\ccGEgqLk.s 			page 40


 912              		.loc 1 1298 0
 913 0024 30BC     		pop	{r4, r5}
 914              		.cfi_restore 5
 915              		.cfi_restore 4
 916              		.cfi_def_cfa_offset 0
 917              	.LVL68:
 918              	.L65:
 919 0026 7047     		bx	lr
 920              	.L67:
 921              		.align	2
 922              	.L66:
 923 0028 00000000 		.word	USB_Bootloader_EP
 924 002c 0E600040 		.word	1073766414
 925              		.cfi_endproc
 926              	.LFE13:
 927              		.size	USB_Bootloader_EnableOutEP, .-USB_Bootloader_EnableOutEP
 928              		.section	.text.USB_Bootloader_ReadOutEP,"ax",%progbits
 929              		.align	2
 930              		.global	USB_Bootloader_ReadOutEP
 931              		.thumb
 932              		.thumb_func
 933              		.type	USB_Bootloader_ReadOutEP, %function
 934              	USB_Bootloader_ReadOutEP:
 935              	.LFB12:
1182:.\Generated_Source\PSoC5/USB_Bootloader.c ****     uint8 ri;
 936              		.loc 1 1182 0
 937              		.cfi_startproc
 938              		@ args = 0, pretend = 0, frame = 0
 939              		@ frame_needed = 0, uses_anonymous_args = 0
 940              	.LVL69:
 941 0000 2DE9F041 		push	{r4, r5, r6, r7, r8, lr}
 942              		.cfi_def_cfa_offset 24
 943              		.cfi_offset 4, -24
 944              		.cfi_offset 5, -20
 945              		.cfi_offset 6, -16
 946              		.cfi_offset 7, -12
 947              		.cfi_offset 8, -8
 948              		.cfi_offset 14, -4
1192:.\Generated_Source\PSoC5/USB_Bootloader.c ****     {
 949              		.loc 1 1192 0
 950 0004 431E     		subs	r3, r0, #1
 951 0006 DBB2     		uxtb	r3, r3
 952 0008 072B     		cmp	r3, #7
 953 000a 19D8     		bhi	.L73
1192:.\Generated_Source\PSoC5/USB_Bootloader.c ****     {
 954              		.loc 1 1192 0 is_stmt 0 discriminator 1
 955 000c D1B1     		cbz	r1, .L74
 956 000e 9046     		mov	r8, r2
 957 0010 0D46     		mov	r5, r1
 958 0012 0646     		mov	r6, r0
1194:.\Generated_Source\PSoC5/USB_Bootloader.c ****         p = (reg8 *)(USB_Bootloader_ARB_RW1_DR_IND + ri);
 959              		.loc 1 1194 0 is_stmt 1
 960 0014 1B01     		lsls	r3, r3, #4
 961 0016 DBB2     		uxtb	r3, r3
 962              	.LVL70:
1195:.\Generated_Source\PSoC5/USB_Bootloader.c **** 
 963              		.loc 1 1195 0
ARM GAS  C:\Users\Robert\AppData\Local\Temp\ccGEgqLk.s 			page 41


 964 0018 0C4F     		ldr	r7, .L76
 965 001a 1F44     		add	r7, r7, r3
 966              	.LVL71:
1199:.\Generated_Source\PSoC5/USB_Bootloader.c ****             if (length > xferCount)
 967              		.loc 1 1199 0
 968 001c FFF7FEFF 		bl	USB_Bootloader_GetEPCount
 969              	.LVL72:
 970 0020 0446     		mov	r4, r0
 971              	.LVL73:
1200:.\Generated_Source\PSoC5/USB_Bootloader.c ****             {
 972              		.loc 1 1200 0
 973 0022 8045     		cmp	r8, r0
 974 0024 00D8     		bhi	.L70
 975 0026 4446     		mov	r4, r8
 976              	.L70:
 977              	.LVL74:
1208:.\Generated_Source\PSoC5/USB_Bootloader.c ****             {
 978              		.loc 1 1208 0
 979 0028 0023     		movs	r3, #0
 980 002a 03E0     		b	.L71
 981              	.LVL75:
 982              	.L72:
1210:.\Generated_Source\PSoC5/USB_Bootloader.c ****             }
 983              		.loc 1 1210 0 discriminator 3
 984 002c 3A78     		ldrb	r2, [r7]	@ zero_extendqisi2
 985 002e EA54     		strb	r2, [r5, r3]
1208:.\Generated_Source\PSoC5/USB_Bootloader.c ****             {
 986              		.loc 1 1208 0 discriminator 3
 987 0030 0133     		adds	r3, r3, #1
 988              	.LVL76:
 989 0032 9BB2     		uxth	r3, r3
 990              	.LVL77:
 991              	.L71:
1208:.\Generated_Source\PSoC5/USB_Bootloader.c ****             {
 992              		.loc 1 1208 0 is_stmt 0 discriminator 1
 993 0034 A342     		cmp	r3, r4
 994 0036 F9D3     		bcc	.L72
1214:.\Generated_Source\PSoC5/USB_Bootloader.c ****         #else
 995              		.loc 1 1214 0 is_stmt 1
 996 0038 3046     		mov	r0, r6
 997              	.LVL78:
 998 003a FFF7FEFF 		bl	USB_Bootloader_EnableOutEP
 999              	.LVL79:
 1000 003e 02E0     		b	.L69
 1001              	.LVL80:
 1002              	.L73:
1258:.\Generated_Source\PSoC5/USB_Bootloader.c ****     }
 1003              		.loc 1 1258 0
 1004 0040 0024     		movs	r4, #0
 1005 0042 00E0     		b	.L69
 1006              	.L74:
 1007 0044 0024     		movs	r4, #0
 1008              	.LVL81:
 1009              	.L69:
1262:.\Generated_Source\PSoC5/USB_Bootloader.c **** 
 1010              		.loc 1 1262 0
 1011 0046 2046     		mov	r0, r4
ARM GAS  C:\Users\Robert\AppData\Local\Temp\ccGEgqLk.s 			page 42


 1012 0048 BDE8F081 		pop	{r4, r5, r6, r7, r8, pc}
 1013              	.LVL82:
 1014              	.L77:
 1015              		.align	2
 1016              	.L76:
 1017 004c 88600040 		.word	1073766536
 1018              		.cfi_endproc
 1019              	.LFE12:
 1020              		.size	USB_Bootloader_ReadOutEP, .-USB_Bootloader_ReadOutEP
 1021              		.section	.text.USB_Bootloader_DisableOutEP,"ax",%progbits
 1022              		.align	2
 1023              		.global	USB_Bootloader_DisableOutEP
 1024              		.thumb
 1025              		.thumb_func
 1026              		.type	USB_Bootloader_DisableOutEP, %function
 1027              	USB_Bootloader_DisableOutEP:
 1028              	.LFB14:
1299:.\Generated_Source\PSoC5/USB_Bootloader.c **** 
1300:.\Generated_Source\PSoC5/USB_Bootloader.c **** 
1301:.\Generated_Source\PSoC5/USB_Bootloader.c **** /*******************************************************************************
1302:.\Generated_Source\PSoC5/USB_Bootloader.c **** * Function Name: USB_Bootloader_DisableOutEP
1303:.\Generated_Source\PSoC5/USB_Bootloader.c **** ********************************************************************************
1304:.\Generated_Source\PSoC5/USB_Bootloader.c **** *
1305:.\Generated_Source\PSoC5/USB_Bootloader.c **** * Summary:
1306:.\Generated_Source\PSoC5/USB_Bootloader.c **** *  This function disables an OUT endpoint.  It should not be
1307:.\Generated_Source\PSoC5/USB_Bootloader.c **** *  called for an IN endpoint.
1308:.\Generated_Source\PSoC5/USB_Bootloader.c **** *
1309:.\Generated_Source\PSoC5/USB_Bootloader.c **** * Parameters:
1310:.\Generated_Source\PSoC5/USB_Bootloader.c **** *  epNumber: Endpoint Number
1311:.\Generated_Source\PSoC5/USB_Bootloader.c **** *            Valid values are between 1 and 8.
1312:.\Generated_Source\PSoC5/USB_Bootloader.c **** *
1313:.\Generated_Source\PSoC5/USB_Bootloader.c **** * Return:
1314:.\Generated_Source\PSoC5/USB_Bootloader.c **** *  None.
1315:.\Generated_Source\PSoC5/USB_Bootloader.c **** *
1316:.\Generated_Source\PSoC5/USB_Bootloader.c **** *******************************************************************************/
1317:.\Generated_Source\PSoC5/USB_Bootloader.c **** void USB_Bootloader_DisableOutEP(uint8 epNumber) 
1318:.\Generated_Source\PSoC5/USB_Bootloader.c **** {
 1029              		.loc 1 1318 0
 1030              		.cfi_startproc
 1031              		@ args = 0, pretend = 0, frame = 0
 1032              		@ frame_needed = 0, uses_anonymous_args = 0
 1033              		@ link register save eliminated.
 1034              	.LVL83:
1319:.\Generated_Source\PSoC5/USB_Bootloader.c ****     uint8 ri ;
1320:.\Generated_Source\PSoC5/USB_Bootloader.c **** 
1321:.\Generated_Source\PSoC5/USB_Bootloader.c ****     if((epNumber > USB_Bootloader_EP0) && (epNumber < USB_Bootloader_MAX_EP))
 1035              		.loc 1 1321 0
 1036 0000 0138     		subs	r0, r0, #1
 1037              	.LVL84:
 1038 0002 C0B2     		uxtb	r0, r0
 1039 0004 0728     		cmp	r0, #7
 1040 0006 04D8     		bhi	.L78
1322:.\Generated_Source\PSoC5/USB_Bootloader.c ****     {
1323:.\Generated_Source\PSoC5/USB_Bootloader.c ****         ri = ((epNumber - USB_Bootloader_EP1) << USB_Bootloader_EPX_CNTX_ADDR_SHIFT);
 1041              		.loc 1 1323 0
 1042 0008 0001     		lsls	r0, r0, #4
 1043 000a C0B2     		uxtb	r0, r0
ARM GAS  C:\Users\Robert\AppData\Local\Temp\ccGEgqLk.s 			page 43


 1044              	.LVL85:
1324:.\Generated_Source\PSoC5/USB_Bootloader.c ****         /* Write the Mode register */
1325:.\Generated_Source\PSoC5/USB_Bootloader.c ****         CY_SET_REG8((reg8 *)(USB_Bootloader_SIE_EP1_CR0_IND + ri), USB_Bootloader_MODE_NAK_OUT);
 1045              		.loc 1 1325 0
 1046 000c 0822     		movs	r2, #8
 1047 000e 014B     		ldr	r3, .L80
 1048 0010 C254     		strb	r2, [r0, r3]
 1049              	.LVL86:
 1050              	.L78:
 1051 0012 7047     		bx	lr
 1052              	.L81:
 1053              		.align	2
 1054              	.L80:
 1055 0014 0E600040 		.word	1073766414
 1056              		.cfi_endproc
 1057              	.LFE14:
 1058              		.size	USB_Bootloader_DisableOutEP, .-USB_Bootloader_DisableOutEP
 1059              		.section	.text.USB_Bootloader_Force,"ax",%progbits
 1060              		.align	2
 1061              		.global	USB_Bootloader_Force
 1062              		.thumb
 1063              		.thumb_func
 1064              		.type	USB_Bootloader_Force, %function
 1065              	USB_Bootloader_Force:
 1066              	.LFB15:
1326:.\Generated_Source\PSoC5/USB_Bootloader.c ****     }
1327:.\Generated_Source\PSoC5/USB_Bootloader.c **** }
1328:.\Generated_Source\PSoC5/USB_Bootloader.c **** 
1329:.\Generated_Source\PSoC5/USB_Bootloader.c **** 
1330:.\Generated_Source\PSoC5/USB_Bootloader.c **** /*******************************************************************************
1331:.\Generated_Source\PSoC5/USB_Bootloader.c **** * Function Name: USB_Bootloader_Force
1332:.\Generated_Source\PSoC5/USB_Bootloader.c **** ********************************************************************************
1333:.\Generated_Source\PSoC5/USB_Bootloader.c **** *
1334:.\Generated_Source\PSoC5/USB_Bootloader.c **** * Summary:
1335:.\Generated_Source\PSoC5/USB_Bootloader.c **** *  Forces the bus state
1336:.\Generated_Source\PSoC5/USB_Bootloader.c **** *
1337:.\Generated_Source\PSoC5/USB_Bootloader.c **** * Parameters:
1338:.\Generated_Source\PSoC5/USB_Bootloader.c **** *  bState
1339:.\Generated_Source\PSoC5/USB_Bootloader.c **** *    USB_Bootloader_FORCE_J
1340:.\Generated_Source\PSoC5/USB_Bootloader.c **** *    USB_Bootloader_FORCE_K
1341:.\Generated_Source\PSoC5/USB_Bootloader.c **** *    USB_Bootloader_FORCE_SE0
1342:.\Generated_Source\PSoC5/USB_Bootloader.c **** *    USB_Bootloader_FORCE_NONE
1343:.\Generated_Source\PSoC5/USB_Bootloader.c **** *
1344:.\Generated_Source\PSoC5/USB_Bootloader.c **** * Return:
1345:.\Generated_Source\PSoC5/USB_Bootloader.c **** *  None.
1346:.\Generated_Source\PSoC5/USB_Bootloader.c **** *
1347:.\Generated_Source\PSoC5/USB_Bootloader.c **** *******************************************************************************/
1348:.\Generated_Source\PSoC5/USB_Bootloader.c **** void USB_Bootloader_Force(uint8 bState) 
1349:.\Generated_Source\PSoC5/USB_Bootloader.c **** {
 1067              		.loc 1 1349 0
 1068              		.cfi_startproc
 1069              		@ args = 0, pretend = 0, frame = 0
 1070              		@ frame_needed = 0, uses_anonymous_args = 0
 1071              		@ link register save eliminated.
 1072              	.LVL87:
1350:.\Generated_Source\PSoC5/USB_Bootloader.c ****     CY_SET_REG8(USB_Bootloader_USBIO_CR0_PTR, bState);
 1073              		.loc 1 1350 0
ARM GAS  C:\Users\Robert\AppData\Local\Temp\ccGEgqLk.s 			page 44


 1074 0000 014B     		ldr	r3, .L83
 1075 0002 1870     		strb	r0, [r3]
 1076 0004 7047     		bx	lr
 1077              	.L84:
 1078 0006 00BF     		.align	2
 1079              	.L83:
 1080 0008 10600040 		.word	1073766416
 1081              		.cfi_endproc
 1082              	.LFE15:
 1083              		.size	USB_Bootloader_Force, .-USB_Bootloader_Force
 1084              		.section	.text.USB_Bootloader_GetEPAckState,"ax",%progbits
 1085              		.align	2
 1086              		.global	USB_Bootloader_GetEPAckState
 1087              		.thumb
 1088              		.thumb_func
 1089              		.type	USB_Bootloader_GetEPAckState, %function
 1090              	USB_Bootloader_GetEPAckState:
 1091              	.LFB16:
1351:.\Generated_Source\PSoC5/USB_Bootloader.c **** }
1352:.\Generated_Source\PSoC5/USB_Bootloader.c **** 
1353:.\Generated_Source\PSoC5/USB_Bootloader.c **** 
1354:.\Generated_Source\PSoC5/USB_Bootloader.c **** /*******************************************************************************
1355:.\Generated_Source\PSoC5/USB_Bootloader.c **** * Function Name: USB_Bootloader_GetEPAckState
1356:.\Generated_Source\PSoC5/USB_Bootloader.c **** ********************************************************************************
1357:.\Generated_Source\PSoC5/USB_Bootloader.c **** *
1358:.\Generated_Source\PSoC5/USB_Bootloader.c **** * Summary:
1359:.\Generated_Source\PSoC5/USB_Bootloader.c **** *  Returns the ACK of the CR0 Register (ACKD)
1360:.\Generated_Source\PSoC5/USB_Bootloader.c **** *
1361:.\Generated_Source\PSoC5/USB_Bootloader.c **** * Parameters:
1362:.\Generated_Source\PSoC5/USB_Bootloader.c **** *  epNumber: Endpoint Number
1363:.\Generated_Source\PSoC5/USB_Bootloader.c **** *            Valid values are between 1 and 8.
1364:.\Generated_Source\PSoC5/USB_Bootloader.c **** *
1365:.\Generated_Source\PSoC5/USB_Bootloader.c **** * Returns
1366:.\Generated_Source\PSoC5/USB_Bootloader.c **** *  0 if nothing has been ACKD, non-=zero something has been ACKD
1367:.\Generated_Source\PSoC5/USB_Bootloader.c **** *
1368:.\Generated_Source\PSoC5/USB_Bootloader.c **** *******************************************************************************/
1369:.\Generated_Source\PSoC5/USB_Bootloader.c **** uint8 USB_Bootloader_GetEPAckState(uint8 epNumber) 
1370:.\Generated_Source\PSoC5/USB_Bootloader.c **** {
 1092              		.loc 1 1370 0
 1093              		.cfi_startproc
 1094              		@ args = 0, pretend = 0, frame = 0
 1095              		@ frame_needed = 0, uses_anonymous_args = 0
 1096              		@ link register save eliminated.
 1097              	.LVL88:
1371:.\Generated_Source\PSoC5/USB_Bootloader.c ****     uint8 ri;
1372:.\Generated_Source\PSoC5/USB_Bootloader.c ****     uint8 cr = 0u;
1373:.\Generated_Source\PSoC5/USB_Bootloader.c **** 
1374:.\Generated_Source\PSoC5/USB_Bootloader.c ****     if((epNumber > USB_Bootloader_EP0) && (epNumber < USB_Bootloader_MAX_EP))
 1098              		.loc 1 1374 0
 1099 0000 0138     		subs	r0, r0, #1
 1100              	.LVL89:
 1101 0002 C0B2     		uxtb	r0, r0
 1102 0004 0728     		cmp	r0, #7
 1103 0006 07D8     		bhi	.L87
1375:.\Generated_Source\PSoC5/USB_Bootloader.c ****     {
1376:.\Generated_Source\PSoC5/USB_Bootloader.c ****         ri = ((epNumber - USB_Bootloader_EP1) << USB_Bootloader_EPX_CNTX_ADDR_SHIFT);
 1104              		.loc 1 1376 0
ARM GAS  C:\Users\Robert\AppData\Local\Temp\ccGEgqLk.s 			page 45


 1105 0008 0001     		lsls	r0, r0, #4
 1106 000a C0B2     		uxtb	r0, r0
 1107              	.LVL90:
1377:.\Generated_Source\PSoC5/USB_Bootloader.c ****         cr = CY_GET_REG8((reg8 *)(USB_Bootloader_SIE_EP1_CR0_IND + ri)) & USB_Bootloader_MODE_ACKD;
 1108              		.loc 1 1377 0
 1109 000c 034B     		ldr	r3, .L88
 1110 000e C05C     		ldrb	r0, [r0, r3]	@ zero_extendqisi2
 1111              	.LVL91:
 1112 0010 00F01000 		and	r0, r0, #16
 1113 0014 C0B2     		uxtb	r0, r0
 1114              	.LVL92:
 1115 0016 7047     		bx	lr
 1116              	.LVL93:
 1117              	.L87:
1372:.\Generated_Source\PSoC5/USB_Bootloader.c **** 
 1118              		.loc 1 1372 0
 1119 0018 0020     		movs	r0, #0
 1120              	.LVL94:
1378:.\Generated_Source\PSoC5/USB_Bootloader.c ****     }
1379:.\Generated_Source\PSoC5/USB_Bootloader.c **** 
1380:.\Generated_Source\PSoC5/USB_Bootloader.c ****     return(cr);
1381:.\Generated_Source\PSoC5/USB_Bootloader.c **** }
 1121              		.loc 1 1381 0
 1122 001a 7047     		bx	lr
 1123              	.L89:
 1124              		.align	2
 1125              	.L88:
 1126 001c 0E600040 		.word	1073766414
 1127              		.cfi_endproc
 1128              	.LFE16:
 1129              		.size	USB_Bootloader_GetEPAckState, .-USB_Bootloader_GetEPAckState
 1130              		.section	.text.USB_Bootloader_SetPowerStatus,"ax",%progbits
 1131              		.align	2
 1132              		.global	USB_Bootloader_SetPowerStatus
 1133              		.thumb
 1134              		.thumb_func
 1135              		.type	USB_Bootloader_SetPowerStatus, %function
 1136              	USB_Bootloader_SetPowerStatus:
 1137              	.LFB17:
1382:.\Generated_Source\PSoC5/USB_Bootloader.c **** 
1383:.\Generated_Source\PSoC5/USB_Bootloader.c **** 
1384:.\Generated_Source\PSoC5/USB_Bootloader.c **** /*******************************************************************************
1385:.\Generated_Source\PSoC5/USB_Bootloader.c **** * Function Name: USB_Bootloader_SetPowerStatus
1386:.\Generated_Source\PSoC5/USB_Bootloader.c **** ********************************************************************************
1387:.\Generated_Source\PSoC5/USB_Bootloader.c **** *
1388:.\Generated_Source\PSoC5/USB_Bootloader.c **** * Summary:
1389:.\Generated_Source\PSoC5/USB_Bootloader.c **** *  Sets the device power status for reporting in the Get Device Status
1390:.\Generated_Source\PSoC5/USB_Bootloader.c **** *  request
1391:.\Generated_Source\PSoC5/USB_Bootloader.c **** *
1392:.\Generated_Source\PSoC5/USB_Bootloader.c **** * Parameters:
1393:.\Generated_Source\PSoC5/USB_Bootloader.c **** *  powerStatus: USB_Bootloader_DEVICE_STATUS_BUS_POWERED(0) - Bus Powered,
1394:.\Generated_Source\PSoC5/USB_Bootloader.c **** *               USB_Bootloader_DEVICE_STATUS_SELF_POWERED(1) - Self Powered
1395:.\Generated_Source\PSoC5/USB_Bootloader.c **** *
1396:.\Generated_Source\PSoC5/USB_Bootloader.c **** * Return:
1397:.\Generated_Source\PSoC5/USB_Bootloader.c **** *   None.
1398:.\Generated_Source\PSoC5/USB_Bootloader.c **** *
1399:.\Generated_Source\PSoC5/USB_Bootloader.c **** * Global variables:
ARM GAS  C:\Users\Robert\AppData\Local\Temp\ccGEgqLk.s 			page 46


1400:.\Generated_Source\PSoC5/USB_Bootloader.c **** *  USB_Bootloader_deviceStatus - set power status
1401:.\Generated_Source\PSoC5/USB_Bootloader.c **** *
1402:.\Generated_Source\PSoC5/USB_Bootloader.c **** * Reentrant:
1403:.\Generated_Source\PSoC5/USB_Bootloader.c **** *  No.
1404:.\Generated_Source\PSoC5/USB_Bootloader.c **** *
1405:.\Generated_Source\PSoC5/USB_Bootloader.c **** *******************************************************************************/
1406:.\Generated_Source\PSoC5/USB_Bootloader.c **** void USB_Bootloader_SetPowerStatus(uint8 powerStatus) 
1407:.\Generated_Source\PSoC5/USB_Bootloader.c **** {
 1138              		.loc 1 1407 0
 1139              		.cfi_startproc
 1140              		@ args = 0, pretend = 0, frame = 0
 1141              		@ frame_needed = 0, uses_anonymous_args = 0
 1142              		@ link register save eliminated.
 1143              	.LVL95:
1408:.\Generated_Source\PSoC5/USB_Bootloader.c ****     if (powerStatus != USB_Bootloader_DEVICE_STATUS_BUS_POWERED)
 1144              		.loc 1 1408 0
 1145 0000 28B1     		cbz	r0, .L91
1409:.\Generated_Source\PSoC5/USB_Bootloader.c ****     {
1410:.\Generated_Source\PSoC5/USB_Bootloader.c ****         USB_Bootloader_deviceStatus |=  USB_Bootloader_DEVICE_STATUS_SELF_POWERED;
 1146              		.loc 1 1410 0
 1147 0002 064A     		ldr	r2, .L93
 1148 0004 1378     		ldrb	r3, [r2]	@ zero_extendqisi2
 1149 0006 43F00103 		orr	r3, r3, #1
 1150 000a 1370     		strb	r3, [r2]
 1151 000c 7047     		bx	lr
 1152              	.L91:
1411:.\Generated_Source\PSoC5/USB_Bootloader.c ****     }
1412:.\Generated_Source\PSoC5/USB_Bootloader.c ****     else
1413:.\Generated_Source\PSoC5/USB_Bootloader.c ****     {
1414:.\Generated_Source\PSoC5/USB_Bootloader.c ****         USB_Bootloader_deviceStatus &=  ((uint8)(~USB_Bootloader_DEVICE_STATUS_SELF_POWERED));
 1153              		.loc 1 1414 0
 1154 000e 034A     		ldr	r2, .L93
 1155 0010 1378     		ldrb	r3, [r2]	@ zero_extendqisi2
 1156 0012 03F0FE03 		and	r3, r3, #254
 1157 0016 1370     		strb	r3, [r2]
 1158 0018 7047     		bx	lr
 1159              	.L94:
 1160 001a 00BF     		.align	2
 1161              	.L93:
 1162 001c 00000000 		.word	USB_Bootloader_deviceStatus
 1163              		.cfi_endproc
 1164              	.LFE17:
 1165              		.size	USB_Bootloader_SetPowerStatus, .-USB_Bootloader_SetPowerStatus
 1166              		.section	.text.USB_Bootloader_RWUEnabled,"ax",%progbits
 1167              		.align	2
 1168              		.global	USB_Bootloader_RWUEnabled
 1169              		.thumb
 1170              		.thumb_func
 1171              		.type	USB_Bootloader_RWUEnabled, %function
 1172              	USB_Bootloader_RWUEnabled:
 1173              	.LFB18:
1415:.\Generated_Source\PSoC5/USB_Bootloader.c ****     }
1416:.\Generated_Source\PSoC5/USB_Bootloader.c **** }
1417:.\Generated_Source\PSoC5/USB_Bootloader.c **** 
1418:.\Generated_Source\PSoC5/USB_Bootloader.c **** 
1419:.\Generated_Source\PSoC5/USB_Bootloader.c **** #if (USB_Bootloader_MON_VBUS == 1u)
1420:.\Generated_Source\PSoC5/USB_Bootloader.c **** 
ARM GAS  C:\Users\Robert\AppData\Local\Temp\ccGEgqLk.s 			page 47


1421:.\Generated_Source\PSoC5/USB_Bootloader.c ****     /*******************************************************************************
1422:.\Generated_Source\PSoC5/USB_Bootloader.c ****     * Function Name: USB_Bootloader_VBusPresent
1423:.\Generated_Source\PSoC5/USB_Bootloader.c ****     ********************************************************************************
1424:.\Generated_Source\PSoC5/USB_Bootloader.c ****     *
1425:.\Generated_Source\PSoC5/USB_Bootloader.c ****     * Summary:
1426:.\Generated_Source\PSoC5/USB_Bootloader.c ****     *  Determines VBUS presence for Self Powered Devices.
1427:.\Generated_Source\PSoC5/USB_Bootloader.c ****     *
1428:.\Generated_Source\PSoC5/USB_Bootloader.c ****     * Parameters:
1429:.\Generated_Source\PSoC5/USB_Bootloader.c ****     *  None.
1430:.\Generated_Source\PSoC5/USB_Bootloader.c ****     *
1431:.\Generated_Source\PSoC5/USB_Bootloader.c ****     * Return:
1432:.\Generated_Source\PSoC5/USB_Bootloader.c ****     *  1 if VBUS is present, otherwise 0.
1433:.\Generated_Source\PSoC5/USB_Bootloader.c ****     *
1434:.\Generated_Source\PSoC5/USB_Bootloader.c ****     *******************************************************************************/
1435:.\Generated_Source\PSoC5/USB_Bootloader.c ****     uint8 USB_Bootloader_VBusPresent(void) 
1436:.\Generated_Source\PSoC5/USB_Bootloader.c ****     {
1437:.\Generated_Source\PSoC5/USB_Bootloader.c ****         return((0u != (CY_GET_REG8(USB_Bootloader_VBUS_PS_PTR) & USB_Bootloader_VBUS_MASK)) ? 1u : 
1438:.\Generated_Source\PSoC5/USB_Bootloader.c ****     }
1439:.\Generated_Source\PSoC5/USB_Bootloader.c **** 
1440:.\Generated_Source\PSoC5/USB_Bootloader.c **** #endif /* USB_Bootloader_MON_VBUS */
1441:.\Generated_Source\PSoC5/USB_Bootloader.c **** 
1442:.\Generated_Source\PSoC5/USB_Bootloader.c **** 
1443:.\Generated_Source\PSoC5/USB_Bootloader.c **** /*******************************************************************************
1444:.\Generated_Source\PSoC5/USB_Bootloader.c **** * Function Name: USB_Bootloader_RWUEnabled
1445:.\Generated_Source\PSoC5/USB_Bootloader.c **** ********************************************************************************
1446:.\Generated_Source\PSoC5/USB_Bootloader.c **** *
1447:.\Generated_Source\PSoC5/USB_Bootloader.c **** * Summary:
1448:.\Generated_Source\PSoC5/USB_Bootloader.c **** *  Returns TRUE if Remote Wake Up is enabled, otherwise FALSE
1449:.\Generated_Source\PSoC5/USB_Bootloader.c **** *
1450:.\Generated_Source\PSoC5/USB_Bootloader.c **** * Parameters:
1451:.\Generated_Source\PSoC5/USB_Bootloader.c **** *   None.
1452:.\Generated_Source\PSoC5/USB_Bootloader.c **** *
1453:.\Generated_Source\PSoC5/USB_Bootloader.c **** * Return:
1454:.\Generated_Source\PSoC5/USB_Bootloader.c **** *  TRUE -  Remote Wake Up Enabled
1455:.\Generated_Source\PSoC5/USB_Bootloader.c **** *  FALSE - Remote Wake Up Disabled
1456:.\Generated_Source\PSoC5/USB_Bootloader.c **** *
1457:.\Generated_Source\PSoC5/USB_Bootloader.c **** * Global variables:
1458:.\Generated_Source\PSoC5/USB_Bootloader.c **** *  USB_Bootloader_deviceStatus - checked to determine remote status
1459:.\Generated_Source\PSoC5/USB_Bootloader.c **** *
1460:.\Generated_Source\PSoC5/USB_Bootloader.c **** *******************************************************************************/
1461:.\Generated_Source\PSoC5/USB_Bootloader.c **** uint8 USB_Bootloader_RWUEnabled(void) 
1462:.\Generated_Source\PSoC5/USB_Bootloader.c **** {
 1174              		.loc 1 1462 0
 1175              		.cfi_startproc
 1176              		@ args = 0, pretend = 0, frame = 0
 1177              		@ frame_needed = 0, uses_anonymous_args = 0
 1178              		@ link register save eliminated.
 1179              	.LVL96:
1463:.\Generated_Source\PSoC5/USB_Bootloader.c ****     uint8 result = USB_Bootloader_FALSE;
1464:.\Generated_Source\PSoC5/USB_Bootloader.c ****     if((USB_Bootloader_deviceStatus & USB_Bootloader_DEVICE_STATUS_REMOTE_WAKEUP) != 0u)
 1180              		.loc 1 1464 0
 1181 0000 044B     		ldr	r3, .L98
 1182 0002 1B78     		ldrb	r3, [r3]	@ zero_extendqisi2
 1183 0004 13F0020F 		tst	r3, #2
 1184 0008 01D1     		bne	.L97
1463:.\Generated_Source\PSoC5/USB_Bootloader.c ****     uint8 result = USB_Bootloader_FALSE;
 1185              		.loc 1 1463 0
ARM GAS  C:\Users\Robert\AppData\Local\Temp\ccGEgqLk.s 			page 48


 1186 000a 0020     		movs	r0, #0
 1187 000c 7047     		bx	lr
 1188              	.L97:
1465:.\Generated_Source\PSoC5/USB_Bootloader.c ****     {
1466:.\Generated_Source\PSoC5/USB_Bootloader.c ****         result = USB_Bootloader_TRUE;
 1189              		.loc 1 1466 0
 1190 000e 0120     		movs	r0, #1
 1191              	.LVL97:
1467:.\Generated_Source\PSoC5/USB_Bootloader.c ****     }
1468:.\Generated_Source\PSoC5/USB_Bootloader.c **** 
1469:.\Generated_Source\PSoC5/USB_Bootloader.c ****     return(result);
1470:.\Generated_Source\PSoC5/USB_Bootloader.c **** }
 1192              		.loc 1 1470 0
 1193 0010 7047     		bx	lr
 1194              	.L99:
 1195 0012 00BF     		.align	2
 1196              	.L98:
 1197 0014 00000000 		.word	USB_Bootloader_deviceStatus
 1198              		.cfi_endproc
 1199              	.LFE18:
 1200              		.size	USB_Bootloader_RWUEnabled, .-USB_Bootloader_RWUEnabled
 1201              		.global	USB_Bootloader_initVar
 1202              		.bss
 1203              		.set	.LANCHOR0,. + 0
 1204              		.type	USB_Bootloader_initVar, %object
 1205              		.size	USB_Bootloader_initVar, 1
 1206              	USB_Bootloader_initVar:
 1207 0000 00       		.space	1
 1208              		.text
 1209              	.Letext0:
 1210              		.file 2 "Generated_Source\\PSoC5/cytypes.h"
 1211              		.file 3 ".\\Generated_Source\\PSoC5\\USB_Bootloader.h"
 1212              		.file 4 ".\\Generated_Source\\PSoC5\\USB_Bootloader_pvt.h"
 1213              		.file 5 "Generated_Source\\PSoC5/CyLib.h"