ARM GAS  C:\Users\Robert\AppData\Local\Temp\ccLuFIyc.s 			page 1


   1              		.syntax unified
   2              		.cpu cortex-m3
   3              		.fpu softvfp
   4              		.eabi_attribute 20, 1
   5              		.eabi_attribute 21, 1
   6              		.eabi_attribute 23, 3
   7              		.eabi_attribute 24, 1
   8              		.eabi_attribute 25, 1
   9              		.eabi_attribute 26, 1
  10              		.eabi_attribute 30, 1
  11              		.eabi_attribute 34, 1
  12              		.eabi_attribute 18, 4
  13              		.thumb
  14              		.file	"USB_Bootloader_std.c"
  15              		.text
  16              	.Ltext0:
  17              		.cfi_sections	.debug_frame
  18              		.section	.text.USB_Bootloader_ConfigReg,"ax",%progbits
  19              		.align	2
  20              		.global	USB_Bootloader_ConfigReg
  21              		.thumb
  22              		.thumb_func
  23              		.type	USB_Bootloader_ConfigReg, %function
  24              	USB_Bootloader_ConfigReg:
  25              	.LFB1:
  26              		.file 1 ".\\Generated_Source\\PSoC5\\USB_Bootloader_std.c"
   1:.\Generated_Source\PSoC5/USB_Bootloader_std.c **** /*******************************************************************************
   2:.\Generated_Source\PSoC5/USB_Bootloader_std.c **** * File Name: USB_Bootloader_std.c
   3:.\Generated_Source\PSoC5/USB_Bootloader_std.c **** * Version 2.80
   4:.\Generated_Source\PSoC5/USB_Bootloader_std.c **** *
   5:.\Generated_Source\PSoC5/USB_Bootloader_std.c **** * Description:
   6:.\Generated_Source\PSoC5/USB_Bootloader_std.c **** *  USB Standard request handler.
   7:.\Generated_Source\PSoC5/USB_Bootloader_std.c **** *
   8:.\Generated_Source\PSoC5/USB_Bootloader_std.c **** * Note:
   9:.\Generated_Source\PSoC5/USB_Bootloader_std.c **** *
  10:.\Generated_Source\PSoC5/USB_Bootloader_std.c **** ********************************************************************************
  11:.\Generated_Source\PSoC5/USB_Bootloader_std.c **** * Copyright 2008-2014, Cypress Semiconductor Corporation.  All rights reserved.
  12:.\Generated_Source\PSoC5/USB_Bootloader_std.c **** * You may use this file only in accordance with the license, terms, conditions,
  13:.\Generated_Source\PSoC5/USB_Bootloader_std.c **** * disclaimers, and limitations in the end user license agreement accompanying
  14:.\Generated_Source\PSoC5/USB_Bootloader_std.c **** * the software package with which this file was provided.
  15:.\Generated_Source\PSoC5/USB_Bootloader_std.c **** *******************************************************************************/
  16:.\Generated_Source\PSoC5/USB_Bootloader_std.c **** 
  17:.\Generated_Source\PSoC5/USB_Bootloader_std.c **** #include "USB_Bootloader.h"
  18:.\Generated_Source\PSoC5/USB_Bootloader_std.c **** #include "USB_Bootloader_cdc.h"
  19:.\Generated_Source\PSoC5/USB_Bootloader_std.c **** #include "USB_Bootloader_pvt.h"
  20:.\Generated_Source\PSoC5/USB_Bootloader_std.c **** #if defined(USB_Bootloader_ENABLE_MIDI_STREAMING)
  21:.\Generated_Source\PSoC5/USB_Bootloader_std.c ****     #include "USB_Bootloader_midi.h"
  22:.\Generated_Source\PSoC5/USB_Bootloader_std.c **** #endif /*  USB_Bootloader_ENABLE_MIDI_STREAMING*/
  23:.\Generated_Source\PSoC5/USB_Bootloader_std.c **** 
  24:.\Generated_Source\PSoC5/USB_Bootloader_std.c **** 
  25:.\Generated_Source\PSoC5/USB_Bootloader_std.c **** /***************************************
  26:.\Generated_Source\PSoC5/USB_Bootloader_std.c **** *   Static data allocation
  27:.\Generated_Source\PSoC5/USB_Bootloader_std.c **** ***************************************/
  28:.\Generated_Source\PSoC5/USB_Bootloader_std.c **** 
  29:.\Generated_Source\PSoC5/USB_Bootloader_std.c **** #if defined(USB_Bootloader_ENABLE_FWSN_STRING)
  30:.\Generated_Source\PSoC5/USB_Bootloader_std.c ****     static volatile uint8 *USB_Bootloader_fwSerialNumberStringDescriptor;
  31:.\Generated_Source\PSoC5/USB_Bootloader_std.c ****     static volatile uint8 USB_Bootloader_snStringConfirm = USB_Bootloader_FALSE;
ARM GAS  C:\Users\Robert\AppData\Local\Temp\ccLuFIyc.s 			page 2


  32:.\Generated_Source\PSoC5/USB_Bootloader_std.c **** #endif  /* USB_Bootloader_ENABLE_FWSN_STRING */
  33:.\Generated_Source\PSoC5/USB_Bootloader_std.c **** 
  34:.\Generated_Source\PSoC5/USB_Bootloader_std.c **** #if defined(USB_Bootloader_ENABLE_FWSN_STRING)
  35:.\Generated_Source\PSoC5/USB_Bootloader_std.c **** 
  36:.\Generated_Source\PSoC5/USB_Bootloader_std.c ****     /*******************************************************************************
  37:.\Generated_Source\PSoC5/USB_Bootloader_std.c ****     * Function Name: USB_Bootloader_SerialNumString
  38:.\Generated_Source\PSoC5/USB_Bootloader_std.c ****     ********************************************************************************
  39:.\Generated_Source\PSoC5/USB_Bootloader_std.c ****     *
  40:.\Generated_Source\PSoC5/USB_Bootloader_std.c ****     * Summary:
  41:.\Generated_Source\PSoC5/USB_Bootloader_std.c ****     *  Application firmware may supply the source of the USB device descriptors
  42:.\Generated_Source\PSoC5/USB_Bootloader_std.c ****     *  serial number string during runtime.
  43:.\Generated_Source\PSoC5/USB_Bootloader_std.c ****     *
  44:.\Generated_Source\PSoC5/USB_Bootloader_std.c ****     * Parameters:
  45:.\Generated_Source\PSoC5/USB_Bootloader_std.c ****     *  snString:  pointer to string.
  46:.\Generated_Source\PSoC5/USB_Bootloader_std.c ****     *
  47:.\Generated_Source\PSoC5/USB_Bootloader_std.c ****     * Return:
  48:.\Generated_Source\PSoC5/USB_Bootloader_std.c ****     *  None.
  49:.\Generated_Source\PSoC5/USB_Bootloader_std.c ****     *
  50:.\Generated_Source\PSoC5/USB_Bootloader_std.c ****     * Reentrant:
  51:.\Generated_Source\PSoC5/USB_Bootloader_std.c ****     *  No.
  52:.\Generated_Source\PSoC5/USB_Bootloader_std.c ****     *
  53:.\Generated_Source\PSoC5/USB_Bootloader_std.c ****     *******************************************************************************/
  54:.\Generated_Source\PSoC5/USB_Bootloader_std.c ****     void  USB_Bootloader_SerialNumString(uint8 snString[]) 
  55:.\Generated_Source\PSoC5/USB_Bootloader_std.c ****     {
  56:.\Generated_Source\PSoC5/USB_Bootloader_std.c ****         USB_Bootloader_snStringConfirm = USB_Bootloader_FALSE;
  57:.\Generated_Source\PSoC5/USB_Bootloader_std.c ****         if(snString != NULL)
  58:.\Generated_Source\PSoC5/USB_Bootloader_std.c ****         {
  59:.\Generated_Source\PSoC5/USB_Bootloader_std.c ****             /* Check descriptor validation */
  60:.\Generated_Source\PSoC5/USB_Bootloader_std.c ****             if( (snString[0u] > 1u ) && (snString[1u] == USB_Bootloader_DESCR_STRING) )
  61:.\Generated_Source\PSoC5/USB_Bootloader_std.c ****             {
  62:.\Generated_Source\PSoC5/USB_Bootloader_std.c ****                 USB_Bootloader_fwSerialNumberStringDescriptor = snString;
  63:.\Generated_Source\PSoC5/USB_Bootloader_std.c ****                 USB_Bootloader_snStringConfirm = USB_Bootloader_TRUE;
  64:.\Generated_Source\PSoC5/USB_Bootloader_std.c ****             }
  65:.\Generated_Source\PSoC5/USB_Bootloader_std.c ****         }
  66:.\Generated_Source\PSoC5/USB_Bootloader_std.c ****     }
  67:.\Generated_Source\PSoC5/USB_Bootloader_std.c **** 
  68:.\Generated_Source\PSoC5/USB_Bootloader_std.c **** #endif  /* USB_Bootloader_ENABLE_FWSN_STRING */
  69:.\Generated_Source\PSoC5/USB_Bootloader_std.c **** 
  70:.\Generated_Source\PSoC5/USB_Bootloader_std.c **** 
  71:.\Generated_Source\PSoC5/USB_Bootloader_std.c **** /*******************************************************************************
  72:.\Generated_Source\PSoC5/USB_Bootloader_std.c **** * Function Name: USB_Bootloader_HandleStandardRqst
  73:.\Generated_Source\PSoC5/USB_Bootloader_std.c **** ********************************************************************************
  74:.\Generated_Source\PSoC5/USB_Bootloader_std.c **** *
  75:.\Generated_Source\PSoC5/USB_Bootloader_std.c **** * Summary:
  76:.\Generated_Source\PSoC5/USB_Bootloader_std.c **** *  This Routine dispatches standard requests
  77:.\Generated_Source\PSoC5/USB_Bootloader_std.c **** *
  78:.\Generated_Source\PSoC5/USB_Bootloader_std.c **** * Parameters:
  79:.\Generated_Source\PSoC5/USB_Bootloader_std.c **** *  None.
  80:.\Generated_Source\PSoC5/USB_Bootloader_std.c **** *
  81:.\Generated_Source\PSoC5/USB_Bootloader_std.c **** * Return:
  82:.\Generated_Source\PSoC5/USB_Bootloader_std.c **** *  TRUE if request handled.
  83:.\Generated_Source\PSoC5/USB_Bootloader_std.c **** *
  84:.\Generated_Source\PSoC5/USB_Bootloader_std.c **** * Reentrant:
  85:.\Generated_Source\PSoC5/USB_Bootloader_std.c **** *  No.
  86:.\Generated_Source\PSoC5/USB_Bootloader_std.c **** *
  87:.\Generated_Source\PSoC5/USB_Bootloader_std.c **** *******************************************************************************/
  88:.\Generated_Source\PSoC5/USB_Bootloader_std.c **** uint8 USB_Bootloader_HandleStandardRqst(void) 
ARM GAS  C:\Users\Robert\AppData\Local\Temp\ccLuFIyc.s 			page 3


  89:.\Generated_Source\PSoC5/USB_Bootloader_std.c **** {
  90:.\Generated_Source\PSoC5/USB_Bootloader_std.c ****     uint8 requestHandled = USB_Bootloader_FALSE;
  91:.\Generated_Source\PSoC5/USB_Bootloader_std.c ****     uint8 interfaceNumber;
  92:.\Generated_Source\PSoC5/USB_Bootloader_std.c ****     uint8 configurationN;
  93:.\Generated_Source\PSoC5/USB_Bootloader_std.c ****     #if defined(USB_Bootloader_ENABLE_STRINGS)
  94:.\Generated_Source\PSoC5/USB_Bootloader_std.c ****         volatile uint8 *pStr = 0u;
  95:.\Generated_Source\PSoC5/USB_Bootloader_std.c ****         #if defined(USB_Bootloader_ENABLE_DESCRIPTOR_STRINGS)
  96:.\Generated_Source\PSoC5/USB_Bootloader_std.c ****             uint8 nStr;
  97:.\Generated_Source\PSoC5/USB_Bootloader_std.c ****             uint8 descrLength;
  98:.\Generated_Source\PSoC5/USB_Bootloader_std.c ****         #endif /* USB_Bootloader_ENABLE_DESCRIPTOR_STRINGS */
  99:.\Generated_Source\PSoC5/USB_Bootloader_std.c ****     #endif /* USB_Bootloader_ENABLE_STRINGS */
 100:.\Generated_Source\PSoC5/USB_Bootloader_std.c ****     static volatile uint8 USB_Bootloader_tBuffer[USB_Bootloader_STATUS_LENGTH_MAX];
 101:.\Generated_Source\PSoC5/USB_Bootloader_std.c ****     const T_USB_Bootloader_LUT CYCODE *pTmp;
 102:.\Generated_Source\PSoC5/USB_Bootloader_std.c ****     USB_Bootloader_currentTD.count = 0u;
 103:.\Generated_Source\PSoC5/USB_Bootloader_std.c **** 
 104:.\Generated_Source\PSoC5/USB_Bootloader_std.c ****     if ((CY_GET_REG8(USB_Bootloader_bmRequestType) & USB_Bootloader_RQST_DIR_MASK) == USB_Bootloade
 105:.\Generated_Source\PSoC5/USB_Bootloader_std.c ****     {
 106:.\Generated_Source\PSoC5/USB_Bootloader_std.c ****         /* Control Read */
 107:.\Generated_Source\PSoC5/USB_Bootloader_std.c ****         switch (CY_GET_REG8(USB_Bootloader_bRequest))
 108:.\Generated_Source\PSoC5/USB_Bootloader_std.c ****         {
 109:.\Generated_Source\PSoC5/USB_Bootloader_std.c ****             case USB_Bootloader_GET_DESCRIPTOR:
 110:.\Generated_Source\PSoC5/USB_Bootloader_std.c ****                 if (CY_GET_REG8(USB_Bootloader_wValueHi) == USB_Bootloader_DESCR_DEVICE)
 111:.\Generated_Source\PSoC5/USB_Bootloader_std.c ****                 {
 112:.\Generated_Source\PSoC5/USB_Bootloader_std.c ****                     pTmp = USB_Bootloader_GetDeviceTablePtr();
 113:.\Generated_Source\PSoC5/USB_Bootloader_std.c ****                     USB_Bootloader_currentTD.pData = (volatile uint8 *)pTmp->p_list;
 114:.\Generated_Source\PSoC5/USB_Bootloader_std.c ****                     USB_Bootloader_currentTD.count = USB_Bootloader_DEVICE_DESCR_LENGTH;
 115:.\Generated_Source\PSoC5/USB_Bootloader_std.c ****                     requestHandled  = USB_Bootloader_InitControlRead();
 116:.\Generated_Source\PSoC5/USB_Bootloader_std.c ****                 }
 117:.\Generated_Source\PSoC5/USB_Bootloader_std.c ****                 else if (CY_GET_REG8(USB_Bootloader_wValueHi) == USB_Bootloader_DESCR_CONFIG)
 118:.\Generated_Source\PSoC5/USB_Bootloader_std.c ****                 {
 119:.\Generated_Source\PSoC5/USB_Bootloader_std.c ****                     pTmp = USB_Bootloader_GetConfigTablePtr(CY_GET_REG8(USB_Bootloader_wValueLo));
 120:.\Generated_Source\PSoC5/USB_Bootloader_std.c ****                     if( pTmp != NULL )  /* Verify that requested descriptor exists */
 121:.\Generated_Source\PSoC5/USB_Bootloader_std.c ****                     {
 122:.\Generated_Source\PSoC5/USB_Bootloader_std.c ****                         USB_Bootloader_currentTD.pData = (volatile uint8 *)pTmp->p_list;
 123:.\Generated_Source\PSoC5/USB_Bootloader_std.c ****                         USB_Bootloader_currentTD.count = ((uint16)(USB_Bootloader_currentTD.pData)[
 124:.\Generated_Source\PSoC5/USB_Bootloader_std.c ****                                           USB_Bootloader_CONFIG_DESCR_TOTAL_LENGTH_HI] << 8u) | \
 125:.\Generated_Source\PSoC5/USB_Bootloader_std.c ****                                          (USB_Bootloader_currentTD.pData)[USB_Bootloader_CONFIG_DES
 126:.\Generated_Source\PSoC5/USB_Bootloader_std.c ****                         requestHandled  = USB_Bootloader_InitControlRead();
 127:.\Generated_Source\PSoC5/USB_Bootloader_std.c ****                     }
 128:.\Generated_Source\PSoC5/USB_Bootloader_std.c ****                 }
 129:.\Generated_Source\PSoC5/USB_Bootloader_std.c ****                 #if defined(USB_Bootloader_ENABLE_STRINGS)
 130:.\Generated_Source\PSoC5/USB_Bootloader_std.c ****                 else if (CY_GET_REG8(USB_Bootloader_wValueHi) == USB_Bootloader_DESCR_STRING)
 131:.\Generated_Source\PSoC5/USB_Bootloader_std.c ****                 {
 132:.\Generated_Source\PSoC5/USB_Bootloader_std.c ****                     /* Descriptor Strings*/
 133:.\Generated_Source\PSoC5/USB_Bootloader_std.c ****                     #if defined(USB_Bootloader_ENABLE_DESCRIPTOR_STRINGS)
 134:.\Generated_Source\PSoC5/USB_Bootloader_std.c ****                         nStr = 0u;
 135:.\Generated_Source\PSoC5/USB_Bootloader_std.c ****                         pStr = (volatile uint8 *)&USB_Bootloader_STRING_DESCRIPTORS[0u];
 136:.\Generated_Source\PSoC5/USB_Bootloader_std.c ****                         while ( (CY_GET_REG8(USB_Bootloader_wValueLo) > nStr) && (*pStr != 0u) )
 137:.\Generated_Source\PSoC5/USB_Bootloader_std.c ****                         {
 138:.\Generated_Source\PSoC5/USB_Bootloader_std.c ****                             /* Read descriptor length from 1st byte */
 139:.\Generated_Source\PSoC5/USB_Bootloader_std.c ****                             descrLength = *pStr;
 140:.\Generated_Source\PSoC5/USB_Bootloader_std.c ****                             /* Move to next string descriptor */
 141:.\Generated_Source\PSoC5/USB_Bootloader_std.c ****                             pStr = &pStr[descrLength];
 142:.\Generated_Source\PSoC5/USB_Bootloader_std.c ****                             nStr++;
 143:.\Generated_Source\PSoC5/USB_Bootloader_std.c ****                         }
 144:.\Generated_Source\PSoC5/USB_Bootloader_std.c ****                     #endif /*  USB_Bootloader_ENABLE_DESCRIPTOR_STRINGS */
 145:.\Generated_Source\PSoC5/USB_Bootloader_std.c ****                     /* Microsoft OS String*/
ARM GAS  C:\Users\Robert\AppData\Local\Temp\ccLuFIyc.s 			page 4


 146:.\Generated_Source\PSoC5/USB_Bootloader_std.c ****                     #if defined(USB_Bootloader_ENABLE_MSOS_STRING)
 147:.\Generated_Source\PSoC5/USB_Bootloader_std.c ****                         if( CY_GET_REG8(USB_Bootloader_wValueLo) == USB_Bootloader_STRING_MSOS )
 148:.\Generated_Source\PSoC5/USB_Bootloader_std.c ****                         {
 149:.\Generated_Source\PSoC5/USB_Bootloader_std.c ****                             pStr = (volatile uint8 *)&USB_Bootloader_MSOS_DESCRIPTOR[0u];
 150:.\Generated_Source\PSoC5/USB_Bootloader_std.c ****                         }
 151:.\Generated_Source\PSoC5/USB_Bootloader_std.c ****                     #endif /*  USB_Bootloader_ENABLE_MSOS_STRING*/
 152:.\Generated_Source\PSoC5/USB_Bootloader_std.c ****                     /* SN string */
 153:.\Generated_Source\PSoC5/USB_Bootloader_std.c ****                     #if defined(USB_Bootloader_ENABLE_SN_STRING)
 154:.\Generated_Source\PSoC5/USB_Bootloader_std.c ****                         if( (CY_GET_REG8(USB_Bootloader_wValueLo) != 0u) &&
 155:.\Generated_Source\PSoC5/USB_Bootloader_std.c ****                             (CY_GET_REG8(USB_Bootloader_wValueLo) ==
 156:.\Generated_Source\PSoC5/USB_Bootloader_std.c ****                             USB_Bootloader_DEVICE0_DESCR[USB_Bootloader_DEVICE_DESCR_SN_SHIFT]) )
 157:.\Generated_Source\PSoC5/USB_Bootloader_std.c ****                         {
 158:.\Generated_Source\PSoC5/USB_Bootloader_std.c **** 
 159:.\Generated_Source\PSoC5/USB_Bootloader_std.c ****                             #if defined(USB_Bootloader_ENABLE_IDSN_STRING)
 160:.\Generated_Source\PSoC5/USB_Bootloader_std.c ****                                 /* Read DIE ID and generate string descriptor in RAM */
 161:.\Generated_Source\PSoC5/USB_Bootloader_std.c ****                                 USB_Bootloader_ReadDieID(USB_Bootloader_idSerialNumberStringDescrip
 162:.\Generated_Source\PSoC5/USB_Bootloader_std.c ****                                 pStr = USB_Bootloader_idSerialNumberStringDescriptor;
 163:.\Generated_Source\PSoC5/USB_Bootloader_std.c ****                             #elif defined(USB_Bootloader_ENABLE_FWSN_STRING)
 164:.\Generated_Source\PSoC5/USB_Bootloader_std.c ****                                 if(USB_Bootloader_snStringConfirm != USB_Bootloader_FALSE)
 165:.\Generated_Source\PSoC5/USB_Bootloader_std.c ****                                 {
 166:.\Generated_Source\PSoC5/USB_Bootloader_std.c ****                                     pStr = USB_Bootloader_fwSerialNumberStringDescriptor;
 167:.\Generated_Source\PSoC5/USB_Bootloader_std.c ****                                 }
 168:.\Generated_Source\PSoC5/USB_Bootloader_std.c ****                                 else
 169:.\Generated_Source\PSoC5/USB_Bootloader_std.c ****                                 {
 170:.\Generated_Source\PSoC5/USB_Bootloader_std.c ****                                     pStr = (volatile uint8 *)&USB_Bootloader_SN_STRING_DESCRIPTOR[0
 171:.\Generated_Source\PSoC5/USB_Bootloader_std.c ****                                 }
 172:.\Generated_Source\PSoC5/USB_Bootloader_std.c ****                             #else
 173:.\Generated_Source\PSoC5/USB_Bootloader_std.c ****                                 pStr = (volatile uint8 *)&USB_Bootloader_SN_STRING_DESCRIPTOR[0u];
 174:.\Generated_Source\PSoC5/USB_Bootloader_std.c ****                             #endif  /* defined(USB_Bootloader_ENABLE_IDSN_STRING) */
 175:.\Generated_Source\PSoC5/USB_Bootloader_std.c ****                         }
 176:.\Generated_Source\PSoC5/USB_Bootloader_std.c ****                     #endif    /*  USB_Bootloader_ENABLE_SN_STRING */
 177:.\Generated_Source\PSoC5/USB_Bootloader_std.c ****                     if (*pStr != 0u)
 178:.\Generated_Source\PSoC5/USB_Bootloader_std.c ****                     {
 179:.\Generated_Source\PSoC5/USB_Bootloader_std.c ****                         USB_Bootloader_currentTD.count = *pStr;
 180:.\Generated_Source\PSoC5/USB_Bootloader_std.c ****                         USB_Bootloader_currentTD.pData = pStr;
 181:.\Generated_Source\PSoC5/USB_Bootloader_std.c ****                         requestHandled  = USB_Bootloader_InitControlRead();
 182:.\Generated_Source\PSoC5/USB_Bootloader_std.c ****                     }
 183:.\Generated_Source\PSoC5/USB_Bootloader_std.c ****                 }
 184:.\Generated_Source\PSoC5/USB_Bootloader_std.c ****                 #endif /*  USB_Bootloader_ENABLE_STRINGS */
 185:.\Generated_Source\PSoC5/USB_Bootloader_std.c ****                 else
 186:.\Generated_Source\PSoC5/USB_Bootloader_std.c ****                 {
 187:.\Generated_Source\PSoC5/USB_Bootloader_std.c ****                     requestHandled = USB_Bootloader_DispatchClassRqst();
 188:.\Generated_Source\PSoC5/USB_Bootloader_std.c ****                 }
 189:.\Generated_Source\PSoC5/USB_Bootloader_std.c ****                 break;
 190:.\Generated_Source\PSoC5/USB_Bootloader_std.c ****             case USB_Bootloader_GET_STATUS:
 191:.\Generated_Source\PSoC5/USB_Bootloader_std.c ****                 switch ((CY_GET_REG8(USB_Bootloader_bmRequestType) & USB_Bootloader_RQST_RCPT_MASK)
 192:.\Generated_Source\PSoC5/USB_Bootloader_std.c ****                 {
 193:.\Generated_Source\PSoC5/USB_Bootloader_std.c ****                     case USB_Bootloader_RQST_RCPT_EP:
 194:.\Generated_Source\PSoC5/USB_Bootloader_std.c ****                         USB_Bootloader_currentTD.count = USB_Bootloader_EP_STATUS_LENGTH;
 195:.\Generated_Source\PSoC5/USB_Bootloader_std.c ****                         USB_Bootloader_tBuffer[0u] = USB_Bootloader_EP[ \
 196:.\Generated_Source\PSoC5/USB_Bootloader_std.c ****                                         CY_GET_REG8(USB_Bootloader_wIndexLo) & USB_Bootloader_DIR_U
 197:.\Generated_Source\PSoC5/USB_Bootloader_std.c ****                         USB_Bootloader_tBuffer[1u] = 0u;
 198:.\Generated_Source\PSoC5/USB_Bootloader_std.c ****                         USB_Bootloader_currentTD.pData = &USB_Bootloader_tBuffer[0u];
 199:.\Generated_Source\PSoC5/USB_Bootloader_std.c ****                         requestHandled  = USB_Bootloader_InitControlRead();
 200:.\Generated_Source\PSoC5/USB_Bootloader_std.c ****                         break;
 201:.\Generated_Source\PSoC5/USB_Bootloader_std.c ****                     case USB_Bootloader_RQST_RCPT_DEV:
 202:.\Generated_Source\PSoC5/USB_Bootloader_std.c ****                         USB_Bootloader_currentTD.count = USB_Bootloader_DEVICE_STATUS_LENGTH;
ARM GAS  C:\Users\Robert\AppData\Local\Temp\ccLuFIyc.s 			page 5


 203:.\Generated_Source\PSoC5/USB_Bootloader_std.c ****                         USB_Bootloader_tBuffer[0u] = USB_Bootloader_deviceStatus;
 204:.\Generated_Source\PSoC5/USB_Bootloader_std.c ****                         USB_Bootloader_tBuffer[1u] = 0u;
 205:.\Generated_Source\PSoC5/USB_Bootloader_std.c ****                         USB_Bootloader_currentTD.pData = &USB_Bootloader_tBuffer[0u];
 206:.\Generated_Source\PSoC5/USB_Bootloader_std.c ****                         requestHandled  = USB_Bootloader_InitControlRead();
 207:.\Generated_Source\PSoC5/USB_Bootloader_std.c ****                         break;
 208:.\Generated_Source\PSoC5/USB_Bootloader_std.c ****                     default:    /* requestHandled is initialized as FALSE by default */
 209:.\Generated_Source\PSoC5/USB_Bootloader_std.c ****                         break;
 210:.\Generated_Source\PSoC5/USB_Bootloader_std.c ****                 }
 211:.\Generated_Source\PSoC5/USB_Bootloader_std.c ****                 break;
 212:.\Generated_Source\PSoC5/USB_Bootloader_std.c ****             case USB_Bootloader_GET_CONFIGURATION:
 213:.\Generated_Source\PSoC5/USB_Bootloader_std.c ****                 USB_Bootloader_currentTD.count = 1u;
 214:.\Generated_Source\PSoC5/USB_Bootloader_std.c ****                 USB_Bootloader_currentTD.pData = (volatile uint8 *)&USB_Bootloader_configuration;
 215:.\Generated_Source\PSoC5/USB_Bootloader_std.c ****                 requestHandled  = USB_Bootloader_InitControlRead();
 216:.\Generated_Source\PSoC5/USB_Bootloader_std.c ****                 break;
 217:.\Generated_Source\PSoC5/USB_Bootloader_std.c ****             case USB_Bootloader_GET_INTERFACE:
 218:.\Generated_Source\PSoC5/USB_Bootloader_std.c ****                 USB_Bootloader_currentTD.count = 1u;
 219:.\Generated_Source\PSoC5/USB_Bootloader_std.c ****                 USB_Bootloader_currentTD.pData = (volatile uint8 *)&USB_Bootloader_interfaceSetting
 220:.\Generated_Source\PSoC5/USB_Bootloader_std.c ****                                                                             CY_GET_REG8(USB_Bootloa
 221:.\Generated_Source\PSoC5/USB_Bootloader_std.c ****                 requestHandled  = USB_Bootloader_InitControlRead();
 222:.\Generated_Source\PSoC5/USB_Bootloader_std.c ****                 break;
 223:.\Generated_Source\PSoC5/USB_Bootloader_std.c ****             default: /* requestHandled is initialized as FALSE by default */
 224:.\Generated_Source\PSoC5/USB_Bootloader_std.c ****                 break;
 225:.\Generated_Source\PSoC5/USB_Bootloader_std.c ****         }
 226:.\Generated_Source\PSoC5/USB_Bootloader_std.c ****     }
 227:.\Generated_Source\PSoC5/USB_Bootloader_std.c ****     else {
 228:.\Generated_Source\PSoC5/USB_Bootloader_std.c ****         /* Control Write */
 229:.\Generated_Source\PSoC5/USB_Bootloader_std.c ****         switch (CY_GET_REG8(USB_Bootloader_bRequest))
 230:.\Generated_Source\PSoC5/USB_Bootloader_std.c ****         {
 231:.\Generated_Source\PSoC5/USB_Bootloader_std.c ****             case USB_Bootloader_SET_ADDRESS:
 232:.\Generated_Source\PSoC5/USB_Bootloader_std.c ****                 USB_Bootloader_deviceAddress = CY_GET_REG8(USB_Bootloader_wValueLo);
 233:.\Generated_Source\PSoC5/USB_Bootloader_std.c ****                 requestHandled = USB_Bootloader_InitNoDataControlTransfer();
 234:.\Generated_Source\PSoC5/USB_Bootloader_std.c ****                 break;
 235:.\Generated_Source\PSoC5/USB_Bootloader_std.c ****             case USB_Bootloader_SET_CONFIGURATION:
 236:.\Generated_Source\PSoC5/USB_Bootloader_std.c ****                 configurationN = CY_GET_REG8(USB_Bootloader_wValueLo);
 237:.\Generated_Source\PSoC5/USB_Bootloader_std.c ****                 if(configurationN > 0u)
 238:.\Generated_Source\PSoC5/USB_Bootloader_std.c ****                 {   /* Verify that configuration descriptor exists */
 239:.\Generated_Source\PSoC5/USB_Bootloader_std.c ****                     pTmp = USB_Bootloader_GetConfigTablePtr(configurationN - 1u);
 240:.\Generated_Source\PSoC5/USB_Bootloader_std.c ****                 }
 241:.\Generated_Source\PSoC5/USB_Bootloader_std.c ****                 /* Responds with a Request Error when configuration number is invalid */
 242:.\Generated_Source\PSoC5/USB_Bootloader_std.c ****                 if (((configurationN > 0u) && (pTmp != NULL)) || (configurationN == 0u))
 243:.\Generated_Source\PSoC5/USB_Bootloader_std.c ****                 {
 244:.\Generated_Source\PSoC5/USB_Bootloader_std.c ****                     /* Set new configuration if it has been changed */
 245:.\Generated_Source\PSoC5/USB_Bootloader_std.c ****                     if(configurationN != USB_Bootloader_configuration)
 246:.\Generated_Source\PSoC5/USB_Bootloader_std.c ****                     {
 247:.\Generated_Source\PSoC5/USB_Bootloader_std.c ****                         USB_Bootloader_configuration = configurationN;
 248:.\Generated_Source\PSoC5/USB_Bootloader_std.c ****                         USB_Bootloader_configurationChanged = USB_Bootloader_TRUE;
 249:.\Generated_Source\PSoC5/USB_Bootloader_std.c ****                         USB_Bootloader_Config(USB_Bootloader_TRUE);
 250:.\Generated_Source\PSoC5/USB_Bootloader_std.c ****                     }
 251:.\Generated_Source\PSoC5/USB_Bootloader_std.c ****                     requestHandled = USB_Bootloader_InitNoDataControlTransfer();
 252:.\Generated_Source\PSoC5/USB_Bootloader_std.c ****                 }
 253:.\Generated_Source\PSoC5/USB_Bootloader_std.c ****                 break;
 254:.\Generated_Source\PSoC5/USB_Bootloader_std.c ****             case USB_Bootloader_SET_INTERFACE:
 255:.\Generated_Source\PSoC5/USB_Bootloader_std.c ****                 if (USB_Bootloader_ValidateAlternateSetting() != 0u)
 256:.\Generated_Source\PSoC5/USB_Bootloader_std.c ****                 {
 257:.\Generated_Source\PSoC5/USB_Bootloader_std.c ****                     interfaceNumber = CY_GET_REG8(USB_Bootloader_wIndexLo);
 258:.\Generated_Source\PSoC5/USB_Bootloader_std.c ****                     USB_Bootloader_interfaceNumber = interfaceNumber;
 259:.\Generated_Source\PSoC5/USB_Bootloader_std.c ****                     USB_Bootloader_configurationChanged = USB_Bootloader_TRUE;
ARM GAS  C:\Users\Robert\AppData\Local\Temp\ccLuFIyc.s 			page 6


 260:.\Generated_Source\PSoC5/USB_Bootloader_std.c ****                     #if ((USB_Bootloader_EP_MA == USB_Bootloader__MA_DYNAMIC) && \
 261:.\Generated_Source\PSoC5/USB_Bootloader_std.c ****                          (USB_Bootloader_EP_MM == USB_Bootloader__EP_MANUAL) )
 262:.\Generated_Source\PSoC5/USB_Bootloader_std.c ****                         USB_Bootloader_Config(USB_Bootloader_FALSE);
 263:.\Generated_Source\PSoC5/USB_Bootloader_std.c ****                     #else
 264:.\Generated_Source\PSoC5/USB_Bootloader_std.c ****                         USB_Bootloader_ConfigAltChanged();
 265:.\Generated_Source\PSoC5/USB_Bootloader_std.c ****                     #endif /*  (USB_Bootloader_EP_MA == USB_Bootloader__MA_DYNAMIC) */
 266:.\Generated_Source\PSoC5/USB_Bootloader_std.c ****                     /* Update handled Alt setting changes status */
 267:.\Generated_Source\PSoC5/USB_Bootloader_std.c ****                     USB_Bootloader_interfaceSetting_last[interfaceNumber] =
 268:.\Generated_Source\PSoC5/USB_Bootloader_std.c ****                          USB_Bootloader_interfaceSetting[interfaceNumber];
 269:.\Generated_Source\PSoC5/USB_Bootloader_std.c ****                     requestHandled = USB_Bootloader_InitNoDataControlTransfer();
 270:.\Generated_Source\PSoC5/USB_Bootloader_std.c ****                 }
 271:.\Generated_Source\PSoC5/USB_Bootloader_std.c ****                 break;
 272:.\Generated_Source\PSoC5/USB_Bootloader_std.c ****             case USB_Bootloader_CLEAR_FEATURE:
 273:.\Generated_Source\PSoC5/USB_Bootloader_std.c ****                 switch (CY_GET_REG8(USB_Bootloader_bmRequestType) & USB_Bootloader_RQST_RCPT_MASK)
 274:.\Generated_Source\PSoC5/USB_Bootloader_std.c ****                 {
 275:.\Generated_Source\PSoC5/USB_Bootloader_std.c ****                     case USB_Bootloader_RQST_RCPT_EP:
 276:.\Generated_Source\PSoC5/USB_Bootloader_std.c ****                         if (CY_GET_REG8(USB_Bootloader_wValueLo) == USB_Bootloader_ENDPOINT_HALT)
 277:.\Generated_Source\PSoC5/USB_Bootloader_std.c ****                         {
 278:.\Generated_Source\PSoC5/USB_Bootloader_std.c ****                             requestHandled = USB_Bootloader_ClearEndpointHalt();
 279:.\Generated_Source\PSoC5/USB_Bootloader_std.c ****                         }
 280:.\Generated_Source\PSoC5/USB_Bootloader_std.c ****                         break;
 281:.\Generated_Source\PSoC5/USB_Bootloader_std.c ****                     case USB_Bootloader_RQST_RCPT_DEV:
 282:.\Generated_Source\PSoC5/USB_Bootloader_std.c ****                         /* Clear device REMOTE_WAKEUP */
 283:.\Generated_Source\PSoC5/USB_Bootloader_std.c ****                         if (CY_GET_REG8(USB_Bootloader_wValueLo) == USB_Bootloader_DEVICE_REMOTE_WA
 284:.\Generated_Source\PSoC5/USB_Bootloader_std.c ****                         {
 285:.\Generated_Source\PSoC5/USB_Bootloader_std.c ****                             USB_Bootloader_deviceStatus &= (uint8)~USB_Bootloader_DEVICE_STATUS_REM
 286:.\Generated_Source\PSoC5/USB_Bootloader_std.c ****                             requestHandled = USB_Bootloader_InitNoDataControlTransfer();
 287:.\Generated_Source\PSoC5/USB_Bootloader_std.c ****                         }
 288:.\Generated_Source\PSoC5/USB_Bootloader_std.c ****                         break;
 289:.\Generated_Source\PSoC5/USB_Bootloader_std.c ****                     case USB_Bootloader_RQST_RCPT_IFC:
 290:.\Generated_Source\PSoC5/USB_Bootloader_std.c ****                         /* Validate interfaceNumber */
 291:.\Generated_Source\PSoC5/USB_Bootloader_std.c ****                         if (CY_GET_REG8(USB_Bootloader_wIndexLo) < USB_Bootloader_MAX_INTERFACES_NU
 292:.\Generated_Source\PSoC5/USB_Bootloader_std.c ****                         {
 293:.\Generated_Source\PSoC5/USB_Bootloader_std.c ****                             USB_Bootloader_interfaceStatus[CY_GET_REG8(USB_Bootloader_wIndexLo)] &=
 294:.\Generated_Source\PSoC5/USB_Bootloader_std.c ****                                                                 (uint8)~(CY_GET_REG8(USB_Bootloader
 295:.\Generated_Source\PSoC5/USB_Bootloader_std.c ****                             requestHandled = USB_Bootloader_InitNoDataControlTransfer();
 296:.\Generated_Source\PSoC5/USB_Bootloader_std.c ****                         }
 297:.\Generated_Source\PSoC5/USB_Bootloader_std.c ****                         break;
 298:.\Generated_Source\PSoC5/USB_Bootloader_std.c ****                     default:    /* requestHandled is initialized as FALSE by default */
 299:.\Generated_Source\PSoC5/USB_Bootloader_std.c ****                         break;
 300:.\Generated_Source\PSoC5/USB_Bootloader_std.c ****                 }
 301:.\Generated_Source\PSoC5/USB_Bootloader_std.c ****                 break;
 302:.\Generated_Source\PSoC5/USB_Bootloader_std.c ****             case USB_Bootloader_SET_FEATURE:
 303:.\Generated_Source\PSoC5/USB_Bootloader_std.c ****                 switch (CY_GET_REG8(USB_Bootloader_bmRequestType) & USB_Bootloader_RQST_RCPT_MASK)
 304:.\Generated_Source\PSoC5/USB_Bootloader_std.c ****                 {
 305:.\Generated_Source\PSoC5/USB_Bootloader_std.c ****                     case USB_Bootloader_RQST_RCPT_EP:
 306:.\Generated_Source\PSoC5/USB_Bootloader_std.c ****                         if (CY_GET_REG8(USB_Bootloader_wValueLo) == USB_Bootloader_ENDPOINT_HALT)
 307:.\Generated_Source\PSoC5/USB_Bootloader_std.c ****                         {
 308:.\Generated_Source\PSoC5/USB_Bootloader_std.c ****                             requestHandled = USB_Bootloader_SetEndpointHalt();
 309:.\Generated_Source\PSoC5/USB_Bootloader_std.c ****                         }
 310:.\Generated_Source\PSoC5/USB_Bootloader_std.c ****                         break;
 311:.\Generated_Source\PSoC5/USB_Bootloader_std.c ****                     case USB_Bootloader_RQST_RCPT_DEV:
 312:.\Generated_Source\PSoC5/USB_Bootloader_std.c ****                         /* Set device REMOTE_WAKEUP */
 313:.\Generated_Source\PSoC5/USB_Bootloader_std.c ****                         if (CY_GET_REG8(USB_Bootloader_wValueLo) == USB_Bootloader_DEVICE_REMOTE_WA
 314:.\Generated_Source\PSoC5/USB_Bootloader_std.c ****                         {
 315:.\Generated_Source\PSoC5/USB_Bootloader_std.c ****                             USB_Bootloader_deviceStatus |= USB_Bootloader_DEVICE_STATUS_REMOTE_WAKE
 316:.\Generated_Source\PSoC5/USB_Bootloader_std.c ****                             requestHandled = USB_Bootloader_InitNoDataControlTransfer();
ARM GAS  C:\Users\Robert\AppData\Local\Temp\ccLuFIyc.s 			page 7


 317:.\Generated_Source\PSoC5/USB_Bootloader_std.c ****                         }
 318:.\Generated_Source\PSoC5/USB_Bootloader_std.c ****                         break;
 319:.\Generated_Source\PSoC5/USB_Bootloader_std.c ****                     case USB_Bootloader_RQST_RCPT_IFC:
 320:.\Generated_Source\PSoC5/USB_Bootloader_std.c ****                         /* Validate interfaceNumber */
 321:.\Generated_Source\PSoC5/USB_Bootloader_std.c ****                         if (CY_GET_REG8(USB_Bootloader_wIndexLo) < USB_Bootloader_MAX_INTERFACES_NU
 322:.\Generated_Source\PSoC5/USB_Bootloader_std.c ****                         {
 323:.\Generated_Source\PSoC5/USB_Bootloader_std.c ****                             USB_Bootloader_interfaceStatus[CY_GET_REG8(USB_Bootloader_wIndexLo)] &=
 324:.\Generated_Source\PSoC5/USB_Bootloader_std.c ****                                                                 (uint8)~(CY_GET_REG8(USB_Bootloader
 325:.\Generated_Source\PSoC5/USB_Bootloader_std.c ****                             requestHandled = USB_Bootloader_InitNoDataControlTransfer();
 326:.\Generated_Source\PSoC5/USB_Bootloader_std.c ****                         }
 327:.\Generated_Source\PSoC5/USB_Bootloader_std.c ****                         break;
 328:.\Generated_Source\PSoC5/USB_Bootloader_std.c ****                     default:    /* requestHandled is initialized as FALSE by default */
 329:.\Generated_Source\PSoC5/USB_Bootloader_std.c ****                         break;
 330:.\Generated_Source\PSoC5/USB_Bootloader_std.c ****                 }
 331:.\Generated_Source\PSoC5/USB_Bootloader_std.c ****                 break;
 332:.\Generated_Source\PSoC5/USB_Bootloader_std.c ****             default:    /* requestHandled is initialized as FALSE by default */
 333:.\Generated_Source\PSoC5/USB_Bootloader_std.c ****                 break;
 334:.\Generated_Source\PSoC5/USB_Bootloader_std.c ****         }
 335:.\Generated_Source\PSoC5/USB_Bootloader_std.c ****     }
 336:.\Generated_Source\PSoC5/USB_Bootloader_std.c ****     return(requestHandled);
 337:.\Generated_Source\PSoC5/USB_Bootloader_std.c **** }
 338:.\Generated_Source\PSoC5/USB_Bootloader_std.c **** 
 339:.\Generated_Source\PSoC5/USB_Bootloader_std.c **** 
 340:.\Generated_Source\PSoC5/USB_Bootloader_std.c **** #if defined(USB_Bootloader_ENABLE_IDSN_STRING)
 341:.\Generated_Source\PSoC5/USB_Bootloader_std.c **** 
 342:.\Generated_Source\PSoC5/USB_Bootloader_std.c ****     /***************************************************************************
 343:.\Generated_Source\PSoC5/USB_Bootloader_std.c ****     * Function Name: USB_Bootloader_ReadDieID
 344:.\Generated_Source\PSoC5/USB_Bootloader_std.c ****     ****************************************************************************
 345:.\Generated_Source\PSoC5/USB_Bootloader_std.c ****     *
 346:.\Generated_Source\PSoC5/USB_Bootloader_std.c ****     * Summary:
 347:.\Generated_Source\PSoC5/USB_Bootloader_std.c ****     *  This routine read Die ID and generate Serial Number string descriptor.
 348:.\Generated_Source\PSoC5/USB_Bootloader_std.c ****     *
 349:.\Generated_Source\PSoC5/USB_Bootloader_std.c ****     * Parameters:
 350:.\Generated_Source\PSoC5/USB_Bootloader_std.c ****     *  descr:  pointer on string descriptor.
 351:.\Generated_Source\PSoC5/USB_Bootloader_std.c ****     *
 352:.\Generated_Source\PSoC5/USB_Bootloader_std.c ****     * Return:
 353:.\Generated_Source\PSoC5/USB_Bootloader_std.c ****     *  None.
 354:.\Generated_Source\PSoC5/USB_Bootloader_std.c ****     *
 355:.\Generated_Source\PSoC5/USB_Bootloader_std.c ****     * Reentrant:
 356:.\Generated_Source\PSoC5/USB_Bootloader_std.c ****     *  No.
 357:.\Generated_Source\PSoC5/USB_Bootloader_std.c ****     *
 358:.\Generated_Source\PSoC5/USB_Bootloader_std.c ****     ***************************************************************************/
 359:.\Generated_Source\PSoC5/USB_Bootloader_std.c ****     void USB_Bootloader_ReadDieID(uint8 descr[]) 
 360:.\Generated_Source\PSoC5/USB_Bootloader_std.c ****     {
 361:.\Generated_Source\PSoC5/USB_Bootloader_std.c ****         uint8 i;
 362:.\Generated_Source\PSoC5/USB_Bootloader_std.c ****         uint8 j = 0u;
 363:.\Generated_Source\PSoC5/USB_Bootloader_std.c ****         uint8 value;
 364:.\Generated_Source\PSoC5/USB_Bootloader_std.c ****         const char8 CYCODE hex[16u] = "0123456789ABCDEF";
 365:.\Generated_Source\PSoC5/USB_Bootloader_std.c **** 
 366:.\Generated_Source\PSoC5/USB_Bootloader_std.c ****         /* Check descriptor validation */
 367:.\Generated_Source\PSoC5/USB_Bootloader_std.c ****         if( descr != NULL)
 368:.\Generated_Source\PSoC5/USB_Bootloader_std.c ****         {
 369:.\Generated_Source\PSoC5/USB_Bootloader_std.c ****             descr[0u] = USB_Bootloader_IDSN_DESCR_LENGTH;
 370:.\Generated_Source\PSoC5/USB_Bootloader_std.c ****             descr[1u] = USB_Bootloader_DESCR_STRING;
 371:.\Generated_Source\PSoC5/USB_Bootloader_std.c **** 
 372:.\Generated_Source\PSoC5/USB_Bootloader_std.c ****             /* fill descriptor */
 373:.\Generated_Source\PSoC5/USB_Bootloader_std.c ****             for(i = 2u; i < USB_Bootloader_IDSN_DESCR_LENGTH; i += 4u)
ARM GAS  C:\Users\Robert\AppData\Local\Temp\ccLuFIyc.s 			page 8


 374:.\Generated_Source\PSoC5/USB_Bootloader_std.c ****             {
 375:.\Generated_Source\PSoC5/USB_Bootloader_std.c ****                 value = CY_GET_XTND_REG8((void CYFAR *)(USB_Bootloader_DIE_ID + j));
 376:.\Generated_Source\PSoC5/USB_Bootloader_std.c ****                 j++;
 377:.\Generated_Source\PSoC5/USB_Bootloader_std.c ****                 descr[i] = (uint8)hex[value >> 4u];
 378:.\Generated_Source\PSoC5/USB_Bootloader_std.c ****                 descr[i + 2u] = (uint8)hex[value & 0x0Fu];
 379:.\Generated_Source\PSoC5/USB_Bootloader_std.c ****             }
 380:.\Generated_Source\PSoC5/USB_Bootloader_std.c ****         }
 381:.\Generated_Source\PSoC5/USB_Bootloader_std.c ****     }
 382:.\Generated_Source\PSoC5/USB_Bootloader_std.c **** 
 383:.\Generated_Source\PSoC5/USB_Bootloader_std.c **** #endif /*  USB_Bootloader_ENABLE_IDSN_STRING */
 384:.\Generated_Source\PSoC5/USB_Bootloader_std.c **** 
 385:.\Generated_Source\PSoC5/USB_Bootloader_std.c **** 
 386:.\Generated_Source\PSoC5/USB_Bootloader_std.c **** /*******************************************************************************
 387:.\Generated_Source\PSoC5/USB_Bootloader_std.c **** * Function Name: USB_Bootloader_ConfigReg
 388:.\Generated_Source\PSoC5/USB_Bootloader_std.c **** ********************************************************************************
 389:.\Generated_Source\PSoC5/USB_Bootloader_std.c **** *
 390:.\Generated_Source\PSoC5/USB_Bootloader_std.c **** * Summary:
 391:.\Generated_Source\PSoC5/USB_Bootloader_std.c **** *  This routine configures hardware registers from the variables.
 392:.\Generated_Source\PSoC5/USB_Bootloader_std.c **** *  It is called from USB_Bootloader_Config() function and from RestoreConfig
 393:.\Generated_Source\PSoC5/USB_Bootloader_std.c **** *  after Wakeup.
 394:.\Generated_Source\PSoC5/USB_Bootloader_std.c **** *
 395:.\Generated_Source\PSoC5/USB_Bootloader_std.c **** * Parameters:
 396:.\Generated_Source\PSoC5/USB_Bootloader_std.c **** *  None.
 397:.\Generated_Source\PSoC5/USB_Bootloader_std.c **** *
 398:.\Generated_Source\PSoC5/USB_Bootloader_std.c **** * Return:
 399:.\Generated_Source\PSoC5/USB_Bootloader_std.c **** *  None.
 400:.\Generated_Source\PSoC5/USB_Bootloader_std.c **** *
 401:.\Generated_Source\PSoC5/USB_Bootloader_std.c **** *******************************************************************************/
 402:.\Generated_Source\PSoC5/USB_Bootloader_std.c **** void USB_Bootloader_ConfigReg(void) 
 403:.\Generated_Source\PSoC5/USB_Bootloader_std.c **** {
  27              		.loc 1 403 0
  28              		.cfi_startproc
  29              		@ args = 0, pretend = 0, frame = 0
  30              		@ frame_needed = 0, uses_anonymous_args = 0
  31 0000 F0B5     		push	{r4, r5, r6, r7, lr}
  32              		.cfi_def_cfa_offset 20
  33              		.cfi_offset 4, -20
  34              		.cfi_offset 5, -16
  35              		.cfi_offset 6, -12
  36              		.cfi_offset 7, -8
  37              		.cfi_offset 14, -4
  38              	.LVL0:
 404:.\Generated_Source\PSoC5/USB_Bootloader_std.c ****     uint8 ep;
 405:.\Generated_Source\PSoC5/USB_Bootloader_std.c ****     uint8 i;
 406:.\Generated_Source\PSoC5/USB_Bootloader_std.c ****     #if(USB_Bootloader_EP_MM == USB_Bootloader__EP_DMAAUTO)
 407:.\Generated_Source\PSoC5/USB_Bootloader_std.c ****         uint8 epType = 0u;
 408:.\Generated_Source\PSoC5/USB_Bootloader_std.c ****     #endif /*  USB_Bootloader_EP_MM == USB_Bootloader__EP_DMAAUTO */
 409:.\Generated_Source\PSoC5/USB_Bootloader_std.c **** 
 410:.\Generated_Source\PSoC5/USB_Bootloader_std.c ****     /* Set the endpoint buffer addresses */
 411:.\Generated_Source\PSoC5/USB_Bootloader_std.c ****     ep = USB_Bootloader_EP1;
 412:.\Generated_Source\PSoC5/USB_Bootloader_std.c ****     for (i = 0u; i < 0x80u; i+= 0x10u)
  39              		.loc 1 412 0
  40 0002 0024     		movs	r4, #0
 411:.\Generated_Source\PSoC5/USB_Bootloader_std.c ****     for (i = 0u; i < 0x80u; i+= 0x10u)
  41              		.loc 1 411 0
  42 0004 0120     		movs	r0, #1
  43              		.loc 1 412 0
ARM GAS  C:\Users\Robert\AppData\Local\Temp\ccLuFIyc.s 			page 9


  44 0006 52E0     		b	.L2
  45              	.LVL1:
  46              	.L6:
 413:.\Generated_Source\PSoC5/USB_Bootloader_std.c ****     {
 414:.\Generated_Source\PSoC5/USB_Bootloader_std.c ****         CY_SET_REG8((reg8 *)(USB_Bootloader_ARB_EP1_CFG_IND + i), USB_Bootloader_ARB_EPX_CFG_DEFAUL
  47              		.loc 1 414 0
  48 0008 2546     		mov	r5, r4
  49 000a 04F18043 		add	r3, r4, #1073741824
  50 000e 03F5C143 		add	r3, r3, #24704
  51 0012 0C22     		movs	r2, #12
  52 0014 1A70     		strb	r2, [r3]
 415:.\Generated_Source\PSoC5/USB_Bootloader_std.c ****         #if(USB_Bootloader_EP_MM != USB_Bootloader__EP_MANUAL)
 416:.\Generated_Source\PSoC5/USB_Bootloader_std.c ****             /* Enable all Arbiter EP Interrupts : err, buf under, buf over, dma gnt(mode2 only), in
 417:.\Generated_Source\PSoC5/USB_Bootloader_std.c ****             CY_SET_REG8((reg8 *)(USB_Bootloader_ARB_EP1_INT_EN_IND + i), USB_Bootloader_ARB_EPX_INT
 418:.\Generated_Source\PSoC5/USB_Bootloader_std.c ****         #endif   /*  USB_Bootloader_EP_MM != USB_Bootloader__EP_MANUAL */
 419:.\Generated_Source\PSoC5/USB_Bootloader_std.c **** 
 420:.\Generated_Source\PSoC5/USB_Bootloader_std.c ****         if(USB_Bootloader_EP[ep].epMode != USB_Bootloader_MODE_DISABLE)
  53              		.loc 1 420 0
  54 0016 0246     		mov	r2, r0
  55 0018 00EB4003 		add	r3, r0, r0, lsl #1
  56 001c 9B00     		lsls	r3, r3, #2
  57 001e 2749     		ldr	r1, .L8
  58 0020 0B44     		add	r3, r3, r1
  59 0022 5B79     		ldrb	r3, [r3, #5]	@ zero_extendqisi2
  60 0024 13F0FF0F 		tst	r3, #255
  61 0028 0FD0     		beq	.L3
 421:.\Generated_Source\PSoC5/USB_Bootloader_std.c ****         {
 422:.\Generated_Source\PSoC5/USB_Bootloader_std.c ****             if((USB_Bootloader_EP[ep].addr & USB_Bootloader_DIR_IN) != 0u )
  62              		.loc 1 422 0
  63 002a 00EB4003 		add	r3, r0, r0, lsl #1
  64 002e 9B00     		lsls	r3, r3, #2
  65 0030 0B44     		add	r3, r3, r1
  66 0032 1B79     		ldrb	r3, [r3, #4]	@ zero_extendqisi2
  67 0034 13F0800F 		tst	r3, #128
  68 0038 03D0     		beq	.L4
 423:.\Generated_Source\PSoC5/USB_Bootloader_std.c ****             {
 424:.\Generated_Source\PSoC5/USB_Bootloader_std.c ****                 CY_SET_REG8((reg8 *)(USB_Bootloader_SIE_EP1_CR0_IND + i), USB_Bootloader_MODE_NAK_I
  69              		.loc 1 424 0
  70 003a 0C21     		movs	r1, #12
  71 003c 204B     		ldr	r3, .L8+4
  72 003e E154     		strb	r1, [r4, r3]
  73 0040 06E0     		b	.L5
  74              	.L4:
 425:.\Generated_Source\PSoC5/USB_Bootloader_std.c ****             }
 426:.\Generated_Source\PSoC5/USB_Bootloader_std.c ****             else
 427:.\Generated_Source\PSoC5/USB_Bootloader_std.c ****             {
 428:.\Generated_Source\PSoC5/USB_Bootloader_std.c ****                 CY_SET_REG8((reg8 *)(USB_Bootloader_SIE_EP1_CR0_IND + i), USB_Bootloader_MODE_NAK_O
  75              		.loc 1 428 0
  76 0042 0821     		movs	r1, #8
  77 0044 1E4B     		ldr	r3, .L8+4
  78 0046 E154     		strb	r1, [r4, r3]
  79 0048 02E0     		b	.L5
  80              	.L3:
 429:.\Generated_Source\PSoC5/USB_Bootloader_std.c ****                 /* Prepare EP type mask for automatic memory allocation */
 430:.\Generated_Source\PSoC5/USB_Bootloader_std.c ****                 #if(USB_Bootloader_EP_MM == USB_Bootloader__EP_DMAAUTO)
 431:.\Generated_Source\PSoC5/USB_Bootloader_std.c ****                     epType |= (uint8)(0x01u << (ep - USB_Bootloader_EP1));
 432:.\Generated_Source\PSoC5/USB_Bootloader_std.c ****                 #endif /*  USB_Bootloader_EP_MM == USB_Bootloader__EP_DMAAUTO */
ARM GAS  C:\Users\Robert\AppData\Local\Temp\ccLuFIyc.s 			page 10


 433:.\Generated_Source\PSoC5/USB_Bootloader_std.c ****             }
 434:.\Generated_Source\PSoC5/USB_Bootloader_std.c ****         }
 435:.\Generated_Source\PSoC5/USB_Bootloader_std.c ****         else
 436:.\Generated_Source\PSoC5/USB_Bootloader_std.c ****         {
 437:.\Generated_Source\PSoC5/USB_Bootloader_std.c ****             CY_SET_REG8((reg8 *)(USB_Bootloader_SIE_EP1_CR0_IND + i), USB_Bootloader_MODE_STALL_DAT
  81              		.loc 1 437 0
  82 004a 8021     		movs	r1, #128
  83 004c 1C4B     		ldr	r3, .L8+4
  84 004e E154     		strb	r1, [r4, r3]
  85              	.L5:
 438:.\Generated_Source\PSoC5/USB_Bootloader_std.c ****         }
 439:.\Generated_Source\PSoC5/USB_Bootloader_std.c **** 
 440:.\Generated_Source\PSoC5/USB_Bootloader_std.c ****         #if(USB_Bootloader_EP_MM != USB_Bootloader__EP_DMAAUTO)
 441:.\Generated_Source\PSoC5/USB_Bootloader_std.c ****             CY_SET_REG8((reg8 *)(USB_Bootloader_SIE_EP1_CNT0_IND + i),   USB_Bootloader_EP[ep].buff
  86              		.loc 1 441 0 discriminator 2
  87 0050 1A4F     		ldr	r7, .L8
  88 0052 5300     		lsls	r3, r2, #1
  89 0054 9918     		adds	r1, r3, r2
  90 0056 8900     		lsls	r1, r1, #2
  91 0058 3944     		add	r1, r1, r7
  92 005a 0E89     		ldrh	r6, [r1, #8]
  93 005c C6F30726 		ubfx	r6, r6, #8, #8
  94 0060 DFF86CE0 		ldr	lr, .L8+20
  95 0064 05F80E60 		strb	r6, [r5, lr]
 442:.\Generated_Source\PSoC5/USB_Bootloader_std.c ****             CY_SET_REG8((reg8 *)(USB_Bootloader_SIE_EP1_CNT1_IND + i),   USB_Bootloader_EP[ep].buff
  96              		.loc 1 442 0 discriminator 2
  97 0068 0E89     		ldrh	r6, [r1, #8]
  98 006a F6B2     		uxtb	r6, r6
  99 006c 0EF1010E 		add	lr, lr, #1
 100 0070 05F80E60 		strb	r6, [r5, lr]
 443:.\Generated_Source\PSoC5/USB_Bootloader_std.c **** 
 444:.\Generated_Source\PSoC5/USB_Bootloader_std.c ****             CY_SET_REG8((reg8 *)(USB_Bootloader_ARB_RW1_RA_IND + i),     USB_Bootloader_EP[ep].buff
 101              		.loc 1 444 0 discriminator 2
 102 0074 CE88     		ldrh	r6, [r1, #6]
 103 0076 F6B2     		uxtb	r6, r6
 104 0078 0EF1790E 		add	lr, lr, #121
 105 007c 05F80E60 		strb	r6, [r5, lr]
 445:.\Generated_Source\PSoC5/USB_Bootloader_std.c ****             CY_SET_REG8((reg8 *)(USB_Bootloader_ARB_RW1_RA_MSB_IND + i), USB_Bootloader_EP[ep].buff
 106              		.loc 1 445 0 discriminator 2
 107 0080 CE88     		ldrh	r6, [r1, #6]
 108 0082 C6F30726 		ubfx	r6, r6, #8, #8
 109 0086 0EF1010E 		add	lr, lr, #1
 110 008a 05F80E60 		strb	r6, [r5, lr]
 446:.\Generated_Source\PSoC5/USB_Bootloader_std.c ****             CY_SET_REG8((reg8 *)(USB_Bootloader_ARB_RW1_WA_IND + i),     USB_Bootloader_EP[ep].buff
 111              		.loc 1 446 0 discriminator 2
 112 008e C988     		ldrh	r1, [r1, #6]
 113 0090 C9B2     		uxtb	r1, r1
 114 0092 0C4E     		ldr	r6, .L8+8
 115 0094 A955     		strb	r1, [r5, r6]
 447:.\Generated_Source\PSoC5/USB_Bootloader_std.c ****             CY_SET_REG8((reg8 *)(USB_Bootloader_ARB_RW1_WA_MSB_IND + i), USB_Bootloader_EP[ep].buff
 116              		.loc 1 447 0 discriminator 2
 117 0096 1344     		add	r3, r3, r2
 118 0098 9B00     		lsls	r3, r3, #2
 119 009a 3B44     		add	r3, r3, r7
 120 009c DB88     		ldrh	r3, [r3, #6]
 121 009e C3F30723 		ubfx	r3, r3, #8, #8
 122 00a2 094A     		ldr	r2, .L8+12
ARM GAS  C:\Users\Robert\AppData\Local\Temp\ccLuFIyc.s 			page 11


 123 00a4 AB54     		strb	r3, [r5, r2]
 448:.\Generated_Source\PSoC5/USB_Bootloader_std.c ****         #endif /*  USB_Bootloader_EP_MM != USB_Bootloader__EP_DMAAUTO */
 449:.\Generated_Source\PSoC5/USB_Bootloader_std.c **** 
 450:.\Generated_Source\PSoC5/USB_Bootloader_std.c ****         ep++;
 124              		.loc 1 450 0 discriminator 2
 125 00a6 0130     		adds	r0, r0, #1
 126              	.LVL2:
 127 00a8 C0B2     		uxtb	r0, r0
 128              	.LVL3:
 412:.\Generated_Source\PSoC5/USB_Bootloader_std.c ****     {
 129              		.loc 1 412 0 discriminator 2
 130 00aa 1034     		adds	r4, r4, #16
 131              	.LVL4:
 132 00ac E4B2     		uxtb	r4, r4
 133              	.LVL5:
 134              	.L2:
 412:.\Generated_Source\PSoC5/USB_Bootloader_std.c ****     {
 135              		.loc 1 412 0 is_stmt 0 discriminator 1
 136 00ae 14F0800F 		tst	r4, #128
 137 00b2 A9D0     		beq	.L6
 451:.\Generated_Source\PSoC5/USB_Bootloader_std.c ****     }
 452:.\Generated_Source\PSoC5/USB_Bootloader_std.c **** 
 453:.\Generated_Source\PSoC5/USB_Bootloader_std.c ****     #if(USB_Bootloader_EP_MM == USB_Bootloader__EP_DMAAUTO)
 454:.\Generated_Source\PSoC5/USB_Bootloader_std.c ****          /* BUF_SIZE depend on DMA_THRESS value: 55-32 bytes  44-16 bytes 33-8 bytes 22-4 bytes 11-
 455:.\Generated_Source\PSoC5/USB_Bootloader_std.c ****         USB_Bootloader_BUF_SIZE_REG = USB_Bootloader_DMA_BUF_SIZE;
 456:.\Generated_Source\PSoC5/USB_Bootloader_std.c ****         USB_Bootloader_DMA_THRES_REG = USB_Bootloader_DMA_BYTES_PER_BURST;   /* DMA burst threshold
 457:.\Generated_Source\PSoC5/USB_Bootloader_std.c ****         USB_Bootloader_DMA_THRES_MSB_REG = 0u;
 458:.\Generated_Source\PSoC5/USB_Bootloader_std.c ****         USB_Bootloader_EP_ACTIVE_REG = USB_Bootloader_ARB_INT_MASK;
 459:.\Generated_Source\PSoC5/USB_Bootloader_std.c ****         USB_Bootloader_EP_TYPE_REG = epType;
 460:.\Generated_Source\PSoC5/USB_Bootloader_std.c ****         /* Cfg_cmp bit set to 1 once configuration is complete. */
 461:.\Generated_Source\PSoC5/USB_Bootloader_std.c ****         USB_Bootloader_ARB_CFG_REG = USB_Bootloader_ARB_CFG_AUTO_DMA | USB_Bootloader_ARB_CFG_AUTO_
 462:.\Generated_Source\PSoC5/USB_Bootloader_std.c ****                                        USB_Bootloader_ARB_CFG_CFG_CPM;
 463:.\Generated_Source\PSoC5/USB_Bootloader_std.c ****         /* Cfg_cmp bit set to 0 during configuration of PFSUSB Registers. */
 464:.\Generated_Source\PSoC5/USB_Bootloader_std.c ****         USB_Bootloader_ARB_CFG_REG = USB_Bootloader_ARB_CFG_AUTO_DMA | USB_Bootloader_ARB_CFG_AUTO_
 465:.\Generated_Source\PSoC5/USB_Bootloader_std.c ****     #endif /*  USB_Bootloader_EP_MM == USB_Bootloader__EP_DMAAUTO */
 466:.\Generated_Source\PSoC5/USB_Bootloader_std.c **** 
 467:.\Generated_Source\PSoC5/USB_Bootloader_std.c ****     CY_SET_REG8(USB_Bootloader_SIE_EP_INT_EN_PTR, 0xFFu);
 138              		.loc 1 467 0 is_stmt 1
 139 00b4 FF22     		movs	r2, #255
 140 00b6 054B     		ldr	r3, .L8+16
 141 00b8 1A70     		strb	r2, [r3]
 142 00ba F0BD     		pop	{r4, r5, r6, r7, pc}
 143              	.LVL6:
 144              	.L9:
 145              		.align	2
 146              	.L8:
 147 00bc 00000000 		.word	USB_Bootloader_EP
 148 00c0 0E600040 		.word	1073766414
 149 00c4 84600040 		.word	1073766532
 150 00c8 85600040 		.word	1073766533
 151 00cc 0A600040 		.word	1073766410
 152 00d0 0C600040 		.word	1073766412
 153              		.cfi_endproc
 154              	.LFE1:
 155              		.size	USB_Bootloader_ConfigReg, .-USB_Bootloader_ConfigReg
 156              		.section	.text.USB_Bootloader_GetConfigTablePtr,"ax",%progbits
 157              		.align	2
ARM GAS  C:\Users\Robert\AppData\Local\Temp\ccLuFIyc.s 			page 12


 158              		.global	USB_Bootloader_GetConfigTablePtr
 159              		.thumb
 160              		.thumb_func
 161              		.type	USB_Bootloader_GetConfigTablePtr, %function
 162              	USB_Bootloader_GetConfigTablePtr:
 163              	.LFB4:
 468:.\Generated_Source\PSoC5/USB_Bootloader_std.c **** }
 469:.\Generated_Source\PSoC5/USB_Bootloader_std.c **** 
 470:.\Generated_Source\PSoC5/USB_Bootloader_std.c **** 
 471:.\Generated_Source\PSoC5/USB_Bootloader_std.c **** /*******************************************************************************
 472:.\Generated_Source\PSoC5/USB_Bootloader_std.c **** * Function Name: USB_Bootloader_Config
 473:.\Generated_Source\PSoC5/USB_Bootloader_std.c **** ********************************************************************************
 474:.\Generated_Source\PSoC5/USB_Bootloader_std.c **** *
 475:.\Generated_Source\PSoC5/USB_Bootloader_std.c **** * Summary:
 476:.\Generated_Source\PSoC5/USB_Bootloader_std.c **** *  This routine configures endpoints for the entire configuration by scanning
 477:.\Generated_Source\PSoC5/USB_Bootloader_std.c **** *  the configuration descriptor.
 478:.\Generated_Source\PSoC5/USB_Bootloader_std.c **** *
 479:.\Generated_Source\PSoC5/USB_Bootloader_std.c **** * Parameters:
 480:.\Generated_Source\PSoC5/USB_Bootloader_std.c **** *  clearAltSetting: It configures the bAlternateSetting 0 for each interface.
 481:.\Generated_Source\PSoC5/USB_Bootloader_std.c **** *
 482:.\Generated_Source\PSoC5/USB_Bootloader_std.c **** * Return:
 483:.\Generated_Source\PSoC5/USB_Bootloader_std.c **** *  None.
 484:.\Generated_Source\PSoC5/USB_Bootloader_std.c **** *
 485:.\Generated_Source\PSoC5/USB_Bootloader_std.c **** * USB_Bootloader_interfaceClass - Initialized class array for each interface.
 486:.\Generated_Source\PSoC5/USB_Bootloader_std.c **** *   It is used for handling Class specific requests depend on interface class.
 487:.\Generated_Source\PSoC5/USB_Bootloader_std.c **** *   Different classes in multiple Alternate settings does not supported.
 488:.\Generated_Source\PSoC5/USB_Bootloader_std.c **** *
 489:.\Generated_Source\PSoC5/USB_Bootloader_std.c **** * Reentrant:
 490:.\Generated_Source\PSoC5/USB_Bootloader_std.c **** *  No.
 491:.\Generated_Source\PSoC5/USB_Bootloader_std.c **** *
 492:.\Generated_Source\PSoC5/USB_Bootloader_std.c **** *******************************************************************************/
 493:.\Generated_Source\PSoC5/USB_Bootloader_std.c **** void USB_Bootloader_Config(uint8 clearAltSetting) 
 494:.\Generated_Source\PSoC5/USB_Bootloader_std.c **** {
 495:.\Generated_Source\PSoC5/USB_Bootloader_std.c ****     uint8 ep;
 496:.\Generated_Source\PSoC5/USB_Bootloader_std.c ****     uint8 cur_ep;
 497:.\Generated_Source\PSoC5/USB_Bootloader_std.c ****     uint8 i;
 498:.\Generated_Source\PSoC5/USB_Bootloader_std.c ****     uint8 epType;
 499:.\Generated_Source\PSoC5/USB_Bootloader_std.c ****     const uint8 *pDescr;
 500:.\Generated_Source\PSoC5/USB_Bootloader_std.c ****     #if(USB_Bootloader_EP_MM != USB_Bootloader__EP_DMAAUTO)
 501:.\Generated_Source\PSoC5/USB_Bootloader_std.c ****         uint16 buffCount = 0u;
 502:.\Generated_Source\PSoC5/USB_Bootloader_std.c ****     #endif /*  USB_Bootloader_EP_MM != USB_Bootloader__EP_DMAAUTO */
 503:.\Generated_Source\PSoC5/USB_Bootloader_std.c **** 
 504:.\Generated_Source\PSoC5/USB_Bootloader_std.c ****     const T_USB_Bootloader_LUT CYCODE *pTmp;
 505:.\Generated_Source\PSoC5/USB_Bootloader_std.c ****     const T_USB_Bootloader_EP_SETTINGS_BLOCK CYCODE *pEP;
 506:.\Generated_Source\PSoC5/USB_Bootloader_std.c **** 
 507:.\Generated_Source\PSoC5/USB_Bootloader_std.c ****     /* Clear all of the endpoints */
 508:.\Generated_Source\PSoC5/USB_Bootloader_std.c ****     for (ep = 0u; ep < USB_Bootloader_MAX_EP; ep++)
 509:.\Generated_Source\PSoC5/USB_Bootloader_std.c ****     {
 510:.\Generated_Source\PSoC5/USB_Bootloader_std.c ****         USB_Bootloader_EP[ep].attrib = 0u;
 511:.\Generated_Source\PSoC5/USB_Bootloader_std.c ****         USB_Bootloader_EP[ep].hwEpState = 0u;
 512:.\Generated_Source\PSoC5/USB_Bootloader_std.c ****         USB_Bootloader_EP[ep].apiEpState = USB_Bootloader_NO_EVENT_PENDING;
 513:.\Generated_Source\PSoC5/USB_Bootloader_std.c ****         USB_Bootloader_EP[ep].epToggle = 0u;
 514:.\Generated_Source\PSoC5/USB_Bootloader_std.c ****         USB_Bootloader_EP[ep].epMode = USB_Bootloader_MODE_DISABLE;
 515:.\Generated_Source\PSoC5/USB_Bootloader_std.c ****         USB_Bootloader_EP[ep].bufferSize = 0u;
 516:.\Generated_Source\PSoC5/USB_Bootloader_std.c ****         USB_Bootloader_EP[ep].interface = 0u;
 517:.\Generated_Source\PSoC5/USB_Bootloader_std.c **** 
 518:.\Generated_Source\PSoC5/USB_Bootloader_std.c ****     }
ARM GAS  C:\Users\Robert\AppData\Local\Temp\ccLuFIyc.s 			page 13


 519:.\Generated_Source\PSoC5/USB_Bootloader_std.c **** 
 520:.\Generated_Source\PSoC5/USB_Bootloader_std.c ****     /* Clear Alternate settings for all interfaces */
 521:.\Generated_Source\PSoC5/USB_Bootloader_std.c ****     if(clearAltSetting != 0u)
 522:.\Generated_Source\PSoC5/USB_Bootloader_std.c ****     {
 523:.\Generated_Source\PSoC5/USB_Bootloader_std.c ****         for (i = 0u; i < USB_Bootloader_MAX_INTERFACES_NUMBER; i++)
 524:.\Generated_Source\PSoC5/USB_Bootloader_std.c ****         {
 525:.\Generated_Source\PSoC5/USB_Bootloader_std.c ****             USB_Bootloader_interfaceSetting[i] = 0x00u;
 526:.\Generated_Source\PSoC5/USB_Bootloader_std.c ****             USB_Bootloader_interfaceSetting_last[i] = 0x00u;
 527:.\Generated_Source\PSoC5/USB_Bootloader_std.c ****         }
 528:.\Generated_Source\PSoC5/USB_Bootloader_std.c ****     }
 529:.\Generated_Source\PSoC5/USB_Bootloader_std.c **** 
 530:.\Generated_Source\PSoC5/USB_Bootloader_std.c ****     /* Init Endpoints and Device Status if configured */
 531:.\Generated_Source\PSoC5/USB_Bootloader_std.c ****     if(USB_Bootloader_configuration > 0u)
 532:.\Generated_Source\PSoC5/USB_Bootloader_std.c ****     {
 533:.\Generated_Source\PSoC5/USB_Bootloader_std.c ****         pTmp = USB_Bootloader_GetConfigTablePtr(USB_Bootloader_configuration - 1u);
 534:.\Generated_Source\PSoC5/USB_Bootloader_std.c ****         /* Set Power status for current configuration */
 535:.\Generated_Source\PSoC5/USB_Bootloader_std.c ****         pDescr = (const uint8 *)pTmp->p_list;
 536:.\Generated_Source\PSoC5/USB_Bootloader_std.c ****         if((pDescr[USB_Bootloader_CONFIG_DESCR_ATTRIB] & USB_Bootloader_CONFIG_DESCR_ATTRIB_SELF_PO
 537:.\Generated_Source\PSoC5/USB_Bootloader_std.c ****         {
 538:.\Generated_Source\PSoC5/USB_Bootloader_std.c ****             USB_Bootloader_deviceStatus |=  USB_Bootloader_DEVICE_STATUS_SELF_POWERED;
 539:.\Generated_Source\PSoC5/USB_Bootloader_std.c ****         }
 540:.\Generated_Source\PSoC5/USB_Bootloader_std.c ****         else
 541:.\Generated_Source\PSoC5/USB_Bootloader_std.c ****         {
 542:.\Generated_Source\PSoC5/USB_Bootloader_std.c ****             USB_Bootloader_deviceStatus &=  (uint8)~USB_Bootloader_DEVICE_STATUS_SELF_POWERED;
 543:.\Generated_Source\PSoC5/USB_Bootloader_std.c ****         }
 544:.\Generated_Source\PSoC5/USB_Bootloader_std.c ****         /* Move to next element */
 545:.\Generated_Source\PSoC5/USB_Bootloader_std.c ****         pTmp = &pTmp[1u];
 546:.\Generated_Source\PSoC5/USB_Bootloader_std.c ****         ep = pTmp->c;  /* For this table, c is the number of endpoints configurations  */
 547:.\Generated_Source\PSoC5/USB_Bootloader_std.c **** 
 548:.\Generated_Source\PSoC5/USB_Bootloader_std.c ****         #if ((USB_Bootloader_EP_MA == USB_Bootloader__MA_DYNAMIC) && \
 549:.\Generated_Source\PSoC5/USB_Bootloader_std.c ****              (USB_Bootloader_EP_MM == USB_Bootloader__EP_MANUAL) )
 550:.\Generated_Source\PSoC5/USB_Bootloader_std.c ****             /* Configure for dynamic EP memory allocation */
 551:.\Generated_Source\PSoC5/USB_Bootloader_std.c ****             /* p_list points the endpoint setting table. */
 552:.\Generated_Source\PSoC5/USB_Bootloader_std.c ****             pEP = (T_USB_Bootloader_EP_SETTINGS_BLOCK *) pTmp->p_list;
 553:.\Generated_Source\PSoC5/USB_Bootloader_std.c ****             for (i = 0u; i < ep; i++)
 554:.\Generated_Source\PSoC5/USB_Bootloader_std.c ****             {
 555:.\Generated_Source\PSoC5/USB_Bootloader_std.c ****                 /* Compare current Alternate setting with EP Alt */
 556:.\Generated_Source\PSoC5/USB_Bootloader_std.c ****                 if(USB_Bootloader_interfaceSetting[pEP->interface] == pEP->altSetting)
 557:.\Generated_Source\PSoC5/USB_Bootloader_std.c ****                 {
 558:.\Generated_Source\PSoC5/USB_Bootloader_std.c ****                     cur_ep = pEP->addr & USB_Bootloader_DIR_UNUSED;
 559:.\Generated_Source\PSoC5/USB_Bootloader_std.c ****                     epType = pEP->attributes & USB_Bootloader_EP_TYPE_MASK;
 560:.\Generated_Source\PSoC5/USB_Bootloader_std.c ****                     if (pEP->addr & USB_Bootloader_DIR_IN)
 561:.\Generated_Source\PSoC5/USB_Bootloader_std.c ****                     {
 562:.\Generated_Source\PSoC5/USB_Bootloader_std.c ****                         /* IN Endpoint */
 563:.\Generated_Source\PSoC5/USB_Bootloader_std.c ****                         USB_Bootloader_EP[cur_ep].apiEpState = USB_Bootloader_EVENT_PENDING;
 564:.\Generated_Source\PSoC5/USB_Bootloader_std.c ****                         USB_Bootloader_EP[cur_ep].epMode = (epType == USB_Bootloader_EP_TYPE_ISOC) 
 565:.\Generated_Source\PSoC5/USB_Bootloader_std.c ****                                                         USB_Bootloader_MODE_ISO_IN : USB_Bootloader
 566:.\Generated_Source\PSoC5/USB_Bootloader_std.c ****                         #if defined(USB_Bootloader_ENABLE_CDC_CLASS)
 567:.\Generated_Source\PSoC5/USB_Bootloader_std.c ****                             if(((pEP->bMisc == USB_Bootloader_CLASS_CDC_DATA) ||
 568:.\Generated_Source\PSoC5/USB_Bootloader_std.c ****                                 (pEP->bMisc == USB_Bootloader_CLASS_CDC)) &&
 569:.\Generated_Source\PSoC5/USB_Bootloader_std.c ****                                 (epType != USB_Bootloader_EP_TYPE_INT))
 570:.\Generated_Source\PSoC5/USB_Bootloader_std.c ****                             {
 571:.\Generated_Source\PSoC5/USB_Bootloader_std.c ****                                 USB_Bootloader_cdc_data_in_ep = cur_ep;
 572:.\Generated_Source\PSoC5/USB_Bootloader_std.c ****                             }
 573:.\Generated_Source\PSoC5/USB_Bootloader_std.c ****                         #endif  /*  USB_Bootloader_ENABLE_CDC_CLASS*/
 574:.\Generated_Source\PSoC5/USB_Bootloader_std.c ****                         #if ( defined(USB_Bootloader_ENABLE_MIDI_STREAMING) && \
 575:.\Generated_Source\PSoC5/USB_Bootloader_std.c ****                                              (USB_Bootloader_MIDI_IN_BUFF_SIZE > 0) )
ARM GAS  C:\Users\Robert\AppData\Local\Temp\ccLuFIyc.s 			page 14


 576:.\Generated_Source\PSoC5/USB_Bootloader_std.c ****                             if((pEP->bMisc == USB_Bootloader_CLASS_AUDIO) &&
 577:.\Generated_Source\PSoC5/USB_Bootloader_std.c ****                                (epType == USB_Bootloader_EP_TYPE_BULK))
 578:.\Generated_Source\PSoC5/USB_Bootloader_std.c ****                             {
 579:.\Generated_Source\PSoC5/USB_Bootloader_std.c ****                                 USB_Bootloader_midi_in_ep = cur_ep;
 580:.\Generated_Source\PSoC5/USB_Bootloader_std.c ****                             }
 581:.\Generated_Source\PSoC5/USB_Bootloader_std.c ****                         #endif  /*  USB_Bootloader_ENABLE_MIDI_STREAMING*/
 582:.\Generated_Source\PSoC5/USB_Bootloader_std.c ****                     }
 583:.\Generated_Source\PSoC5/USB_Bootloader_std.c ****                     else
 584:.\Generated_Source\PSoC5/USB_Bootloader_std.c ****                     {
 585:.\Generated_Source\PSoC5/USB_Bootloader_std.c ****                         /* OUT Endpoint */
 586:.\Generated_Source\PSoC5/USB_Bootloader_std.c ****                         USB_Bootloader_EP[cur_ep].apiEpState = USB_Bootloader_NO_EVENT_PENDING;
 587:.\Generated_Source\PSoC5/USB_Bootloader_std.c ****                         USB_Bootloader_EP[cur_ep].epMode = (epType == USB_Bootloader_EP_TYPE_ISOC) 
 588:.\Generated_Source\PSoC5/USB_Bootloader_std.c ****                                                     USB_Bootloader_MODE_ISO_OUT : USB_Bootloader_MO
 589:.\Generated_Source\PSoC5/USB_Bootloader_std.c ****                         #if defined(USB_Bootloader_ENABLE_CDC_CLASS)
 590:.\Generated_Source\PSoC5/USB_Bootloader_std.c ****                             if(((pEP->bMisc == USB_Bootloader_CLASS_CDC_DATA) ||
 591:.\Generated_Source\PSoC5/USB_Bootloader_std.c ****                                 (pEP->bMisc == USB_Bootloader_CLASS_CDC)) &&
 592:.\Generated_Source\PSoC5/USB_Bootloader_std.c ****                                 (epType != USB_Bootloader_EP_TYPE_INT))
 593:.\Generated_Source\PSoC5/USB_Bootloader_std.c ****                             {
 594:.\Generated_Source\PSoC5/USB_Bootloader_std.c ****                                 USB_Bootloader_cdc_data_out_ep = cur_ep;
 595:.\Generated_Source\PSoC5/USB_Bootloader_std.c ****                             }
 596:.\Generated_Source\PSoC5/USB_Bootloader_std.c ****                         #endif  /*  USB_Bootloader_ENABLE_CDC_CLASS*/
 597:.\Generated_Source\PSoC5/USB_Bootloader_std.c ****                         #if ( defined(USB_Bootloader_ENABLE_MIDI_STREAMING) && \
 598:.\Generated_Source\PSoC5/USB_Bootloader_std.c ****                                      (USB_Bootloader_MIDI_OUT_BUFF_SIZE > 0) )
 599:.\Generated_Source\PSoC5/USB_Bootloader_std.c ****                             if((pEP->bMisc == USB_Bootloader_CLASS_AUDIO) &&
 600:.\Generated_Source\PSoC5/USB_Bootloader_std.c ****                                (epType == USB_Bootloader_EP_TYPE_BULK))
 601:.\Generated_Source\PSoC5/USB_Bootloader_std.c ****                             {
 602:.\Generated_Source\PSoC5/USB_Bootloader_std.c ****                                 USB_Bootloader_midi_out_ep = cur_ep;
 603:.\Generated_Source\PSoC5/USB_Bootloader_std.c ****                             }
 604:.\Generated_Source\PSoC5/USB_Bootloader_std.c ****                         #endif  /*  USB_Bootloader_ENABLE_MIDI_STREAMING*/
 605:.\Generated_Source\PSoC5/USB_Bootloader_std.c ****                     }
 606:.\Generated_Source\PSoC5/USB_Bootloader_std.c ****                     USB_Bootloader_EP[cur_ep].bufferSize = pEP->bufferSize;
 607:.\Generated_Source\PSoC5/USB_Bootloader_std.c ****                     USB_Bootloader_EP[cur_ep].addr = pEP->addr;
 608:.\Generated_Source\PSoC5/USB_Bootloader_std.c ****                     USB_Bootloader_EP[cur_ep].attrib = pEP->attributes;
 609:.\Generated_Source\PSoC5/USB_Bootloader_std.c ****                 }
 610:.\Generated_Source\PSoC5/USB_Bootloader_std.c ****                 pEP = &pEP[1u];
 611:.\Generated_Source\PSoC5/USB_Bootloader_std.c ****             }
 612:.\Generated_Source\PSoC5/USB_Bootloader_std.c ****         #else /* Configure for static EP memory allocation  */
 613:.\Generated_Source\PSoC5/USB_Bootloader_std.c ****             for (i = USB_Bootloader_EP1; i < USB_Bootloader_MAX_EP; i++)
 614:.\Generated_Source\PSoC5/USB_Bootloader_std.c ****             {
 615:.\Generated_Source\PSoC5/USB_Bootloader_std.c ****                 /* p_list points the endpoint setting table. */
 616:.\Generated_Source\PSoC5/USB_Bootloader_std.c ****                 pEP = (const T_USB_Bootloader_EP_SETTINGS_BLOCK CYCODE *) pTmp->p_list;
 617:.\Generated_Source\PSoC5/USB_Bootloader_std.c ****                 /* Find max length for each EP and select it (length could be different in differen
 618:.\Generated_Source\PSoC5/USB_Bootloader_std.c ****                 /* but other settings should be correct with regards to Interface alt Setting */
 619:.\Generated_Source\PSoC5/USB_Bootloader_std.c ****                 for (cur_ep = 0u; cur_ep < ep; cur_ep++)
 620:.\Generated_Source\PSoC5/USB_Bootloader_std.c ****                 {
 621:.\Generated_Source\PSoC5/USB_Bootloader_std.c ****                     /* EP count is equal to EP # in table and we found larger EP length than have b
 622:.\Generated_Source\PSoC5/USB_Bootloader_std.c ****                     if(i == (pEP->addr & USB_Bootloader_DIR_UNUSED))
 623:.\Generated_Source\PSoC5/USB_Bootloader_std.c ****                     {
 624:.\Generated_Source\PSoC5/USB_Bootloader_std.c ****                         if(USB_Bootloader_EP[i].bufferSize < pEP->bufferSize)
 625:.\Generated_Source\PSoC5/USB_Bootloader_std.c ****                         {
 626:.\Generated_Source\PSoC5/USB_Bootloader_std.c ****                             USB_Bootloader_EP[i].bufferSize = pEP->bufferSize;
 627:.\Generated_Source\PSoC5/USB_Bootloader_std.c ****                         }
 628:.\Generated_Source\PSoC5/USB_Bootloader_std.c ****                         /* Compare current Alternate setting with EP Alt*/
 629:.\Generated_Source\PSoC5/USB_Bootloader_std.c ****                         if(USB_Bootloader_interfaceSetting[pEP->interface] == pEP->altSetting)
 630:.\Generated_Source\PSoC5/USB_Bootloader_std.c ****                         {
 631:.\Generated_Source\PSoC5/USB_Bootloader_std.c ****                             epType = pEP->attributes & USB_Bootloader_EP_TYPE_MASK;
 632:.\Generated_Source\PSoC5/USB_Bootloader_std.c ****                             if ((pEP->addr & USB_Bootloader_DIR_IN) != 0u)
ARM GAS  C:\Users\Robert\AppData\Local\Temp\ccLuFIyc.s 			page 15


 633:.\Generated_Source\PSoC5/USB_Bootloader_std.c ****                             {
 634:.\Generated_Source\PSoC5/USB_Bootloader_std.c ****                                 /* IN Endpoint */
 635:.\Generated_Source\PSoC5/USB_Bootloader_std.c ****                                 USB_Bootloader_EP[i].apiEpState = USB_Bootloader_EVENT_PENDING;
 636:.\Generated_Source\PSoC5/USB_Bootloader_std.c ****                                 USB_Bootloader_EP[i].epMode = (epType == USB_Bootloader_EP_TYPE_ISO
 637:.\Generated_Source\PSoC5/USB_Bootloader_std.c ****                                                         USB_Bootloader_MODE_ISO_IN : USB_Bootloader
 638:.\Generated_Source\PSoC5/USB_Bootloader_std.c ****                                 /* Find and initialize CDC IN endpoint number */
 639:.\Generated_Source\PSoC5/USB_Bootloader_std.c ****                                 #if defined(USB_Bootloader_ENABLE_CDC_CLASS)
 640:.\Generated_Source\PSoC5/USB_Bootloader_std.c ****                                     if(((pEP->bMisc == USB_Bootloader_CLASS_CDC_DATA) ||
 641:.\Generated_Source\PSoC5/USB_Bootloader_std.c ****                                         (pEP->bMisc == USB_Bootloader_CLASS_CDC)) &&
 642:.\Generated_Source\PSoC5/USB_Bootloader_std.c ****                                         (epType != USB_Bootloader_EP_TYPE_INT))
 643:.\Generated_Source\PSoC5/USB_Bootloader_std.c ****                                     {
 644:.\Generated_Source\PSoC5/USB_Bootloader_std.c ****                                         USB_Bootloader_cdc_data_in_ep = i;
 645:.\Generated_Source\PSoC5/USB_Bootloader_std.c ****                                     }
 646:.\Generated_Source\PSoC5/USB_Bootloader_std.c ****                                 #endif  /*  USB_Bootloader_ENABLE_CDC_CLASS*/
 647:.\Generated_Source\PSoC5/USB_Bootloader_std.c ****                                 #if ( defined(USB_Bootloader_ENABLE_MIDI_STREAMING) && \
 648:.\Generated_Source\PSoC5/USB_Bootloader_std.c ****                                              (USB_Bootloader_MIDI_IN_BUFF_SIZE > 0) )
 649:.\Generated_Source\PSoC5/USB_Bootloader_std.c ****                                     if((pEP->bMisc == USB_Bootloader_CLASS_AUDIO) &&
 650:.\Generated_Source\PSoC5/USB_Bootloader_std.c ****                                        (epType == USB_Bootloader_EP_TYPE_BULK))
 651:.\Generated_Source\PSoC5/USB_Bootloader_std.c ****                                     {
 652:.\Generated_Source\PSoC5/USB_Bootloader_std.c ****                                         USB_Bootloader_midi_in_ep = i;
 653:.\Generated_Source\PSoC5/USB_Bootloader_std.c ****                                     }
 654:.\Generated_Source\PSoC5/USB_Bootloader_std.c ****                                 #endif  /*  USB_Bootloader_ENABLE_MIDI_STREAMING*/
 655:.\Generated_Source\PSoC5/USB_Bootloader_std.c ****                             }
 656:.\Generated_Source\PSoC5/USB_Bootloader_std.c ****                             else
 657:.\Generated_Source\PSoC5/USB_Bootloader_std.c ****                             {
 658:.\Generated_Source\PSoC5/USB_Bootloader_std.c ****                                 /* OUT Endpoint */
 659:.\Generated_Source\PSoC5/USB_Bootloader_std.c ****                                 USB_Bootloader_EP[i].apiEpState = USB_Bootloader_NO_EVENT_PENDING;
 660:.\Generated_Source\PSoC5/USB_Bootloader_std.c ****                                 USB_Bootloader_EP[i].epMode = (epType == USB_Bootloader_EP_TYPE_ISO
 661:.\Generated_Source\PSoC5/USB_Bootloader_std.c ****                                                     USB_Bootloader_MODE_ISO_OUT : USB_Bootloader_MO
 662:.\Generated_Source\PSoC5/USB_Bootloader_std.c ****                                 /* Find and initialize CDC IN endpoint number */
 663:.\Generated_Source\PSoC5/USB_Bootloader_std.c ****                                 #if defined(USB_Bootloader_ENABLE_CDC_CLASS)
 664:.\Generated_Source\PSoC5/USB_Bootloader_std.c ****                                     if(((pEP->bMisc == USB_Bootloader_CLASS_CDC_DATA) ||
 665:.\Generated_Source\PSoC5/USB_Bootloader_std.c ****                                         (pEP->bMisc == USB_Bootloader_CLASS_CDC)) &&
 666:.\Generated_Source\PSoC5/USB_Bootloader_std.c ****                                         (epType != USB_Bootloader_EP_TYPE_INT))
 667:.\Generated_Source\PSoC5/USB_Bootloader_std.c ****                                     {
 668:.\Generated_Source\PSoC5/USB_Bootloader_std.c ****                                         USB_Bootloader_cdc_data_out_ep = i;
 669:.\Generated_Source\PSoC5/USB_Bootloader_std.c ****                                     }
 670:.\Generated_Source\PSoC5/USB_Bootloader_std.c ****                                 #endif  /*  USB_Bootloader_ENABLE_CDC_CLASS*/
 671:.\Generated_Source\PSoC5/USB_Bootloader_std.c ****                                 #if ( defined(USB_Bootloader_ENABLE_MIDI_STREAMING) && \
 672:.\Generated_Source\PSoC5/USB_Bootloader_std.c ****                                              (USB_Bootloader_MIDI_OUT_BUFF_SIZE > 0) )
 673:.\Generated_Source\PSoC5/USB_Bootloader_std.c ****                                     if((pEP->bMisc == USB_Bootloader_CLASS_AUDIO) &&
 674:.\Generated_Source\PSoC5/USB_Bootloader_std.c ****                                        (epType == USB_Bootloader_EP_TYPE_BULK))
 675:.\Generated_Source\PSoC5/USB_Bootloader_std.c ****                                     {
 676:.\Generated_Source\PSoC5/USB_Bootloader_std.c ****                                         USB_Bootloader_midi_out_ep = i;
 677:.\Generated_Source\PSoC5/USB_Bootloader_std.c ****                                     }
 678:.\Generated_Source\PSoC5/USB_Bootloader_std.c ****                                 #endif  /*  USB_Bootloader_ENABLE_MIDI_STREAMING*/
 679:.\Generated_Source\PSoC5/USB_Bootloader_std.c ****                             }
 680:.\Generated_Source\PSoC5/USB_Bootloader_std.c ****                             USB_Bootloader_EP[i].addr = pEP->addr;
 681:.\Generated_Source\PSoC5/USB_Bootloader_std.c ****                             USB_Bootloader_EP[i].attrib = pEP->attributes;
 682:.\Generated_Source\PSoC5/USB_Bootloader_std.c **** 
 683:.\Generated_Source\PSoC5/USB_Bootloader_std.c ****                             #if(USB_Bootloader_EP_MM == USB_Bootloader__EP_DMAAUTO)
 684:.\Generated_Source\PSoC5/USB_Bootloader_std.c ****                                 break;      /* use first EP setting in Auto memory managment */
 685:.\Generated_Source\PSoC5/USB_Bootloader_std.c ****                             #endif /*  USB_Bootloader_EP_MM == USB_Bootloader__EP_DMAAUTO */
 686:.\Generated_Source\PSoC5/USB_Bootloader_std.c ****                         }
 687:.\Generated_Source\PSoC5/USB_Bootloader_std.c ****                     }
 688:.\Generated_Source\PSoC5/USB_Bootloader_std.c ****                     pEP = &pEP[1u];
 689:.\Generated_Source\PSoC5/USB_Bootloader_std.c ****                 }
ARM GAS  C:\Users\Robert\AppData\Local\Temp\ccLuFIyc.s 			page 16


 690:.\Generated_Source\PSoC5/USB_Bootloader_std.c ****             }
 691:.\Generated_Source\PSoC5/USB_Bootloader_std.c ****         #endif /*  (USB_Bootloader_EP_MA == USB_Bootloader__MA_DYNAMIC) */
 692:.\Generated_Source\PSoC5/USB_Bootloader_std.c **** 
 693:.\Generated_Source\PSoC5/USB_Bootloader_std.c ****         /* Init class array for each interface and interface number for each EP.
 694:.\Generated_Source\PSoC5/USB_Bootloader_std.c ****         *  It is used for handling Class specific requests directed to either an
 695:.\Generated_Source\PSoC5/USB_Bootloader_std.c ****         *  interface or the endpoint.
 696:.\Generated_Source\PSoC5/USB_Bootloader_std.c ****         */
 697:.\Generated_Source\PSoC5/USB_Bootloader_std.c ****         /* p_list points the endpoint setting table. */
 698:.\Generated_Source\PSoC5/USB_Bootloader_std.c ****         pEP = (const T_USB_Bootloader_EP_SETTINGS_BLOCK CYCODE *) pTmp->p_list;
 699:.\Generated_Source\PSoC5/USB_Bootloader_std.c ****         for (i = 0u; i < ep; i++)
 700:.\Generated_Source\PSoC5/USB_Bootloader_std.c ****         {
 701:.\Generated_Source\PSoC5/USB_Bootloader_std.c ****             /* Configure interface number for each EP*/
 702:.\Generated_Source\PSoC5/USB_Bootloader_std.c ****             USB_Bootloader_EP[pEP->addr & USB_Bootloader_DIR_UNUSED].interface = pEP->interface;
 703:.\Generated_Source\PSoC5/USB_Bootloader_std.c ****             pEP = &pEP[1u];
 704:.\Generated_Source\PSoC5/USB_Bootloader_std.c ****         }
 705:.\Generated_Source\PSoC5/USB_Bootloader_std.c ****         /* Init pointer on interface class table*/
 706:.\Generated_Source\PSoC5/USB_Bootloader_std.c ****         USB_Bootloader_interfaceClass = USB_Bootloader_GetInterfaceClassTablePtr();
 707:.\Generated_Source\PSoC5/USB_Bootloader_std.c ****         /* Set the endpoint buffer addresses */
 708:.\Generated_Source\PSoC5/USB_Bootloader_std.c **** 
 709:.\Generated_Source\PSoC5/USB_Bootloader_std.c ****         #if(USB_Bootloader_EP_MM != USB_Bootloader__EP_DMAAUTO)
 710:.\Generated_Source\PSoC5/USB_Bootloader_std.c ****             for (ep = USB_Bootloader_EP1; ep < USB_Bootloader_MAX_EP; ep++)
 711:.\Generated_Source\PSoC5/USB_Bootloader_std.c ****             {
 712:.\Generated_Source\PSoC5/USB_Bootloader_std.c ****                 USB_Bootloader_EP[ep].buffOffset = buffCount;
 713:.\Generated_Source\PSoC5/USB_Bootloader_std.c ****                  buffCount += USB_Bootloader_EP[ep].bufferSize;
 714:.\Generated_Source\PSoC5/USB_Bootloader_std.c ****             }
 715:.\Generated_Source\PSoC5/USB_Bootloader_std.c ****         #endif /*  USB_Bootloader_EP_MM != USB_Bootloader__EP_DMAAUTO */
 716:.\Generated_Source\PSoC5/USB_Bootloader_std.c **** 
 717:.\Generated_Source\PSoC5/USB_Bootloader_std.c ****         /* Configure hardware registers */
 718:.\Generated_Source\PSoC5/USB_Bootloader_std.c ****         USB_Bootloader_ConfigReg();
 719:.\Generated_Source\PSoC5/USB_Bootloader_std.c ****     } /* USB_Bootloader_configuration > 0 */
 720:.\Generated_Source\PSoC5/USB_Bootloader_std.c **** }
 721:.\Generated_Source\PSoC5/USB_Bootloader_std.c **** 
 722:.\Generated_Source\PSoC5/USB_Bootloader_std.c **** 
 723:.\Generated_Source\PSoC5/USB_Bootloader_std.c **** /*******************************************************************************
 724:.\Generated_Source\PSoC5/USB_Bootloader_std.c **** * Function Name: USB_Bootloader_ConfigAltChanged
 725:.\Generated_Source\PSoC5/USB_Bootloader_std.c **** ********************************************************************************
 726:.\Generated_Source\PSoC5/USB_Bootloader_std.c **** *
 727:.\Generated_Source\PSoC5/USB_Bootloader_std.c **** * Summary:
 728:.\Generated_Source\PSoC5/USB_Bootloader_std.c **** *  This routine update configuration for the required endpoints only.
 729:.\Generated_Source\PSoC5/USB_Bootloader_std.c **** *  It is called after SET_INTERFACE request when Static memory allocation used.
 730:.\Generated_Source\PSoC5/USB_Bootloader_std.c **** *
 731:.\Generated_Source\PSoC5/USB_Bootloader_std.c **** * Parameters:
 732:.\Generated_Source\PSoC5/USB_Bootloader_std.c **** *  None.
 733:.\Generated_Source\PSoC5/USB_Bootloader_std.c **** *
 734:.\Generated_Source\PSoC5/USB_Bootloader_std.c **** * Return:
 735:.\Generated_Source\PSoC5/USB_Bootloader_std.c **** *  None.
 736:.\Generated_Source\PSoC5/USB_Bootloader_std.c **** *
 737:.\Generated_Source\PSoC5/USB_Bootloader_std.c **** * Reentrant:
 738:.\Generated_Source\PSoC5/USB_Bootloader_std.c **** *  No.
 739:.\Generated_Source\PSoC5/USB_Bootloader_std.c **** *
 740:.\Generated_Source\PSoC5/USB_Bootloader_std.c **** *******************************************************************************/
 741:.\Generated_Source\PSoC5/USB_Bootloader_std.c **** void USB_Bootloader_ConfigAltChanged(void) 
 742:.\Generated_Source\PSoC5/USB_Bootloader_std.c **** {
 743:.\Generated_Source\PSoC5/USB_Bootloader_std.c ****     uint8 ep;
 744:.\Generated_Source\PSoC5/USB_Bootloader_std.c ****     uint8 cur_ep;
 745:.\Generated_Source\PSoC5/USB_Bootloader_std.c ****     uint8 i;
 746:.\Generated_Source\PSoC5/USB_Bootloader_std.c ****     uint8 epType;
ARM GAS  C:\Users\Robert\AppData\Local\Temp\ccLuFIyc.s 			page 17


 747:.\Generated_Source\PSoC5/USB_Bootloader_std.c ****     uint8 ri;
 748:.\Generated_Source\PSoC5/USB_Bootloader_std.c **** 
 749:.\Generated_Source\PSoC5/USB_Bootloader_std.c ****     const T_USB_Bootloader_LUT CYCODE *pTmp;
 750:.\Generated_Source\PSoC5/USB_Bootloader_std.c ****     const T_USB_Bootloader_EP_SETTINGS_BLOCK CYCODE *pEP;
 751:.\Generated_Source\PSoC5/USB_Bootloader_std.c **** 
 752:.\Generated_Source\PSoC5/USB_Bootloader_std.c **** 
 753:.\Generated_Source\PSoC5/USB_Bootloader_std.c ****     /* Init Endpoints and Device Status if configured */
 754:.\Generated_Source\PSoC5/USB_Bootloader_std.c ****     if(USB_Bootloader_configuration > 0u)
 755:.\Generated_Source\PSoC5/USB_Bootloader_std.c ****     {
 756:.\Generated_Source\PSoC5/USB_Bootloader_std.c ****         pTmp = USB_Bootloader_GetConfigTablePtr(USB_Bootloader_configuration - 1u);
 757:.\Generated_Source\PSoC5/USB_Bootloader_std.c ****         pTmp = &pTmp[1u];
 758:.\Generated_Source\PSoC5/USB_Bootloader_std.c ****         ep = pTmp->c;  /* For this table, c is the number of endpoints configurations  */
 759:.\Generated_Source\PSoC5/USB_Bootloader_std.c **** 
 760:.\Generated_Source\PSoC5/USB_Bootloader_std.c ****         /* Do not touch EP which doesn't need reconfiguration */
 761:.\Generated_Source\PSoC5/USB_Bootloader_std.c ****         /* When Alt setting changed, the only required endpoints need to be reconfigured */
 762:.\Generated_Source\PSoC5/USB_Bootloader_std.c ****         /* p_list points the endpoint setting table. */
 763:.\Generated_Source\PSoC5/USB_Bootloader_std.c ****         pEP = (const T_USB_Bootloader_EP_SETTINGS_BLOCK CYCODE *) pTmp->p_list;
 764:.\Generated_Source\PSoC5/USB_Bootloader_std.c ****         for (i = 0u; i < ep; i++)
 765:.\Generated_Source\PSoC5/USB_Bootloader_std.c ****         {
 766:.\Generated_Source\PSoC5/USB_Bootloader_std.c ****             /*If Alt setting changed and new is same with EP Alt */
 767:.\Generated_Source\PSoC5/USB_Bootloader_std.c ****             if((USB_Bootloader_interfaceSetting[pEP->interface] !=
 768:.\Generated_Source\PSoC5/USB_Bootloader_std.c ****                 USB_Bootloader_interfaceSetting_last[pEP->interface] ) &&
 769:.\Generated_Source\PSoC5/USB_Bootloader_std.c ****                (USB_Bootloader_interfaceSetting[pEP->interface] == pEP->altSetting) &&
 770:.\Generated_Source\PSoC5/USB_Bootloader_std.c ****                (pEP->interface == CY_GET_REG8(USB_Bootloader_wIndexLo)))
 771:.\Generated_Source\PSoC5/USB_Bootloader_std.c ****             {
 772:.\Generated_Source\PSoC5/USB_Bootloader_std.c ****                 cur_ep = pEP->addr & USB_Bootloader_DIR_UNUSED;
 773:.\Generated_Source\PSoC5/USB_Bootloader_std.c ****                 ri = ((cur_ep - USB_Bootloader_EP1) << USB_Bootloader_EPX_CNTX_ADDR_SHIFT);
 774:.\Generated_Source\PSoC5/USB_Bootloader_std.c ****                 epType = pEP->attributes & USB_Bootloader_EP_TYPE_MASK;
 775:.\Generated_Source\PSoC5/USB_Bootloader_std.c ****                 if ((pEP->addr & USB_Bootloader_DIR_IN) != 0u)
 776:.\Generated_Source\PSoC5/USB_Bootloader_std.c ****                 {
 777:.\Generated_Source\PSoC5/USB_Bootloader_std.c ****                     /* IN Endpoint */
 778:.\Generated_Source\PSoC5/USB_Bootloader_std.c ****                     USB_Bootloader_EP[cur_ep].apiEpState = USB_Bootloader_EVENT_PENDING;
 779:.\Generated_Source\PSoC5/USB_Bootloader_std.c ****                     USB_Bootloader_EP[cur_ep].epMode = (epType == USB_Bootloader_EP_TYPE_ISOC) ?
 780:.\Generated_Source\PSoC5/USB_Bootloader_std.c ****                                                 USB_Bootloader_MODE_ISO_IN : USB_Bootloader_MODE_AC
 781:.\Generated_Source\PSoC5/USB_Bootloader_std.c ****                 }
 782:.\Generated_Source\PSoC5/USB_Bootloader_std.c ****                 else
 783:.\Generated_Source\PSoC5/USB_Bootloader_std.c ****                 {
 784:.\Generated_Source\PSoC5/USB_Bootloader_std.c ****                     /* OUT Endpoint */
 785:.\Generated_Source\PSoC5/USB_Bootloader_std.c ****                     USB_Bootloader_EP[cur_ep].apiEpState = USB_Bootloader_NO_EVENT_PENDING;
 786:.\Generated_Source\PSoC5/USB_Bootloader_std.c ****                     USB_Bootloader_EP[cur_ep].epMode = (epType == USB_Bootloader_EP_TYPE_ISOC) ?
 787:.\Generated_Source\PSoC5/USB_Bootloader_std.c ****                                                 USB_Bootloader_MODE_ISO_OUT : USB_Bootloader_MODE_A
 788:.\Generated_Source\PSoC5/USB_Bootloader_std.c ****                 }
 789:.\Generated_Source\PSoC5/USB_Bootloader_std.c ****                  /* Change the SIE mode for the selected EP to NAK ALL */
 790:.\Generated_Source\PSoC5/USB_Bootloader_std.c ****                  CY_SET_REG8((reg8 *)(USB_Bootloader_SIE_EP1_CR0_IND + ri), USB_Bootloader_MODE_NAK
 791:.\Generated_Source\PSoC5/USB_Bootloader_std.c ****                 USB_Bootloader_EP[cur_ep].bufferSize = pEP->bufferSize;
 792:.\Generated_Source\PSoC5/USB_Bootloader_std.c ****                 USB_Bootloader_EP[cur_ep].addr = pEP->addr;
 793:.\Generated_Source\PSoC5/USB_Bootloader_std.c ****                 USB_Bootloader_EP[cur_ep].attrib = pEP->attributes;
 794:.\Generated_Source\PSoC5/USB_Bootloader_std.c **** 
 795:.\Generated_Source\PSoC5/USB_Bootloader_std.c ****                 /* Clear the data toggle */
 796:.\Generated_Source\PSoC5/USB_Bootloader_std.c ****                 USB_Bootloader_EP[cur_ep].epToggle = 0u;
 797:.\Generated_Source\PSoC5/USB_Bootloader_std.c **** 
 798:.\Generated_Source\PSoC5/USB_Bootloader_std.c ****                 /* Dynamic reconfiguration for mode 3 transfer */
 799:.\Generated_Source\PSoC5/USB_Bootloader_std.c ****             #if(USB_Bootloader_EP_MM == USB_Bootloader__EP_DMAAUTO)
 800:.\Generated_Source\PSoC5/USB_Bootloader_std.c ****                 /* In_data_rdy for selected EP should be set to 0 */
 801:.\Generated_Source\PSoC5/USB_Bootloader_std.c ****                 * (reg8 *)(USB_Bootloader_ARB_EP1_CFG_IND + ri) &= (uint8)~USB_Bootloader_ARB_EPX_C
 802:.\Generated_Source\PSoC5/USB_Bootloader_std.c **** 
 803:.\Generated_Source\PSoC5/USB_Bootloader_std.c ****                 /* write the EP number for which reconfiguration is required */
ARM GAS  C:\Users\Robert\AppData\Local\Temp\ccLuFIyc.s 			page 18


 804:.\Generated_Source\PSoC5/USB_Bootloader_std.c ****                 USB_Bootloader_DYN_RECONFIG_REG = (cur_ep - USB_Bootloader_EP1) <<
 805:.\Generated_Source\PSoC5/USB_Bootloader_std.c ****                                                     USB_Bootloader_DYN_RECONFIG_EP_SHIFT;
 806:.\Generated_Source\PSoC5/USB_Bootloader_std.c ****                 /* Set the dyn_config_en bit in dynamic reconfiguration register */
 807:.\Generated_Source\PSoC5/USB_Bootloader_std.c ****                 USB_Bootloader_DYN_RECONFIG_REG |= USB_Bootloader_DYN_RECONFIG_ENABLE;
 808:.\Generated_Source\PSoC5/USB_Bootloader_std.c ****                 /* wait for the dyn_config_rdy bit to set by the block,
 809:.\Generated_Source\PSoC5/USB_Bootloader_std.c ****                 *  this bit will be set to 1 when block is ready for reconfiguration.
 810:.\Generated_Source\PSoC5/USB_Bootloader_std.c ****                 */
 811:.\Generated_Source\PSoC5/USB_Bootloader_std.c ****                 while((USB_Bootloader_DYN_RECONFIG_REG & USB_Bootloader_DYN_RECONFIG_RDY_STS) == 0u
 812:.\Generated_Source\PSoC5/USB_Bootloader_std.c ****                 {
 813:.\Generated_Source\PSoC5/USB_Bootloader_std.c ****                     ;
 814:.\Generated_Source\PSoC5/USB_Bootloader_std.c ****                 }
 815:.\Generated_Source\PSoC5/USB_Bootloader_std.c ****                 /* Once dyn_config_rdy bit is set, FW can change the EP configuration. */
 816:.\Generated_Source\PSoC5/USB_Bootloader_std.c ****                 /* Change EP Type with new direction */
 817:.\Generated_Source\PSoC5/USB_Bootloader_std.c ****                 if((pEP->addr & USB_Bootloader_DIR_IN) == 0u)
 818:.\Generated_Source\PSoC5/USB_Bootloader_std.c ****                 {
 819:.\Generated_Source\PSoC5/USB_Bootloader_std.c ****                     USB_Bootloader_EP_TYPE_REG |= (uint8)(0x01u << (cur_ep - USB_Bootloader_EP1));
 820:.\Generated_Source\PSoC5/USB_Bootloader_std.c ****                 }
 821:.\Generated_Source\PSoC5/USB_Bootloader_std.c ****                 else
 822:.\Generated_Source\PSoC5/USB_Bootloader_std.c ****                 {
 823:.\Generated_Source\PSoC5/USB_Bootloader_std.c ****                     USB_Bootloader_EP_TYPE_REG &= (uint8)~(uint8)(0x01u << (cur_ep - USB_Bootloader
 824:.\Generated_Source\PSoC5/USB_Bootloader_std.c ****                 }
 825:.\Generated_Source\PSoC5/USB_Bootloader_std.c ****                 /* dynamic reconfiguration enable bit cleared, pointers and control/status
 826:.\Generated_Source\PSoC5/USB_Bootloader_std.c ****                 *  signals for the selected EP is cleared/re-initialized on negative edge
 827:.\Generated_Source\PSoC5/USB_Bootloader_std.c ****                 *  of dynamic reconfiguration enable bit).
 828:.\Generated_Source\PSoC5/USB_Bootloader_std.c ****                 */
 829:.\Generated_Source\PSoC5/USB_Bootloader_std.c ****                 USB_Bootloader_DYN_RECONFIG_REG &= (uint8)~USB_Bootloader_DYN_RECONFIG_ENABLE;
 830:.\Generated_Source\PSoC5/USB_Bootloader_std.c ****                 /* The main loop has to re-enable DMA and OUT endpoint*/
 831:.\Generated_Source\PSoC5/USB_Bootloader_std.c ****             #else
 832:.\Generated_Source\PSoC5/USB_Bootloader_std.c ****                 CY_SET_REG8((reg8 *)(USB_Bootloader_SIE_EP1_CNT0_IND + ri),
 833:.\Generated_Source\PSoC5/USB_Bootloader_std.c ****                                                                 USB_Bootloader_EP[cur_ep].bufferSiz
 834:.\Generated_Source\PSoC5/USB_Bootloader_std.c ****                 CY_SET_REG8((reg8 *)(USB_Bootloader_SIE_EP1_CNT1_IND + ri),
 835:.\Generated_Source\PSoC5/USB_Bootloader_std.c ****                                                                 USB_Bootloader_EP[cur_ep].bufferSiz
 836:.\Generated_Source\PSoC5/USB_Bootloader_std.c ****                 CY_SET_REG8((reg8 *)(USB_Bootloader_ARB_RW1_RA_IND + ri),
 837:.\Generated_Source\PSoC5/USB_Bootloader_std.c ****                                                                 USB_Bootloader_EP[cur_ep].buffOffse
 838:.\Generated_Source\PSoC5/USB_Bootloader_std.c ****                 CY_SET_REG8((reg8 *)(USB_Bootloader_ARB_RW1_RA_MSB_IND + ri),
 839:.\Generated_Source\PSoC5/USB_Bootloader_std.c ****                                                                 USB_Bootloader_EP[cur_ep].buffOffse
 840:.\Generated_Source\PSoC5/USB_Bootloader_std.c ****                 CY_SET_REG8((reg8 *)(USB_Bootloader_ARB_RW1_WA_IND + ri),
 841:.\Generated_Source\PSoC5/USB_Bootloader_std.c ****                                                                 USB_Bootloader_EP[cur_ep].buffOffse
 842:.\Generated_Source\PSoC5/USB_Bootloader_std.c ****                 CY_SET_REG8((reg8 *)(USB_Bootloader_ARB_RW1_WA_MSB_IND + ri),
 843:.\Generated_Source\PSoC5/USB_Bootloader_std.c ****                                                                 USB_Bootloader_EP[cur_ep].buffOffse
 844:.\Generated_Source\PSoC5/USB_Bootloader_std.c ****             #endif /*  USB_Bootloader_EP_MM == USB_Bootloader__EP_DMAAUTO */
 845:.\Generated_Source\PSoC5/USB_Bootloader_std.c ****             }
 846:.\Generated_Source\PSoC5/USB_Bootloader_std.c ****             /* Get next EP element */
 847:.\Generated_Source\PSoC5/USB_Bootloader_std.c ****             pEP = &pEP[1u];
 848:.\Generated_Source\PSoC5/USB_Bootloader_std.c ****         }
 849:.\Generated_Source\PSoC5/USB_Bootloader_std.c ****     }   /* USB_Bootloader_configuration > 0 */
 850:.\Generated_Source\PSoC5/USB_Bootloader_std.c **** }
 851:.\Generated_Source\PSoC5/USB_Bootloader_std.c **** 
 852:.\Generated_Source\PSoC5/USB_Bootloader_std.c **** 
 853:.\Generated_Source\PSoC5/USB_Bootloader_std.c **** /*******************************************************************************
 854:.\Generated_Source\PSoC5/USB_Bootloader_std.c **** * Function Name: USB_Bootloader_GetConfigTablePtr
 855:.\Generated_Source\PSoC5/USB_Bootloader_std.c **** ********************************************************************************
 856:.\Generated_Source\PSoC5/USB_Bootloader_std.c **** *
 857:.\Generated_Source\PSoC5/USB_Bootloader_std.c **** * Summary:
 858:.\Generated_Source\PSoC5/USB_Bootloader_std.c **** *  This routine returns a pointer a configuration table entry
 859:.\Generated_Source\PSoC5/USB_Bootloader_std.c **** *
 860:.\Generated_Source\PSoC5/USB_Bootloader_std.c **** * Parameters:
ARM GAS  C:\Users\Robert\AppData\Local\Temp\ccLuFIyc.s 			page 19


 861:.\Generated_Source\PSoC5/USB_Bootloader_std.c **** *  confIndex:  Configuration Index
 862:.\Generated_Source\PSoC5/USB_Bootloader_std.c **** *
 863:.\Generated_Source\PSoC5/USB_Bootloader_std.c **** * Return:
 864:.\Generated_Source\PSoC5/USB_Bootloader_std.c **** *  Device Descriptor pointer or NULL when descriptor isn't exists.
 865:.\Generated_Source\PSoC5/USB_Bootloader_std.c **** *
 866:.\Generated_Source\PSoC5/USB_Bootloader_std.c **** *******************************************************************************/
 867:.\Generated_Source\PSoC5/USB_Bootloader_std.c **** const T_USB_Bootloader_LUT CYCODE *USB_Bootloader_GetConfigTablePtr(uint8 confIndex)
 868:.\Generated_Source\PSoC5/USB_Bootloader_std.c ****                                                         
 869:.\Generated_Source\PSoC5/USB_Bootloader_std.c **** {
 164              		.loc 1 869 0
 165              		.cfi_startproc
 166              		@ args = 0, pretend = 0, frame = 0
 167              		@ frame_needed = 0, uses_anonymous_args = 0
 168              		@ link register save eliminated.
 169              	.LVL7:
 870:.\Generated_Source\PSoC5/USB_Bootloader_std.c ****     /* Device Table */
 871:.\Generated_Source\PSoC5/USB_Bootloader_std.c ****     const T_USB_Bootloader_LUT CYCODE *pTmp;
 872:.\Generated_Source\PSoC5/USB_Bootloader_std.c **** 
 873:.\Generated_Source\PSoC5/USB_Bootloader_std.c ****     pTmp = (const T_USB_Bootloader_LUT CYCODE *) USB_Bootloader_TABLE[USB_Bootloader_device].p_list
 170              		.loc 1 873 0
 171 0000 074B     		ldr	r3, .L13
 172 0002 1B78     		ldrb	r3, [r3]	@ zero_extendqisi2
 173 0004 074A     		ldr	r2, .L13+4
 174 0006 02EBC302 		add	r2, r2, r3, lsl #3
 175 000a 5368     		ldr	r3, [r2, #4]
 176              	.LVL8:
 874:.\Generated_Source\PSoC5/USB_Bootloader_std.c **** 
 875:.\Generated_Source\PSoC5/USB_Bootloader_std.c ****     /* The first entry points to the Device Descriptor,
 876:.\Generated_Source\PSoC5/USB_Bootloader_std.c ****     *  the rest configuration entries.
 877:.\Generated_Source\PSoC5/USB_Bootloader_std.c ****     *  Set pointer to the first Configuration Descriptor
 878:.\Generated_Source\PSoC5/USB_Bootloader_std.c ****     */
 879:.\Generated_Source\PSoC5/USB_Bootloader_std.c ****     pTmp = &pTmp[1u];
 880:.\Generated_Source\PSoC5/USB_Bootloader_std.c ****     /* For this table, c is the number of configuration descriptors  */
 881:.\Generated_Source\PSoC5/USB_Bootloader_std.c ****     if(confIndex >= pTmp->c)   /* Verify that required configuration descriptor exists */
 177              		.loc 1 881 0
 178 000c 1A7A     		ldrb	r2, [r3, #8]	@ zero_extendqisi2
 179 000e 8242     		cmp	r2, r0
 180 0010 03D9     		bls	.L12
 181 0012 03EBC003 		add	r3, r3, r0, lsl #3
 182              	.LVL9:
 882:.\Generated_Source\PSoC5/USB_Bootloader_std.c ****     {
 883:.\Generated_Source\PSoC5/USB_Bootloader_std.c ****         pTmp = (const T_USB_Bootloader_LUT CYCODE *) NULL;
 884:.\Generated_Source\PSoC5/USB_Bootloader_std.c ****     }
 885:.\Generated_Source\PSoC5/USB_Bootloader_std.c ****     else
 886:.\Generated_Source\PSoC5/USB_Bootloader_std.c ****     {
 887:.\Generated_Source\PSoC5/USB_Bootloader_std.c ****         pTmp = (const T_USB_Bootloader_LUT CYCODE *) pTmp[confIndex].p_list;
 183              		.loc 1 887 0
 184 0016 D868     		ldr	r0, [r3, #12]
 185              	.LVL10:
 186 0018 7047     		bx	lr
 187              	.LVL11:
 188              	.L12:
 883:.\Generated_Source\PSoC5/USB_Bootloader_std.c ****     }
 189              		.loc 1 883 0
 190 001a 0020     		movs	r0, #0
 191              	.LVL12:
 888:.\Generated_Source\PSoC5/USB_Bootloader_std.c ****     }
ARM GAS  C:\Users\Robert\AppData\Local\Temp\ccLuFIyc.s 			page 20


 889:.\Generated_Source\PSoC5/USB_Bootloader_std.c **** 
 890:.\Generated_Source\PSoC5/USB_Bootloader_std.c ****     return( pTmp );
 891:.\Generated_Source\PSoC5/USB_Bootloader_std.c **** }
 192              		.loc 1 891 0
 193 001c 7047     		bx	lr
 194              	.L14:
 195 001e 00BF     		.align	2
 196              	.L13:
 197 0020 00000000 		.word	USB_Bootloader_device
 198 0024 00000000 		.word	USB_Bootloader_TABLE
 199              		.cfi_endproc
 200              	.LFE4:
 201              		.size	USB_Bootloader_GetConfigTablePtr, .-USB_Bootloader_GetConfigTablePtr
 202              		.section	.text.USB_Bootloader_ConfigAltChanged,"ax",%progbits
 203              		.align	2
 204              		.global	USB_Bootloader_ConfigAltChanged
 205              		.thumb
 206              		.thumb_func
 207              		.type	USB_Bootloader_ConfigAltChanged, %function
 208              	USB_Bootloader_ConfigAltChanged:
 209              	.LFB3:
 742:.\Generated_Source\PSoC5/USB_Bootloader_std.c ****     uint8 ep;
 210              		.loc 1 742 0
 211              		.cfi_startproc
 212              		@ args = 0, pretend = 0, frame = 0
 213              		@ frame_needed = 0, uses_anonymous_args = 0
 214 0000 F8B5     		push	{r3, r4, r5, r6, r7, lr}
 215              		.cfi_def_cfa_offset 24
 216              		.cfi_offset 3, -24
 217              		.cfi_offset 4, -20
 218              		.cfi_offset 5, -16
 219              		.cfi_offset 6, -12
 220              		.cfi_offset 7, -8
 221              		.cfi_offset 14, -4
 754:.\Generated_Source\PSoC5/USB_Bootloader_std.c ****     {
 222              		.loc 1 754 0
 223 0002 4C4B     		ldr	r3, .L27
 224 0004 1B78     		ldrb	r3, [r3]	@ zero_extendqisi2
 225 0006 13F0FF0F 		tst	r3, #255
 226 000a 00F09280 		beq	.L15
 756:.\Generated_Source\PSoC5/USB_Bootloader_std.c ****         pTmp = &pTmp[1u];
 227              		.loc 1 756 0
 228 000e 494B     		ldr	r3, .L27
 229 0010 1878     		ldrb	r0, [r3]	@ zero_extendqisi2
 230 0012 0138     		subs	r0, r0, #1
 231 0014 C0B2     		uxtb	r0, r0
 232 0016 FFF7FEFF 		bl	USB_Bootloader_GetConfigTablePtr
 233              	.LVL13:
 758:.\Generated_Source\PSoC5/USB_Bootloader_std.c **** 
 234              		.loc 1 758 0
 235 001a 057A     		ldrb	r5, [r0, #8]	@ zero_extendqisi2
 236              	.LVL14:
 763:.\Generated_Source\PSoC5/USB_Bootloader_std.c ****         for (i = 0u; i < ep; i++)
 237              		.loc 1 763 0
 238 001c C068     		ldr	r0, [r0, #12]
 239              	.LVL15:
 764:.\Generated_Source\PSoC5/USB_Bootloader_std.c ****         {
ARM GAS  C:\Users\Robert\AppData\Local\Temp\ccLuFIyc.s 			page 21


 240              		.loc 1 764 0
 241 001e 0023     		movs	r3, #0
 242 0020 84E0     		b	.L17
 243              	.LVL16:
 244              	.L23:
 767:.\Generated_Source\PSoC5/USB_Bootloader_std.c ****                 USB_Bootloader_interfaceSetting_last[pEP->interface] ) &&
 245              		.loc 1 767 0
 246 0022 0178     		ldrb	r1, [r0]	@ zero_extendqisi2
 247 0024 444A     		ldr	r2, .L27+4
 248 0026 525C     		ldrb	r2, [r2, r1]	@ zero_extendqisi2
 768:.\Generated_Source\PSoC5/USB_Bootloader_std.c ****                (USB_Bootloader_interfaceSetting[pEP->interface] == pEP->altSetting) &&
 249              		.loc 1 768 0
 250 0028 444C     		ldr	r4, .L27+8
 251 002a 645C     		ldrb	r4, [r4, r1]	@ zero_extendqisi2
 252 002c D2B2     		uxtb	r2, r2
 767:.\Generated_Source\PSoC5/USB_Bootloader_std.c ****                 USB_Bootloader_interfaceSetting_last[pEP->interface] ) &&
 253              		.loc 1 767 0
 254 002e A242     		cmp	r2, r4
 255 0030 79D0     		beq	.L18
 769:.\Generated_Source\PSoC5/USB_Bootloader_std.c ****                (pEP->interface == CY_GET_REG8(USB_Bootloader_wIndexLo)))
 256              		.loc 1 769 0
 257 0032 414A     		ldr	r2, .L27+4
 258 0034 525C     		ldrb	r2, [r2, r1]	@ zero_extendqisi2
 259 0036 D2B2     		uxtb	r2, r2
 260 0038 4478     		ldrb	r4, [r0, #1]	@ zero_extendqisi2
 768:.\Generated_Source\PSoC5/USB_Bootloader_std.c ****                (USB_Bootloader_interfaceSetting[pEP->interface] == pEP->altSetting) &&
 261              		.loc 1 768 0
 262 003a A242     		cmp	r2, r4
 263 003c 73D1     		bne	.L18
 770:.\Generated_Source\PSoC5/USB_Bootloader_std.c ****             {
 264              		.loc 1 770 0
 265 003e 404A     		ldr	r2, .L27+12
 266 0040 1278     		ldrb	r2, [r2]	@ zero_extendqisi2
 267 0042 D2B2     		uxtb	r2, r2
 769:.\Generated_Source\PSoC5/USB_Bootloader_std.c ****                (pEP->interface == CY_GET_REG8(USB_Bootloader_wIndexLo)))
 268              		.loc 1 769 0
 269 0044 9142     		cmp	r1, r2
 270 0046 6ED1     		bne	.L18
 772:.\Generated_Source\PSoC5/USB_Bootloader_std.c ****                 ri = ((cur_ep - USB_Bootloader_EP1) << USB_Bootloader_EPX_CNTX_ADDR_SHIFT);
 271              		.loc 1 772 0
 272 0048 8478     		ldrb	r4, [r0, #2]	@ zero_extendqisi2
 273 004a 04F07F02 		and	r2, r4, #127
 274              	.LVL17:
 773:.\Generated_Source\PSoC5/USB_Bootloader_std.c ****                 epType = pEP->attributes & USB_Bootloader_EP_TYPE_MASK;
 275              		.loc 1 773 0
 276 004e 511E     		subs	r1, r2, #1
 277 0050 0901     		lsls	r1, r1, #4
 278 0052 C9B2     		uxtb	r1, r1
 279              	.LVL18:
 774:.\Generated_Source\PSoC5/USB_Bootloader_std.c ****                 if ((pEP->addr & USB_Bootloader_DIR_IN) != 0u)
 280              		.loc 1 774 0
 281 0054 C678     		ldrb	r6, [r0, #3]	@ zero_extendqisi2
 282 0056 06F00306 		and	r6, r6, #3
 283              	.LVL19:
 775:.\Generated_Source\PSoC5/USB_Bootloader_std.c ****                 {
 284              		.loc 1 775 0
 285 005a 14F0800F 		tst	r4, #128
ARM GAS  C:\Users\Robert\AppData\Local\Temp\ccLuFIyc.s 			page 22


 286 005e 12D0     		beq	.L19
 778:.\Generated_Source\PSoC5/USB_Bootloader_std.c ****                     USB_Bootloader_EP[cur_ep].epMode = (epType == USB_Bootloader_EP_TYPE_ISOC) ?
 287              		.loc 1 778 0
 288 0060 02EB4204 		add	r4, r2, r2, lsl #1
 289 0064 A400     		lsls	r4, r4, #2
 290 0066 374F     		ldr	r7, .L27+16
 291 0068 3C44     		add	r4, r4, r7
 292 006a 0127     		movs	r7, #1
 293 006c 6770     		strb	r7, [r4, #1]
 779:.\Generated_Source\PSoC5/USB_Bootloader_std.c ****                                                 USB_Bootloader_MODE_ISO_IN : USB_Bootloader_MODE_AC
 294              		.loc 1 779 0
 295 006e BE42     		cmp	r6, r7
 296 0070 01D1     		bne	.L24
 297 0072 0726     		movs	r6, #7
 298              	.LVL20:
 299 0074 00E0     		b	.L20
 300              	.LVL21:
 301              	.L24:
 302 0076 0D26     		movs	r6, #13
 303              	.LVL22:
 304              	.L20:
 779:.\Generated_Source\PSoC5/USB_Bootloader_std.c ****                                                 USB_Bootloader_MODE_ISO_IN : USB_Bootloader_MODE_AC
 305              		.loc 1 779 0 is_stmt 0 discriminator 4
 306 0078 02EB4204 		add	r4, r2, r2, lsl #1
 307 007c A400     		lsls	r4, r4, #2
 308 007e 314F     		ldr	r7, .L27+16
 309 0080 3C44     		add	r4, r4, r7
 310 0082 6671     		strb	r6, [r4, #5]
 311 0084 11E0     		b	.L21
 312              	.LVL23:
 313              	.L19:
 785:.\Generated_Source\PSoC5/USB_Bootloader_std.c ****                     USB_Bootloader_EP[cur_ep].epMode = (epType == USB_Bootloader_EP_TYPE_ISOC) ?
 314              		.loc 1 785 0 is_stmt 1
 315 0086 02EB4204 		add	r4, r2, r2, lsl #1
 316 008a A400     		lsls	r4, r4, #2
 317 008c 2D4F     		ldr	r7, .L27+16
 318 008e 3C44     		add	r4, r4, r7
 319 0090 0027     		movs	r7, #0
 320 0092 6770     		strb	r7, [r4, #1]
 786:.\Generated_Source\PSoC5/USB_Bootloader_std.c ****                                                 USB_Bootloader_MODE_ISO_OUT : USB_Bootloader_MODE_A
 321              		.loc 1 786 0
 322 0094 012E     		cmp	r6, #1
 323 0096 01D1     		bne	.L25
 324 0098 0526     		movs	r6, #5
 325              	.LVL24:
 326 009a 00E0     		b	.L22
 327              	.LVL25:
 328              	.L25:
 329 009c 0926     		movs	r6, #9
 330              	.LVL26:
 331              	.L22:
 786:.\Generated_Source\PSoC5/USB_Bootloader_std.c ****                                                 USB_Bootloader_MODE_ISO_OUT : USB_Bootloader_MODE_A
 332              		.loc 1 786 0 is_stmt 0 discriminator 4
 333 009e 02EB4204 		add	r4, r2, r2, lsl #1
 334 00a2 A400     		lsls	r4, r4, #2
 335 00a4 274F     		ldr	r7, .L27+16
 336 00a6 3C44     		add	r4, r4, r7
ARM GAS  C:\Users\Robert\AppData\Local\Temp\ccLuFIyc.s 			page 23


 337 00a8 6671     		strb	r6, [r4, #5]
 338              	.L21:
 790:.\Generated_Source\PSoC5/USB_Bootloader_std.c ****                 USB_Bootloader_EP[cur_ep].bufferSize = pEP->bufferSize;
 339              		.loc 1 790 0 is_stmt 1
 340 00aa 0126     		movs	r6, #1
 341 00ac 264C     		ldr	r4, .L27+20
 342 00ae 0E55     		strb	r6, [r1, r4]
 791:.\Generated_Source\PSoC5/USB_Bootloader_std.c ****                 USB_Bootloader_EP[cur_ep].addr = pEP->addr;
 343              		.loc 1 791 0
 344 00b0 B0F804C0 		ldrh	ip, [r0, #4]
 345 00b4 234F     		ldr	r7, .L27+16
 346 00b6 02FA06FE 		lsl	lr, r2, r6
 347 00ba 0EEB0206 		add	r6, lr, r2
 348 00be B600     		lsls	r6, r6, #2
 349 00c0 BC19     		adds	r4, r7, r6
 350 00c2 A4F808C0 		strh	ip, [r4, #8]	@ movhi
 792:.\Generated_Source\PSoC5/USB_Bootloader_std.c ****                 USB_Bootloader_EP[cur_ep].attrib = pEP->attributes;
 351              		.loc 1 792 0
 352 00c6 90F802C0 		ldrb	ip, [r0, #2]	@ zero_extendqisi2
 353 00ca 84F804C0 		strb	ip, [r4, #4]
 793:.\Generated_Source\PSoC5/USB_Bootloader_std.c **** 
 354              		.loc 1 793 0
 355 00ce 90F803C0 		ldrb	ip, [r0, #3]	@ zero_extendqisi2
 356 00d2 07F806C0 		strb	ip, [r7, r6]
 796:.\Generated_Source\PSoC5/USB_Bootloader_std.c **** 
 357              		.loc 1 796 0
 358 00d6 0026     		movs	r6, #0
 359 00d8 E670     		strb	r6, [r4, #3]
 832:.\Generated_Source\PSoC5/USB_Bootloader_std.c ****                                                                 USB_Bootloader_EP[cur_ep].bufferSiz
 360              		.loc 1 832 0
 361 00da 2689     		ldrh	r6, [r4, #8]
 362 00dc C6F30726 		ubfx	r6, r6, #8, #8
 363 00e0 DFF870C0 		ldr	ip, .L27+32
 364 00e4 01F80C60 		strb	r6, [r1, ip]
 834:.\Generated_Source\PSoC5/USB_Bootloader_std.c ****                                                                 USB_Bootloader_EP[cur_ep].bufferSiz
 365              		.loc 1 834 0
 366 00e8 2689     		ldrh	r6, [r4, #8]
 367 00ea F6B2     		uxtb	r6, r6
 368 00ec 0CF1010C 		add	ip, ip, #1
 369 00f0 01F80C60 		strb	r6, [r1, ip]
 836:.\Generated_Source\PSoC5/USB_Bootloader_std.c ****                                                                 USB_Bootloader_EP[cur_ep].buffOffse
 370              		.loc 1 836 0
 371 00f4 E688     		ldrh	r6, [r4, #6]
 372 00f6 F6B2     		uxtb	r6, r6
 373 00f8 0CF1790C 		add	ip, ip, #121
 374 00fc 01F80C60 		strb	r6, [r1, ip]
 838:.\Generated_Source\PSoC5/USB_Bootloader_std.c ****                                                                 USB_Bootloader_EP[cur_ep].buffOffse
 375              		.loc 1 838 0
 376 0100 E688     		ldrh	r6, [r4, #6]
 377 0102 C6F30726 		ubfx	r6, r6, #8, #8
 378 0106 0CF1010C 		add	ip, ip, #1
 379 010a 01F80C60 		strb	r6, [r1, ip]
 840:.\Generated_Source\PSoC5/USB_Bootloader_std.c ****                                                                 USB_Bootloader_EP[cur_ep].buffOffse
 380              		.loc 1 840 0
 381 010e E488     		ldrh	r4, [r4, #6]
 382 0110 E4B2     		uxtb	r4, r4
 383 0112 0E4E     		ldr	r6, .L27+24
ARM GAS  C:\Users\Robert\AppData\Local\Temp\ccLuFIyc.s 			page 24


 384 0114 8C55     		strb	r4, [r1, r6]
 842:.\Generated_Source\PSoC5/USB_Bootloader_std.c ****                                                                 USB_Bootloader_EP[cur_ep].buffOffse
 385              		.loc 1 842 0
 386 0116 7244     		add	r2, r2, lr
 387              	.LVL27:
 388 0118 9200     		lsls	r2, r2, #2
 389 011a 3A44     		add	r2, r2, r7
 390 011c D288     		ldrh	r2, [r2, #6]
 391 011e C2F30722 		ubfx	r2, r2, #8, #8
 392 0122 0B4C     		ldr	r4, .L27+28
 393 0124 0A55     		strb	r2, [r1, r4]
 394              	.LVL28:
 395              	.L18:
 847:.\Generated_Source\PSoC5/USB_Bootloader_std.c ****         }
 396              		.loc 1 847 0 discriminator 2
 397 0126 0830     		adds	r0, r0, #8
 398              	.LVL29:
 764:.\Generated_Source\PSoC5/USB_Bootloader_std.c ****         {
 399              		.loc 1 764 0 discriminator 2
 400 0128 0133     		adds	r3, r3, #1
 401              	.LVL30:
 402 012a DBB2     		uxtb	r3, r3
 403              	.LVL31:
 404              	.L17:
 764:.\Generated_Source\PSoC5/USB_Bootloader_std.c ****         {
 405              		.loc 1 764 0 is_stmt 0 discriminator 1
 406 012c AB42     		cmp	r3, r5
 407 012e FFF478AF 		bcc	.L23
 408              	.LVL32:
 409              	.L15:
 410 0132 F8BD     		pop	{r3, r4, r5, r6, r7, pc}
 411              	.L28:
 412              		.align	2
 413              	.L27:
 414 0134 00000000 		.word	USB_Bootloader_configuration
 415 0138 00000000 		.word	USB_Bootloader_interfaceSetting
 416 013c 00000000 		.word	USB_Bootloader_interfaceSetting_last
 417 0140 04600040 		.word	1073766404
 418 0144 00000000 		.word	USB_Bootloader_EP
 419 0148 0E600040 		.word	1073766414
 420 014c 84600040 		.word	1073766532
 421 0150 85600040 		.word	1073766533
 422 0154 0C600040 		.word	1073766412
 423              		.cfi_endproc
 424              	.LFE3:
 425              		.size	USB_Bootloader_ConfigAltChanged, .-USB_Bootloader_ConfigAltChanged
 426              		.section	.text.USB_Bootloader_GetDeviceTablePtr,"ax",%progbits
 427              		.align	2
 428              		.global	USB_Bootloader_GetDeviceTablePtr
 429              		.thumb
 430              		.thumb_func
 431              		.type	USB_Bootloader_GetDeviceTablePtr, %function
 432              	USB_Bootloader_GetDeviceTablePtr:
 433              	.LFB5:
 892:.\Generated_Source\PSoC5/USB_Bootloader_std.c **** 
 893:.\Generated_Source\PSoC5/USB_Bootloader_std.c **** 
 894:.\Generated_Source\PSoC5/USB_Bootloader_std.c **** /*******************************************************************************
ARM GAS  C:\Users\Robert\AppData\Local\Temp\ccLuFIyc.s 			page 25


 895:.\Generated_Source\PSoC5/USB_Bootloader_std.c **** * Function Name: USB_Bootloader_GetDeviceTablePtr
 896:.\Generated_Source\PSoC5/USB_Bootloader_std.c **** ********************************************************************************
 897:.\Generated_Source\PSoC5/USB_Bootloader_std.c **** *
 898:.\Generated_Source\PSoC5/USB_Bootloader_std.c **** * Summary:
 899:.\Generated_Source\PSoC5/USB_Bootloader_std.c **** *  This routine returns a pointer to the Device table
 900:.\Generated_Source\PSoC5/USB_Bootloader_std.c **** *
 901:.\Generated_Source\PSoC5/USB_Bootloader_std.c **** * Parameters:
 902:.\Generated_Source\PSoC5/USB_Bootloader_std.c **** *  None.
 903:.\Generated_Source\PSoC5/USB_Bootloader_std.c **** *
 904:.\Generated_Source\PSoC5/USB_Bootloader_std.c **** * Return:
 905:.\Generated_Source\PSoC5/USB_Bootloader_std.c **** *  Device Table pointer
 906:.\Generated_Source\PSoC5/USB_Bootloader_std.c **** *
 907:.\Generated_Source\PSoC5/USB_Bootloader_std.c **** *******************************************************************************/
 908:.\Generated_Source\PSoC5/USB_Bootloader_std.c **** const T_USB_Bootloader_LUT CYCODE *USB_Bootloader_GetDeviceTablePtr(void)
 909:.\Generated_Source\PSoC5/USB_Bootloader_std.c ****                                                             
 910:.\Generated_Source\PSoC5/USB_Bootloader_std.c **** {
 434              		.loc 1 910 0 is_stmt 1
 435              		.cfi_startproc
 436              		@ args = 0, pretend = 0, frame = 0
 437              		@ frame_needed = 0, uses_anonymous_args = 0
 438              		@ link register save eliminated.
 911:.\Generated_Source\PSoC5/USB_Bootloader_std.c ****     /* Device Table */
 912:.\Generated_Source\PSoC5/USB_Bootloader_std.c ****     return( (const T_USB_Bootloader_LUT CYCODE *) USB_Bootloader_TABLE[USB_Bootloader_device].p_lis
 439              		.loc 1 912 0
 440 0000 034B     		ldr	r3, .L30
 441 0002 1A78     		ldrb	r2, [r3]	@ zero_extendqisi2
 442 0004 034B     		ldr	r3, .L30+4
 443 0006 03EBC203 		add	r3, r3, r2, lsl #3
 913:.\Generated_Source\PSoC5/USB_Bootloader_std.c **** }
 444              		.loc 1 913 0
 445 000a 5868     		ldr	r0, [r3, #4]
 446 000c 7047     		bx	lr
 447              	.L31:
 448 000e 00BF     		.align	2
 449              	.L30:
 450 0010 00000000 		.word	USB_Bootloader_device
 451 0014 00000000 		.word	USB_Bootloader_TABLE
 452              		.cfi_endproc
 453              	.LFE5:
 454              		.size	USB_Bootloader_GetDeviceTablePtr, .-USB_Bootloader_GetDeviceTablePtr
 455              		.section	.text.USB_Bootloader_GetInterfaceClassTablePtr,"ax",%progbits
 456              		.align	2
 457              		.global	USB_Bootloader_GetInterfaceClassTablePtr
 458              		.thumb
 459              		.thumb_func
 460              		.type	USB_Bootloader_GetInterfaceClassTablePtr, %function
 461              	USB_Bootloader_GetInterfaceClassTablePtr:
 462              	.LFB6:
 914:.\Generated_Source\PSoC5/USB_Bootloader_std.c **** 
 915:.\Generated_Source\PSoC5/USB_Bootloader_std.c **** 
 916:.\Generated_Source\PSoC5/USB_Bootloader_std.c **** /*******************************************************************************
 917:.\Generated_Source\PSoC5/USB_Bootloader_std.c **** * Function Name: USB_GetInterfaceClassTablePtr
 918:.\Generated_Source\PSoC5/USB_Bootloader_std.c **** ********************************************************************************
 919:.\Generated_Source\PSoC5/USB_Bootloader_std.c **** *
 920:.\Generated_Source\PSoC5/USB_Bootloader_std.c **** * Summary:
 921:.\Generated_Source\PSoC5/USB_Bootloader_std.c **** *  This routine returns Interface Class table pointer, which contains
 922:.\Generated_Source\PSoC5/USB_Bootloader_std.c **** *  the relation between interface number and interface class.
ARM GAS  C:\Users\Robert\AppData\Local\Temp\ccLuFIyc.s 			page 26


 923:.\Generated_Source\PSoC5/USB_Bootloader_std.c **** *
 924:.\Generated_Source\PSoC5/USB_Bootloader_std.c **** * Parameters:
 925:.\Generated_Source\PSoC5/USB_Bootloader_std.c **** *  None.
 926:.\Generated_Source\PSoC5/USB_Bootloader_std.c **** *
 927:.\Generated_Source\PSoC5/USB_Bootloader_std.c **** * Return:
 928:.\Generated_Source\PSoC5/USB_Bootloader_std.c **** *  Interface Class table pointer.
 929:.\Generated_Source\PSoC5/USB_Bootloader_std.c **** *
 930:.\Generated_Source\PSoC5/USB_Bootloader_std.c **** *******************************************************************************/
 931:.\Generated_Source\PSoC5/USB_Bootloader_std.c **** const uint8 CYCODE *USB_Bootloader_GetInterfaceClassTablePtr(void)
 932:.\Generated_Source\PSoC5/USB_Bootloader_std.c ****                                                         
 933:.\Generated_Source\PSoC5/USB_Bootloader_std.c **** {
 463              		.loc 1 933 0
 464              		.cfi_startproc
 465              		@ args = 0, pretend = 0, frame = 0
 466              		@ frame_needed = 0, uses_anonymous_args = 0
 467 0000 08B5     		push	{r3, lr}
 468              		.cfi_def_cfa_offset 8
 469              		.cfi_offset 3, -8
 470              		.cfi_offset 14, -4
 934:.\Generated_Source\PSoC5/USB_Bootloader_std.c ****     const T_USB_Bootloader_LUT CYCODE *pTmp;
 935:.\Generated_Source\PSoC5/USB_Bootloader_std.c ****     const uint8 CYCODE *pInterfaceClass;
 936:.\Generated_Source\PSoC5/USB_Bootloader_std.c ****     uint8 currentInterfacesNum;
 937:.\Generated_Source\PSoC5/USB_Bootloader_std.c **** 
 938:.\Generated_Source\PSoC5/USB_Bootloader_std.c ****     pTmp = USB_Bootloader_GetConfigTablePtr(USB_Bootloader_configuration - 1u);
 471              		.loc 1 938 0
 472 0002 074B     		ldr	r3, .L36
 473 0004 1878     		ldrb	r0, [r3]	@ zero_extendqisi2
 474 0006 0138     		subs	r0, r0, #1
 475 0008 C0B2     		uxtb	r0, r0
 476 000a FFF7FEFF 		bl	USB_Bootloader_GetConfigTablePtr
 477              	.LVL33:
 939:.\Generated_Source\PSoC5/USB_Bootloader_std.c ****     if( pTmp != NULL )
 478              		.loc 1 939 0
 479 000e 28B1     		cbz	r0, .L34
 940:.\Generated_Source\PSoC5/USB_Bootloader_std.c ****     {
 941:.\Generated_Source\PSoC5/USB_Bootloader_std.c ****         currentInterfacesNum  = ((const uint8 *) pTmp->p_list)[USB_Bootloader_CONFIG_DESCR_NUM_INTE
 480              		.loc 1 941 0
 481 0010 4268     		ldr	r2, [r0, #4]
 482 0012 1279     		ldrb	r2, [r2, #4]	@ zero_extendqisi2
 483              	.LVL34:
 942:.\Generated_Source\PSoC5/USB_Bootloader_std.c ****         /* Third entry in the LUT starts the Interface Table pointers */
 943:.\Generated_Source\PSoC5/USB_Bootloader_std.c ****         /* The INTERFACE_CLASS table is located after all interfaces */
 944:.\Generated_Source\PSoC5/USB_Bootloader_std.c ****         pTmp = &pTmp[currentInterfacesNum + 2u];
 484              		.loc 1 944 0
 485 0014 00EBC203 		add	r3, r0, r2, lsl #3
 486              	.LVL35:
 945:.\Generated_Source\PSoC5/USB_Bootloader_std.c ****         pInterfaceClass = (const uint8 CYCODE *) pTmp->p_list;
 487              		.loc 1 945 0
 488 0018 5869     		ldr	r0, [r3, #20]
 489              	.LVL36:
 490 001a 08BD     		pop	{r3, pc}
 491              	.LVL37:
 492              	.L34:
 946:.\Generated_Source\PSoC5/USB_Bootloader_std.c ****     }
 947:.\Generated_Source\PSoC5/USB_Bootloader_std.c ****     else
 948:.\Generated_Source\PSoC5/USB_Bootloader_std.c ****     {
 949:.\Generated_Source\PSoC5/USB_Bootloader_std.c ****         pInterfaceClass = (const uint8 CYCODE *) NULL;
ARM GAS  C:\Users\Robert\AppData\Local\Temp\ccLuFIyc.s 			page 27


 493              		.loc 1 949 0
 494 001c 0020     		movs	r0, #0
 495              	.LVL38:
 950:.\Generated_Source\PSoC5/USB_Bootloader_std.c ****     }
 951:.\Generated_Source\PSoC5/USB_Bootloader_std.c **** 
 952:.\Generated_Source\PSoC5/USB_Bootloader_std.c ****     return( pInterfaceClass );
 953:.\Generated_Source\PSoC5/USB_Bootloader_std.c **** }
 496              		.loc 1 953 0
 497 001e 08BD     		pop	{r3, pc}
 498              	.L37:
 499              		.align	2
 500              	.L36:
 501 0020 00000000 		.word	USB_Bootloader_configuration
 502              		.cfi_endproc
 503              	.LFE6:
 504              		.size	USB_Bootloader_GetInterfaceClassTablePtr, .-USB_Bootloader_GetInterfaceClassTablePtr
 505              		.section	.text.USB_Bootloader_Config,"ax",%progbits
 506              		.align	2
 507              		.global	USB_Bootloader_Config
 508              		.thumb
 509              		.thumb_func
 510              		.type	USB_Bootloader_Config, %function
 511              	USB_Bootloader_Config:
 512              	.LFB2:
 494:.\Generated_Source\PSoC5/USB_Bootloader_std.c ****     uint8 ep;
 513              		.loc 1 494 0
 514              		.cfi_startproc
 515              		@ args = 0, pretend = 0, frame = 0
 516              		@ frame_needed = 0, uses_anonymous_args = 0
 517              	.LVL39:
 518 0000 F8B5     		push	{r3, r4, r5, r6, r7, lr}
 519              		.cfi_def_cfa_offset 24
 520              		.cfi_offset 3, -24
 521              		.cfi_offset 4, -20
 522              		.cfi_offset 5, -16
 523              		.cfi_offset 6, -12
 524              		.cfi_offset 7, -8
 525              		.cfi_offset 14, -4
 526              	.LVL40:
 508:.\Generated_Source\PSoC5/USB_Bootloader_std.c ****     {
 527              		.loc 1 508 0
 528 0002 0022     		movs	r2, #0
 529 0004 0EE0     		b	.L39
 530              	.LVL41:
 531              	.L40:
 510:.\Generated_Source\PSoC5/USB_Bootloader_std.c ****         USB_Bootloader_EP[ep].hwEpState = 0u;
 532              		.loc 1 510 0 discriminator 3
 533 0006 6B4E     		ldr	r6, .L65
 534 0008 5300     		lsls	r3, r2, #1
 535 000a 9D18     		adds	r5, r3, r2
 536 000c AD00     		lsls	r5, r5, #2
 537 000e 7419     		adds	r4, r6, r5
 538 0010 0021     		movs	r1, #0
 539 0012 7155     		strb	r1, [r6, r5]
 511:.\Generated_Source\PSoC5/USB_Bootloader_std.c ****         USB_Bootloader_EP[ep].apiEpState = USB_Bootloader_NO_EVENT_PENDING;
 540              		.loc 1 511 0 discriminator 3
 541 0014 A170     		strb	r1, [r4, #2]
ARM GAS  C:\Users\Robert\AppData\Local\Temp\ccLuFIyc.s 			page 28


 512:.\Generated_Source\PSoC5/USB_Bootloader_std.c ****         USB_Bootloader_EP[ep].epToggle = 0u;
 542              		.loc 1 512 0 discriminator 3
 543 0016 6170     		strb	r1, [r4, #1]
 513:.\Generated_Source\PSoC5/USB_Bootloader_std.c ****         USB_Bootloader_EP[ep].epMode = USB_Bootloader_MODE_DISABLE;
 544              		.loc 1 513 0 discriminator 3
 545 0018 E170     		strb	r1, [r4, #3]
 514:.\Generated_Source\PSoC5/USB_Bootloader_std.c ****         USB_Bootloader_EP[ep].bufferSize = 0u;
 546              		.loc 1 514 0 discriminator 3
 547 001a 6171     		strb	r1, [r4, #5]
 515:.\Generated_Source\PSoC5/USB_Bootloader_std.c ****         USB_Bootloader_EP[ep].interface = 0u;
 548              		.loc 1 515 0 discriminator 3
 549 001c 2181     		strh	r1, [r4, #8]	@ movhi
 516:.\Generated_Source\PSoC5/USB_Bootloader_std.c **** 
 550              		.loc 1 516 0 discriminator 3
 551 001e A172     		strb	r1, [r4, #10]
 508:.\Generated_Source\PSoC5/USB_Bootloader_std.c ****     {
 552              		.loc 1 508 0 discriminator 3
 553 0020 0132     		adds	r2, r2, #1
 554              	.LVL42:
 555 0022 D2B2     		uxtb	r2, r2
 556              	.LVL43:
 557              	.L39:
 508:.\Generated_Source\PSoC5/USB_Bootloader_std.c ****     {
 558              		.loc 1 508 0 is_stmt 0 discriminator 1
 559 0024 082A     		cmp	r2, #8
 560 0026 EED9     		bls	.L40
 521:.\Generated_Source\PSoC5/USB_Bootloader_std.c ****     {
 561              		.loc 1 521 0 is_stmt 1
 562 0028 40B9     		cbnz	r0, .L61
 563 002a 0AE0     		b	.L42
 564              	.LVL44:
 565              	.L43:
 525:.\Generated_Source\PSoC5/USB_Bootloader_std.c ****             USB_Bootloader_interfaceSetting_last[i] = 0x00u;
 566              		.loc 1 525 0 discriminator 3
 567 002c 0022     		movs	r2, #0
 568 002e 6249     		ldr	r1, .L65+4
 569 0030 CA54     		strb	r2, [r1, r3]
 526:.\Generated_Source\PSoC5/USB_Bootloader_std.c ****         }
 570              		.loc 1 526 0 discriminator 3
 571 0032 6249     		ldr	r1, .L65+8
 572 0034 CA54     		strb	r2, [r1, r3]
 523:.\Generated_Source\PSoC5/USB_Bootloader_std.c ****         {
 573              		.loc 1 523 0 discriminator 3
 574 0036 0133     		adds	r3, r3, #1
 575              	.LVL45:
 576 0038 DBB2     		uxtb	r3, r3
 577              	.LVL46:
 578 003a 00E0     		b	.L41
 579              	.LVL47:
 580              	.L61:
 581 003c 0023     		movs	r3, #0
 582              	.LVL48:
 583              	.L41:
 523:.\Generated_Source\PSoC5/USB_Bootloader_std.c ****         {
 584              		.loc 1 523 0 is_stmt 0 discriminator 1
 585 003e 002B     		cmp	r3, #0
 586 0040 F4D0     		beq	.L43
ARM GAS  C:\Users\Robert\AppData\Local\Temp\ccLuFIyc.s 			page 29


 587              	.LVL49:
 588              	.L42:
 531:.\Generated_Source\PSoC5/USB_Bootloader_std.c ****     {
 589              		.loc 1 531 0 is_stmt 1
 590 0042 5F4B     		ldr	r3, .L65+12
 591 0044 1B78     		ldrb	r3, [r3]	@ zero_extendqisi2
 592 0046 13F0FF0F 		tst	r3, #255
 593 004a 00F0B280 		beq	.L38
 533:.\Generated_Source\PSoC5/USB_Bootloader_std.c ****         /* Set Power status for current configuration */
 594              		.loc 1 533 0
 595 004e 5C4B     		ldr	r3, .L65+12
 596 0050 1878     		ldrb	r0, [r3]	@ zero_extendqisi2
 597              	.LVL50:
 598 0052 0138     		subs	r0, r0, #1
 599 0054 C0B2     		uxtb	r0, r0
 600 0056 FFF7FEFF 		bl	USB_Bootloader_GetConfigTablePtr
 601              	.LVL51:
 535:.\Generated_Source\PSoC5/USB_Bootloader_std.c ****         if((pDescr[USB_Bootloader_CONFIG_DESCR_ATTRIB] & USB_Bootloader_CONFIG_DESCR_ATTRIB_SELF_PO
 602              		.loc 1 535 0
 603 005a 4368     		ldr	r3, [r0, #4]
 604              	.LVL52:
 536:.\Generated_Source\PSoC5/USB_Bootloader_std.c ****         {
 605              		.loc 1 536 0
 606 005c DB79     		ldrb	r3, [r3, #7]	@ zero_extendqisi2
 607              	.LVL53:
 608 005e 13F0400F 		tst	r3, #64
 609 0062 05D0     		beq	.L45
 538:.\Generated_Source\PSoC5/USB_Bootloader_std.c ****         }
 610              		.loc 1 538 0
 611 0064 574A     		ldr	r2, .L65+16
 612 0066 1378     		ldrb	r3, [r2]	@ zero_extendqisi2
 613 0068 43F00103 		orr	r3, r3, #1
 614 006c 1370     		strb	r3, [r2]
 615 006e 04E0     		b	.L46
 616              	.L45:
 542:.\Generated_Source\PSoC5/USB_Bootloader_std.c ****         }
 617              		.loc 1 542 0
 618 0070 544A     		ldr	r2, .L65+16
 619 0072 1378     		ldrb	r3, [r2]	@ zero_extendqisi2
 620 0074 03F0FE03 		and	r3, r3, #254
 621 0078 1370     		strb	r3, [r2]
 622              	.L46:
 623              	.LVL54:
 546:.\Generated_Source\PSoC5/USB_Bootloader_std.c **** 
 624              		.loc 1 546 0
 625 007a 057A     		ldrb	r5, [r0, #8]	@ zero_extendqisi2
 626              	.LVL55:
 613:.\Generated_Source\PSoC5/USB_Bootloader_std.c ****             {
 627              		.loc 1 613 0
 628 007c 0124     		movs	r4, #1
 629 007e 6EE0     		b	.L47
 630              	.LVL56:
 631              	.L56:
 616:.\Generated_Source\PSoC5/USB_Bootloader_std.c ****                 /* Find max length for each EP and select it (length could be different in differen
 632              		.loc 1 616 0
 633 0080 C168     		ldr	r1, [r0, #12]
 634              	.LVL57:
ARM GAS  C:\Users\Robert\AppData\Local\Temp\ccLuFIyc.s 			page 30


 619:.\Generated_Source\PSoC5/USB_Bootloader_std.c ****                 {
 635              		.loc 1 619 0
 636 0082 0023     		movs	r3, #0
 637 0084 67E0     		b	.L48
 638              	.LVL58:
 639              	.L55:
 622:.\Generated_Source\PSoC5/USB_Bootloader_std.c ****                     {
 640              		.loc 1 622 0
 641 0086 8A78     		ldrb	r2, [r1, #2]	@ zero_extendqisi2
 642 0088 02F07F02 		and	r2, r2, #127
 643 008c 9442     		cmp	r4, r2
 644 008e 5FD1     		bne	.L49
 624:.\Generated_Source\PSoC5/USB_Bootloader_std.c ****                         {
 645              		.loc 1 624 0
 646 0090 2646     		mov	r6, r4
 647 0092 04EB4402 		add	r2, r4, r4, lsl #1
 648 0096 9200     		lsls	r2, r2, #2
 649 0098 464F     		ldr	r7, .L65
 650 009a 3A44     		add	r2, r2, r7
 651 009c 1289     		ldrh	r2, [r2, #8]
 652 009e 92B2     		uxth	r2, r2
 653 00a0 8F88     		ldrh	r7, [r1, #4]
 654 00a2 BA42     		cmp	r2, r7
 655 00a4 06D2     		bcs	.L50
 626:.\Generated_Source\PSoC5/USB_Bootloader_std.c ****                         }
 656              		.loc 1 626 0
 657 00a6 04EB4402 		add	r2, r4, r4, lsl #1
 658 00aa 9200     		lsls	r2, r2, #2
 659 00ac DFF804E1 		ldr	lr, .L65
 660 00b0 7244     		add	r2, r2, lr
 661 00b2 1781     		strh	r7, [r2, #8]	@ movhi
 662              	.L50:
 629:.\Generated_Source\PSoC5/USB_Bootloader_std.c ****                         {
 663              		.loc 1 629 0
 664 00b4 0A78     		ldrb	r2, [r1]	@ zero_extendqisi2
 665 00b6 404F     		ldr	r7, .L65+4
 666 00b8 BA5C     		ldrb	r2, [r7, r2]	@ zero_extendqisi2
 667 00ba D2B2     		uxtb	r2, r2
 668 00bc 4F78     		ldrb	r7, [r1, #1]	@ zero_extendqisi2
 669 00be BA42     		cmp	r2, r7
 670 00c0 46D1     		bne	.L49
 631:.\Generated_Source\PSoC5/USB_Bootloader_std.c ****                             if ((pEP->addr & USB_Bootloader_DIR_IN) != 0u)
 671              		.loc 1 631 0
 672 00c2 CF78     		ldrb	r7, [r1, #3]	@ zero_extendqisi2
 673 00c4 07F00307 		and	r7, r7, #3
 674              	.LVL59:
 632:.\Generated_Source\PSoC5/USB_Bootloader_std.c ****                             {
 675              		.loc 1 632 0
 676 00c8 91F90220 		ldrsb	r2, [r1, #2]
 677 00cc 002A     		cmp	r2, #0
 678 00ce 18DA     		bge	.L51
 635:.\Generated_Source\PSoC5/USB_Bootloader_std.c ****                                 USB_Bootloader_EP[i].epMode = (epType == USB_Bootloader_EP_TYPE_ISO
 679              		.loc 1 635 0
 680 00d0 06EB4602 		add	r2, r6, r6, lsl #1
 681 00d4 9200     		lsls	r2, r2, #2
 682 00d6 DFF8DCE0 		ldr	lr, .L65
 683 00da 7244     		add	r2, r2, lr
ARM GAS  C:\Users\Robert\AppData\Local\Temp\ccLuFIyc.s 			page 31


 684 00dc 4FF0010E 		mov	lr, #1
 685 00e0 82F801E0 		strb	lr, [r2, #1]
 636:.\Generated_Source\PSoC5/USB_Bootloader_std.c ****                                                         USB_Bootloader_MODE_ISO_IN : USB_Bootloader
 686              		.loc 1 636 0
 687 00e4 7745     		cmp	r7, lr
 688 00e6 02D1     		bne	.L62
 689 00e8 4FF0070E 		mov	lr, #7
 690 00ec 01E0     		b	.L52
 691              	.L62:
 692 00ee 4FF00D0E 		mov	lr, #13
 693              	.L52:
 636:.\Generated_Source\PSoC5/USB_Bootloader_std.c ****                                                         USB_Bootloader_MODE_ISO_IN : USB_Bootloader
 694              		.loc 1 636 0 is_stmt 0 discriminator 4
 695 00f2 06EB4602 		add	r2, r6, r6, lsl #1
 696 00f6 9200     		lsls	r2, r2, #2
 697 00f8 2E4F     		ldr	r7, .L65
 698              	.LVL60:
 699 00fa 3A44     		add	r2, r2, r7
 700 00fc 82F805E0 		strb	lr, [r2, #5]
 701 0100 17E0     		b	.L53
 702              	.LVL61:
 703              	.L51:
 659:.\Generated_Source\PSoC5/USB_Bootloader_std.c ****                                 USB_Bootloader_EP[i].epMode = (epType == USB_Bootloader_EP_TYPE_ISO
 704              		.loc 1 659 0 is_stmt 1
 705 0102 06EB4602 		add	r2, r6, r6, lsl #1
 706 0106 9200     		lsls	r2, r2, #2
 707 0108 DFF8A8E0 		ldr	lr, .L65
 708 010c 7244     		add	r2, r2, lr
 709 010e 4FF0000E 		mov	lr, #0
 710 0112 82F801E0 		strb	lr, [r2, #1]
 660:.\Generated_Source\PSoC5/USB_Bootloader_std.c ****                                                     USB_Bootloader_MODE_ISO_OUT : USB_Bootloader_MO
 711              		.loc 1 660 0
 712 0116 012F     		cmp	r7, #1
 713 0118 02D1     		bne	.L63
 714 011a 4FF0050E 		mov	lr, #5
 715 011e 01E0     		b	.L54
 716              	.L63:
 717 0120 4FF0090E 		mov	lr, #9
 718              	.L54:
 660:.\Generated_Source\PSoC5/USB_Bootloader_std.c ****                                                     USB_Bootloader_MODE_ISO_OUT : USB_Bootloader_MO
 719              		.loc 1 660 0 is_stmt 0 discriminator 4
 720 0124 06EB4602 		add	r2, r6, r6, lsl #1
 721 0128 9200     		lsls	r2, r2, #2
 722 012a 224F     		ldr	r7, .L65
 723              	.LVL62:
 724 012c 3A44     		add	r2, r2, r7
 725 012e 82F805E0 		strb	lr, [r2, #5]
 726              	.L53:
 680:.\Generated_Source\PSoC5/USB_Bootloader_std.c ****                             USB_Bootloader_EP[i].attrib = pEP->attributes;
 727              		.loc 1 680 0 is_stmt 1
 728 0132 91F802C0 		ldrb	ip, [r1, #2]	@ zero_extendqisi2
 729 0136 1F4F     		ldr	r7, .L65
 730 0138 4FEA460E 		lsl	lr, r6, #1
 731 013c 0EEB0602 		add	r2, lr, r6
 732 0140 9200     		lsls	r2, r2, #2
 733 0142 3A44     		add	r2, r2, r7
 734 0144 82F804C0 		strb	ip, [r2, #4]
ARM GAS  C:\Users\Robert\AppData\Local\Temp\ccLuFIyc.s 			page 32


 681:.\Generated_Source\PSoC5/USB_Bootloader_std.c **** 
 735              		.loc 1 681 0
 736 0148 CA78     		ldrb	r2, [r1, #3]	@ zero_extendqisi2
 737 014a 7644     		add	r6, r6, lr
 738 014c B600     		lsls	r6, r6, #2
 739 014e BA55     		strb	r2, [r7, r6]
 740              	.L49:
 688:.\Generated_Source\PSoC5/USB_Bootloader_std.c ****                 }
 741              		.loc 1 688 0 discriminator 2
 742 0150 0831     		adds	r1, r1, #8
 743              	.LVL63:
 619:.\Generated_Source\PSoC5/USB_Bootloader_std.c ****                 {
 744              		.loc 1 619 0 discriminator 2
 745 0152 0133     		adds	r3, r3, #1
 746              	.LVL64:
 747 0154 DBB2     		uxtb	r3, r3
 748              	.LVL65:
 749              	.L48:
 619:.\Generated_Source\PSoC5/USB_Bootloader_std.c ****                 {
 750              		.loc 1 619 0 is_stmt 0 discriminator 1
 751 0156 AB42     		cmp	r3, r5
 752 0158 95D3     		bcc	.L55
 613:.\Generated_Source\PSoC5/USB_Bootloader_std.c ****             {
 753              		.loc 1 613 0 is_stmt 1 discriminator 2
 754 015a 0134     		adds	r4, r4, #1
 755              	.LVL66:
 756 015c E4B2     		uxtb	r4, r4
 757              	.LVL67:
 758              	.L47:
 613:.\Generated_Source\PSoC5/USB_Bootloader_std.c ****             {
 759              		.loc 1 613 0 is_stmt 0 discriminator 1
 760 015e 082C     		cmp	r4, #8
 761 0160 8ED9     		bls	.L56
 698:.\Generated_Source\PSoC5/USB_Bootloader_std.c ****         for (i = 0u; i < ep; i++)
 762              		.loc 1 698 0 is_stmt 1
 763 0162 C068     		ldr	r0, [r0, #12]
 764              	.LVL68:
 699:.\Generated_Source\PSoC5/USB_Bootloader_std.c ****         {
 765              		.loc 1 699 0
 766 0164 0022     		movs	r2, #0
 767 0166 0CE0     		b	.L57
 768              	.LVL69:
 769              	.L58:
 702:.\Generated_Source\PSoC5/USB_Bootloader_std.c ****             pEP = &pEP[1u];
 770              		.loc 1 702 0 discriminator 3
 771 0168 8378     		ldrb	r3, [r0, #2]	@ zero_extendqisi2
 772 016a 03F07F03 		and	r3, r3, #127
 773 016e 10F8084B 		ldrb	r4, [r0], #8	@ zero_extendqisi2
 774              	.LVL70:
 775 0172 03EB4303 		add	r3, r3, r3, lsl #1
 776 0176 9B00     		lsls	r3, r3, #2
 777 0178 1349     		ldr	r1, .L65+20
 778 017a 0B44     		add	r3, r3, r1
 779 017c 9C70     		strb	r4, [r3, #2]
 780              	.LVL71:
 699:.\Generated_Source\PSoC5/USB_Bootloader_std.c ****         {
 781              		.loc 1 699 0 discriminator 3
ARM GAS  C:\Users\Robert\AppData\Local\Temp\ccLuFIyc.s 			page 33


 782 017e 0132     		adds	r2, r2, #1
 783              	.LVL72:
 784 0180 D2B2     		uxtb	r2, r2
 785              	.LVL73:
 786              	.L57:
 699:.\Generated_Source\PSoC5/USB_Bootloader_std.c ****         {
 787              		.loc 1 699 0 is_stmt 0 discriminator 1
 788 0182 AA42     		cmp	r2, r5
 789 0184 F0D3     		bcc	.L58
 706:.\Generated_Source\PSoC5/USB_Bootloader_std.c ****         /* Set the endpoint buffer addresses */
 790              		.loc 1 706 0 is_stmt 1
 791 0186 FFF7FEFF 		bl	USB_Bootloader_GetInterfaceClassTablePtr
 792              	.LVL74:
 793 018a 104B     		ldr	r3, .L65+24
 794 018c 1860     		str	r0, [r3]
 795              	.LVL75:
 501:.\Generated_Source\PSoC5/USB_Bootloader_std.c ****     #endif /*  USB_Bootloader_EP_MM != USB_Bootloader__EP_DMAAUTO */
 796              		.loc 1 501 0
 797 018e 0020     		movs	r0, #0
 710:.\Generated_Source\PSoC5/USB_Bootloader_std.c ****             {
 798              		.loc 1 710 0
 799 0190 0122     		movs	r2, #1
 800 0192 0AE0     		b	.L59
 801              	.LVL76:
 802              	.L60:
 712:.\Generated_Source\PSoC5/USB_Bootloader_std.c ****                  buffCount += USB_Bootloader_EP[ep].bufferSize;
 803              		.loc 1 712 0 discriminator 3
 804 0194 074C     		ldr	r4, .L65
 805 0196 5300     		lsls	r3, r2, #1
 806 0198 9918     		adds	r1, r3, r2
 807 019a 8900     		lsls	r1, r1, #2
 808 019c 2144     		add	r1, r1, r4
 809 019e C880     		strh	r0, [r1, #6]	@ movhi
 713:.\Generated_Source\PSoC5/USB_Bootloader_std.c ****             }
 810              		.loc 1 713 0 discriminator 3
 811 01a0 0B89     		ldrh	r3, [r1, #8]
 812 01a2 1844     		add	r0, r0, r3
 813              	.LVL77:
 814 01a4 80B2     		uxth	r0, r0
 815              	.LVL78:
 710:.\Generated_Source\PSoC5/USB_Bootloader_std.c ****             {
 816              		.loc 1 710 0 discriminator 3
 817 01a6 0132     		adds	r2, r2, #1
 818              	.LVL79:
 819 01a8 D2B2     		uxtb	r2, r2
 820              	.LVL80:
 821              	.L59:
 710:.\Generated_Source\PSoC5/USB_Bootloader_std.c ****             {
 822              		.loc 1 710 0 is_stmt 0 discriminator 1
 823 01aa 082A     		cmp	r2, #8
 824 01ac F2D9     		bls	.L60
 718:.\Generated_Source\PSoC5/USB_Bootloader_std.c ****     } /* USB_Bootloader_configuration > 0 */
 825              		.loc 1 718 0 is_stmt 1
 826 01ae FFF7FEFF 		bl	USB_Bootloader_ConfigReg
 827              	.LVL81:
 828              	.L38:
 829 01b2 F8BD     		pop	{r3, r4, r5, r6, r7, pc}
ARM GAS  C:\Users\Robert\AppData\Local\Temp\ccLuFIyc.s 			page 34


 830              	.L66:
 831              		.align	2
 832              	.L65:
 833 01b4 00000000 		.word	USB_Bootloader_EP
 834 01b8 00000000 		.word	USB_Bootloader_interfaceSetting
 835 01bc 00000000 		.word	USB_Bootloader_interfaceSetting_last
 836 01c0 00000000 		.word	USB_Bootloader_configuration
 837 01c4 00000000 		.word	USB_Bootloader_deviceStatus
 838 01c8 08000000 		.word	USB_Bootloader_EP+8
 839 01cc 00000000 		.word	USB_Bootloader_interfaceClass
 840              		.cfi_endproc
 841              	.LFE2:
 842              		.size	USB_Bootloader_Config, .-USB_Bootloader_Config
 843              		.section	.text.USB_Bootloader_TerminateEP,"ax",%progbits
 844              		.align	2
 845              		.global	USB_Bootloader_TerminateEP
 846              		.thumb
 847              		.thumb_func
 848              		.type	USB_Bootloader_TerminateEP, %function
 849              	USB_Bootloader_TerminateEP:
 850              	.LFB7:
 954:.\Generated_Source\PSoC5/USB_Bootloader_std.c **** 
 955:.\Generated_Source\PSoC5/USB_Bootloader_std.c **** 
 956:.\Generated_Source\PSoC5/USB_Bootloader_std.c **** /*******************************************************************************
 957:.\Generated_Source\PSoC5/USB_Bootloader_std.c **** * Function Name: USB_Bootloader_TerminateEP
 958:.\Generated_Source\PSoC5/USB_Bootloader_std.c **** ********************************************************************************
 959:.\Generated_Source\PSoC5/USB_Bootloader_std.c **** *
 960:.\Generated_Source\PSoC5/USB_Bootloader_std.c **** * Summary:
 961:.\Generated_Source\PSoC5/USB_Bootloader_std.c **** *  This function terminates the specified USBFS endpoint.
 962:.\Generated_Source\PSoC5/USB_Bootloader_std.c **** *  This function should be used before endpoint reconfiguration.
 963:.\Generated_Source\PSoC5/USB_Bootloader_std.c **** *
 964:.\Generated_Source\PSoC5/USB_Bootloader_std.c **** * Parameters:
 965:.\Generated_Source\PSoC5/USB_Bootloader_std.c **** *  Endpoint number.
 966:.\Generated_Source\PSoC5/USB_Bootloader_std.c **** *
 967:.\Generated_Source\PSoC5/USB_Bootloader_std.c **** * Return:
 968:.\Generated_Source\PSoC5/USB_Bootloader_std.c **** *  None.
 969:.\Generated_Source\PSoC5/USB_Bootloader_std.c **** *
 970:.\Generated_Source\PSoC5/USB_Bootloader_std.c **** * Reentrant:
 971:.\Generated_Source\PSoC5/USB_Bootloader_std.c **** *  No.
 972:.\Generated_Source\PSoC5/USB_Bootloader_std.c **** *
 973:.\Generated_Source\PSoC5/USB_Bootloader_std.c **** *******************************************************************************/
 974:.\Generated_Source\PSoC5/USB_Bootloader_std.c **** void USB_Bootloader_TerminateEP(uint8 ep) 
 975:.\Generated_Source\PSoC5/USB_Bootloader_std.c **** {
 851              		.loc 1 975 0
 852              		.cfi_startproc
 853              		@ args = 0, pretend = 0, frame = 0
 854              		@ frame_needed = 0, uses_anonymous_args = 0
 855              		@ link register save eliminated.
 856              	.LVL82:
 976:.\Generated_Source\PSoC5/USB_Bootloader_std.c ****     uint8 ri;
 977:.\Generated_Source\PSoC5/USB_Bootloader_std.c **** 
 978:.\Generated_Source\PSoC5/USB_Bootloader_std.c ****     ep &= USB_Bootloader_DIR_UNUSED;
 857              		.loc 1 978 0
 858 0000 00F07F00 		and	r0, r0, #127
 859              	.LVL83:
 979:.\Generated_Source\PSoC5/USB_Bootloader_std.c ****     ri = ((ep - USB_Bootloader_EP1) << USB_Bootloader_EPX_CNTX_ADDR_SHIFT);
 860              		.loc 1 979 0
ARM GAS  C:\Users\Robert\AppData\Local\Temp\ccLuFIyc.s 			page 35


 861 0004 431E     		subs	r3, r0, #1
 862 0006 DBB2     		uxtb	r3, r3
 863 0008 1A01     		lsls	r2, r3, #4
 864 000a D1B2     		uxtb	r1, r2
 865              	.LVL84:
 980:.\Generated_Source\PSoC5/USB_Bootloader_std.c **** 
 981:.\Generated_Source\PSoC5/USB_Bootloader_std.c ****     if ((ep > USB_Bootloader_EP0) && (ep < USB_Bootloader_MAX_EP))
 866              		.loc 1 981 0
 867 000c 072B     		cmp	r3, #7
 868 000e 19D8     		bhi	.L72
 975:.\Generated_Source\PSoC5/USB_Bootloader_std.c ****     uint8 ri;
 869              		.loc 1 975 0
 870 0010 30B4     		push	{r4, r5}
 871              		.cfi_def_cfa_offset 8
 872              		.cfi_offset 4, -8
 873              		.cfi_offset 5, -4
 982:.\Generated_Source\PSoC5/USB_Bootloader_std.c ****     {
 983:.\Generated_Source\PSoC5/USB_Bootloader_std.c ****         /* Set the endpoint Halt */
 984:.\Generated_Source\PSoC5/USB_Bootloader_std.c ****         USB_Bootloader_EP[ep].hwEpState |= (USB_Bootloader_ENDPOINT_STATUS_HALT);
 874              		.loc 1 984 0
 875 0012 0D4C     		ldr	r4, .L73
 876 0014 4500     		lsls	r5, r0, #1
 877 0016 2B18     		adds	r3, r5, r0
 878 0018 9B00     		lsls	r3, r3, #2
 879 001a 2344     		add	r3, r3, r4
 880 001c 9A78     		ldrb	r2, [r3, #2]	@ zero_extendqisi2
 881 001e 42F00102 		orr	r2, r2, #1
 882 0022 9A70     		strb	r2, [r3, #2]
 985:.\Generated_Source\PSoC5/USB_Bootloader_std.c **** 
 986:.\Generated_Source\PSoC5/USB_Bootloader_std.c ****         /* Clear the data toggle */
 987:.\Generated_Source\PSoC5/USB_Bootloader_std.c ****         USB_Bootloader_EP[ep].epToggle = 0u;
 883              		.loc 1 987 0
 884 0024 0022     		movs	r2, #0
 885 0026 DA70     		strb	r2, [r3, #3]
 988:.\Generated_Source\PSoC5/USB_Bootloader_std.c ****         USB_Bootloader_EP[ep].apiEpState = USB_Bootloader_NO_EVENT_ALLOWED;
 886              		.loc 1 988 0
 887 0028 0222     		movs	r2, #2
 888 002a 5A70     		strb	r2, [r3, #1]
 989:.\Generated_Source\PSoC5/USB_Bootloader_std.c **** 
 990:.\Generated_Source\PSoC5/USB_Bootloader_std.c ****         if ((USB_Bootloader_EP[ep].addr & USB_Bootloader_DIR_IN) != 0u)
 889              		.loc 1 990 0
 890 002c 1B79     		ldrb	r3, [r3, #4]	@ zero_extendqisi2
 891 002e 13F0800F 		tst	r3, #128
 892 0032 03D0     		beq	.L69
 991:.\Generated_Source\PSoC5/USB_Bootloader_std.c ****         {
 992:.\Generated_Source\PSoC5/USB_Bootloader_std.c ****             /* IN Endpoint */
 993:.\Generated_Source\PSoC5/USB_Bootloader_std.c ****             CY_SET_REG8((reg8 *)(USB_Bootloader_SIE_EP1_CR0_IND + ri), USB_Bootloader_MODE_NAK_IN);
 893              		.loc 1 993 0
 894 0034 0C22     		movs	r2, #12
 895 0036 054B     		ldr	r3, .L73+4
 896 0038 CA54     		strb	r2, [r1, r3]
 897 003a 02E0     		b	.L67
 898              	.L69:
 994:.\Generated_Source\PSoC5/USB_Bootloader_std.c ****         }
 995:.\Generated_Source\PSoC5/USB_Bootloader_std.c ****         else
 996:.\Generated_Source\PSoC5/USB_Bootloader_std.c ****         {
 997:.\Generated_Source\PSoC5/USB_Bootloader_std.c ****             /* OUT Endpoint */
ARM GAS  C:\Users\Robert\AppData\Local\Temp\ccLuFIyc.s 			page 36


 998:.\Generated_Source\PSoC5/USB_Bootloader_std.c ****             CY_SET_REG8((reg8 *)(USB_Bootloader_SIE_EP1_CR0_IND + ri), USB_Bootloader_MODE_NAK_OUT)
 899              		.loc 1 998 0
 900 003c 0822     		movs	r2, #8
 901 003e 034B     		ldr	r3, .L73+4
 902 0040 CA54     		strb	r2, [r1, r3]
 903              	.L67:
 999:.\Generated_Source\PSoC5/USB_Bootloader_std.c ****         }
1000:.\Generated_Source\PSoC5/USB_Bootloader_std.c ****     }
1001:.\Generated_Source\PSoC5/USB_Bootloader_std.c **** }
 904              		.loc 1 1001 0
 905 0042 30BC     		pop	{r4, r5}
 906              		.cfi_restore 5
 907              		.cfi_restore 4
 908              		.cfi_def_cfa_offset 0
 909              	.L72:
 910 0044 7047     		bx	lr
 911              	.L74:
 912 0046 00BF     		.align	2
 913              	.L73:
 914 0048 00000000 		.word	USB_Bootloader_EP
 915 004c 0E600040 		.word	1073766414
 916              		.cfi_endproc
 917              	.LFE7:
 918              		.size	USB_Bootloader_TerminateEP, .-USB_Bootloader_TerminateEP
 919              		.section	.text.USB_Bootloader_SetEndpointHalt,"ax",%progbits
 920              		.align	2
 921              		.global	USB_Bootloader_SetEndpointHalt
 922              		.thumb
 923              		.thumb_func
 924              		.type	USB_Bootloader_SetEndpointHalt, %function
 925              	USB_Bootloader_SetEndpointHalt:
 926              	.LFB8:
1002:.\Generated_Source\PSoC5/USB_Bootloader_std.c **** 
1003:.\Generated_Source\PSoC5/USB_Bootloader_std.c **** 
1004:.\Generated_Source\PSoC5/USB_Bootloader_std.c **** /*******************************************************************************
1005:.\Generated_Source\PSoC5/USB_Bootloader_std.c **** * Function Name: USB_Bootloader_SetEndpointHalt
1006:.\Generated_Source\PSoC5/USB_Bootloader_std.c **** ********************************************************************************
1007:.\Generated_Source\PSoC5/USB_Bootloader_std.c **** *
1008:.\Generated_Source\PSoC5/USB_Bootloader_std.c **** * Summary:
1009:.\Generated_Source\PSoC5/USB_Bootloader_std.c **** *  This routine handles set endpoint halt.
1010:.\Generated_Source\PSoC5/USB_Bootloader_std.c **** *
1011:.\Generated_Source\PSoC5/USB_Bootloader_std.c **** * Parameters:
1012:.\Generated_Source\PSoC5/USB_Bootloader_std.c **** *  None.
1013:.\Generated_Source\PSoC5/USB_Bootloader_std.c **** *
1014:.\Generated_Source\PSoC5/USB_Bootloader_std.c **** * Return:
1015:.\Generated_Source\PSoC5/USB_Bootloader_std.c **** *  requestHandled.
1016:.\Generated_Source\PSoC5/USB_Bootloader_std.c **** *
1017:.\Generated_Source\PSoC5/USB_Bootloader_std.c **** * Reentrant:
1018:.\Generated_Source\PSoC5/USB_Bootloader_std.c **** *  No.
1019:.\Generated_Source\PSoC5/USB_Bootloader_std.c **** *
1020:.\Generated_Source\PSoC5/USB_Bootloader_std.c **** *******************************************************************************/
1021:.\Generated_Source\PSoC5/USB_Bootloader_std.c **** uint8 USB_Bootloader_SetEndpointHalt(void) 
1022:.\Generated_Source\PSoC5/USB_Bootloader_std.c **** {
 927              		.loc 1 1022 0
 928              		.cfi_startproc
 929              		@ args = 0, pretend = 0, frame = 0
 930              		@ frame_needed = 0, uses_anonymous_args = 0
ARM GAS  C:\Users\Robert\AppData\Local\Temp\ccLuFIyc.s 			page 37


 931 0000 38B5     		push	{r3, r4, r5, lr}
 932              		.cfi_def_cfa_offset 16
 933              		.cfi_offset 3, -16
 934              		.cfi_offset 4, -12
 935              		.cfi_offset 5, -8
 936              		.cfi_offset 14, -4
 937              	.LVL85:
1023:.\Generated_Source\PSoC5/USB_Bootloader_std.c ****     uint8 ep;
1024:.\Generated_Source\PSoC5/USB_Bootloader_std.c ****     uint8 ri;
1025:.\Generated_Source\PSoC5/USB_Bootloader_std.c ****     uint8 requestHandled = USB_Bootloader_FALSE;
1026:.\Generated_Source\PSoC5/USB_Bootloader_std.c **** 
1027:.\Generated_Source\PSoC5/USB_Bootloader_std.c ****     /* Set endpoint halt */
1028:.\Generated_Source\PSoC5/USB_Bootloader_std.c ****     ep = CY_GET_REG8(USB_Bootloader_wIndexLo) & USB_Bootloader_DIR_UNUSED;
 938              		.loc 1 1028 0
 939 0002 144B     		ldr	r3, .L81
 940 0004 1B78     		ldrb	r3, [r3]	@ zero_extendqisi2
 941 0006 03F07F03 		and	r3, r3, #127
 942              	.LVL86:
1029:.\Generated_Source\PSoC5/USB_Bootloader_std.c ****     ri = ((ep - USB_Bootloader_EP1) << USB_Bootloader_EPX_CNTX_ADDR_SHIFT);
 943              		.loc 1 1029 0
 944 000a 5A1E     		subs	r2, r3, #1
 945 000c D2B2     		uxtb	r2, r2
 946 000e 1101     		lsls	r1, r2, #4
 947 0010 C8B2     		uxtb	r0, r1
 948              	.LVL87:
1030:.\Generated_Source\PSoC5/USB_Bootloader_std.c **** 
1031:.\Generated_Source\PSoC5/USB_Bootloader_std.c ****     if ((ep > USB_Bootloader_EP0) && (ep < USB_Bootloader_MAX_EP))
 949              		.loc 1 1031 0
 950 0012 072A     		cmp	r2, #7
 951 0014 1CD8     		bhi	.L79
1032:.\Generated_Source\PSoC5/USB_Bootloader_std.c ****     {
1033:.\Generated_Source\PSoC5/USB_Bootloader_std.c ****         /* Set the endpoint Halt */
1034:.\Generated_Source\PSoC5/USB_Bootloader_std.c ****         USB_Bootloader_EP[ep].hwEpState |= (USB_Bootloader_ENDPOINT_STATUS_HALT);
 952              		.loc 1 1034 0
 953 0016 104C     		ldr	r4, .L81+4
 954 0018 5D00     		lsls	r5, r3, #1
 955 001a EA18     		adds	r2, r5, r3
 956 001c 9200     		lsls	r2, r2, #2
 957 001e 2244     		add	r2, r2, r4
 958 0020 9178     		ldrb	r1, [r2, #2]	@ zero_extendqisi2
 959 0022 41F00101 		orr	r1, r1, #1
 960 0026 9170     		strb	r1, [r2, #2]
1035:.\Generated_Source\PSoC5/USB_Bootloader_std.c **** 
1036:.\Generated_Source\PSoC5/USB_Bootloader_std.c ****         /* Clear the data toggle */
1037:.\Generated_Source\PSoC5/USB_Bootloader_std.c ****         USB_Bootloader_EP[ep].epToggle = 0u;
 961              		.loc 1 1037 0
 962 0028 0021     		movs	r1, #0
 963 002a D170     		strb	r1, [r2, #3]
1038:.\Generated_Source\PSoC5/USB_Bootloader_std.c ****         USB_Bootloader_EP[ep].apiEpState |= USB_Bootloader_NO_EVENT_ALLOWED;
 964              		.loc 1 1038 0
 965 002c 5178     		ldrb	r1, [r2, #1]	@ zero_extendqisi2
 966 002e 41F00201 		orr	r1, r1, #2
 967 0032 5170     		strb	r1, [r2, #1]
1039:.\Generated_Source\PSoC5/USB_Bootloader_std.c **** 
1040:.\Generated_Source\PSoC5/USB_Bootloader_std.c ****         if ((USB_Bootloader_EP[ep].addr & USB_Bootloader_DIR_IN) != 0u)
 968              		.loc 1 1040 0
 969 0034 1379     		ldrb	r3, [r2, #4]	@ zero_extendqisi2
ARM GAS  C:\Users\Robert\AppData\Local\Temp\ccLuFIyc.s 			page 38


 970              	.LVL88:
 971 0036 13F0800F 		tst	r3, #128
 972 003a 03D0     		beq	.L77
1041:.\Generated_Source\PSoC5/USB_Bootloader_std.c ****         {
1042:.\Generated_Source\PSoC5/USB_Bootloader_std.c ****             /* IN Endpoint */
1043:.\Generated_Source\PSoC5/USB_Bootloader_std.c ****             CY_SET_REG8((reg8 *)(USB_Bootloader_SIE_EP1_CR0_IND + ri), USB_Bootloader_MODE_STALL_DA
 973              		.loc 1 1043 0
 974 003c 8D22     		movs	r2, #141
 975 003e 074B     		ldr	r3, .L81+8
 976 0040 C254     		strb	r2, [r0, r3]
 977 0042 02E0     		b	.L78
 978              	.L77:
1044:.\Generated_Source\PSoC5/USB_Bootloader_std.c ****                                                                USB_Bootloader_MODE_ACK_IN);
1045:.\Generated_Source\PSoC5/USB_Bootloader_std.c ****         }
1046:.\Generated_Source\PSoC5/USB_Bootloader_std.c ****         else
1047:.\Generated_Source\PSoC5/USB_Bootloader_std.c ****         {
1048:.\Generated_Source\PSoC5/USB_Bootloader_std.c ****             /* OUT Endpoint */
1049:.\Generated_Source\PSoC5/USB_Bootloader_std.c ****             CY_SET_REG8((reg8 *)(USB_Bootloader_SIE_EP1_CR0_IND + ri), USB_Bootloader_MODE_STALL_DA
 979              		.loc 1 1049 0
 980 0044 8922     		movs	r2, #137
 981 0046 054B     		ldr	r3, .L81+8
 982 0048 C254     		strb	r2, [r0, r3]
 983              	.L78:
1050:.\Generated_Source\PSoC5/USB_Bootloader_std.c ****                                                                USB_Bootloader_MODE_ACK_OUT);
1051:.\Generated_Source\PSoC5/USB_Bootloader_std.c ****         }
1052:.\Generated_Source\PSoC5/USB_Bootloader_std.c ****         requestHandled = USB_Bootloader_InitNoDataControlTransfer();
 984              		.loc 1 1052 0
 985 004a FFF7FEFF 		bl	USB_Bootloader_InitNoDataControlTransfer
 986              	.LVL89:
 987 004e 38BD     		pop	{r3, r4, r5, pc}
 988              	.LVL90:
 989              	.L79:
1025:.\Generated_Source\PSoC5/USB_Bootloader_std.c **** 
 990              		.loc 1 1025 0
 991 0050 0020     		movs	r0, #0
 992              	.LVL91:
1053:.\Generated_Source\PSoC5/USB_Bootloader_std.c ****     }
1054:.\Generated_Source\PSoC5/USB_Bootloader_std.c **** 
1055:.\Generated_Source\PSoC5/USB_Bootloader_std.c ****     return(requestHandled);
1056:.\Generated_Source\PSoC5/USB_Bootloader_std.c **** }
 993              		.loc 1 1056 0
 994 0052 38BD     		pop	{r3, r4, r5, pc}
 995              	.LVL92:
 996              	.L82:
 997              		.align	2
 998              	.L81:
 999 0054 04600040 		.word	1073766404
 1000 0058 00000000 		.word	USB_Bootloader_EP
 1001 005c 0E600040 		.word	1073766414
 1002              		.cfi_endproc
 1003              	.LFE8:
 1004              		.size	USB_Bootloader_SetEndpointHalt, .-USB_Bootloader_SetEndpointHalt
 1005              		.section	.text.USB_Bootloader_ClearEndpointHalt,"ax",%progbits
 1006              		.align	2
 1007              		.global	USB_Bootloader_ClearEndpointHalt
 1008              		.thumb
 1009              		.thumb_func
ARM GAS  C:\Users\Robert\AppData\Local\Temp\ccLuFIyc.s 			page 39


 1010              		.type	USB_Bootloader_ClearEndpointHalt, %function
 1011              	USB_Bootloader_ClearEndpointHalt:
 1012              	.LFB9:
1057:.\Generated_Source\PSoC5/USB_Bootloader_std.c **** 
1058:.\Generated_Source\PSoC5/USB_Bootloader_std.c **** 
1059:.\Generated_Source\PSoC5/USB_Bootloader_std.c **** /*******************************************************************************
1060:.\Generated_Source\PSoC5/USB_Bootloader_std.c **** * Function Name: USB_Bootloader_ClearEndpointHalt
1061:.\Generated_Source\PSoC5/USB_Bootloader_std.c **** ********************************************************************************
1062:.\Generated_Source\PSoC5/USB_Bootloader_std.c **** *
1063:.\Generated_Source\PSoC5/USB_Bootloader_std.c **** * Summary:
1064:.\Generated_Source\PSoC5/USB_Bootloader_std.c **** *  This routine handles clear endpoint halt.
1065:.\Generated_Source\PSoC5/USB_Bootloader_std.c **** *
1066:.\Generated_Source\PSoC5/USB_Bootloader_std.c **** * Parameters:
1067:.\Generated_Source\PSoC5/USB_Bootloader_std.c **** *  None.
1068:.\Generated_Source\PSoC5/USB_Bootloader_std.c **** *
1069:.\Generated_Source\PSoC5/USB_Bootloader_std.c **** * Return:
1070:.\Generated_Source\PSoC5/USB_Bootloader_std.c **** *  requestHandled.
1071:.\Generated_Source\PSoC5/USB_Bootloader_std.c **** *
1072:.\Generated_Source\PSoC5/USB_Bootloader_std.c **** * Reentrant:
1073:.\Generated_Source\PSoC5/USB_Bootloader_std.c **** *  No.
1074:.\Generated_Source\PSoC5/USB_Bootloader_std.c **** *
1075:.\Generated_Source\PSoC5/USB_Bootloader_std.c **** *******************************************************************************/
1076:.\Generated_Source\PSoC5/USB_Bootloader_std.c **** uint8 USB_Bootloader_ClearEndpointHalt(void) 
1077:.\Generated_Source\PSoC5/USB_Bootloader_std.c **** {
 1013              		.loc 1 1077 0
 1014              		.cfi_startproc
 1015              		@ args = 0, pretend = 0, frame = 0
 1016              		@ frame_needed = 0, uses_anonymous_args = 0
 1017              	.LVL93:
1078:.\Generated_Source\PSoC5/USB_Bootloader_std.c ****     uint8 ep;
1079:.\Generated_Source\PSoC5/USB_Bootloader_std.c ****     uint8 ri;
1080:.\Generated_Source\PSoC5/USB_Bootloader_std.c ****     uint8 requestHandled = USB_Bootloader_FALSE;
1081:.\Generated_Source\PSoC5/USB_Bootloader_std.c **** 
1082:.\Generated_Source\PSoC5/USB_Bootloader_std.c ****     /* Clear endpoint halt */
1083:.\Generated_Source\PSoC5/USB_Bootloader_std.c ****     ep = CY_GET_REG8(USB_Bootloader_wIndexLo) & USB_Bootloader_DIR_UNUSED;
 1018              		.loc 1 1083 0
 1019 0000 244B     		ldr	r3, .L92
 1020 0002 1B78     		ldrb	r3, [r3]	@ zero_extendqisi2
 1021 0004 03F07F03 		and	r3, r3, #127
 1022              	.LVL94:
1084:.\Generated_Source\PSoC5/USB_Bootloader_std.c ****     ri = ((ep - USB_Bootloader_EP1) << USB_Bootloader_EPX_CNTX_ADDR_SHIFT);
 1023              		.loc 1 1084 0
 1024 0008 5A1E     		subs	r2, r3, #1
 1025 000a D2B2     		uxtb	r2, r2
 1026 000c 1101     		lsls	r1, r2, #4
 1027 000e C9B2     		uxtb	r1, r1
 1028              	.LVL95:
1085:.\Generated_Source\PSoC5/USB_Bootloader_std.c **** 
1086:.\Generated_Source\PSoC5/USB_Bootloader_std.c ****     if ((ep > USB_Bootloader_EP0) && (ep < USB_Bootloader_MAX_EP))
 1029              		.loc 1 1086 0
 1030 0010 072A     		cmp	r2, #7
 1031 0012 3CD8     		bhi	.L89
1077:.\Generated_Source\PSoC5/USB_Bootloader_std.c ****     uint8 ep;
 1032              		.loc 1 1077 0
 1033 0014 10B5     		push	{r4, lr}
 1034              		.cfi_def_cfa_offset 8
 1035              		.cfi_offset 4, -8
ARM GAS  C:\Users\Robert\AppData\Local\Temp\ccLuFIyc.s 			page 40


 1036              		.cfi_offset 14, -4
1087:.\Generated_Source\PSoC5/USB_Bootloader_std.c ****     {
1088:.\Generated_Source\PSoC5/USB_Bootloader_std.c ****         /* Clear the endpoint Halt */
1089:.\Generated_Source\PSoC5/USB_Bootloader_std.c ****         USB_Bootloader_EP[ep].hwEpState &= (uint8)~(USB_Bootloader_ENDPOINT_STATUS_HALT);
 1037              		.loc 1 1089 0
 1038 0016 5A00     		lsls	r2, r3, #1
 1039 0018 1A44     		add	r2, r2, r3
 1040 001a 9200     		lsls	r2, r2, #2
 1041 001c 1E48     		ldr	r0, .L92+4
 1042 001e 0244     		add	r2, r2, r0
 1043 0020 9078     		ldrb	r0, [r2, #2]	@ zero_extendqisi2
 1044 0022 00F0FE00 		and	r0, r0, #254
 1045 0026 9070     		strb	r0, [r2, #2]
1090:.\Generated_Source\PSoC5/USB_Bootloader_std.c **** 
1091:.\Generated_Source\PSoC5/USB_Bootloader_std.c ****         /* Clear the data toggle */
1092:.\Generated_Source\PSoC5/USB_Bootloader_std.c ****         USB_Bootloader_EP[ep].epToggle = 0u;
 1046              		.loc 1 1092 0
 1047 0028 0020     		movs	r0, #0
 1048 002a D070     		strb	r0, [r2, #3]
1093:.\Generated_Source\PSoC5/USB_Bootloader_std.c ****         /* Clear toggle bit for already armed packet */
1094:.\Generated_Source\PSoC5/USB_Bootloader_std.c ****         CY_SET_REG8((reg8 *)(USB_Bootloader_SIE_EP1_CNT0_IND + ri), CY_GET_REG8(
 1049              		.loc 1 1094 0
 1050 002c 1B4C     		ldr	r4, .L92+8
 1051 002e 085D     		ldrb	r0, [r1, r4]	@ zero_extendqisi2
 1052 0030 00F07F00 		and	r0, r0, #127
 1053 0034 0855     		strb	r0, [r1, r4]
1095:.\Generated_Source\PSoC5/USB_Bootloader_std.c ****                     (reg8 *)(USB_Bootloader_SIE_EP1_CNT0_IND + ri)) & (uint8)~USB_Bootloader_EPX_CN
1096:.\Generated_Source\PSoC5/USB_Bootloader_std.c ****         /* Return API State as it was defined before */
1097:.\Generated_Source\PSoC5/USB_Bootloader_std.c ****         USB_Bootloader_EP[ep].apiEpState &= (uint8)~USB_Bootloader_NO_EVENT_ALLOWED;
 1054              		.loc 1 1097 0
 1055 0036 5078     		ldrb	r0, [r2, #1]	@ zero_extendqisi2
 1056 0038 00F0FD00 		and	r0, r0, #253
 1057 003c 5070     		strb	r0, [r2, #1]
1098:.\Generated_Source\PSoC5/USB_Bootloader_std.c **** 
1099:.\Generated_Source\PSoC5/USB_Bootloader_std.c ****         if ((USB_Bootloader_EP[ep].addr & USB_Bootloader_DIR_IN) != 0u)
 1058              		.loc 1 1099 0
 1059 003e 1279     		ldrb	r2, [r2, #4]	@ zero_extendqisi2
 1060 0040 12F0800F 		tst	r2, #128
 1061 0044 10D0     		beq	.L85
1100:.\Generated_Source\PSoC5/USB_Bootloader_std.c ****         {
1101:.\Generated_Source\PSoC5/USB_Bootloader_std.c ****             /* IN Endpoint */
1102:.\Generated_Source\PSoC5/USB_Bootloader_std.c ****             if(USB_Bootloader_EP[ep].apiEpState == USB_Bootloader_IN_BUFFER_EMPTY)
 1062              		.loc 1 1102 0
 1063 0046 03EB4303 		add	r3, r3, r3, lsl #1
 1064              	.LVL96:
 1065 004a 9B00     		lsls	r3, r3, #2
 1066 004c 124A     		ldr	r2, .L92+4
 1067 004e 1344     		add	r3, r3, r2
 1068 0050 5B78     		ldrb	r3, [r3, #1]	@ zero_extendqisi2
 1069 0052 DBB2     		uxtb	r3, r3
 1070 0054 012B     		cmp	r3, #1
 1071 0056 03D1     		bne	.L86
1103:.\Generated_Source\PSoC5/USB_Bootloader_std.c ****             {       /* Wait for next packet from application */
1104:.\Generated_Source\PSoC5/USB_Bootloader_std.c ****                 CY_SET_REG8((reg8 *)(USB_Bootloader_SIE_EP1_CR0_IND + ri), USB_Bootloader_MODE_NAK_
 1072              		.loc 1 1104 0
 1073 0058 0C22     		movs	r2, #12
 1074 005a 114B     		ldr	r3, .L92+12
ARM GAS  C:\Users\Robert\AppData\Local\Temp\ccLuFIyc.s 			page 41


 1075 005c CA54     		strb	r2, [r1, r3]
 1076 005e 13E0     		b	.L87
 1077              	.L86:
1105:.\Generated_Source\PSoC5/USB_Bootloader_std.c ****             }
1106:.\Generated_Source\PSoC5/USB_Bootloader_std.c ****             else    /* Continue armed transfer */
1107:.\Generated_Source\PSoC5/USB_Bootloader_std.c ****             {
1108:.\Generated_Source\PSoC5/USB_Bootloader_std.c ****                 CY_SET_REG8((reg8 *)(USB_Bootloader_SIE_EP1_CR0_IND + ri), USB_Bootloader_MODE_ACK_
 1078              		.loc 1 1108 0
 1079 0060 0D22     		movs	r2, #13
 1080 0062 0F4B     		ldr	r3, .L92+12
 1081 0064 CA54     		strb	r2, [r1, r3]
 1082 0066 0FE0     		b	.L87
 1083              	.LVL97:
 1084              	.L85:
1109:.\Generated_Source\PSoC5/USB_Bootloader_std.c ****             }
1110:.\Generated_Source\PSoC5/USB_Bootloader_std.c ****         }
1111:.\Generated_Source\PSoC5/USB_Bootloader_std.c ****         else
1112:.\Generated_Source\PSoC5/USB_Bootloader_std.c ****         {
1113:.\Generated_Source\PSoC5/USB_Bootloader_std.c ****             /* OUT Endpoint */
1114:.\Generated_Source\PSoC5/USB_Bootloader_std.c ****             if(USB_Bootloader_EP[ep].apiEpState == USB_Bootloader_OUT_BUFFER_FULL)
 1085              		.loc 1 1114 0
 1086 0068 03EB4303 		add	r3, r3, r3, lsl #1
 1087              	.LVL98:
 1088 006c 9B00     		lsls	r3, r3, #2
 1089 006e 0A4A     		ldr	r2, .L92+4
 1090 0070 1344     		add	r3, r3, r2
 1091 0072 5B78     		ldrb	r3, [r3, #1]	@ zero_extendqisi2
 1092 0074 DBB2     		uxtb	r3, r3
 1093 0076 012B     		cmp	r3, #1
 1094 0078 03D1     		bne	.L88
1115:.\Generated_Source\PSoC5/USB_Bootloader_std.c ****             {       /* Allow application to read full buffer */
1116:.\Generated_Source\PSoC5/USB_Bootloader_std.c ****                 CY_SET_REG8((reg8 *)(USB_Bootloader_SIE_EP1_CR0_IND + ri), USB_Bootloader_MODE_NAK_
 1095              		.loc 1 1116 0
 1096 007a 0822     		movs	r2, #8
 1097 007c 084B     		ldr	r3, .L92+12
 1098 007e CA54     		strb	r2, [r1, r3]
 1099 0080 02E0     		b	.L87
 1100              	.L88:
1117:.\Generated_Source\PSoC5/USB_Bootloader_std.c ****             }
1118:.\Generated_Source\PSoC5/USB_Bootloader_std.c ****             else    /* Mark endpoint as empty, so it will be reloaded */
1119:.\Generated_Source\PSoC5/USB_Bootloader_std.c ****             {
1120:.\Generated_Source\PSoC5/USB_Bootloader_std.c ****                 CY_SET_REG8((reg8 *)(USB_Bootloader_SIE_EP1_CR0_IND + ri), USB_Bootloader_MODE_ACK_
 1101              		.loc 1 1120 0
 1102 0082 0922     		movs	r2, #9
 1103 0084 064B     		ldr	r3, .L92+12
 1104 0086 CA54     		strb	r2, [r1, r3]
 1105              	.L87:
1121:.\Generated_Source\PSoC5/USB_Bootloader_std.c ****             }
1122:.\Generated_Source\PSoC5/USB_Bootloader_std.c ****         }
1123:.\Generated_Source\PSoC5/USB_Bootloader_std.c ****         requestHandled = USB_Bootloader_InitNoDataControlTransfer();
 1106              		.loc 1 1123 0
 1107 0088 FFF7FEFF 		bl	USB_Bootloader_InitNoDataControlTransfer
 1108              	.LVL99:
 1109 008c 10BD     		pop	{r4, pc}
 1110              	.LVL100:
 1111              	.L89:
 1112              		.cfi_def_cfa_offset 0
ARM GAS  C:\Users\Robert\AppData\Local\Temp\ccLuFIyc.s 			page 42


 1113              		.cfi_restore 4
 1114              		.cfi_restore 14
1080:.\Generated_Source\PSoC5/USB_Bootloader_std.c **** 
 1115              		.loc 1 1080 0
 1116 008e 0020     		movs	r0, #0
 1117 0090 7047     		bx	lr
 1118              	.L93:
 1119 0092 00BF     		.align	2
 1120              	.L92:
 1121 0094 04600040 		.word	1073766404
 1122 0098 00000000 		.word	USB_Bootloader_EP
 1123 009c 0C600040 		.word	1073766412
 1124 00a0 0E600040 		.word	1073766414
 1125              		.cfi_endproc
 1126              	.LFE9:
 1127              		.size	USB_Bootloader_ClearEndpointHalt, .-USB_Bootloader_ClearEndpointHalt
 1128              		.section	.text.USB_Bootloader_ValidateAlternateSetting,"ax",%progbits
 1129              		.align	2
 1130              		.global	USB_Bootloader_ValidateAlternateSetting
 1131              		.thumb
 1132              		.thumb_func
 1133              		.type	USB_Bootloader_ValidateAlternateSetting, %function
 1134              	USB_Bootloader_ValidateAlternateSetting:
 1135              	.LFB10:
1124:.\Generated_Source\PSoC5/USB_Bootloader_std.c ****     }
1125:.\Generated_Source\PSoC5/USB_Bootloader_std.c **** 
1126:.\Generated_Source\PSoC5/USB_Bootloader_std.c ****     return(requestHandled);
1127:.\Generated_Source\PSoC5/USB_Bootloader_std.c **** }
1128:.\Generated_Source\PSoC5/USB_Bootloader_std.c **** 
1129:.\Generated_Source\PSoC5/USB_Bootloader_std.c **** 
1130:.\Generated_Source\PSoC5/USB_Bootloader_std.c **** /*******************************************************************************
1131:.\Generated_Source\PSoC5/USB_Bootloader_std.c **** * Function Name: USB_Bootloader_ValidateAlternateSetting
1132:.\Generated_Source\PSoC5/USB_Bootloader_std.c **** ********************************************************************************
1133:.\Generated_Source\PSoC5/USB_Bootloader_std.c **** *
1134:.\Generated_Source\PSoC5/USB_Bootloader_std.c **** * Summary:
1135:.\Generated_Source\PSoC5/USB_Bootloader_std.c **** *  Validates (and records) a SET INTERFACE request.
1136:.\Generated_Source\PSoC5/USB_Bootloader_std.c **** *
1137:.\Generated_Source\PSoC5/USB_Bootloader_std.c **** * Parameters:
1138:.\Generated_Source\PSoC5/USB_Bootloader_std.c **** *  None.
1139:.\Generated_Source\PSoC5/USB_Bootloader_std.c **** *
1140:.\Generated_Source\PSoC5/USB_Bootloader_std.c **** * Return:
1141:.\Generated_Source\PSoC5/USB_Bootloader_std.c **** *  requestHandled.
1142:.\Generated_Source\PSoC5/USB_Bootloader_std.c **** *
1143:.\Generated_Source\PSoC5/USB_Bootloader_std.c **** * Reentrant:
1144:.\Generated_Source\PSoC5/USB_Bootloader_std.c **** *  No.
1145:.\Generated_Source\PSoC5/USB_Bootloader_std.c **** *
1146:.\Generated_Source\PSoC5/USB_Bootloader_std.c **** *******************************************************************************/
1147:.\Generated_Source\PSoC5/USB_Bootloader_std.c **** uint8 USB_Bootloader_ValidateAlternateSetting(void) 
1148:.\Generated_Source\PSoC5/USB_Bootloader_std.c **** {
 1136              		.loc 1 1148 0
 1137              		.cfi_startproc
 1138              		@ args = 0, pretend = 0, frame = 0
 1139              		@ frame_needed = 0, uses_anonymous_args = 0
 1140 0000 10B5     		push	{r4, lr}
 1141              		.cfi_def_cfa_offset 8
 1142              		.cfi_offset 4, -8
 1143              		.cfi_offset 14, -4
ARM GAS  C:\Users\Robert\AppData\Local\Temp\ccLuFIyc.s 			page 43


 1144              	.LVL101:
1149:.\Generated_Source\PSoC5/USB_Bootloader_std.c ****     uint8 requestHandled = USB_Bootloader_TRUE;
1150:.\Generated_Source\PSoC5/USB_Bootloader_std.c ****     uint8 interfaceNum;
1151:.\Generated_Source\PSoC5/USB_Bootloader_std.c ****     const T_USB_Bootloader_LUT CYCODE *pTmp;
1152:.\Generated_Source\PSoC5/USB_Bootloader_std.c ****     uint8 currentInterfacesNum;
1153:.\Generated_Source\PSoC5/USB_Bootloader_std.c **** 
1154:.\Generated_Source\PSoC5/USB_Bootloader_std.c ****     interfaceNum = CY_GET_REG8(USB_Bootloader_wIndexLo);
 1145              		.loc 1 1154 0
 1146 0002 0E4B     		ldr	r3, .L99
 1147 0004 1C78     		ldrb	r4, [r3]	@ zero_extendqisi2
 1148 0006 E4B2     		uxtb	r4, r4
 1149              	.LVL102:
1155:.\Generated_Source\PSoC5/USB_Bootloader_std.c ****     /* Validate interface setting, stall if invalid. */
1156:.\Generated_Source\PSoC5/USB_Bootloader_std.c ****     pTmp = USB_Bootloader_GetConfigTablePtr(USB_Bootloader_configuration - 1u);
 1150              		.loc 1 1156 0
 1151 0008 0D4B     		ldr	r3, .L99+4
 1152 000a 1878     		ldrb	r0, [r3]	@ zero_extendqisi2
 1153 000c 0138     		subs	r0, r0, #1
 1154 000e C0B2     		uxtb	r0, r0
 1155 0010 FFF7FEFF 		bl	USB_Bootloader_GetConfigTablePtr
 1156              	.LVL103:
1157:.\Generated_Source\PSoC5/USB_Bootloader_std.c ****     currentInterfacesNum  = ((const uint8 *) pTmp->p_list)[USB_Bootloader_CONFIG_DESCR_NUM_INTERFAC
 1157              		.loc 1 1157 0
 1158 0014 4368     		ldr	r3, [r0, #4]
 1159 0016 1B79     		ldrb	r3, [r3, #4]	@ zero_extendqisi2
 1160              	.LVL104:
1158:.\Generated_Source\PSoC5/USB_Bootloader_std.c **** 
1159:.\Generated_Source\PSoC5/USB_Bootloader_std.c ****     if((interfaceNum >= currentInterfacesNum) || (interfaceNum >= USB_Bootloader_MAX_INTERFACES_NUM
 1161              		.loc 1 1159 0
 1162 0018 9C42     		cmp	r4, r3
 1163 001a 0BD2     		bcs	.L96
 1164              		.loc 1 1159 0 is_stmt 0 discriminator 1
 1165 001c 64B9     		cbnz	r4, .L97
1160:.\Generated_Source\PSoC5/USB_Bootloader_std.c ****     {   /* Wrong interface number */
1161:.\Generated_Source\PSoC5/USB_Bootloader_std.c ****         requestHandled = USB_Bootloader_FALSE;
1162:.\Generated_Source\PSoC5/USB_Bootloader_std.c ****     }
1163:.\Generated_Source\PSoC5/USB_Bootloader_std.c ****     else
1164:.\Generated_Source\PSoC5/USB_Bootloader_std.c ****     {
1165:.\Generated_Source\PSoC5/USB_Bootloader_std.c ****         /* Save current Alt setting to find out the difference in Config() function */
1166:.\Generated_Source\PSoC5/USB_Bootloader_std.c ****         USB_Bootloader_interfaceSetting_last[interfaceNum] = USB_Bootloader_interfaceSetting[interf
 1166              		.loc 1 1166 0 is_stmt 1
 1167 001e 094A     		ldr	r2, .L99+8
 1168 0020 135D     		ldrb	r3, [r2, r4]	@ zero_extendqisi2
 1169              	.LVL105:
 1170 0022 DBB2     		uxtb	r3, r3
 1171 0024 0849     		ldr	r1, .L99+12
 1172 0026 0B55     		strb	r3, [r1, r4]
1167:.\Generated_Source\PSoC5/USB_Bootloader_std.c ****         USB_Bootloader_interfaceSetting[interfaceNum] = CY_GET_REG8(USB_Bootloader_wValueLo);
 1173              		.loc 1 1167 0
 1174 0028 084B     		ldr	r3, .L99+16
 1175 002a 1B78     		ldrb	r3, [r3]	@ zero_extendqisi2
 1176 002c DBB2     		uxtb	r3, r3
 1177 002e 1355     		strb	r3, [r2, r4]
1149:.\Generated_Source\PSoC5/USB_Bootloader_std.c ****     uint8 interfaceNum;
 1178              		.loc 1 1149 0
 1179 0030 0120     		movs	r0, #1
 1180              	.LVL106:
ARM GAS  C:\Users\Robert\AppData\Local\Temp\ccLuFIyc.s 			page 44


 1181 0032 10BD     		pop	{r4, pc}
 1182              	.LVL107:
 1183              	.L96:
1161:.\Generated_Source\PSoC5/USB_Bootloader_std.c ****     }
 1184              		.loc 1 1161 0
 1185 0034 0020     		movs	r0, #0
 1186              	.LVL108:
 1187 0036 10BD     		pop	{r4, pc}
 1188              	.LVL109:
 1189              	.L97:
 1190 0038 0020     		movs	r0, #0
 1191              	.LVL110:
1168:.\Generated_Source\PSoC5/USB_Bootloader_std.c ****     }
1169:.\Generated_Source\PSoC5/USB_Bootloader_std.c **** 
1170:.\Generated_Source\PSoC5/USB_Bootloader_std.c ****     return (requestHandled);
1171:.\Generated_Source\PSoC5/USB_Bootloader_std.c **** }
 1192              		.loc 1 1171 0
 1193 003a 10BD     		pop	{r4, pc}
 1194              	.LVL111:
 1195              	.L100:
 1196              		.align	2
 1197              	.L99:
 1198 003c 04600040 		.word	1073766404
 1199 0040 00000000 		.word	USB_Bootloader_configuration
 1200 0044 00000000 		.word	USB_Bootloader_interfaceSetting
 1201 0048 00000000 		.word	USB_Bootloader_interfaceSetting_last
 1202 004c 02600040 		.word	1073766402
 1203              		.cfi_endproc
 1204              	.LFE10:
 1205              		.size	USB_Bootloader_ValidateAlternateSetting, .-USB_Bootloader_ValidateAlternateSetting
 1206              		.section	.text.USB_Bootloader_HandleStandardRqst,"ax",%progbits
 1207              		.align	2
 1208              		.global	USB_Bootloader_HandleStandardRqst
 1209              		.thumb
 1210              		.thumb_func
 1211              		.type	USB_Bootloader_HandleStandardRqst, %function
 1212              	USB_Bootloader_HandleStandardRqst:
 1213              	.LFB0:
  89:.\Generated_Source\PSoC5/USB_Bootloader_std.c ****     uint8 requestHandled = USB_Bootloader_FALSE;
 1214              		.loc 1 89 0
 1215              		.cfi_startproc
 1216              		@ args = 0, pretend = 0, frame = 0
 1217              		@ frame_needed = 0, uses_anonymous_args = 0
 1218 0000 10B5     		push	{r4, lr}
 1219              		.cfi_def_cfa_offset 8
 1220              		.cfi_offset 4, -8
 1221              		.cfi_offset 14, -4
 1222              	.LVL112:
 102:.\Generated_Source\PSoC5/USB_Bootloader_std.c **** 
 1223              		.loc 1 102 0
 1224 0002 0022     		movs	r2, #0
 1225 0004 974B     		ldr	r3, .L158
 1226 0006 1A80     		strh	r2, [r3]	@ movhi
 104:.\Generated_Source\PSoC5/USB_Bootloader_std.c ****     {
 1227              		.loc 1 104 0
 1228 0008 974B     		ldr	r3, .L158+4
 1229 000a 1B78     		ldrb	r3, [r3]	@ zero_extendqisi2
ARM GAS  C:\Users\Robert\AppData\Local\Temp\ccLuFIyc.s 			page 45


 1230 000c 13F0800F 		tst	r3, #128
 1231 0010 00F0B480 		beq	.L102
 107:.\Generated_Source\PSoC5/USB_Bootloader_std.c ****         {
 1232              		.loc 1 107 0
 1233 0014 954B     		ldr	r3, .L158+8
 1234 0016 1B78     		ldrb	r3, [r3]	@ zero_extendqisi2
 1235 0018 DBB2     		uxtb	r3, r3
 1236 001a 0A2B     		cmp	r3, #10
 1237 001c 00F28D81 		bhi	.L135
 1238 0020 DFE813F0 		tbh	[pc, r3, lsl #1]
 1239              	.L105:
 1240 0024 6E00     		.2byte	(.L104-.L105)/2
 1241 0026 8B01     		.2byte	(.L135-.L105)/2
 1242 0028 8B01     		.2byte	(.L135-.L105)/2
 1243 002a 8B01     		.2byte	(.L135-.L105)/2
 1244 002c 8B01     		.2byte	(.L135-.L105)/2
 1245 002e 8B01     		.2byte	(.L135-.L105)/2
 1246 0030 0B00     		.2byte	(.L106-.L105)/2
 1247 0032 8B01     		.2byte	(.L135-.L105)/2
 1248 0034 9900     		.2byte	(.L107-.L105)/2
 1249 0036 8B01     		.2byte	(.L135-.L105)/2
 1250 0038 A100     		.2byte	(.L108-.L105)/2
 1251              		.p2align 1
 1252              	.L106:
 110:.\Generated_Source\PSoC5/USB_Bootloader_std.c ****                 {
 1253              		.loc 1 110 0
 1254 003a 8D4B     		ldr	r3, .L158+12
 1255 003c 1B78     		ldrb	r3, [r3]	@ zero_extendqisi2
 1256 003e DBB2     		uxtb	r3, r3
 1257 0040 012B     		cmp	r3, #1
 1258 0042 09D1     		bne	.L109
 112:.\Generated_Source\PSoC5/USB_Bootloader_std.c ****                     USB_Bootloader_currentTD.pData = (volatile uint8 *)pTmp->p_list;
 1259              		.loc 1 112 0
 1260 0044 FFF7FEFF 		bl	USB_Bootloader_GetDeviceTablePtr
 1261              	.LVL113:
 113:.\Generated_Source\PSoC5/USB_Bootloader_std.c ****                     USB_Bootloader_currentTD.count = USB_Bootloader_DEVICE_DESCR_LENGTH;
 1262              		.loc 1 113 0
 1263 0048 4268     		ldr	r2, [r0, #4]
 1264 004a 864B     		ldr	r3, .L158
 1265 004c 5A60     		str	r2, [r3, #4]
 114:.\Generated_Source\PSoC5/USB_Bootloader_std.c ****                     requestHandled  = USB_Bootloader_InitControlRead();
 1266              		.loc 1 114 0
 1267 004e 1222     		movs	r2, #18
 1268 0050 1A80     		strh	r2, [r3]	@ movhi
 115:.\Generated_Source\PSoC5/USB_Bootloader_std.c ****                 }
 1269              		.loc 1 115 0
 1270 0052 FFF7FEFF 		bl	USB_Bootloader_InitControlRead
 1271              	.LVL114:
 1272 0056 10BD     		pop	{r4, pc}
 1273              	.LVL115:
 1274              	.L109:
 117:.\Generated_Source\PSoC5/USB_Bootloader_std.c ****                 {
 1275              		.loc 1 117 0
 1276 0058 854B     		ldr	r3, .L158+12
 1277 005a 1B78     		ldrb	r3, [r3]	@ zero_extendqisi2
 1278 005c DBB2     		uxtb	r3, r3
 1279 005e 022B     		cmp	r3, #2
ARM GAS  C:\Users\Robert\AppData\Local\Temp\ccLuFIyc.s 			page 46


 1280 0060 16D1     		bne	.L110
 119:.\Generated_Source\PSoC5/USB_Bootloader_std.c ****                     if( pTmp != NULL )  /* Verify that requested descriptor exists */
 1281              		.loc 1 119 0
 1282 0062 03F18043 		add	r3, r3, #1073741824
 1283 0066 03F5C043 		add	r3, r3, #24576
 1284 006a 1878     		ldrb	r0, [r3]	@ zero_extendqisi2
 1285 006c FFF7FEFF 		bl	USB_Bootloader_GetConfigTablePtr
 1286              	.LVL116:
 120:.\Generated_Source\PSoC5/USB_Bootloader_std.c ****                     {
 1287              		.loc 1 120 0
 1288 0070 0028     		cmp	r0, #0
 1289 0072 00F06481 		beq	.L136
 122:.\Generated_Source\PSoC5/USB_Bootloader_std.c ****                         USB_Bootloader_currentTD.count = ((uint16)(USB_Bootloader_currentTD.pData)[
 1290              		.loc 1 122 0
 1291 0076 4268     		ldr	r2, [r0, #4]
 1292 0078 7A4B     		ldr	r3, .L158
 1293 007a 5A60     		str	r2, [r3, #4]
 123:.\Generated_Source\PSoC5/USB_Bootloader_std.c ****                                           USB_Bootloader_CONFIG_DESCR_TOTAL_LENGTH_HI] << 8u) | \
 1294              		.loc 1 123 0
 1295 007c 5A68     		ldr	r2, [r3, #4]
 1296 007e D178     		ldrb	r1, [r2, #3]	@ zero_extendqisi2
 125:.\Generated_Source\PSoC5/USB_Bootloader_std.c ****                         requestHandled  = USB_Bootloader_InitControlRead();
 1297              		.loc 1 125 0
 1298 0080 5A68     		ldr	r2, [r3, #4]
 1299 0082 9278     		ldrb	r2, [r2, #2]	@ zero_extendqisi2
 123:.\Generated_Source\PSoC5/USB_Bootloader_std.c ****                                           USB_Bootloader_CONFIG_DESCR_TOTAL_LENGTH_HI] << 8u) | \
 1300              		.loc 1 123 0
 1301 0084 42EA0122 		orr	r2, r2, r1, lsl #8
 1302 0088 1A80     		strh	r2, [r3]	@ movhi
 126:.\Generated_Source\PSoC5/USB_Bootloader_std.c ****                     }
 1303              		.loc 1 126 0
 1304 008a FFF7FEFF 		bl	USB_Bootloader_InitControlRead
 1305              	.LVL117:
 1306 008e 10BD     		pop	{r4, pc}
 1307              	.LVL118:
 1308              	.L110:
 130:.\Generated_Source\PSoC5/USB_Bootloader_std.c ****                 {
 1309              		.loc 1 130 0
 1310 0090 774B     		ldr	r3, .L158+12
 1311 0092 1B78     		ldrb	r3, [r3]	@ zero_extendqisi2
 1312 0094 DBB2     		uxtb	r3, r3
 1313 0096 032B     		cmp	r3, #3
 1314 0098 05D0     		beq	.L137
 1315 009a 2EE0     		b	.L153
 1316              	.LVL119:
 1317              	.L114:
 139:.\Generated_Source\PSoC5/USB_Bootloader_std.c ****                             /* Move to next string descriptor */
 1318              		.loc 1 139 0
 1319 009c 0A78     		ldrb	r2, [r1]	@ zero_extendqisi2
 1320              	.LVL120:
 141:.\Generated_Source\PSoC5/USB_Bootloader_std.c ****                             nStr++;
 1321              		.loc 1 141 0
 1322 009e 1144     		add	r1, r1, r2
 1323              	.LVL121:
 142:.\Generated_Source\PSoC5/USB_Bootloader_std.c ****                         }
 1324              		.loc 1 142 0
 1325 00a0 0133     		adds	r3, r3, #1
ARM GAS  C:\Users\Robert\AppData\Local\Temp\ccLuFIyc.s 			page 47


 1326              	.LVL122:
 1327 00a2 DBB2     		uxtb	r3, r3
 1328              	.LVL123:
 1329 00a4 01E0     		b	.L111
 1330              	.LVL124:
 1331              	.L137:
 1332 00a6 0023     		movs	r3, #0
 1333 00a8 7249     		ldr	r1, .L158+16
 1334              	.LVL125:
 1335              	.L111:
 136:.\Generated_Source\PSoC5/USB_Bootloader_std.c ****                         {
 1336              		.loc 1 136 0
 1337 00aa 734A     		ldr	r2, .L158+20
 1338 00ac 1278     		ldrb	r2, [r2]	@ zero_extendqisi2
 1339 00ae D2B2     		uxtb	r2, r2
 1340 00b0 9A42     		cmp	r2, r3
 1341 00b2 03D9     		bls	.L113
 136:.\Generated_Source\PSoC5/USB_Bootloader_std.c ****                         {
 1342              		.loc 1 136 0 is_stmt 0 discriminator 1
 1343 00b4 0A78     		ldrb	r2, [r1]	@ zero_extendqisi2
 1344 00b6 12F0FF0F 		tst	r2, #255
 1345 00ba EFD1     		bne	.L114
 1346              	.L113:
 147:.\Generated_Source\PSoC5/USB_Bootloader_std.c ****                         {
 1347              		.loc 1 147 0 is_stmt 1
 1348 00bc 6E4B     		ldr	r3, .L158+20
 1349              	.LVL126:
 1350 00be 1B78     		ldrb	r3, [r3]	@ zero_extendqisi2
 1351 00c0 DBB2     		uxtb	r3, r3
 1352 00c2 EE2B     		cmp	r3, #238
 1353 00c4 00D1     		bne	.L115
 149:.\Generated_Source\PSoC5/USB_Bootloader_std.c ****                         }
 1354              		.loc 1 149 0
 1355 00c6 6D49     		ldr	r1, .L158+24
 1356              	.LVL127:
 1357              	.L115:
 154:.\Generated_Source\PSoC5/USB_Bootloader_std.c ****                             (CY_GET_REG8(USB_Bootloader_wValueLo) ==
 1358              		.loc 1 154 0
 1359 00c8 6B4B     		ldr	r3, .L158+20
 1360 00ca 1B78     		ldrb	r3, [r3]	@ zero_extendqisi2
 1361 00cc 13F0FF0F 		tst	r3, #255
 1362 00d0 07D0     		beq	.L116
 155:.\Generated_Source\PSoC5/USB_Bootloader_std.c ****                             USB_Bootloader_DEVICE0_DESCR[USB_Bootloader_DEVICE_DESCR_SN_SHIFT]) )
 1363              		.loc 1 155 0 discriminator 1
 1364 00d2 694B     		ldr	r3, .L158+20
 1365 00d4 1B78     		ldrb	r3, [r3]	@ zero_extendqisi2
 1366 00d6 DBB2     		uxtb	r3, r3
 156:.\Generated_Source\PSoC5/USB_Bootloader_std.c ****                         {
 1367              		.loc 1 156 0 discriminator 1
 1368 00d8 694A     		ldr	r2, .L158+28
 1369 00da 127C     		ldrb	r2, [r2, #16]	@ zero_extendqisi2
 154:.\Generated_Source\PSoC5/USB_Bootloader_std.c ****                             (CY_GET_REG8(USB_Bootloader_wValueLo) ==
 1370              		.loc 1 154 0 discriminator 1
 1371 00dc 9342     		cmp	r3, r2
 1372 00de 00D1     		bne	.L116
 173:.\Generated_Source\PSoC5/USB_Bootloader_std.c ****                             #endif  /* defined(USB_Bootloader_ENABLE_IDSN_STRING) */
 1373              		.loc 1 173 0
ARM GAS  C:\Users\Robert\AppData\Local\Temp\ccLuFIyc.s 			page 48


 1374 00e0 6849     		ldr	r1, .L158+32
 1375              	.LVL128:
 1376              	.L116:
 177:.\Generated_Source\PSoC5/USB_Bootloader_std.c ****                     {
 1377              		.loc 1 177 0
 1378 00e2 0B78     		ldrb	r3, [r1]	@ zero_extendqisi2
 1379 00e4 13F0FF0F 		tst	r3, #255
 1380 00e8 00F02B81 		beq	.L140
 179:.\Generated_Source\PSoC5/USB_Bootloader_std.c ****                         USB_Bootloader_currentTD.pData = pStr;
 1381              		.loc 1 179 0
 1382 00ec 0B78     		ldrb	r3, [r1]	@ zero_extendqisi2
 1383 00ee 5D4A     		ldr	r2, .L158
 1384 00f0 1380     		strh	r3, [r2]	@ movhi
 180:.\Generated_Source\PSoC5/USB_Bootloader_std.c ****                         requestHandled  = USB_Bootloader_InitControlRead();
 1385              		.loc 1 180 0
 1386 00f2 5160     		str	r1, [r2, #4]
 181:.\Generated_Source\PSoC5/USB_Bootloader_std.c ****                     }
 1387              		.loc 1 181 0
 1388 00f4 FFF7FEFF 		bl	USB_Bootloader_InitControlRead
 1389              	.LVL129:
 1390 00f8 10BD     		pop	{r4, pc}
 1391              	.LVL130:
 1392              	.L153:
 187:.\Generated_Source\PSoC5/USB_Bootloader_std.c ****                 }
 1393              		.loc 1 187 0
 1394 00fa FFF7FEFF 		bl	USB_Bootloader_DispatchClassRqst
 1395              	.LVL131:
 1396 00fe 10BD     		pop	{r4, pc}
 1397              	.LVL132:
 1398              	.L104:
 191:.\Generated_Source\PSoC5/USB_Bootloader_std.c ****                 {
 1399              		.loc 1 191 0
 1400 0100 594B     		ldr	r3, .L158+4
 1401 0102 1B78     		ldrb	r3, [r3]	@ zero_extendqisi2
 1402 0104 13F00303 		ands	r3, r3, #3
 1403 0108 17D0     		beq	.L117
 1404 010a 022B     		cmp	r3, #2
 1405 010c 40F01B81 		bne	.L154
 194:.\Generated_Source\PSoC5/USB_Bootloader_std.c ****                         USB_Bootloader_tBuffer[0u] = USB_Bootloader_EP[ \
 1406              		.loc 1 194 0
 1407 0110 5449     		ldr	r1, .L158
 1408 0112 0B80     		strh	r3, [r1]	@ movhi
 196:.\Generated_Source\PSoC5/USB_Bootloader_std.c ****                         USB_Bootloader_tBuffer[1u] = 0u;
 1409              		.loc 1 196 0
 1410 0114 5C4B     		ldr	r3, .L158+36
 1411 0116 1B78     		ldrb	r3, [r3]	@ zero_extendqisi2
 1412 0118 03F07F03 		and	r3, r3, #127
 1413 011c 03EB4303 		add	r3, r3, r3, lsl #1
 1414 0120 9B00     		lsls	r3, r3, #2
 1415 0122 5A4A     		ldr	r2, .L158+40
 1416 0124 1344     		add	r3, r3, r2
 1417 0126 9A78     		ldrb	r2, [r3, #2]	@ zero_extendqisi2
 1418 0128 D2B2     		uxtb	r2, r2
 195:.\Generated_Source\PSoC5/USB_Bootloader_std.c ****                                         CY_GET_REG8(USB_Bootloader_wIndexLo) & USB_Bootloader_DIR_U
 1419              		.loc 1 195 0
 1420 012a 594B     		ldr	r3, .L158+44
 1421 012c 1A70     		strb	r2, [r3]
ARM GAS  C:\Users\Robert\AppData\Local\Temp\ccLuFIyc.s 			page 49


 197:.\Generated_Source\PSoC5/USB_Bootloader_std.c ****                         USB_Bootloader_currentTD.pData = &USB_Bootloader_tBuffer[0u];
 1422              		.loc 1 197 0
 1423 012e 0022     		movs	r2, #0
 1424 0130 5A70     		strb	r2, [r3, #1]
 198:.\Generated_Source\PSoC5/USB_Bootloader_std.c ****                         requestHandled  = USB_Bootloader_InitControlRead();
 1425              		.loc 1 198 0
 1426 0132 4B60     		str	r3, [r1, #4]
 199:.\Generated_Source\PSoC5/USB_Bootloader_std.c ****                         break;
 1427              		.loc 1 199 0
 1428 0134 FFF7FEFF 		bl	USB_Bootloader_InitControlRead
 1429              	.LVL133:
 200:.\Generated_Source\PSoC5/USB_Bootloader_std.c ****                     case USB_Bootloader_RQST_RCPT_DEV:
 1430              		.loc 1 200 0
 1431 0138 10BD     		pop	{r4, pc}
 1432              	.LVL134:
 1433              	.L117:
 202:.\Generated_Source\PSoC5/USB_Bootloader_std.c ****                         USB_Bootloader_tBuffer[0u] = USB_Bootloader_deviceStatus;
 1434              		.loc 1 202 0
 1435 013a 4A49     		ldr	r1, .L158
 1436 013c 0223     		movs	r3, #2
 1437 013e 0B80     		strh	r3, [r1]	@ movhi
 203:.\Generated_Source\PSoC5/USB_Bootloader_std.c ****                         USB_Bootloader_tBuffer[1u] = 0u;
 1438              		.loc 1 203 0
 1439 0140 544B     		ldr	r3, .L158+48
 1440 0142 1A78     		ldrb	r2, [r3]	@ zero_extendqisi2
 1441 0144 D2B2     		uxtb	r2, r2
 1442 0146 524B     		ldr	r3, .L158+44
 1443 0148 1A70     		strb	r2, [r3]
 204:.\Generated_Source\PSoC5/USB_Bootloader_std.c ****                         USB_Bootloader_currentTD.pData = &USB_Bootloader_tBuffer[0u];
 1444              		.loc 1 204 0
 1445 014a 0022     		movs	r2, #0
 1446 014c 5A70     		strb	r2, [r3, #1]
 205:.\Generated_Source\PSoC5/USB_Bootloader_std.c ****                         requestHandled  = USB_Bootloader_InitControlRead();
 1447              		.loc 1 205 0
 1448 014e 4B60     		str	r3, [r1, #4]
 206:.\Generated_Source\PSoC5/USB_Bootloader_std.c ****                         break;
 1449              		.loc 1 206 0
 1450 0150 FFF7FEFF 		bl	USB_Bootloader_InitControlRead
 1451              	.LVL135:
 207:.\Generated_Source\PSoC5/USB_Bootloader_std.c ****                     default:    /* requestHandled is initialized as FALSE by default */
 1452              		.loc 1 207 0
 1453 0154 10BD     		pop	{r4, pc}
 1454              	.LVL136:
 1455              	.L107:
 213:.\Generated_Source\PSoC5/USB_Bootloader_std.c ****                 USB_Bootloader_currentTD.pData = (volatile uint8 *)&USB_Bootloader_configuration;
 1456              		.loc 1 213 0
 1457 0156 434B     		ldr	r3, .L158
 1458 0158 0122     		movs	r2, #1
 1459 015a 1A80     		strh	r2, [r3]	@ movhi
 214:.\Generated_Source\PSoC5/USB_Bootloader_std.c ****                 requestHandled  = USB_Bootloader_InitControlRead();
 1460              		.loc 1 214 0
 1461 015c 4E4A     		ldr	r2, .L158+52
 1462 015e 5A60     		str	r2, [r3, #4]
 215:.\Generated_Source\PSoC5/USB_Bootloader_std.c ****                 break;
 1463              		.loc 1 215 0
 1464 0160 FFF7FEFF 		bl	USB_Bootloader_InitControlRead
 1465              	.LVL137:
ARM GAS  C:\Users\Robert\AppData\Local\Temp\ccLuFIyc.s 			page 50


 216:.\Generated_Source\PSoC5/USB_Bootloader_std.c ****             case USB_Bootloader_GET_INTERFACE:
 1466              		.loc 1 216 0
 1467 0164 10BD     		pop	{r4, pc}
 1468              	.LVL138:
 1469              	.L108:
 218:.\Generated_Source\PSoC5/USB_Bootloader_std.c ****                 USB_Bootloader_currentTD.pData = (volatile uint8 *)&USB_Bootloader_interfaceSetting
 1470              		.loc 1 218 0
 1471 0166 3F4A     		ldr	r2, .L158
 1472 0168 0123     		movs	r3, #1
 1473 016a 1380     		strh	r3, [r2]	@ movhi
 220:.\Generated_Source\PSoC5/USB_Bootloader_std.c ****                 requestHandled  = USB_Bootloader_InitControlRead();
 1474              		.loc 1 220 0
 1475 016c 464B     		ldr	r3, .L158+36
 1476 016e 1B78     		ldrb	r3, [r3]	@ zero_extendqisi2
 219:.\Generated_Source\PSoC5/USB_Bootloader_std.c ****                                                                             CY_GET_REG8(USB_Bootloa
 1477              		.loc 1 219 0
 1478 0170 4A49     		ldr	r1, .L158+56
 1479 0172 0B44     		add	r3, r3, r1
 1480 0174 5360     		str	r3, [r2, #4]
 221:.\Generated_Source\PSoC5/USB_Bootloader_std.c ****                 break;
 1481              		.loc 1 221 0
 1482 0176 FFF7FEFF 		bl	USB_Bootloader_InitControlRead
 1483              	.LVL139:
 222:.\Generated_Source\PSoC5/USB_Bootloader_std.c ****             default: /* requestHandled is initialized as FALSE by default */
 1484              		.loc 1 222 0
 1485 017a 10BD     		pop	{r4, pc}
 1486              	.LVL140:
 1487              	.L102:
 229:.\Generated_Source\PSoC5/USB_Bootloader_std.c ****         {
 1488              		.loc 1 229 0
 1489 017c 3B4B     		ldr	r3, .L158+8
 1490 017e 1B78     		ldrb	r3, [r3]	@ zero_extendqisi2
 1491 0180 013B     		subs	r3, r3, #1
 1492 0182 0A2B     		cmp	r3, #10
 1493 0184 00F2E180 		bhi	.L142
 1494 0188 DFE813F0 		tbh	[pc, r3, lsl #1]
 1495              	.L120:
 1496 018c 4700     		.2byte	(.L119-.L120)/2
 1497 018e DF00     		.2byte	(.L142-.L120)/2
 1498 0190 A400     		.2byte	(.L121-.L120)/2
 1499 0192 DF00     		.2byte	(.L142-.L120)/2
 1500 0194 0B00     		.2byte	(.L122-.L120)/2
 1501 0196 DF00     		.2byte	(.L142-.L120)/2
 1502 0198 DF00     		.2byte	(.L142-.L120)/2
 1503 019a DF00     		.2byte	(.L142-.L120)/2
 1504 019c 1300     		.2byte	(.L123-.L120)/2
 1505 019e DF00     		.2byte	(.L142-.L120)/2
 1506 01a0 3000     		.2byte	(.L124-.L120)/2
 1507              		.p2align 1
 1508              	.L122:
 232:.\Generated_Source\PSoC5/USB_Bootloader_std.c ****                 requestHandled = USB_Bootloader_InitNoDataControlTransfer();
 1509              		.loc 1 232 0
 1510 01a2 354B     		ldr	r3, .L158+20
 1511 01a4 1B78     		ldrb	r3, [r3]	@ zero_extendqisi2
 1512 01a6 DBB2     		uxtb	r3, r3
 1513 01a8 3D4A     		ldr	r2, .L158+60
 1514 01aa 1370     		strb	r3, [r2]
ARM GAS  C:\Users\Robert\AppData\Local\Temp\ccLuFIyc.s 			page 51


 233:.\Generated_Source\PSoC5/USB_Bootloader_std.c ****                 break;
 1515              		.loc 1 233 0
 1516 01ac FFF7FEFF 		bl	USB_Bootloader_InitNoDataControlTransfer
 1517              	.LVL141:
 234:.\Generated_Source\PSoC5/USB_Bootloader_std.c ****             case USB_Bootloader_SET_CONFIGURATION:
 1518              		.loc 1 234 0
 1519 01b0 10BD     		pop	{r4, pc}
 1520              	.LVL142:
 1521              	.L123:
 236:.\Generated_Source\PSoC5/USB_Bootloader_std.c ****                 if(configurationN > 0u)
 1522              		.loc 1 236 0
 1523 01b2 314B     		ldr	r3, .L158+20
 1524 01b4 1B78     		ldrb	r3, [r3]	@ zero_extendqisi2
 1525              	.LVL143:
 237:.\Generated_Source\PSoC5/USB_Bootloader_std.c ****                 {   /* Verify that configuration descriptor exists */
 1526              		.loc 1 237 0
 1527 01b6 03F0FF04 		and	r4, r3, #255
 1528 01ba 1BB1     		cbz	r3, .L125
 239:.\Generated_Source\PSoC5/USB_Bootloader_std.c ****                 }
 1529              		.loc 1 239 0
 1530 01bc 601E     		subs	r0, r4, #1
 1531 01be C0B2     		uxtb	r0, r0
 1532 01c0 FFF7FEFF 		bl	USB_Bootloader_GetConfigTablePtr
 1533              	.LVL144:
 1534              	.L125:
 242:.\Generated_Source\PSoC5/USB_Bootloader_std.c ****                 {
 1535              		.loc 1 242 0
 1536 01c4 04B1     		cbz	r4, .L126
 242:.\Generated_Source\PSoC5/USB_Bootloader_std.c ****                 {
 1537              		.loc 1 242 0 is_stmt 0 discriminator 1
 1538 01c6 10B9     		cbnz	r0, .L127
 1539              	.L126:
 242:.\Generated_Source\PSoC5/USB_Bootloader_std.c ****                 {
 1540              		.loc 1 242 0 discriminator 3
 1541 01c8 002C     		cmp	r4, #0
 1542 01ca 40F0C080 		bne	.L143
 1543              	.L127:
 245:.\Generated_Source\PSoC5/USB_Bootloader_std.c ****                     {
 1544              		.loc 1 245 0 is_stmt 1
 1545 01ce 324B     		ldr	r3, .L158+52
 1546 01d0 1B78     		ldrb	r3, [r3]	@ zero_extendqisi2
 1547 01d2 DBB2     		uxtb	r3, r3
 1548 01d4 9C42     		cmp	r4, r3
 1549 01d6 06D0     		beq	.L128
 247:.\Generated_Source\PSoC5/USB_Bootloader_std.c ****                         USB_Bootloader_configurationChanged = USB_Bootloader_TRUE;
 1550              		.loc 1 247 0
 1551 01d8 2F4B     		ldr	r3, .L158+52
 1552 01da 1C70     		strb	r4, [r3]
 248:.\Generated_Source\PSoC5/USB_Bootloader_std.c ****                         USB_Bootloader_Config(USB_Bootloader_TRUE);
 1553              		.loc 1 248 0
 1554 01dc 0120     		movs	r0, #1
 1555              	.LVL145:
 1556 01de 314B     		ldr	r3, .L158+64
 1557 01e0 1870     		strb	r0, [r3]
 249:.\Generated_Source\PSoC5/USB_Bootloader_std.c ****                     }
 1558              		.loc 1 249 0
 1559 01e2 FFF7FEFF 		bl	USB_Bootloader_Config
ARM GAS  C:\Users\Robert\AppData\Local\Temp\ccLuFIyc.s 			page 52


 1560              	.LVL146:
 1561              	.L128:
 251:.\Generated_Source\PSoC5/USB_Bootloader_std.c ****                 }
 1562              		.loc 1 251 0
 1563 01e6 FFF7FEFF 		bl	USB_Bootloader_InitNoDataControlTransfer
 1564              	.LVL147:
 1565 01ea 10BD     		pop	{r4, pc}
 1566              	.LVL148:
 1567              	.L124:
 255:.\Generated_Source\PSoC5/USB_Bootloader_std.c ****                 {
 1568              		.loc 1 255 0
 1569 01ec FFF7FEFF 		bl	USB_Bootloader_ValidateAlternateSetting
 1570              	.LVL149:
 1571 01f0 0028     		cmp	r0, #0
 1572 01f2 00F0AE80 		beq	.L144
 257:.\Generated_Source\PSoC5/USB_Bootloader_std.c ****                     USB_Bootloader_interfaceNumber = interfaceNumber;
 1573              		.loc 1 257 0
 1574 01f6 244B     		ldr	r3, .L158+36
 1575 01f8 1C78     		ldrb	r4, [r3]	@ zero_extendqisi2
 1576 01fa E4B2     		uxtb	r4, r4
 1577              	.LVL150:
 258:.\Generated_Source\PSoC5/USB_Bootloader_std.c ****                     USB_Bootloader_configurationChanged = USB_Bootloader_TRUE;
 1578              		.loc 1 258 0
 1579 01fc 2A4B     		ldr	r3, .L158+68
 1580 01fe 1C70     		strb	r4, [r3]
 259:.\Generated_Source\PSoC5/USB_Bootloader_std.c ****                     #if ((USB_Bootloader_EP_MA == USB_Bootloader__MA_DYNAMIC) && \
 1581              		.loc 1 259 0
 1582 0200 0122     		movs	r2, #1
 1583 0202 284B     		ldr	r3, .L158+64
 1584 0204 1A70     		strb	r2, [r3]
 264:.\Generated_Source\PSoC5/USB_Bootloader_std.c ****                     #endif /*  (USB_Bootloader_EP_MA == USB_Bootloader__MA_DYNAMIC) */
 1585              		.loc 1 264 0
 1586 0206 FFF7FEFF 		bl	USB_Bootloader_ConfigAltChanged
 1587              	.LVL151:
 268:.\Generated_Source\PSoC5/USB_Bootloader_std.c ****                     requestHandled = USB_Bootloader_InitNoDataControlTransfer();
 1588              		.loc 1 268 0
 1589 020a 244B     		ldr	r3, .L158+56
 1590 020c 1B5D     		ldrb	r3, [r3, r4]	@ zero_extendqisi2
 1591 020e DBB2     		uxtb	r3, r3
 267:.\Generated_Source\PSoC5/USB_Bootloader_std.c ****                          USB_Bootloader_interfaceSetting[interfaceNumber];
 1592              		.loc 1 267 0
 1593 0210 264A     		ldr	r2, .L158+72
 1594 0212 1355     		strb	r3, [r2, r4]
 269:.\Generated_Source\PSoC5/USB_Bootloader_std.c ****                 }
 1595              		.loc 1 269 0
 1596 0214 FFF7FEFF 		bl	USB_Bootloader_InitNoDataControlTransfer
 1597              	.LVL152:
 1598 0218 10BD     		pop	{r4, pc}
 1599              	.LVL153:
 1600              	.L119:
 273:.\Generated_Source\PSoC5/USB_Bootloader_std.c ****                 {
 1601              		.loc 1 273 0
 1602 021a 134B     		ldr	r3, .L158+4
 1603 021c 1B78     		ldrb	r3, [r3]	@ zero_extendqisi2
 1604 021e 03F00303 		and	r3, r3, #3
 1605 0222 012B     		cmp	r3, #1
 1606 0224 44D0     		beq	.L129
ARM GAS  C:\Users\Robert\AppData\Local\Temp\ccLuFIyc.s 			page 53


 1607 0226 73B1     		cbz	r3, .L130
 1608 0228 022B     		cmp	r3, #2
 1609 022a 40F09480 		bne	.L155
 276:.\Generated_Source\PSoC5/USB_Bootloader_std.c ****                         {
 1610              		.loc 1 276 0
 1611 022e 03F18043 		add	r3, r3, #1073741824
 1612 0232 03F5C043 		add	r3, r3, #24576
 1613 0236 1B78     		ldrb	r3, [r3]	@ zero_extendqisi2
 1614 0238 13F0FF0F 		tst	r3, #255
 1615 023c 40F08D80 		bne	.L146
 278:.\Generated_Source\PSoC5/USB_Bootloader_std.c ****                         }
 1616              		.loc 1 278 0
 1617 0240 FFF7FEFF 		bl	USB_Bootloader_ClearEndpointHalt
 1618              	.LVL154:
 1619 0244 10BD     		pop	{r4, pc}
 1620              	.LVL155:
 1621              	.L130:
 283:.\Generated_Source\PSoC5/USB_Bootloader_std.c ****                         {
 1622              		.loc 1 283 0
 1623 0246 0C4B     		ldr	r3, .L158+20
 1624 0248 1B78     		ldrb	r3, [r3]	@ zero_extendqisi2
 1625 024a DBB2     		uxtb	r3, r3
 1626 024c 012B     		cmp	r3, #1
 1627 024e 40F08680 		bne	.L147
 285:.\Generated_Source\PSoC5/USB_Bootloader_std.c ****                             requestHandled = USB_Bootloader_InitNoDataControlTransfer();
 1628              		.loc 1 285 0
 1629 0252 104A     		ldr	r2, .L158+48
 1630 0254 1378     		ldrb	r3, [r2]	@ zero_extendqisi2
 1631 0256 03F0FD03 		and	r3, r3, #253
 1632 025a 1370     		strb	r3, [r2]
 286:.\Generated_Source\PSoC5/USB_Bootloader_std.c ****                         }
 1633              		.loc 1 286 0
 1634 025c FFF7FEFF 		bl	USB_Bootloader_InitNoDataControlTransfer
 1635              	.LVL156:
 1636 0260 10BD     		pop	{r4, pc}
 1637              	.L159:
 1638 0262 00BF     		.align	2
 1639              	.L158:
 1640 0264 00000000 		.word	USB_Bootloader_currentTD
 1641 0268 00600040 		.word	1073766400
 1642 026c 01600040 		.word	1073766401
 1643 0270 03600040 		.word	1073766403
 1644 0274 00000000 		.word	USB_Bootloader_STRING_DESCRIPTORS
 1645 0278 02600040 		.word	1073766402
 1646 027c 00000000 		.word	USB_Bootloader_MSOS_DESCRIPTOR
 1647 0280 00000000 		.word	USB_Bootloader_DEVICE0_DESCR
 1648 0284 00000000 		.word	USB_Bootloader_SN_STRING_DESCRIPTOR
 1649 0288 04600040 		.word	1073766404
 1650 028c 00000000 		.word	USB_Bootloader_EP
 1651 0290 00000000 		.word	.LANCHOR0
 1652 0294 00000000 		.word	USB_Bootloader_deviceStatus
 1653 0298 00000000 		.word	USB_Bootloader_configuration
 1654 029c 00000000 		.word	USB_Bootloader_interfaceSetting
 1655 02a0 00000000 		.word	USB_Bootloader_deviceAddress
 1656 02a4 00000000 		.word	USB_Bootloader_configurationChanged
 1657 02a8 00000000 		.word	USB_Bootloader_interfaceNumber
 1658 02ac 00000000 		.word	USB_Bootloader_interfaceSetting_last
ARM GAS  C:\Users\Robert\AppData\Local\Temp\ccLuFIyc.s 			page 54


 1659              	.LVL157:
 1660              	.L129:
 291:.\Generated_Source\PSoC5/USB_Bootloader_std.c ****                         {
 1661              		.loc 1 291 0
 1662 02b0 314B     		ldr	r3, .L160
 1663 02b2 1B78     		ldrb	r3, [r3]	@ zero_extendqisi2
 1664 02b4 13F0FF0F 		tst	r3, #255
 1665 02b8 53D1     		bne	.L148
 294:.\Generated_Source\PSoC5/USB_Bootloader_std.c ****                             requestHandled = USB_Bootloader_InitNoDataControlTransfer();
 1666              		.loc 1 294 0
 1667 02ba 304B     		ldr	r3, .L160+4
 1668 02bc 1878     		ldrb	r0, [r3]	@ zero_extendqisi2
 293:.\Generated_Source\PSoC5/USB_Bootloader_std.c ****                                                                 (uint8)~(CY_GET_REG8(USB_Bootloader
 1669              		.loc 1 293 0
 1670 02be 0233     		adds	r3, r3, #2
 1671 02c0 1B78     		ldrb	r3, [r3]	@ zero_extendqisi2
 1672 02c2 DBB2     		uxtb	r3, r3
 1673 02c4 2E49     		ldr	r1, .L160+8
 1674 02c6 CA5C     		ldrb	r2, [r1, r3]	@ zero_extendqisi2
 1675 02c8 22EA0002 		bic	r2, r2, r0
 1676 02cc CA54     		strb	r2, [r1, r3]
 295:.\Generated_Source\PSoC5/USB_Bootloader_std.c ****                         }
 1677              		.loc 1 295 0
 1678 02ce FFF7FEFF 		bl	USB_Bootloader_InitNoDataControlTransfer
 1679              	.LVL158:
 1680 02d2 10BD     		pop	{r4, pc}
 1681              	.LVL159:
 1682              	.L121:
 303:.\Generated_Source\PSoC5/USB_Bootloader_std.c ****                 {
 1683              		.loc 1 303 0
 1684 02d4 2B4B     		ldr	r3, .L160+12
 1685 02d6 1B78     		ldrb	r3, [r3]	@ zero_extendqisi2
 1686 02d8 03F00303 		and	r3, r3, #3
 1687 02dc 012B     		cmp	r3, #1
 1688 02de 1AD0     		beq	.L132
 1689 02e0 63B1     		cbz	r3, .L133
 1690 02e2 022B     		cmp	r3, #2
 1691 02e4 3FD1     		bne	.L156
 306:.\Generated_Source\PSoC5/USB_Bootloader_std.c ****                         {
 1692              		.loc 1 306 0
 1693 02e6 03F18043 		add	r3, r3, #1073741824
 1694 02ea 03F5C043 		add	r3, r3, #24576
 1695 02ee 1B78     		ldrb	r3, [r3]	@ zero_extendqisi2
 1696 02f0 13F0FF0F 		tst	r3, #255
 1697 02f4 39D1     		bne	.L150
 308:.\Generated_Source\PSoC5/USB_Bootloader_std.c ****                         }
 1698              		.loc 1 308 0
 1699 02f6 FFF7FEFF 		bl	USB_Bootloader_SetEndpointHalt
 1700              	.LVL160:
 1701 02fa 10BD     		pop	{r4, pc}
 1702              	.LVL161:
 1703              	.L133:
 313:.\Generated_Source\PSoC5/USB_Bootloader_std.c ****                         {
 1704              		.loc 1 313 0
 1705 02fc 1F4B     		ldr	r3, .L160+4
 1706 02fe 1B78     		ldrb	r3, [r3]	@ zero_extendqisi2
 1707 0300 DBB2     		uxtb	r3, r3
ARM GAS  C:\Users\Robert\AppData\Local\Temp\ccLuFIyc.s 			page 55


 1708 0302 012B     		cmp	r3, #1
 1709 0304 33D1     		bne	.L151
 315:.\Generated_Source\PSoC5/USB_Bootloader_std.c ****                             requestHandled = USB_Bootloader_InitNoDataControlTransfer();
 1710              		.loc 1 315 0
 1711 0306 204A     		ldr	r2, .L160+16
 1712 0308 1378     		ldrb	r3, [r2]	@ zero_extendqisi2
 1713 030a 43F00203 		orr	r3, r3, #2
 1714 030e 1370     		strb	r3, [r2]
 316:.\Generated_Source\PSoC5/USB_Bootloader_std.c ****                         }
 1715              		.loc 1 316 0
 1716 0310 FFF7FEFF 		bl	USB_Bootloader_InitNoDataControlTransfer
 1717              	.LVL162:
 1718 0314 10BD     		pop	{r4, pc}
 1719              	.LVL163:
 1720              	.L132:
 321:.\Generated_Source\PSoC5/USB_Bootloader_std.c ****                         {
 1721              		.loc 1 321 0
 1722 0316 184B     		ldr	r3, .L160
 1723 0318 1B78     		ldrb	r3, [r3]	@ zero_extendqisi2
 1724 031a 13F0FF0F 		tst	r3, #255
 1725 031e 28D1     		bne	.L152
 324:.\Generated_Source\PSoC5/USB_Bootloader_std.c ****                             requestHandled = USB_Bootloader_InitNoDataControlTransfer();
 1726              		.loc 1 324 0
 1727 0320 164B     		ldr	r3, .L160+4
 1728 0322 1878     		ldrb	r0, [r3]	@ zero_extendqisi2
 323:.\Generated_Source\PSoC5/USB_Bootloader_std.c ****                                                                 (uint8)~(CY_GET_REG8(USB_Bootloader
 1729              		.loc 1 323 0
 1730 0324 0233     		adds	r3, r3, #2
 1731 0326 1B78     		ldrb	r3, [r3]	@ zero_extendqisi2
 1732 0328 DBB2     		uxtb	r3, r3
 1733 032a 1549     		ldr	r1, .L160+8
 1734 032c CA5C     		ldrb	r2, [r1, r3]	@ zero_extendqisi2
 1735 032e 22EA0002 		bic	r2, r2, r0
 1736 0332 CA54     		strb	r2, [r1, r3]
 325:.\Generated_Source\PSoC5/USB_Bootloader_std.c ****                         }
 1737              		.loc 1 325 0
 1738 0334 FFF7FEFF 		bl	USB_Bootloader_InitNoDataControlTransfer
 1739              	.LVL164:
 1740 0338 10BD     		pop	{r4, pc}
 1741              	.LVL165:
 1742              	.L135:
  90:.\Generated_Source\PSoC5/USB_Bootloader_std.c ****     uint8 interfaceNumber;
 1743              		.loc 1 90 0
 1744 033a 0020     		movs	r0, #0
 1745 033c 10BD     		pop	{r4, pc}
 1746              	.LVL166:
 1747              	.L136:
 1748 033e 0020     		movs	r0, #0
 1749              	.LVL167:
 1750 0340 10BD     		pop	{r4, pc}
 1751              	.LVL168:
 1752              	.L140:
 1753 0342 0020     		movs	r0, #0
 1754 0344 10BD     		pop	{r4, pc}
 1755              	.LVL169:
 1756              	.L154:
 1757 0346 0020     		movs	r0, #0
ARM GAS  C:\Users\Robert\AppData\Local\Temp\ccLuFIyc.s 			page 56


 1758 0348 10BD     		pop	{r4, pc}
 1759              	.L142:
 1760 034a 0020     		movs	r0, #0
 1761 034c 10BD     		pop	{r4, pc}
 1762              	.LVL170:
 1763              	.L143:
 1764 034e 0020     		movs	r0, #0
 1765              	.LVL171:
 1766 0350 10BD     		pop	{r4, pc}
 1767              	.L144:
 1768 0352 0020     		movs	r0, #0
 1769 0354 10BD     		pop	{r4, pc}
 1770              	.L155:
 1771 0356 0020     		movs	r0, #0
 1772 0358 10BD     		pop	{r4, pc}
 1773              	.L146:
 1774 035a 0020     		movs	r0, #0
 1775 035c 10BD     		pop	{r4, pc}
 1776              	.L147:
 1777 035e 0020     		movs	r0, #0
 1778 0360 10BD     		pop	{r4, pc}
 1779              	.L148:
 1780 0362 0020     		movs	r0, #0
 1781 0364 10BD     		pop	{r4, pc}
 1782              	.L156:
 1783 0366 0020     		movs	r0, #0
 1784 0368 10BD     		pop	{r4, pc}
 1785              	.L150:
 1786 036a 0020     		movs	r0, #0
 1787 036c 10BD     		pop	{r4, pc}
 1788              	.L151:
 1789 036e 0020     		movs	r0, #0
 1790 0370 10BD     		pop	{r4, pc}
 1791              	.L152:
 1792 0372 0020     		movs	r0, #0
 1793              	.LVL172:
 337:.\Generated_Source\PSoC5/USB_Bootloader_std.c **** 
 1794              		.loc 1 337 0
 1795 0374 10BD     		pop	{r4, pc}
 1796              	.L161:
 1797 0376 00BF     		.align	2
 1798              	.L160:
 1799 0378 04600040 		.word	1073766404
 1800 037c 02600040 		.word	1073766402
 1801 0380 00000000 		.word	USB_Bootloader_interfaceStatus
 1802 0384 00600040 		.word	1073766400
 1803 0388 00000000 		.word	USB_Bootloader_deviceStatus
 1804              		.cfi_endproc
 1805              	.LFE0:
 1806              		.size	USB_Bootloader_HandleStandardRqst, .-USB_Bootloader_HandleStandardRqst
 1807              		.bss
 1808              		.align	2
 1809              		.set	.LANCHOR0,. + 0
 1810              		.type	USB_Bootloader_tBuffer.5077, %object
 1811              		.size	USB_Bootloader_tBuffer.5077, 2
 1812              	USB_Bootloader_tBuffer.5077:
 1813 0000 0000     		.space	2
ARM GAS  C:\Users\Robert\AppData\Local\Temp\ccLuFIyc.s 			page 57


 1814 0002 0000     		.text
 1815              	.Letext0:
 1816              		.file 2 ".\\Generated_Source\\PSoC5\\cytypes.h"
 1817              		.file 3 ".\\Generated_Source\\PSoC5\\USB_Bootloader.h"
 1818              		.file 4 ".\\Generated_Source\\PSoC5\\USB_Bootloader_pvt.h"