ARM GAS  C:\Users\Robert\AppData\Local\Temp\ccLuFIyc.s 			page 1


   1              		.syntax unified
   2              		.cpu cortex-m3
   3              		.fpu softvfp
   4              		.eabi_attribute 20, 1
   5              		.eabi_attribute 21, 1
   6              		.eabi_attribute 23, 3
   7              		.eabi_attribute 24, 1
   8              		.eabi_attribute 25, 1
   9              		.eabi_attribute 26, 1
  10              		.eabi_attribute 30, 1
  11              		.eabi_attribute 34, 1
  12              		.eabi_attribute 18, 4
  13              		.thumb
  14              		.file	"USB_Bootloader_std.c"
  15              		.text
  16              	.Ltext0:
  17              		.cfi_sections	.debug_frame
  18              		.section	.text.USB_Bootloader_ConfigReg,"ax",%progbits
  19              		.align	2
  20              		.global	USB_Bootloader_ConfigReg
  21              		.thumb
  22              		.thumb_func
  23              		.type	USB_Bootloader_ConfigReg, %function
  24              	USB_Bootloader_ConfigReg:
  25              	.LFB1:
  26              		.file 1 ".\\Generated_Source\\PSoC5\\USB_Bootloader_std.c"
   1:.\Generated_Source\PSoC5/USB_Bootloader_std.c **** /*******************************************************************************
   2:.\Generated_Source\PSoC5/USB_Bootloader_std.c **** * File Name: USB_Bootloader_std.c
   3:.\Generated_Source\PSoC5/USB_Bootloader_std.c **** * Version 2.80
   4:.\Generated_Source\PSoC5/USB_Bootloader_std.c **** *
   5:.\Generated_Source\PSoC5/USB_Bootloader_std.c **** * Description:
   6:.\Generated_Source\PSoC5/USB_Bootloader_std.c **** *  USB Standard request handler.
   7:.\Generated_Source\PSoC5/USB_Bootloader_std.c **** *
   8:.\Generated_Source\PSoC5/USB_Bootloader_std.c **** * Note:
   9:.\Generated_Source\PSoC5/USB_Bootloader_std.c **** *
  10:.\Generated_Source\PSoC5/USB_Bootloader_std.c **** ********************************************************************************
  11:.\Generated_Source\PSoC5/USB_Bootloader_std.c **** * Copyright 2008-2014, Cypress Semiconductor Corporation.  All rights reserved.
  12:.\Generated_Source\PSoC5/USB_Bootloader_std.c **** * You may use this file only in accordance with the license, terms, conditions,
  13:.\Generated_Source\PSoC5/USB_Bootloader_std.c **** * disclaimers, and limitations in the end user license agreement accompanying
  14:.\Generated_Source\PSoC5/USB_Bootloader_std.c **** * the software package with which this file was provided.
  15:.\Generated_Source\PSoC5/USB_Bootloader_std.c **** *******************************************************************************/
  16:.\Generated_Source\PSoC5/USB_Bootloader_std.c **** 
  17:.\Generated_Source\PSoC5/USB_Bootloader_std.c **** #include "USB_Bootloader.h"
  18:.\Generated_Source\PSoC5/USB_Bootloader_std.c **** #include "USB_Bootloader_cdc.h"
  19:.\Generated_Source\PSoC5/USB_Bootloader_std.c **** #include "USB_Bootloader_pvt.h"
  20:.\Generated_Source\PSoC5/USB_Bootloader_std.c **** #if defined(USB_Bootloader_ENABLE_MIDI_STREAMING)
  21:.\Generated_Source\PSoC5/USB_Bootloader_std.c ****     #include "USB_Bootloader_midi.h"
  22:.\Generated_Source\PSoC5/USB_Bootloader_std.c **** #endif /*  USB_Bootloader_ENABLE_MIDI_STREAMING*/
  23:.\Generated_Source\PSoC5/USB_Bootloader_std.c **** 
  24:.\Generated_Source\PSoC5/USB_Bootloader_std.c **** 
  25:.\Generated_Source\PSoC5/USB_Bootloader_std.c **** /***************************************
  26:.\Generated_Source\PSoC5/USB_Bootloader_std.c **** *   Static data allocation
  27:.\Generated_Source\PSoC5/USB_Bootloader_std.c **** ***************************************/
  28:.\Generated_Source\PSoC5/USB_Bootloader_std.c **** 
  29:.\Generated_Source\PSoC5/USB_Bootloader_std.c **** #if defined(USB_Bootloader_ENABLE_FWSN_STRING)
  30:.\Generated_Source\PSoC5/USB_Bootloader_std.c ****     static volatile uint8 *USB_Bootloader_fwSerialNumberStringDescriptor;
  31:.\Generated_Source\PSoC5/USB_Bootloader_std.c ****     static volatile uint8 USB_Bootloader_snStringConfirm = USB_Bootloader_FALSE;
ARM GAS  C:\Users\Robert\AppData\Local\Temp\ccLuFIyc.s 			page 2


  32:.\Generated_Source\PSoC5/USB_Bootloader_std.c **** #endif  /* USB_Bootloader_ENABLE_FWSN_STRING */
  33:.\Generated_Source\PSoC5/USB_Bootloader_std.c **** 
  34:.\Generated_Source\PSoC5/USB_Bootloader_std.c **** #if defined(USB_Bootloader_ENABLE_FWSN_STRING)
  35:.\Generated_Source\PSoC5/USB_Bootloader_std.c **** 
  36:.\Generated_Source\PSoC5/USB_Bootloader_std.c ****     /*******************************************************************************
  37:.\Generated_Source\PSoC5/USB_Bootloader_std.c ****     * Function Name: USB_Bootloader_SerialNumString
  38:.\Generated_Source\PSoC5/USB_Bootloader_std.c ****     ********************************************************************************
  39:.\Generated_Source\PSoC5/USB_Bootloader_std.c ****     *
  40:.\Generated_Source\PSoC5/USB_Bootloader_std.c ****     * Summary:
  41:.\Generated_Source\PSoC5/USB_Bootloader_std.c ****     *  Application firmware may supply the source of the USB device descriptors
  42:.\Generated_Source\PSoC5/USB_Bootloader_std.c ****     *  serial number string during runtime.
  43:.\Generated_Source\PSoC5/USB_Bootloader_std.c ****     *
  44:.\Generated_Source\PSoC5/USB_Bootloader_std.c ****     * Parameters:
  45:.\Generated_Source\PSoC5/USB_Bootloader_std.c ****     *  snString:  pointer to string.
  46:.\Generated_Source\PSoC5/USB_Bootloader_std.c ****     *
  47:.\Generated_Source\PSoC5/USB_Bootloader_std.c ****     * Return:
  48:.\Generated_Source\PSoC5/USB_Bootloader_std.c ****     *  None.
  49:.\Generated_Source\PSoC5/USB_Bootloader_std.c ****     *
  50:.\Generated_Source\PSoC5/USB_Bootloader_std.c ****     * Reentrant:
  51:.\Generated_Source\PSoC5/USB_Bootloader_std.c ****     *  No.
  52:.\Generated_Source\PSoC5/USB_Bootloader_std.c ****     *
  53:.\Generated_Source\PSoC5/USB_Bootloader_std.c ****     *******************************************************************************/
  54:.\Generated_Source\PSoC5/USB_Bootloader_std.c ****     void  USB_Bootloader_SerialNumString(uint8 snString[]) 
  55:.\Generated_Source\PSoC5/USB_Bootloader_std.c ****     {
  56:.\Generated_Source\PSoC5/USB_Bootloader_std.c ****         USB_Bootloader_snStringConfirm = USB_Bootloader_FALSE;
  57:.\Generated_Source\PSoC5/USB_Bootloader_std.c ****         if(snString != NULL)
  58:.\Generated_Source\PSoC5/USB_Bootloader_std.c ****         {
  59:.\Generated_Source\PSoC5/USB_Bootloader_std.c ****             /* Check descriptor validation */
  60:.\Generated_Source\PSoC5/USB_Bootloader_std.c ****             if( (snString[0u] > 1u ) && (snString[1u] == USB_Bootloader_DESCR_STRING) )
  61:.\Generated_Source\PSoC5/USB_Bootloader_std.c ****             {
  62:.\Generated_Source\PSoC5/USB_Bootloader_std.c ****                 USB_Bootloader_fwSerialNumberStringDescriptor = snString;
  63:.\Generated_Source\PSoC5/USB_Bootloader_std.c ****                 USB_Bootloader_snStringConfirm = USB_Bootloader_TRUE;
  64:.\Generated_Source\PSoC5/USB_Bootloader_std.c ****             }
  65:.\Generated_Source\PSoC5/USB_Bootloader_std.c ****         }
  66:.\Generated_Source\PSoC5/USB_Bootloader_std.c ****     }
  67:.\Generated_Source\PSoC5/USB_Bootloader_std.c **** 
  68:.\Generated_Source\PSoC5/USB_Bootloader_std.c **** #endif  /* USB_Bootloader_ENABLE_FWSN_STRING */
  69:.\Generated_Source\PSoC5/USB_Bootloader_std.c **** 
  70:.\Generated_Source\PSoC5/USB_Bootloader_std.c **** 
  71:.\Generated_Source\PSoC5/USB_Bootloader_std.c **** /*******************************************************************************
  72:.\Generated_Source\PSoC5/USB_Bootloader_std.c **** * Function Name: USB_Bootloader_HandleStandardRqst
  73:.\Generated_Source\PSoC5/USB_Bootloader_std.c **** ********************************************************************************
  74:.\Generated_Source\PSoC5/USB_Bootloader_std.c **** *
  75:.\Generated_Source\PSoC5/USB_Bootloader_std.c **** * Summary:
  76:.\Generated_Source\PSoC5/USB_Bootloader_std.c **** *  This Routine dispatches standard requests
  77:.\Generated_Source\PSoC5/USB_Bootloader_std.c **** *
  78:.\Generated_Source\PSoC5/USB_Bootloader_std.c **** * Parameters:
  79:.\Generated_Source\PSoC5/USB_Bootloader_std.c **** *  None.
  80:.\Generated_Source\PSoC5/USB_Bootloader_std.c **** *
  81:.\Generated_Source\PSoC5/USB_Bootloader_std.c **** * Return:
  82:.\Generated_Source\PSoC5/USB_Bootloader_std.c **** *  TRUE if request handled.
  83:.\Generated_Source\PSoC5/USB_Bootloader_std.c **** *
  84:.\Generated_Source\PSoC5/USB_Bootloader_std.c **** * Reentrant:
  85:.\Generated_Source\PSoC5/USB_Bootloader_std.c **** *  No.
  86:.\Generated_Source\PSoC5/USB_Bootloader_std.c **** *
  87:.\Generated_Source\PSoC5/USB_Bootloader_std.c **** *******************************************************************************/
  88:.\Generated_Source\PSoC5/USB_Bootloader_std.c **** uint8 USB_Bootloader_HandleStandardRqst(void) 
ARM GAS  C:\Users\Robert\AppData\Local\Temp\ccLuFIyc.s 			page 3


  89:.\Generated_Source\PSoC5/USB_Bootloader_std.c **** {
  90:.\Generated_Source\PSoC5/USB_Bootloader_std.c ****     uint8 requestHandled = USB_Bootloader_FALSE;
  91:.\Generated_Source\PSoC5/USB_Bootloader_std.c ****     uint8 interfaceNumber;
  92:.\Generated_Source\PSoC5/USB_Bootloader_std.c ****     uint8 configurationN;
  93:.\Generated_Source\PSoC5/USB_Bootloader_std.c ****     #if defined(USB_Bootloader_ENABLE_STRINGS)
  94:.\Generated_Source\PSoC5/USB_Bootloader_std.c ****         volatile uint8 *pStr = 0u;
  95:.\Generated_Source\PSoC5/USB_Bootloader_std.c ****         #if defined(USB_Bootloader_ENABLE_DESCRIPTOR_STRINGS)
  96:.\Generated_Source\PSoC5/USB_Bootloader_std.c ****             uint8 nStr;
  97:.\Generated_Source\PSoC5/USB_Bootloader_std.c ****             uint8 descrLength;
  98:.\Generated_Source\PSoC5/USB_Bootloader_std.c ****         #endif /* USB_Bootloader_ENABLE_DESCRIPTOR_STRINGS */
  99:.\Generated_Source\PSoC5/USB_Bootloader_std.c ****     #endif /* USB_Bootloader_ENABLE_STRINGS */
 100:.\Generated_Source\PSoC5/USB_Bootloader_std.c ****     static volatile uint8 USB_Bootloader_tBuffer[USB_Bootloader_STATUS_LENGTH_MAX];
 101:.\Generated_Source\PSoC5/USB_Bootloader_std.c ****     const T_USB_Bootloader_LUT CYCODE *pTmp;
 102:.\Generated_Source\PSoC5/USB_Bootloader_std.c ****     USB_Bootloader_currentTD.count = 0u;
 103:.\Generated_Source\PSoC5/USB_Bootloader_std.c **** 
 104:.\Generated_Source\PSoC5/USB_Bootloader_std.c ****     if ((CY_GET_REG8(USB_Bootloader_bmRequestType) & USB_Bootloader_RQST_DIR_MASK) == USB_Bootloade
 105:.\Generated_Source\PSoC5/USB_Bootloader_std.c ****     {
 106:.\Generated_Source\PSoC5/USB_Bootloader_std.c ****         /* Control Read */
 107:.\Generated_Source\PSoC5/USB_Bootloader_std.c ****         switch (CY_GET_REG8(USB_Bootloader_bRequest))
 108:.\Generated_Source\PSoC5/USB_Bootloader_std.c ****         {
 109:.\Generated_Source\PSoC5/USB_Bootloader_std.c ****             case USB_Bootloader_GET_DESCRIPTOR:
 110:.\Generated_Source\PSoC5/USB_Bootloader_std.c ****                 if (CY_GET_REG8(USB_Bootloader_wValueHi) == USB_Bootloader_DESCR_DEVICE)
 111:.\Generated_Source\PSoC5/USB_Bootloader_std.c ****                 {
 112:.\Generated_Source\PSoC5/USB_Bootloader_std.c ****                     pTmp = USB_Bootloader_GetDeviceTablePtr();
 113:.\Generated_Source\PSoC5/USB_Bootloader_std.c ****                     USB_Bootloader_currentTD.pData = (volatile uint8 *)pTmp->p_list;
 114:.\Generated_Source\PSoC5/USB_Bootloader_std.c ****                     USB_Bootloader_currentTD.count = USB_Bootloader_DEVICE_DESCR_LENGTH;
 115:.\Generated_Source\PSoC5/USB_Bootloader_std.c ****                     requestHandled  = USB_Bootloader_InitControlRead();
 116:.\Generated_Source\PSoC5/USB_Bootloader_std.c ****                 }
 117:.\Generated_Source\PSoC5/USB_Bootloader_std.c ****                 else if (CY_GET_REG8(USB_Bootloader_wValueHi) == USB_Bootloader_DESCR_CONFIG)
 118:.\Generated_Source\PSoC5/USB_Bootloader_std.c ****                 {
 119:.\Generated_Source\PSoC5/USB_Bootloader_std.c ****                     pTmp = USB_Bootloader_GetConfigTablePtr(CY_GET_REG8(USB_Bootloader_wValueLo));
 120:.\Generated_Source\PSoC5/USB_Bootloader_std.c ****                     if( pTmp != NULL )  /* Verify that requested descriptor exists */
 121:.\Generated_Source\PSoC5/USB_Bootloader_std.c ****                     {
 122:.\Generated_Source\PSoC5/USB_Bootloader_std.c ****                         USB_Bootloader_currentTD.pData = (volatile uint8 *)pTmp->p_list;
 123:.\Generated_Source\PSoC5/USB_Bootloader_std.c ****                         USB_Bootloader_currentTD.count = ((uint16)(USB_Bootloader_currentTD.pData)[
 124:.\Generated_Source\PSoC5/USB_Bootloader_std.c ****                                           USB_Bootloader_CONFIG_DESCR_TOTAL_LENGTH_HI] << 8u) | \
 125:.\Generated_Source\PSoC5/USB_Bootloader_std.c ****                                          (USB_Bootloader_currentTD.pData)[USB_Bootloader_CONFIG_DES
 126:.\Generated_Source\PSoC5/USB_Bootloader_std.c ****                         requestHandled  = USB_Bootloader_InitControlRead();
 127:.\Generated_Source\PSoC5/USB_Bootloader_std.c ****                     }
 128:.\Generated_Source\PSoC5/USB_Bootloader_std.c ****                 }
 129:.\Generated_Source\PSoC5/USB_Bootloader_std.c ****                 #if defined(USB_Bootloader_ENABLE_STRINGS)
 130:.\Generated_Source\PSoC5/USB_Bootloader_std.c ****                 else if (CY_GET_REG8(USB_Bootloader_wValueHi) == USB_Bootloader_DESCR_STRING)
 131:.\Generated_Source\PSoC5/USB_Bootloader_std.c ****                 {
 132:.\Generated_Source\PSoC5/USB_Bootloader_std.c ****                     /* Descriptor Strings*/
 133:.\Generated_Source\PSoC5/USB_Bootloader_std.c ****                     #if defined(USB_Bootloader_ENABLE_DESCRIPTOR_STRINGS)
 134:.\Generated_Source\PSoC5/USB_Bootloader_std.c ****                         nStr = 0u;
 135:.\Generated_Source\PSoC5/USB_Bootloader_std.c ****                         pStr = (volatile uint8 *)&USB_Bootloader_STRING_DESCRIPTORS[0u];
 136:.\Generated_Source\PSoC5/USB_Bootloader_std.c ****                         while ( (CY_GET_REG8(USB_Bootloader_wValueLo) > nStr) && (*pStr != 0u) )
 137:.\Generated_Source\PSoC5/USB_Bootloader_std.c ****                         {
 138:.\Generated_Source\PSoC5/USB_Bootloader_std.c ****                             /* Read descriptor length from 1st byte */
 139:.\Generated_Source\PSoC5/USB_Bootloader_std.c ****                             descrLength = *pStr;
 140:.\Generated_Source\PSoC5/USB_Bootloader_std.c ****                             /* Move to next string descriptor */
 141:.\Generated_Source\PSoC5/USB_Bootloader_std.c ****                             pStr = &pStr[descrLength];
 142:.\Generated_Source\PSoC5/USB_Bootloader_std.c ****                             nStr++;
 143:.\Generated_Source\PSoC5/USB_Bootloader_std.c ****                         }
 144:.\Generated_Source\PSoC5/USB_Bootloader_std.c ****                     #endif /*  USB_Bootloader_ENABLE_DESCRIPTOR_STRINGS */
 145:.\Generated_Source\PSoC5/USB_Bootloader_std.c ****                     /* Microsoft OS String*/
ARM GAS  C:\Users\Robert\AppData\Local\Temp\ccLuFIyc.s 			page 4


 146:.\Generated_Source\PSoC5/USB_Bootloader_std.c ****                     #if defined(USB_Bootloader_ENABLE_MSOS_STRING)
 147:.\Generated_Source\PSoC5/USB_Bootloader_std.c ****                         if( CY_GET_REG8(USB_Bootloader_wValueLo) == USB_Bootloader_STRING_MSOS )
 148:.\Generated_Source\PSoC5/USB_Bootloader_std.c ****                         {
 149:.\Generated_Source\PSoC5/USB_Bootloader_std.c ****                             pStr = (volatile uint8 *)&USB_Bootloader_MSOS_DESCRIPTOR[0u];
 150:.\Generated_Source\PSoC5/USB_Bootloader_std.c ****                         }
 151:.\Generated_Source\PSoC5/USB_Bootloader_std.c ****                     #endif /*  USB_Bootloader_ENABLE_MSOS_STRING*/
 152:.\Generated_Source\PSoC5/USB_Bootloader_std.c ****                     /* SN string */
 153:.\Generated_Source\PSoC5/USB_Bootloader_std.c ****                     #if defined(USB_Bootloader_ENABLE_SN_STRING)
 154:.\Generated_Source\PSoC5/USB_Bootloader_std.c ****                         if( (CY_GET_REG8(USB_Bootloader_wValueLo) != 0u) &&
 155:.\Generated_Source\PSoC5/USB_Bootloader_std.c ****                             (CY_GET_REG8(USB_Bootloader_wValueLo) ==
 156:.\Generated_Source\PSoC5/USB_Bootloader_std.c ****                             USB_Bootloader_DEVICE0_DESCR[USB_Bootloader_DEVICE_DESCR_SN_SHIFT]) )
 157:.\Generated_Source\PSoC5/USB_Bootloader_std.c ****                         {
 158:.\Generated_Source\PSoC5/USB_Bootloader_std.c **** 
 159:.\Generated_Source\PSoC5/USB_Bootloader_std.c ****                             #if defined(USB_Bootloader_ENABLE_IDSN_STRING)
 160:.\Generated_Source\PSoC5/USB_Bootloader_std.c ****                                 /* Read DIE ID and generate string descriptor in RAM */
 161:.\Generated_Source\PSoC5/USB_Bootloader_std.c ****                                 USB_Bootloader_ReadDieID(USB_Bootloader_idSerialNumberStringDescrip
 162:.\Generated_Source\PSoC5/USB_Bootloader_std.c ****                                 pStr = USB_Bootloader_idSerialNumberStringDescriptor;
 163:.\Generated_Source\PSoC5/USB_Bootloader_std.c ****                             #elif defined(USB_Bootloader_ENABLE_FWSN_STRING)
 164:.\Generated_Source\PSoC5/USB_Bootloader_std.c ****                                 if(USB_Bootloader_snStringConfirm != USB_Bootloader_FALSE)
 165:.\Generated_Source\PSoC5/USB_Bootloader_std.c ****                                 {
 166:.\Generated_Source\PSoC5/USB_Bootloader_std.c ****                                     pStr = USB_Bootloader_fwSerialNumberStringDescriptor;
 167:.\Generated_Source\PSoC5/USB_Bootloader_std.c ****                                 }
 168:.\Generated_Source\PSoC5/USB_Bootloader_std.c ****                                 else
 169:.\Generated_Source\PSoC5/USB_Bootloader_std.c ****                                 {
 170:.\Generated_Source\PSoC5/USB_Bootloader_std.c ****                                     pStr = (volatile uint8 *)&USB_Bootloader_SN_STRING_DESCRIPTOR[0
 171:.\Generated_Source\PSoC5/USB_Bootloader_std.c ****                                 }
 172:.\Generated_Source\PSoC5/USB_Bootloader_std.c ****                             #else
 173:.\Generated_Source\PSoC5/USB_Bootloader_std.c ****                                 pStr = (volatile uint8 *)&USB_Bootloader_SN_STRING_DESCRIPTOR[0u];
 174:.\Generated_Source\PSoC5/USB_Bootloader_std.c ****                             #endif  /* defined(USB_Bootloader_ENABLE_IDSN_STRING) */
 175:.\Generated_Source\PSoC5/USB_Bootloader_std.c ****                         }
 176:.\Generated_Source\PSoC5/USB_Bootloader_std.c ****                     #endif    /*  USB_Bootloader_ENABLE_SN_STRING */
 177:.\Generated_Source\PSoC5/USB_Bootloader_std.c ****                     if (*pStr != 0u)
 178:.\Generated_Source\PSoC5/USB_Bootloader_std.c ****                     {
 179:.\Generated_Source\PSoC5/USB_Bootloader_std.c ****                         USB_Bootloader_currentTD.count = *pStr;
 180:.\Generated_Source\PSoC5/USB_Bootloader_std.c ****                         USB_Bootloader_currentTD.pData = pStr;
 181:.\Generated_Source\PSoC5/USB_Bootloader_std.c ****                         requestHandled  = USB_Bootloader_InitControlRead();
 182:.\Generated_Source\PSoC5/USB_Bootloader_std.c ****                     }
 183:.\Generated_Source\PSoC5/USB_Bootloader_std.c ****                 }
 184:.\Generated_Source\PSoC5/USB_Bootloader_std.c ****                 #endif /*  USB_Bootloader_ENABLE_STRINGS */
 185:.\Generated_Source\PSoC5/USB_Bootloader_std.c ****                 else
 186:.\Generated_Source\PSoC5/USB_Bootloader_std.c ****                 {
 187:.\Generated_Source\PSoC5/USB_Bootloader_std.c ****                     requestHandled = USB_Bootloader_DispatchClassRqst();
 188:.\Generated_Source\PSoC5/USB_Bootloader_std.c ****                 }
 189:.\Generated_Source\PSoC5/USB_Bootloader_std.c ****                 break;
 190:.\Generated_Source\PSoC5/USB_Bootloader_std.c ****             case USB_Bootloader_GET_STATUS:
 191:.\Generated_Source\PSoC5/USB_Bootloader_std.c ****                 switch ((CY_GET_REG8(USB_Bootloader_bmRequestType) & USB_Bootloader_RQST_RCPT_MASK)
 192:.\Generated_Source\PSoC5/USB_Bootloader_std.c ****                 {
 193:.\Generated_Source\PSoC5/USB_Bootloader_std.c ****                     case USB_Bootloader_RQST_RCPT_EP:
 194:.\Generated_Source\PSoC5/USB_Bootloader_std.c ****                         USB_Bootloader_currentTD.count = USB_Bootloader_EP_STATUS_LENGTH;
 195:.\Generated_Source\PSoC5/USB_Bootloader_std.c ****                         USB_Bootloader_tBuffer[0u] = USB_Bootloader_EP[ \
 196:.\Generated_Source\PSoC5/USB_Bootloader_std.c ****                                         CY_GET_REG8(USB_Bootloader_wIndexLo) & USB_Bootloader_DIR_U
 197:.\Generated_Source\PSoC5/USB_Bootloader_std.c ****                         USB_Bootloader_tBuffer[1u] = 0u;
 198:.\Generated_Source\PSoC5/USB_Bootloader_std.c ****                         USB_Bootloader_currentTD.pData = &USB_Bootloader_tBuffer[0u];
 199:.\Generated_Source\PSoC5/USB_Bootloader_std.c ****                         requestHandled  = USB_Bootloader_InitControlRead();
 200:.\Generated_Source\PSoC5/USB_Bootloader_std.c ****                         break;
 201:.\Generated_Source\PSoC5/USB_Bootloader_std.c ****                     case USB_Bootloader_RQST_RCPT_DEV:
 202:.\Generated_Source\PSoC5/USB_Bootloader_std.c ****                         USB_Bootloader_currentTD.count = USB_Bootloader_DEVICE_STATUS_LENGTH;
ARM GAS  C:\Users\Robert\AppData\Local\Temp\ccLuFIyc.s 			page 5


 203:.\Generated_Source\PSoC5/USB_Bootloader_std.c ****                         USB_Bootloader_tBuffer[0u] = USB_Bootloader_deviceStatus;
 204:.\Generated_Source\PSoC5/USB_Bootloader_std.c ****                         USB_Bootloader_tBuffer[1u] = 0u;
 205:.\Generated_Source\PSoC5/USB_Bootloader_std.c ****                         USB_Bootloader_currentTD.pData = &USB_Bootloader_tBuffer[0u];
 206:.\Generated_Source\PSoC5/USB_Bootloader_std.c ****                         requestHandled  = USB_Bootloader_InitControlRead();
 207:.\Generated_Source\PSoC5/USB_Bootloader_std.c ****                         break;
 208:.\Generated_Source\PSoC5/USB_Bootloader_std.c ****                     default:    /* requestHandled is initialized as FALSE by default */
 209:.\Generated_Source\PSoC5/USB_Bootloader_std.c ****                         break;
 210:.\Generated_Source\PSoC5/USB_Bootloader_std.c ****                 }
 211:.\Generated_Source\PSoC5/USB_Bootloader_std.c ****                 break;
 212:.\Generated_Source\PSoC5/USB_Bootloader_std.c ****             case USB_Bootloader_GET_CONFIGURATION:
 213:.\Generated_Source\PSoC5/USB_Bootloader_std.c ****                 USB_Bootloader_currentTD.count = 1u;
 214:.\Generated_Source\PSoC5/USB_Bootloader_std.c ****                 USB_Bootloader_currentTD.pData = (volatile uint8 *)&USB_Bootloader_configuration;
 215:.\Generated_Source\PSoC5/USB_Bootloader_std.c ****                 requestHandled  = USB_Bootloader_InitControlRead();
 216:.\Generated_Source\PSoC5/USB_Bootloader_std.c ****                 break;
 217:.\Generated_Source\PSoC5/USB_Bootloader_std.c ****             case USB_Bootloader_GET_INTERFACE:
 218:.\Generated_Source\PSoC5/USB_Bootloader_std.c ****                 USB_Bootloader_currentTD.count = 1u;
 219:.\Generated_Source\PSoC5/USB_Bootloader_std.c ****                 USB_Bootloader_currentTD.pData = (volatile uint8 *)&USB_Bootloader_interfaceSetting
 220:.\Generated_Source\PSoC5/USB_Bootloader_std.c ****                                                                             CY_GET_REG8(USB_Bootloa
 221:.\Generated_Source\PSoC5/USB_Bootloader_std.c ****                 requestHandled  = USB_Bootloader_InitControlRead();
 222:.\Generated_Source\PSoC5/USB_Bootloader_std.c ****                 break;
 223:.\Generated_Source\PSoC5/USB_Bootloader_std.c ****             default: /* requestHandled is initialized as FALSE by default */
 224:.\Generated_Source\PSoC5/USB_Bootloader_std.c ****                 break;
 225:.\Generated_Source\PSoC5/USB_Bootloader_std.c ****         }
 226:.\Generated_Source\PSoC5/USB_Bootloader_std.c ****     }
 227:.\Generated_Source\PSoC5/USB_Bootloader_std.c ****     else {
 228:.\Generated_Source\PSoC5/USB_Bootloader_std.c ****         /* Control Write */
 229:.\Generated_Source\PSoC5/USB_Bootloader_std.c ****         switch (CY_GET_REG8(USB_Bootloader_bRequest))
 230:.\Generated_Source\PSoC5/USB_Bootloader_std.c ****         {
 231:.\Generated_Source\PSoC5/USB_Bootloader_std.c ****             case USB_Bootloader_SET_ADDRESS:
 232:.\Generated_Source\PSoC5/USB_Bootloader_std.c ****                 USB_Bootloader_deviceAddress = CY_GET_REG8(USB_Bootloader_wValueLo);
 233:.\Generated_Source\PSoC5/USB_Bootloader_std.c ****                 requestHandled = USB_Bootloader_InitNoDataControlTransfer();
 234:.\Generated_Source\PSoC5/USB_Bootloader_std.c ****                 break;
 235:.\Generated_Source\PSoC5/USB_Bootloader_std.c ****             case USB_Bootloader_SET_CONFIGURATION:
 236:.\Generated_Source\PSoC5/USB_Bootloader_std.c ****                 configurationN = CY_GET_REG8(USB_Bootloader_wValueLo);
 237:.\Generated_Source\PSoC5/USB_Bootloader_std.c ****                 if(configurationN > 0u)
 238:.\Generated_Source\PSoC5/USB_Bootloader_std.c ****                 {   /* Verify that configuration descriptor exists */
 239:.\Generated_Source\PSoC5/USB_Bootloader_std.c ****                     pTmp = USB_Bootloader_GetConfigTablePtr(configurationN - 1u);
 240:.\Generated_Source\PSoC5/USB_Bootloader_std.c ****                 }
 241:.\Generated_Source\PSoC5/USB_Bootloader_std.c ****                 /* Responds with a Request Error when configuration number is invalid */
 242:.\Generated_Source\PSoC5/USB_Bootloader_std.c ****                 if (((configurationN > 0u) && (pTmp != NULL)) || (configurationN == 0u))
 243:.\Generated_Source\PSoC5/USB_Bootloader_std.c ****                 {
 244:.\Generated_Source\PSoC5/USB_Bootloader_std.c ****                     /* Set new configuration if it has been changed */
 245:.\Generated_Source\PSoC5/USB_Bootloader_std.c ****                     if(configurationN != USB_Bootloader_configuration)
 246:.\Generated_Source\PSoC5/USB_Bootloader_std.c ****                     {
 247:.\Generated_Source\PSoC5/USB_Bootloader_std.c ****                         USB_Bootloader_configuration = configurationN;
 248:.\Generated_Source\PSoC5/USB_Bootloader_std.c ****                         USB_Bootloader_configurationChanged = USB_Bootloader_TRUE;
 249:.\Generated_Source\PSoC5/USB_Bootloader_std.c ****                         USB_Bootloader_Config(USB_Bootloader_TRUE);
 250:.\Generated_Source\PSoC5/USB_Bootloader_std.c ****                     }
 251:.\Generated_Source\PSoC5/USB_Bootloader_std.c ****                     requestHandled = USB_Bootloader_InitNoDataControlTransfer();
 252:.\Generated_Source\PSoC5/USB_Bootloader_std.c ****                 }
 253:.\Generated_Source\PSoC5/USB_Bootloader_std.c ****                 break;
 254:.\Generated_Source\PSoC5/USB_Bootloader_std.c ****             case USB_Bootloader_SET_INTERFACE:
 255:.\Generated_Source\PSoC5/USB_Bootloader_std.c ****                 if (USB_Bootloader_ValidateAlternateSetting() != 0u)
 256:.\Generated_Source\PSoC5/USB_Bootloader_std.c ****                 {
 257:.\Generated_Source\PSoC5/USB_Bootloader_std.c ****                     interfaceNumber = CY_GET_REG8(USB_Bootloader_wIndexLo);
 258:.\Generated_Source\PSoC5/USB_Bootloader_std.c ****                     USB_Bootloader_interfaceNumber = interfaceNumber;
 259:.\Generated_Source\PSoC5/USB_Bootloader_std.c ****                     USB_Bootloader_configurationChanged = USB_Bootloader_TRUE;
ARM GAS  C:\Users\Robert\AppData\Local\Temp\ccLuFIyc.s 			page 6


 260:.\Generated_Source\PSoC5/USB_Bootloader_std.c ****                     #if ((USB_Bootloader_EP_MA == USB_Bootloader__MA_DYNAMIC) && \
 261:.\Generated_Source\PSoC5/USB_Bootloader_std.c ****                          (USB_Bootloader_EP_MM == USB_Bootloader__EP_MANUAL) )
 262:.\Generated_Source\PSoC5/USB_Bootloader_std.c ****                         USB_Bootloader_Config(USB_Bootloader_FALSE);
 263:.\Generated_Source\PSoC5/USB_Bootloader_std.c ****                     #else
 264:.\Generated_Source\PSoC5/USB_Bootloader_std.c ****                         USB_Bootloader_ConfigAltChanged();
 265:.\Generated_Source\PSoC5/USB_Bootloader_std.c ****                     #endif /*  (USB_Bootloader_EP_MA == USB_Bootloader__MA_DYNAMIC) */
 266:.\Generated_Source\PSoC5/USB_Bootloader_std.c ****                     /* Update handled Alt setting changes status */
 267:.\Generated_Source\PSoC5/USB_Bootloader_std.c ****                     USB_Bootloader_interfaceSetting_last[interfaceNumber] =
 268:.\Generated_Source\PSoC5/USB_Bootloader_std.c ****                          USB_Bootloader_interfaceSetting[interfaceNumber];
 269:.\Generated_Source\PSoC5/USB_Bootloader_std.c ****                     requestHandled = USB_Bootloader_InitNoDataControlTransfer();
 270:.\Generated_Source\PSoC5/USB_Bootloader_std.c ****                 }
 271:.\Generated_Source\PSoC5/USB_Bootloader_std.c ****                 break;
 272:.\Generated_Source\PSoC5/USB_Bootloader_std.c ****             case USB_Bootloader_CLEAR_FEATURE:
 273:.\Generated_Source\PSoC5/USB_Bootloader_std.c ****                 switch (CY_GET_REG8(USB_Bootloader_bmRequestType) & USB_Bootloader_RQST_RCPT_MASK)
 274:.\Generated_Source\PSoC5/USB_Bootloader_std.c ****                 {
 275:.\Generated_Source\PSoC5/USB_Bootloader_std.c ****                     case USB_Bootloader_RQST_RCPT_EP:
 276:.\Generated_Source\PSoC5/USB_Bootloader_std.c ****                         if (CY_GET_REG8(USB_Bootloader_wValueLo) == USB_Bootloader_ENDPOINT_HALT)
 277:.\Generated_Source\PSoC5/USB_Bootloader_std.c ****                         {
 278:.\Generated_Source\PSoC5/USB_Bootloader_std.c ****                             requestHandled = USB_Bootloader_ClearEndpointHalt();
 279:.\Generated_Source\PSoC5/USB_Bootloader_std.c ****                         }
 280:.\Generated_Source\PSoC5/USB_Bootloader_std.c ****                         break;
 281:.\Generated_Source\PSoC5/USB_Bootloader_std.c ****                     case USB_Bootloader_RQST_RCPT_DEV:
 282:.\Generated_Source\PSoC5/USB_Bootloader_std.c ****                         /* Clear device REMOTE_WAKEUP */
 283:.\Generated_Source\PSoC5/USB_Bootloader_std.c ****                         if (CY_GET_REG8(USB_Bootloader_wValueLo) == USB_Bootloader_DEVICE_REMOTE_WA
 284:.\Generated_Source\PSoC5/USB_Bootloader_std.c ****                         {
 285:.\Generated_Source\PSoC5/USB_Bootloader_std.c ****                             USB_Bootloader_deviceStatus &= (uint8)~USB_Bootloader_DEVICE_STATUS_REM
 286:.\Generated_Source\PSoC5/USB_Bootloader_std.c ****                             requestHandled = USB_Bootloader_InitNoDataControlTransfer();
 287:.\Generated_Source\PSoC5/USB_Bootloader_std.c ****                         }
 288:.\Generated_Source\PSoC5/USB_Bootloader_std.c ****                         break;
 289:.\Generated_Source\PSoC5/USB_Bootloader_std.c ****                     case USB_Bootloader_RQST_RCPT_IFC:
 290:.\Generated_Source\PSoC5/USB_Bootloader_std.c ****                         /* Validate interfaceNumber */
 291:.\Generated_Source\PSoC5/USB_Bootloader_std.c ****                         if (CY_GET_REG8(USB_Bootloader_wIndexLo) < USB_Bootloader_MAX_INTERFACES_NU
 292:.\Generated_Source\PSoC5/USB_Bootloader_std.c ****                         {
 293:.\Generated_Source\PSoC5/USB_Bootloader_std.c ****                             USB_Bootloader_interfaceStatus[CY_GET_REG8(USB_Bootloader_wIndexLo)] &=
 294:.\Generated_Source\PSoC5/USB_Bootloader_std.c ****                                                                 (uint8)~(CY_GET_REG8(USB_Bootloader
 295:.\Generated_Source\PSoC5/USB_Bootloader_std.c ****                             requestHandled = USB_Bootloader_InitNoDataControlTransfer();
 296:.\Generated_Source\PSoC5/USB_Bootloader_std.c ****                         }
 297:.\Generated_Source\PSoC5/USB_Bootloader_std.c ****                         break;
 298:.\Generated_Source\PSoC5/USB_Bootloader_std.c ****                     default:    /* requestHandled is initialized as FALSE by default */
 299:.\Generated_Source\PSoC5/USB_Bootloader_std.c ****                         break;
 300:.\Generated_Source\PSoC5/USB_Bootloader_std.c ****                 }
 301:.\Generated_Source\PSoC5/USB_Bootloader_std.c ****                 break;
 302:.\Generated_Source\PSoC5/USB_Bootloader_std.c ****             case USB_Bootloader_SET_FEATURE:
 303:.\Generated_Source\PSoC5/USB_Bootloader_std.c ****                 switch (CY_GET_REG8(USB_Bootloader_bmRequestType) & USB_Bootloader_RQST_RCPT_MASK)
 304:.\Generated_Source\PSoC5/USB_Bootloader_std.c ****                 {
 305:.\Generated_Source\PSoC5/USB_Bootloader_std.c ****                     case USB_Bootloader_RQST_RCPT_EP:
 306:.\Generated_Source\PSoC5/USB_Bootloader_std.c ****                         if (CY_GET_REG8(USB_Bootloader_wValueLo) == USB_Bootloader_ENDPOINT_HALT)
 307:.\Generated_Source\PSoC5/USB_Bootloader_std.c ****                         {
 308:.\Generated_Source\PSoC5/USB_Bootloader_std.c ****                             requestHandled = USB_Bootloader_SetEndpointHalt();
 309:.\Generated_Source\PSoC5/USB_Bootloader_std.c ****                         }
 310:.\Generated_Source\PSoC5/USB_Bootloader_std.c ****                         break;
 311:.\Generated_Source\PSoC5/USB_Bootloader_std.c ****                     case USB_Bootloader_RQST_RCPT_DEV:
 312:.\Generated_Source\PSoC5/USB_Bootloader_std.c ****                         /* Set device REMOTE_WAKEUP */
 313:.\Generated_Source\PSoC5/USB_Bootloader_std.c ****                         if (CY_GET_REG8(USB_Bootloader_wValueLo) == USB_Bootloader_DEVICE_REMOTE_WA
 314:.\Generated_Source\PSoC5/USB_Bootloader_std.c ****                         {
 315:.\Generated_Source\PSoC5/USB_Bootloader_std.c ****                             USB_Bootloader_deviceStatus |= USB_Bootloader_DEVICE_STATUS_REMOTE_WAKE
 316:.\Generated_Source\PSoC5/USB_Bootloader_std.c ****                             requestHandled = USB_Bootloader_InitNoDataControlTransfer();
ARM GAS  C:\Users\Robert\AppData\Local\Temp\ccLuFIyc.s 			page 7


 317:.\Generated_Source\PSoC5/USB_Bootloader_std.c ****                         }
 318:.\Generated_Source\PSoC5/USB_Bootloader_std.c ****                         break;
 319:.\Generated_Source\PSoC5/USB_Bootloader_std.c ****                     case USB_Bootloader_RQST_RCPT_IFC:
 320:.\Generated_Source\PSoC5/USB_Bootloader_std.c ****                         /* Validate interfaceNumber */
 321:.\Generated_Source\PSoC5/USB_Bootloader_std.c ****                         if (CY_GET_REG8(USB_Bootloader_wIndexLo) < USB_Bootloader_MAX_INTERFACES_NU
 322:.\Generated_Source\PSoC5/USB_Bootloader_std.c ****                         {
 323:.\Generated_Source\PSoC5/USB_Bootloader_std.c ****                             USB_Bootloader_interfaceStatus[CY_GET_REG8(USB_Bootloader_wIndexLo)] &=
 324:.\Generated_Source\PSoC5/USB_Bootloader_std.c ****                                                                 (uint8)~(CY_GET_REG8(USB_Bootloader
 325:.\Generated_Source\PSoC5/USB_Bootloader_std.c ****                             requestHandled = USB_Bootloader_InitNoDataControlTransfer();
 326:.\Generated_Source\PSoC5/USB_Bootloader_std.c ****                         }
 327:.\Generated_Source\PSoC5/USB_Bootloader_std.c ****                         break;
 328:.\Generated_Source\PSoC5/USB_Bootloader_std.c ****                     default:    /* requestHandled is initialized as FALSE by default */
 329:.\Generated_Source\PSoC5/USB_Bootloader_std.c ****                         break;
 330:.\Generated_Source\PSoC5/USB_Bootloader_std.c ****                 }
 331:.\Generated_Source\PSoC5/USB_Bootloader_std.c ****                 break;
 332:.\Generated_Source\PSoC5/USB_Bootloader_std.c ****             default:    /* requestHandled is initialized as FALSE by default */
 333:.\Generated_Source\PSoC5/USB_Bootloader_std.c ****                 break;
 334:.\Generated_Source\PSoC5/USB_Bootloader_std.c ****         }
 335:.\Generated_Source\PSoC5/USB_Bootloader_std.c ****     }
 336:.\Generated_Source\PSoC5/USB_Bootloader_std.c ****     return(requestHandled);
 337:.\Generated_Source\PSoC5/USB_Bootloader_std.c **** }
 338:.\Generated_Source\PSoC5/USB_Bootloader_std.c **** 
 339:.\Generated_Source\PSoC5/USB_Bootloader_std.c **** 
 340:.\Generated_Source\PSoC5/USB_Bootloader_std.c **** #if defined(USB_Bootloader_ENABLE_IDSN_STRING)
 341:.\Generated_Source\PSoC5/USB_Bootloader_std.c **** 
 342:.\Generated_Source\PSoC5/USB_Bootloader_std.c ****     /***************************************************************************
 343:.\Generated_Source\PSoC5/USB_Bootloader_std.c ****     * Function Name: USB_Bootloader_ReadDieID
 344:.\Generated_Source\PSoC5/USB_Bootloader_std.c ****     ****************************************************************************
 345:.\Generated_Source\PSoC5/USB_Bootloader_std.c ****     *
 346:.\Generated_Source\PSoC5/USB_Bootloader_std.c ****     * Summary:
 347:.\Generated_Source\PSoC5/USB_Bootloader_std.c ****     *  This routine read Die ID and generate Serial Number string descriptor.
 348:.\Generated_Source\PSoC5/USB_Bootloader_std.c ****     *
 349:.\Generated_Source\PSoC5/USB_Bootloader_std.c ****     * Parameters:
 350:.\Generated_Source\PSoC5/USB_Bootloader_std.c ****     *  descr:  pointer on string descriptor.
 351:.\Generated_Source\PSoC5/USB_Bootloader_std.c ****     *
 352:.\Generated_Source\PSoC5/USB_Bootloader_std.c ****     * Return:
 353:.\Generated_Source\PSoC5/USB_Bootloader_std.c ****     *  None.
 354:.\Generated_Source\PSoC5/USB_Bootloader_std.c ****     *
 355:.\Generated_Source\PSoC5/USB_Bootloader_std.c ****     * Reentrant:
 356:.\Generated_Source\PSoC5/USB_Bootloader_std.c ****     *  No.
 357:.\Generated_Source\PSoC5/USB_Bootloader_std.c ****     *
 358:.\Generated_Source\PSoC5/USB_Bootloader_std.c ****     ***************************************************************************/
 359:.\Generated_Source\PSoC5/USB_Bootloader_std.c ****     void USB_Bootloader_ReadDieID(uint8 descr[]) 
 360:.\Generated_Source\PSoC5/USB_Bootloader_std.c ****     {
 361:.\Generated_Source\PSoC5/USB_Bootloader_std.c ****         uint8 i;
 362:.\Generated_Source\PSoC5/USB_Bootloader_std.c ****         uint8 j = 0u;
 363:.\Generated_Source\PSoC5/USB_Bootloader_std.c ****         uint8 value;
 364:.\Generated_Source\PSoC5/USB_Bootloader_std.c ****         const char8 CYCODE hex[16u] = "0123456789ABCDEF";
 365:.\Generated_Source\PSoC5/USB_Bootloader_std.c **** 
 366:.\Generated_Source\PSoC5/USB_Bootloader_std.c ****         /* Check descriptor validation */
 367:.\Generated_Source\PSoC5/USB_Bootloader_std.c ****         if( descr != NULL)
 368:.\Generated_Source\PSoC5/USB_Bootloader_std.c ****         {
 369:.\Generated_Source\PSoC5/USB_Bootloader_std.c ****             descr[0u] = USB_Bootloader_IDSN_DESCR_LENGTH;
 370:.\Generated_Source\PSoC5/USB_Bootloader_std.c ****             descr[1u] = USB_Bootloader_DESCR_STRING;
 371:.\Generated_Source\PSoC5/USB_Bootloader_std.c **** 
 372:.\Generated_Source\PSoC5/USB_Bootloader_std.c ****             /* fill descriptor */
 373:.\Generated_Source\PSoC5/USB_Bootloader_std.c ****             for(i = 2u; i < USB_Bootloader_IDSN_DESCR_LENGTH; i += 4u)
ARM GAS  C:\Users\Robert\AppData\Local\Temp\ccLuFIyc.s 			page 8


 374:.\Generated_Source\PSoC5/USB_Bootloader_std.c ****             {
 375:.\Generated_Source\PSoC5/USB_Bootloader_std.c ****                 value = CY_GET_XTND_REG8((void CYFAR *)(USB_Bootloader_DIE_ID + j));
 376:.\Generated_Source\PSoC5/USB_Bootloader_std.c ****                 j++;
 377:.\Generated_Source\PSoC5/USB_Bootloader_std.c ****                 descr[i] = (uint8)hex[value >> 4u];
 378:.\Generated_Source\PSoC5/USB_Bootloader_std.c ****                 descr[i + 2u] = (uint8)hex[value & 0x0Fu];
 379:.\Generated_Source\PSoC5/USB_Bootloader_std.c ****             }
 380:.\Generated_Source\PSoC5/USB_Bootloader_std.c ****         }
 381:.\Generated_Source\PSoC5/USB_Bootloader_std.c ****     }
 382:.\Generated_Source\PSoC5/USB_Bootloader_std.c **** 
 383:.\Generated_Source\PSoC5/USB_Bootloader_std.c **** #endif /*  USB_Bootloader_ENABLE_IDSN_STRING */
 384:.\Generated_Source\PSoC5/USB_Bootloader_std.c **** 
 385:.\Generated_Source\PSoC5/USB_Bootloader_std.c **** 
 386:.\Generated_Source\PSoC5/USB_Bootloader_std.c **** /*******************************************************************************
 387:.\Generated_Source\PSoC5/USB_Bootloader_std.c **** * Function Name: USB_Bootloader_ConfigReg
 388:.\Generated_Source\PSoC5/USB_Bootloader_std.c **** ********************************************************************************
 389:.\Generated_Source\PSoC5/USB_Bootloader_std.c **** *
 390:.\Generated_Source\PSoC5/USB_Bootloader_std.c **** * Summary:
 391:.\Generated_Source\PSoC5/USB_Bootloader_std.c **** *  This routine configures hardware registers from the variables.
 392:.\Generated_Source\PSoC5/USB_Bootloader_std.c **** *  It is called from USB_Bootloader_Config() function and from RestoreConfig
 393:.\Generated_Source\PSoC5/USB_Bootloader_std.c **** *  after Wakeup.
 394:.\Generated_Source\PSoC5/USB_Bootloader_std.c **** *
 395:.\Generated_Source\PSoC5/USB_Bootloader_std.c **** * Parameters:
 396:.\Generated_Source\PSoC5/USB_Bootloader_std.c **** *  None.
 397:.\Generated_Source\PSoC5/USB_Bootloader_std.c **** *
 398:.\Generated_Source\PSoC5/USB_Bootloader_std.c **** * Return:
 399:.\Generated_Source\PSoC5/USB_Bootloader_std.c **** *  None.
 400:.\Generated_Source\PSoC5/USB_Bootloader_std.c **** *
 401:.\Generated_Source\PSoC5/USB_Bootloader_std.c **** *******************************************************************************/
 402:.\Generated_Source\PSoC5/USB_Bootloader_std.c **** void USB_Bootloader_ConfigReg(void) 
 403:.\Generated_Source\PSoC5/USB_Bootloader_std.c **** {
  27              		.loc 1 403 0
  28              		.cfi_startproc
  29              		@ args = 0, pretend = 0, frame = 0
  30              		@ frame_needed = 0, uses_anonymous_args = 0
  31 0000 F0B5     		push	{r4, r5, r6, r7, lr}
  32              		.cfi_def_cfa_offset 20
  33              		.cfi_offset 4, -20
  34              		.cfi_offset 5, -16
  35              		.cfi_offset 6, -12
  36              		.cfi_offset 7, -8
  37              		.cfi_offset 14, -4
  38              	.LVL0:
 404:.\Generated_Source\PSoC5/USB_Bootloader_std.c ****     uint8 ep;
 405:.\Generated_Source\PSoC5/USB_Bootloader_std.c ****     uint8 i;
 406:.\Generated_Source\PSoC5/USB_Bootloader_std.c ****     #if(USB_Bootloader_EP_MM == USB_Bootloader__EP_DMAAUTO)
 407:.\Generated_Source\PSoC5/USB_Bootloader_std.c ****         uint8 epType = 0u;
 408:.\Generated_Source\PSoC5/USB_Bootloader_std.c ****     #endif /*  USB_Bootloader_EP_MM == USB_Bootloader__EP_DMAAUTO */
 409:.\Generated_Source\PSoC5/USB_Bootloader_std.c **** 
 410:.\Generated_Source\PSoC5/USB_Bootloader_std.c ****     /* Set the endpoint buffer addresses */
 411:.\Generated_Source\PSoC5/USB_Bootloader_std.c ****     ep = USB_Bootloader_EP1;
 412:.\Generated_Source\PSoC5/USB_Bootloader_std.c ****     for (i = 0u; i < 0x80u; i+= 0x10u)
  39              		.loc 1 412 0
  40 0002 0024     		movs	r4, #0
 411:.\Generated_Source\PSoC5/USB_Bootloader_std.c ****     for (i = 0u; i < 0x80u; i+= 0x10u)
  41              		.loc 1 411 0
  42 0004 0120     		movs	r0, #1
  43              		.loc 1 412 0
ARM GAS  C:\Users\Robert\AppData\Local\Temp\ccLuFIyc.s 			page 9


  44 0006 52E0     		b	.L2
  45              	.LVL1:
  46              	.L6:
 413:.\Generated_Source\PSoC5/USB_Bootloader_std.c ****     {
 414:.\Generated_Source\PSoC5/USB_Bootloader_std.c ****         CY_SET_REG8((reg8 *)(USB_Bootloader_ARB_EP1_CFG_IND + i), USB_Bootloader_ARB_EPX_CFG_DEFAUL
  47              		.loc 1 414 0
  48 0008 2546     		mov	r5, r4
  49 000a 04F18043 		add	r3, r4, #1073741824
  50 000e 03F5C143 		add	r3, r3, #24704
  51 0012 0C22     		movs	r2, #12
  52 0014 1A70     		strb	r2, [r3]
 415:.\Generated_Source\PSoC5/USB_Bootloader_std.c ****         #if(USB_Bootloader_EP_MM != USB_Bootloader__EP_MANUAL)
 416:.\Generated_Source\PSoC5/USB_Bootloader_std.c ****             /* Enable all Arbiter EP Interrupts : err, buf under, buf over, dma gnt(mode2 only), in
 417:.\Generated_Source\PSoC5/USB_Bootloader_std.c ****             CY_SET_REG8((reg8 *)(USB_Bootloader_ARB_EP1_INT_EN_IND + i), USB_Bootloader_ARB_EPX_INT
 418:.\Generated_Source\PSoC5/USB_Bootloader_std.c ****         #endif   /*  USB_Bootloader_EP_MM != USB_Bootloader__EP_MANUAL */
 419:.\Generated_Source\PSoC5/USB_Bootloader_std.c **** 
 420:.\Generated_Source\PSoC5/USB_Bootloader_std.c ****         if(USB_Bootloader_EP[ep].epMode != USB_Bootloader_MODE_DISABLE)
  53              		.loc 1 420 0
  54 0016 0246     		mov	r2, r0
  55 0018 00EB4003 		add	r3, r0, r0, lsl #1
  56 001c 9B00     		lsls	r3, r3, #2
  57 001e 2749     		ldr	r1, .L8
  58 0020 0B44     		add	r3, r3, r1
  59 0022 5B79     		ldrb	r3, [r3, #5]	@ zero_extendqisi2
  60 0024 13F0FF0F 		tst	r3, #255
  61 0028 0FD0     		beq	.L3
 421:.\Generated_Source\PSoC5/USB_Bootloader_std.c ****         {
 422:.\Generated_Source\PSoC5/USB_Bootloader_std.c ****             if((USB_Bootloader_EP[ep].addr & USB_Bootloader_DIR_IN) != 0u )
  62              		.loc 1 422 0
  63 002a 00EB4003 		add	r3, r0, r0, lsl #1
  64 002e 9B00     		lsls	r3, r3, #2
  65 0030 0B44     		add	r3, r3, r1
  66 0032 1B79     		ldrb	r3, [r3, #4]	@ zero_extendqisi2
  67 0034 13F0800F 		tst	r3, #128
  68 0038 03D0     		beq	.L4
 423:.\Generated_Source\PSoC5/USB_Bootloader_std.c ****             {
 424:.\Generated_Source\PSoC5/USB_Bootloader_std.c ****                 CY_SET_REG8((reg8 *)(USB_Bootloader_SIE_EP1_CR0_IND + i), USB_Bootloader_MODE_NAK_I
  69              		.loc 1 424 0
  70 003a 0C21     		movs	r1, #12
  71 003c 204B     		ldr	r3, .L8+4
  72 003e E154     		strb	r1, [r4, r3]
  73 0040 06E0     		b	.L5
  74              	.L4:
 425:.\Generated_Source\PSoC5/USB_Bootloader_std.c ****             }
 426:.\Generated_Source\PSoC5/USB_Bootloader_std.c ****             else
 427:.\Generated_Source\PSoC5/USB_Bootloader_std.c ****             {
 428:.\Generated_Source\PSoC5/USB_Bootloader_std.c ****                 CY_SET_REG8((reg8 *)(USB_Bootloader_SIE_EP1_CR0_IND + i), USB_Bootloader_MODE_NAK_O
  75              		.loc 1 428 0
  76 0042 0821     		movs	r1, #8
  77 0044 1E4B     		ldr	r3, .L8+4
  78 0046 E154     		strb	r1, [r4, r3]
  79 0048 02E0     		b	.L5
  80              	.L3:
 429:.\Generated_Source\PSoC5/USB_Bootloader_std.c ****                 /* Prepare EP type mask for automatic memory allocation */
 430:.\Generated_Source\PSoC5/USB_Bootloader_std.c ****                 #if(USB_Bootloader_EP_MM == USB_Bootloader__EP_DMAAUTO)
 431:.\Generated_Source\PSoC5/USB_Bootloader_std.c ****                     epType |= (uint8)(0x01u << (ep - USB_Bootloader_EP1));
 432:.\Generated_Source\PSoC5/USB_Bootloader_std.c ****                 #endif /*  USB_Bootloader_EP_MM == USB_Bootloader__EP_DMAAUTO */
ARM GAS  C:\Users\Robert\AppData\Local\Temp\ccLuFIyc.s 			page 10


 433:.\Generated_Source\PSoC5/USB_Bootloader_std.c ****             }
 434:.\Generated_Source\PSoC5/USB_Bootloader_std.c ****         }
 435:.\Generated_Source\PSoC5/USB_Bootloader_std.c ****         else
 436:.\Generated_Source\PSoC5/USB_Bootloader_std.c ****         {
 437:.\Generated_Source\PSoC5/USB_Bootloader_std.c ****             CY_SET_REG8((reg8 *)(USB_Bootloader_SIE_EP1_CR0_IND + i), USB_Bootloader_MODE_STALL_DAT
  81              		.loc 1 437 0
  82 004a 8021     		movs	r1, #128
  83 004c 1C4B     		ldr	r3, .L8+4
  84 004e E154     		strb	r1, [r4, r3]
  85              	.L5:
 438:.\Generated_Source\PSoC5/USB_Bootloader_std.c ****         }
 439:.\Generated_Source\PSoC5/USB_Bootloader_std.c **** 
 440:.\Generated_Source\PSoC5/USB_Bootloader_std.c ****         #if(USB_Bootloader_EP_MM != USB_Bootloader__EP_DMAAUTO)
 441:.\Generated_Source\PSoC5/USB_Bootloader_std.c ****             CY_SET_REG8((reg8 *)(USB_Bootloader_SIE_EP1_CNT0_IND + i),   USB_Bootloader_EP[ep].buff
  86              		.loc 1 441 0 discriminator 2
  87 0050 1A4F     		ldr	r7, .L8
  88 0052 5300     		lsls	r3, r2, #1
  89 0054 9918     		adds	r1, r3, r2
  90 0056 8900     		lsls	r1, r1, #2
  91 0058 3944     		add	r1, r1, r7
  92 005a 0E89     		ldrh	r6, [r1, #8]
  93 005c C6F30726 		ubfx	r6, r6, #8, #8
  94 0060 DFF86CE0 		ldr	lr, .L8+20
  95 0064 05F80E60 		strb	r6, [r5, lr]
 442:.\Generated_Source\PSoC5/USB_Bootloader_std.c ****             CY_SET_REG8((reg8 *)(USB_Bootloader_SIE_EP1_CNT1_IND + i),   USB_Bootloader_EP[ep].buff
  96              		.loc 1 442 0 discriminator 2
  97 0068 0E89     		ldrh	r6, [r1, #8]
  98 006a F6B2     		uxtb	r6, r6
  99 006c 0EF1010E 		add	lr, lr, #1
 100 0070 05F80E60 		strb	r6, [r5, lr]
 443:.\Generated_Source\PSoC5/USB_Bootloader_std.c **** 
 444:.\Generated_Source\PSoC5/USB_Bootloader_std.c ****             CY_SET_REG8((reg8 *)(USB_Bootloader_ARB_RW1_RA_IND + i),     USB_Bootloader_EP[ep].buff
 101              		.loc 1 444 0 discriminator 2
 102 0074 CE88     		ldrh	r6, [r1, #6]
 103 0076 F6B2     		uxtb	r6, r6
 104 0078 0EF1790E 		add	lr, lr, #121
 105 007c 05F80E60 		strb	r6, [r5, lr]
 445:.\Generated_Source\PSoC5/USB_Bootloader_std.c ****             CY_SET_REG8((reg8 *)(USB_Bootloader_ARB_RW1_RA_MSB_IND + i), USB_Bootloader_EP[ep].buff
 106              		.loc 1 445 0 discriminator 2
 107 0080 CE88     		ldrh	r6, [r1, #6]
 108 0082 C6F30726 		ubfx	r6, r6, #8, #8
 109 0086 0EF1010E 		add	lr, lr, #1
 110 008a 05F80E60 		strb	r6, [r5, lr]
 446:.\Generated_Source\PSoC5/USB_Bootloader_std.c ****             CY_SET_REG8((reg8 *)(USB_Bootloader_ARB_RW1_WA_IND + i),     USB_Bootloader_EP[ep].buff
 111              		.loc 1 446 0 discriminator 2
 112 008e C988     		ldrh	r1, [r1, #6]
 113 0090 C9B2     		uxtb	r1, r1
 114 0092 0C4E     		ldr	r6, .L8+8
 115 0094 A955     		strb	r1, [r5, r6]
 447:.\Generated_Source\PSoC5/USB_Bootloader_std.c ****             CY_SET_REG8((reg8 *)(USB_Bootloader_ARB_RW1_WA_MSB_IND + i), USB_Bootloader_EP[ep].buff
 116              		.loc 1 447 0 discriminator 2
 117 0096 1344     		add	r3, r3, r2
 118 0098 9B00     		lsls	r3, r3, #2
 119 009a 3B44     		add	r3, r3, r7
 120 009c DB88     		ldrh	r3, [r3, #6]
 121 009e C3F30723 		ubfx	r3, r3, #8, #8
 122 00a2 094A     		ldr	r2, .L8+12
ARM GAS  C:\Users\Robert\AppData\Local\Temp\ccLuFIyc.s 			page 11


 123 00a4 AB54     		strb	r3, [r5, r2]
 448:.\Generated_Source\PSoC5/USB_Bootloader_std.c ****         #endif /*  USB_Bootloader_EP_MM != USB_Bootloader__EP_DMAAUTO */
 449:.\Generated_Source\PSoC5/USB_Bootloader_std.c **** 
 450:.\Generated_Source\PSoC5/USB_Bootloader_std.c ****         ep++;
 124              		.loc 1 450 0 discriminator 2
 125 00a6 0130     		adds	r0, r0, #1
 126              	.LVL2:
 127 00a8 C0B2     		uxtb	r0, r0
 128              	.LVL3:
 412:.\Generated_Source\PSoC5/USB_Bootloader_std.c ****     {
 129              		.loc 1 412 0 discriminator 2
 130 00aa 1034     		adds	r4, r4, #16
 131              	.LVL4:
 132 00ac E4B2     		uxtb	r4, r4
 133              	.LVL5:
 134              	.L2:
 412:.\Generated_Source\PSoC5/USB_Bootloader_std.c ****     {
 135              		.loc 1 412 0 is_stmt 0 discriminator 1
 136 00ae 14F0800F 		tst	r4, #128
 137 00b2 A9D0     		beq	.L6
 451:.\Generated_Source\PSoC5/USB_Bootloader_std.c ****     }
 452:.\Generated_Source\PSoC5/USB_Bootloader_std.c **** 
 453:.\Generated_Source\PSoC5/USB_Bootloader_std.c ****     #if(USB_Bootloader_EP_MM == USB_Bootloader__EP_DMAAUTO)
 454:.\Generated_Source\PSoC5/USB_Bootloader_std.c ****          /* BUF_SIZE depend on DMA_THRESS value: 55-32 bytes  44-16 bytes 33-8 bytes 22-4 bytes 11-
 455:.\Generated_Source\PSoC5/USB_Bootloader_std.c ****         USB_Bootloader_BUF_SIZE_REG = USB_Bootloader_DMA_BUF_SIZE;
 456:.\Generated_Source\PSoC5/USB_Bootloader_std.c ****         USB_Bootloader_DMA_THRES_REG = USB_Bootloader_DMA_BYTES_PER_BURST;   /* DMA burst threshold
 457:.\Generated_Source\PSoC5/USB_Bootloader_std.c ****         USB_Bootloader_DMA_THRES_MSB_REG = 0u;
 458:.\Generated_Source\PSoC5/USB_Bootloader_std.c ****         USB_Bootloader_EP_ACTIVE_REG = USB_Bootloader_ARB_INT_MASK;
 459:.\Generated_Source\PSoC5/USB_Bootloader_std.c ****         USB_Bootloader_EP_TYPE_REG = epType;
 460:.\Generated_Source\PSoC5/USB_Bootloader_std.c ****         /* Cfg_cmp bit set to 1 once configuration is complete. */
 461:.\Generated_Source\PSoC5/USB_Bootloader_std.c ****         USB_Bootloader_ARB_CFG_REG = USB_Bootloader_ARB_CFG_AUTO_DMA | USB_Bootloader_ARB_CFG_AUTO_
 462:.\Generated_Source\PSoC5/USB_Bootloader_std.c ****                                        USB_Bootloader_ARB_CFG_CFG_CPM;
 463:.\Generated_Source\PSoC5/USB_Bootloader_std.c ****         /* Cfg_cmp bit set to 0 during configuration of PFSUSB Registers. */
 464:.\Generated_Source\PSoC5/USB_Bootloader_std.c ****         USB_Bootloader_ARB_CFG_REG = USB_Bootloader_ARB_CFG_AUTO_DMA | USB_Bootloader_ARB_CFG_AUTO_
 465:.\Generated_Source\PSoC5/USB_Bootloader_std.c ****     #endif /*  USB_Bootloader_EP_MM == USB_Bootloader__EP_DMAAUTO */
 466:.\Generated_Source\PSoC5/USB_Bootloader_std.c **** 
 467:.\Generated_Source\PSoC5/USB_Bootloader_std.c ****     CY_SET_REG8(USB_Bootloader_SIE_EP_INT_EN_PTR, 0xFFu);
 138              		.loc 1 467 0 is_stmt 1
 139 00b4 FF22     		movs	r2, #255
 140 00b6 054B     		ldr	r3, .L8+16
 141 00b8 1A70     		strb	r2, [r3]
 142 00ba F0BD     		pop	{r4, r5, r6, r7, pc}
 143              	.LVL6:
 144              	.L9:
 145              		.align	2
 146              	.L8:
 147 00bc 00000000 		.word	USB_Bootloader_EP
 148 00c0 0E600040 		.word	1073766414
 149 00c4 84600040 		.word	1073766532
 150 00c8 85600040 		.word	1073766533
 151 00cc 0A600040 		.word	1073766410
 152 00d0 0C600040 		.word	1073766412
 153              		.cfi_endproc
 154              	.LFE1:
 155              		.size	USB_Bootloader_ConfigReg, .-USB_Bootloader_ConfigReg
 156              		.section	.text.USB_Bootloader_GetConfigTablePtr,"ax",%progbits
 157              		.align	2
ARM GAS  C:\Users\Robert\AppData\Local\Temp\ccLuFIyc.s 			page 12


 158              		.global	USB_Bootloader_GetConfigTablePtr
 159              		.thumb
 160              		.thumb_func
 161              		.type	USB_Bootloader_GetConfigTablePtr, %function
 162              	USB_Bootloader_GetConfigTablePtr:
 163              	.LFB4:
 468:.\Generated_Source\PSoC5/USB_Bootloader_std.c **** }
 469:.\Generated_Source\PSoC5/USB_Bootloader_std.c **** 
 470:.\Generated_Source\PSoC5/USB_Bootloader_std.c **** 
 471:.\Generated_Source\PSoC5/USB_Bootloader_std.c **** /*******************************************************************************
 472:.\Generated_Source\PSoC5/USB_Bootloader_std.c **** * Function Name: USB_Bootloader_Config
 473:.\Generated_Source\PSoC5/USB_Bootloader_std.c **** ********************************************************************************
 474:.\Generated_Source\PSoC5/USB_Bootloader_std.c **** *
 475:.\Generated_Source\PSoC5/USB_Bootloader_std.c **** * Summary:
 476:.\Generated_Source\PSoC5/USB_Bootloader_std.c **** *  This routine configures endpoints for the entire configuration by scanning
 477:.\Generated_Source\PSoC5/USB_Bootloader_std.c **** *  the configuration descriptor.
 478:.\Generated_Source\PSoC5/USB_Bootloader_std.c **** *
 479:.\Generated_Source\PSoC5/USB_Bootloader_std.c **** * Parameters:
 480:.\Generated_Source\PSoC5/USB_Bootloader_std.c **** *  clearAltSetting: It configures the bAlternateSetting 0 for each interface.
 481:.\Generated_Source\PSoC5/USB_Bootloader_std.c **** *
 482:.\Generated_Source\PSoC5/USB_Bootloader_std.c **** * Return:
 483:.\Generated_Source\PSoC5/USB_Bootloader_std.c **** *  None.
 484:.\Generated_Source\PSoC5/USB_Bootloader_std.c **** *
 485:.\Generated_Source\PSoC5/USB_Bootloader_std.c **** * USB_Bootloader_interfaceClass - Initialized class array for each interface.
 486:.\Generated_Source\PSoC5/USB_Bootloader_std.c **** *   It is used for handling Class specific requests depend on interface class.
 487:.\Generated_Source\PSoC5/USB_Bootloader_std.c **** *   Different classes in multiple Alternate settings does not supported.
 488:.\Generated_Source\PSoC5/USB_Bootloader_std.c **** *
 489:.\Generated_Source\PSoC5/USB_Bootloader_std.c **** * Reentrant:
 490:.\Generated_Source\PSoC5/USB_Bootloader_std.c **** *  No.
 491:.\Generated_Source\PSoC5/USB_Bootloader_std.c **** *
 492:.\Generated_Source\PSoC5/USB_Bootloader_std.c **** *******************************************************************************/
 493:.\Generated_Source\PSoC5/USB_Bootloader_std.c **** void USB_Bootloader_Config(uint8 clearAltSetting) 
 494:.\Generated_Source\PSoC5/USB_Bootloader_std.c **** {
 495:.\Generated_Source\PSoC5/USB_Bootloader_std.c ****     uint8 ep;
 496:.\Generated_Source\PSoC5/USB_Bootloader_std.c ****     uint8 cur_ep;
 497:.\Generated_Source\PSoC5/USB_Bootloader_std.c ****     uint8 i;
 498:.\Generated_Source\PSoC5/USB_Bootloader_std.c ****     uint8 epType;
 499:.\Generated_Source\PSoC5/USB_Bootloader_std.c ****     const uint8 *pDescr;
 500:.\Generated_Source\PSoC5/USB_Bootloader_std.c ****     #if(USB_Bootloader_EP_MM != USB_Bootloader__EP_DMAAUTO)
 501:.\Generated_Source\PSoC5/USB_Bootloader_std.c ****         uint16 buffCount = 0u;
 502:.\Generated_Source\PSoC5/USB_Bootloader_std.c ****     #endif /*  USB_Bootloader_EP_MM != USB_Bootloader__EP_DMAAUTO */
 503:.\Generated_Source\PSoC5/USB_Bootloader_std.c **** 
 504:.\Generated_Source\PSoC5/USB_Bootloader_std.c ****     const T_USB_Bootloader_LUT CYCODE *pTmp;
 505:.\Generated_Source\PSoC5/USB_Bootloader_std.c ****     const T_USB_Bootloader_EP_SETTINGS_BLOCK CYCODE *pEP;
 506:.\Generated_Source\PSoC5/USB_Bootloader_std.c **** 
 507:.\Generated_Source\PSoC5/USB_Bootloader_std.c ****     /* Clear all of the endpoints */
 508:.\Generated_Source\PSoC5/USB_Bootloader_std.c ****     for (ep = 0u; ep < USB_Bootloader_MAX_EP; ep++)
 509:.\Generated_Source\PSoC5/USB_Bootloader_std.c ****     {
 510:.\Generated_Source\PSoC5/USB_Bootloader_std.c ****         USB_Bootloader_EP[ep].attrib = 0u;
 511:.\Generated_Source\PSoC5/USB_Bootloader_std.c ****         USB_Bootloader_EP[ep].hwEpState = 0u;
 512:.\Generated_Source\PSoC5/USB_Bootloader_std.c ****         USB_Bootloader_EP[ep].apiEpState = USB_Bootloader_NO_EVENT_PENDING;
 513:.\Generated_Source\PSoC5/USB_Bootloader_std.c ****         USB_Bootloader_EP[ep].epToggle = 0u;
 514:.\Generated_Source\PSoC5/USB_Bootloader_std.c ****         USB_Bootloader_EP[ep].epMode = USB_Bootloader_MODE_DISABLE;
 515:.\Generated_Source\PSoC5/USB_Bootloader_std.c ****         USB_Bootloader_EP[ep].bufferSize = 0u;
 516:.\Generated_Source\PSoC5/USB_Bootloader_std.c ****         USB_Bootloader_EP[ep].interface = 0u;
 517:.\Generated_Source\PSoC5/USB_Bootloader_std.c **** 
 518:.\Generated_Source\PSoC5/USB_Bootloader_std.c ****     }
ARM GAS  C:\Users\Robert\AppData\Local\Temp\ccLuFIyc.s 			page 13


 519:.\Generated_Source\PSoC5/USB_Bootloader_std.c **** 
 520:.\Generated_Source\PSoC5/USB_Bootloader_std.c ****     /* Clear Alternate settings for all interfaces */
 521:.\Generated_Source\PSoC5/USB_Bootloader_std.c ****     if(clearAltSetting != 0u)
 522:.\Generated_Source\PSoC5/USB_Bootloader_std.c ****     {
 523:.\Generated_Source\PSoC5/USB_Bootloader_std.c ****         for (i = 0u; i < USB_Bootloader_MAX_INTERFACES_NUMBER; i++)
 524:.\Generated_Source\PSoC5/USB_Bootloader_std.c ****         {
 525:.\Generated_Source\PSoC5/USB_Bootloader_std.c ****             USB_Bootloader_interfaceSetting[i] = 0x00u;
 526:.\Generated_Source\PSoC5/USB_Bootloader_std.c ****             USB_Bootloader_interfaceSetting_last[i] = 0x00u;
 527:.\Generated_Source\PSoC5/USB_Bootloader_std.c ****         }
 528:.\Generated_Source\PSoC5/USB_Bootloader_std.c ****     }
 529:.\Generated_Source\PSoC5/USB_Bootloader_std.c **** 
 530:.\Generated_Source\PSoC5/USB_Bootloader_std.c ****     /* Init Endpoints and Device Status if configured */
 531:.\Generated_Source\PSoC5/USB_Bootloader_std.c ****     if(USB_Bootloader_configuration > 0u)
 532:.\Generated_Source\PSoC5/USB_Bootloader_std.c ****     {
 533:.\Generated_Source\PSoC5/USB_Bootloader_std.c ****         pTmp = USB_Bootloader_GetConfigTablePtr(USB_Bootloader_configuration - 1u);
 534:.\Generated_Source\PSoC5/USB_Bootloader_std.c ****         /* Set Power status for current configuration */
 535:.\Generated_Source\PSoC5/USB_Bootloader_std.c ****         pDescr = (const uint8 *)pTmp->p_list;
 536:.\Generated_Source\PSoC5/USB_Bootloader_std.c ****         if((pDescr[USB_Bootloader_CONFIG_DESCR_ATTRIB] & USB_Bootloader_CONFIG_DESCR_ATTRIB_SELF_PO
 537:.\Generated_Source\PSoC5/USB_Bootloader_std.c ****         {
 538:.\Generated_Source\PSoC5/USB_Bootloader_std.c ****             USB_Bootloader_deviceStatus |=  USB_Bootloader_DEVICE_STATUS_SELF_POWERED;
 539:.\Generated_Source\PSoC5/USB_Bootloader_std.c ****         }
 540:.\Generated_Source\PSoC5/USB_Bootloader_std.c ****         else
 541:.\Generated_Source\PSoC5/USB_Bootloader_std.c ****         {
 542:.\Generated_Source\PSoC5/USB_Bootloader_std.c ****             USB_Bootloader_deviceStatus &=  (uint8)~USB_Bootloader_DEVICE_STATUS_SELF_POWERED;
 543:.\Generated_Source\PSoC5/USB_Bootloader_std.c ****         }
 544:.\Generated_Source\PSoC5/USB_Bootloader_std.c ****         /* Move to next element */
 545:.\Generated_Source\PSoC5/USB_Bootloader_std.c ****         pTmp = &pTmp[1u];
 546:.\Generated_Source\PSoC5/USB_Bootloader_std.c ****         ep = pTmp->c;  /* For this table, c is the number of endpoints configurations  */
 547:.\Generated_Source\PSoC5/USB_Bootloader_std.c **** 
 548:.\Generated_Source\PSoC5/USB_Bootloader_std.c ****         #if ((USB_Bootloader_EP_MA == USB_Bootloader__MA_DYNAMIC) && \
 549:.\Generated_Source\PSoC5/USB_Bootloader_std.c ****              (USB_Bootloader_EP_MM == USB_Bootloader__EP_MANUAL) )
 550:.\Generated_Source\PSoC5/USB_Bootloader_std.c ****             /* Configure for dynamic EP memory allocation */
 551:.\Generated_Source\PSoC5/USB_Bootloader_std.c ****             /* p_list points the endpoint setting table. */
 552:.\Generated_Source\PSoC5/USB_Bootloader_std.c ****             pEP = (T_USB_Bootloader_EP_SETTINGS_BLOCK *) pTmp->p_list;
 553:.\Generated_Source\PSoC5/USB_Bootloader_std.c ****             for (i = 0u; i < ep; i++)
 554:.\Generated_Source\PSoC5/USB_Bootloader_std.c ****             {
 555:.\Generated_Source\PSoC5/USB_Bootloader_std.c ****                 /* Compare current Alternate setting with EP Alt */
 556:.\Generated_Source\PSoC5/USB_Bootloader_std.c ****                 if(USB_Bootloader_interfaceSetting[pEP->interface] == pEP->altSetting)
 557:.\Generated_Source\PSoC5/USB_Bootloader_std.c ****                 {
 558:.\Generated_Source\PSoC5/USB_Bootloader_std.c ****                     cur_ep = pEP->addr & USB_Bootloader_DIR_UNUSED;
 559:.\Generated_Source\PSoC5/USB_Bootloader_std.c ****                     epType = pEP->attributes & USB_Bootloader_EP_TYPE_MASK;
 560:.\Generated_Source\PSoC5/USB_Bootloader_std.c ****                     if (pEP->addr & USB_Bootloader_DIR_IN)
 561:.\Generated_Source\PSoC5/USB_Bootloader_std.c ****                     {
 562:.\Generated_Source\PSoC5/USB_Bootloader_std.c ****                         /* IN Endpoint */
 563:.\Generated_Source\PSoC5/USB_Bootloader_std.c ****                         USB_Bootloader_EP[cur_ep].apiEpState = USB_Bootloader_EVENT_PENDING;
 564:.\Generated_Source\PSoC5/USB_Bootloader_std.c ****                         USB_Bootloader_EP[cur_ep].epMode = (epType == USB_Bootloader_EP_TYPE_ISOC) 
 565:.\Generated_Source\PSoC5/USB_Bootloader_std.c ****                                                         USB_Bootloader_MODE_ISO_IN : USB_Bootloader
 566:.\Generated_Source\PSoC5/USB_Bootloader_std.c ****                         #if defined(USB_Bootloader_ENABLE_CDC_CLASS)
 567:.\Generated_Source\PSoC5/USB_Bootloader_std.c ****                             if(((pEP->bMisc == USB_Bootloader_CLASS_CDC_DATA) ||
 568:.\Generated_Source\PSoC5/USB_Bootloader_std.c ****                                 (pEP->bMisc == USB_Bootloader_CLASS_CDC)) &&
 569:.\Generated_Source\PSoC5/USB_Bootloader_std.c ****                                 (epType != USB_Bootloader_EP_TYPE_INT))
 570:.\Generated_Source\PSoC5/USB_Bootloader_std.c ****                             {
 571:.\Generated_Source\PSoC5/USB_Bootloader_std.c ****                                 USB_Bootloader_cdc_data_in_ep = cur_ep;
 572:.\Generated_Source\PSoC5/USB_Bootloader_std.c ****                             }
 573:.\Generated_Source\PSoC5/USB_Bootloader_std.c ****                         #endif  /*  USB_Bootloader_ENABLE_CDC_CLASS*/
 574:.\Generated_Source\PSoC5/USB_Bootloader_std.c ****                         #if ( defined(USB_Bootloader_ENABLE_MIDI_STREAMING) && \
 575:.\Generated_Source\PSoC5/USB_Bootloader_std.c ****                                              (USB_Bootloader_MIDI_IN_BUFF_SIZE > 0) )
ARM GAS  C:\Users\Robert\AppData\Local\Temp\ccLuFIyc.s 			page 14


 576:.\Generated_Source\PSoC5/USB_Bootloader_std.c ****                             if((pEP->bMisc == USB_Bootloader_CLASS_AUDIO) &&
 577:.\Generated_Source\PSoC5/USB_Bootloader_std.c ****                                (epType == USB_Bootloader_EP_TYPE_BULK))
 578:.\Generated_Source\PSoC5/USB_Bootloader_std.c ****                             {
 579:.\Generated_Source\PSoC5/USB_Bootloader_std.c ****                                 USB_Bootloader_midi_in_ep = cur_ep;
 580:.\Generated_Source\PSoC5/USB_Bootloader_std.c ****                             }
 581:.\Generated_Source\PSoC5/USB_Bootloader_std.c ****                         #endif  /*  USB_Bootloader_ENABLE_MIDI_STREAMING*/
 582:.\Generated_Source\PSoC5/USB_Bootloader_std.c ****                     }
 583:.\Generated_Source\PSoC5/USB_Bootloader_std.c ****                     else
 584:.\Generated_Source\PSoC5/USB_Bootloader_std.c ****                     {
 585:.\Generated_Source\PSoC5/USB_Bootloader_std.c ****                         /* OUT Endpoint */
 586:.\Generated_Source\PSoC5/USB_Bootloader_std.c ****                         USB_Bootloader_EP[cur_ep].apiEpState = USB_Bootloader_NO_EVENT_PENDING;
 587:.\Generated_Source\PSoC5/USB_Bootloader_std.c ****                         USB_Bootloader_EP[cur_ep].epMode = (epType == USB_Bootloader_EP_TYPE_ISOC) 
 588:.\Generated_Source\PSoC5/USB_Bootloader_std.c ****                                                     USB_Bootloader_MODE_ISO_OUT : USB_Bootloader_MO
 589:.\Generated_Source\PSoC5/USB_Bootloader_std.c ****                         #if defined(USB_Bootloader_ENABLE_CDC_CLASS)
 590:.\Generated_Source\PSoC5/USB_Bootloader_std.c ****                             if(((pEP->bMisc == USB_Bootloader_CLASS_CDC_DATA) ||
 591:.\Generated_Source\PSoC5/USB_Bootloader_std.c ****                                 (pEP->bMisc == USB_Bootloader_CLASS_CDC)) &&
 592:.\Generated_Source\PSoC5/USB_Bootloader_std.c ****                                 (epType != USB_Bootloader_EP_TYPE_INT))
 593:.\Generated_Source\PSoC5/USB_Bootloader_std.c ****                             {
 594:.\Generated_Source\PSoC5/USB_Bootloader_std.c ****                                 USB_Bootloader_cdc_data_out_ep = cur_ep;
 595:.\Generated_Source\PSoC5/USB_Bootloader_std.c ****                             }
 596:.\Generated_Source\PSoC5/USB_Bootloader_std.c ****                         #endif  /*  USB_Bootloader_ENABLE_CDC_CLASS*/
 597:.\Generated_Source\PSoC5/USB_Bootloader_std.c ****                         #if ( defined(USB_Bootloader_ENABLE_MIDI_STREAMING) && \
 598:.\Generated_Source\PSoC5/USB_Bootloader_std.c ****                                      (USB_Bootloader_MIDI_OUT_BUFF_SIZE > 0) )
 599:.\Generated_Source\PSoC5/USB_Bootloader_std.c ****                             if((pEP->bMisc == USB_Bootloader_CLASS_AUDIO) &&
 600:.\Generated_Source\PSoC5/USB_Bootloader_std.c ****                                (epType == USB_Bootloader_EP_TYPE_BULK))
 601:.\Generated_Source\PSoC5/USB_Bootloader_std.c ****                             {
 602:.\Generated_Source\PSoC5/USB_Bootloader_std.c ****                                 USB_Bootloader_midi_out_ep = cur_ep;
 603:.\Generated_Source\PSoC5/USB_Bootloader_std.c ****                             }
 604:.\Generated_Source\PSoC5/USB_Bootloader_std.c ****                         #endif  /*  USB_Bootloader_ENABLE_MIDI_STREAMING*/
 605:.\Generated_Source\PSoC5/USB_Bootloader_std.c ****                     }
 606:.\Generated_Source\PSoC5/USB_Bootloader_std.c ****                     USB_Bootloader_EP[cur_ep].bufferSize = pEP->bufferSize;
 607:.\Generated_Source\PSoC5/USB_Bootloader_std.c ****                     USB_Bootloader_EP[cur_ep].addr = pEP->addr;
 608:.\Generated_Source\PSoC5/USB_Bootloader_std.c ****                     USB_Bootloader_EP[cur_ep].attrib = pEP->attributes;
 609:.\Generated_Source\PSoC5/USB_Bootloader_std.c ****                 }
 610:.\Generated_Source\PSoC5/USB_Bootloader_std.c ****                 pEP = &pEP[1u];
 611:.\Generated_Source\PSoC5/USB_Bootloader_std.c ****             }
 612:.\Generated_Source\PSoC5/USB_Bootloader_std.c ****         #else /* Configure for static EP memory allocation  */
 613:.\Generated_Source\PSoC5/USB_Bootloader_std.c ****             for (i = USB_Bootloader_EP1; i < USB_Bootloader_MAX_EP; i++)
 614:.\Generated_Source\PSoC5/USB_Bootloader_std.c ****             {
 615:.\Generated_Source\PSoC5/USB_Bootloader_std.c ****                 /* p_list points the endpoint setting table. */
 616:.\Generated_Source\PSoC5/USB_Bootloader_std.c ****                 pEP = (const T_USB_Bootloader_EP_SETTINGS_BLOCK CYCODE *) pTmp->p_list;
 617:.\Generated_Source\PSoC5/USB_Bootloader_std.c ****                 /* Find max length for each EP and select it (length could be different in differen
 618:.\Generated_Source\PSoC5/USB_Bootloader_std.c ****                 /* but other settings should be correct with regards to Interface alt Setting */
 619:.\Generated_Source\PSoC5/USB_Bootloader_std.c ****                 for (cur_ep = 0u; cur_ep < ep; cur_ep++)
 620:.\Generated_Source\PSoC5/USB_Bootloader_std.c ****                 {
 621:.\Generated_Source\PSoC5/USB_Bootloader_std.c ****                     /* EP count is equal to EP # in table and we found larger EP length than have b
 622:.\Generated_Source\PSoC5/USB_Bootloader_std.c ****                     if(i == (pEP->addr & USB_Bootloader_DIR_UNUSED))
 623:.\Generated_Source\PSoC5/USB_Bootloader_std.c ****                     {
 624:.\Generated_Source\PSoC5/USB_Bootloader_std.c ****                         if(USB_Bootloader_EP[i].bufferSize < pEP->bufferSize)
 625:.\Generated_Source\PSoC5/USB_Bootloader_std.c ****                         {
 626:.\Generated_Source\PSoC5/USB_Bootloader_std.c ****                             USB_Bootloader_EP[i].bufferSize = pEP->bufferSize;
 627:.\Generated_Source\PSoC5/USB_Bootloader_std.c ****                         }
 628:.\Generated_Source\PSoC5/USB_Bootloader_std.c ****                         /* Compare current Alternate setting with EP Alt*/
 629:.\Generated_Source\PSoC5/USB_Bootloader_std.c ****                         if(USB_Bootloader_interfaceSetting[pEP->interface] == pEP->altSetting)
 630:.\Generated_Source\PSoC5/USB_Bootloader_std.c ****                         {
 631:.\Generated_Source\PSoC5/USB_Bootloader_std.c ****                             epType = pEP->attributes & USB_Bootloader_EP_TYPE_MASK;
 632:.\Generated_Source\PSoC5/USB_Bootloader_std.c ****                             if ((pEP->addr & USB_Bootloader_DIR_IN) != 0u)
ARM GAS  C:\Users\Robert\AppData\Local\Temp\ccLuFIyc.s 			page 15


 633:.\Generated_Source\PSoC5/USB_Bootloader_std.c ****                             {
 634:.\Generated_Source\PSoC5/USB_Bootloader_std.c ****                                 /* IN Endpoint */
 635:.\Generated_Source\PSoC5/USB_Bootloader_std.c ****                                 USB_Bootloader_EP[i].apiEpState = USB_Bootloader_EVENT_PENDING;
 636:.\Generated_Source\PSoC5/USB_Bootloader_std.c ****                                 USB_Bootloader_EP[i].epMode = (epType == USB_Bootloader_EP_TYPE_ISO
 637:.\Generated_Source\PSoC5/USB_Bootloader_std.c ****                                                         USB_Bootloader_MODE_ISO_IN : USB_Bootloader
 638:.\Generated_Source\PSoC5/USB_Bootloader_std.c ****                                 /* Find and initialize CDC IN endpoint number */
 639:.\Generated_Source\PSoC5/USB_Bootloader_std.c ****                                 #if defined(USB_Bootloader_ENABLE_CDC_CLASS)
 640:.\Generated_Source\PSoC5/USB_Bootloader_std.c ****                                     if(((pEP->bMisc == USB_Bootloader_CLASS_CDC_DATA) ||
 641:.\Generated_Source\PSoC5/USB_Bootloader_std.c ****                                         (pEP->bMisc == USB_Bootloader_CLASS_CDC)) &&
 642:.\Generated_Source\PSoC5/USB_Bootloader_std.c ****                                         (epType != USB_Bootloader_EP_TYPE_INT))
 643:.\Generated_Source\PSoC5/USB_Bootloader_std.c ****                                     {
 644:.\Generated_Source\PSoC5/USB_Bootloader_std.c ****                                         USB_Bootloader_cdc_data_in_ep = i;
 645:.\Generated_Source\PSoC5/USB_Bootloader_std.c ****                                     }
 646:.\Generated_Source\PSoC5/USB_Bootloader_std.c ****                                 #endif  /*  USB_Bootloader_ENABLE_CDC_CLASS*/
 647:.\Generated_Source\PSoC5/USB_Bootloader_std.c ****                                 #if ( defined(USB_Bootloader_ENABLE_MIDI_STREAMING) && \
 648:.\Generated_Source\PSoC5/USB_Bootloader_std.c ****                                              (USB_Bootloader_MIDI_IN_BUFF_SIZE > 0) )
 649:.\Generated_Source\PSoC5/USB_Bootloader_std.c ****                                     if((pEP->bMisc == USB_Bootloader_CLASS_AUDIO) &&
 650:.\Generated_Source\PSoC5/USB_Bootloader_std.c ****                                        (epType == USB_Bootloader_EP_TYPE_BULK))
 651:.\Generated_Source\PSoC5/USB_Bootloader_std.c ****                                     {
 652:.\Generated_Source\PSoC5/USB_Bootloader_std.c ****                                         USB_Bootloader_midi_in_ep = i;
 653:.\Generated_Source\PSoC5/USB_Bootloader_std.c ****                                     }
 654:.\Generated_Source\PSoC5/USB_Bootloader_std.c ****                                 #endif  /*  USB_Bootloader_ENABLE_MIDI_STREAMING*/
 655:.\Generated_Source\PSoC5/USB_Bootloader_std.c ****                             }
 656:.\Generated_Source\PSoC5/USB_Bootloader_std.c ****                             else
 657:.\Generated_Source\PSoC5/USB_Bootloader_std.c ****                             {
 658:.\Generated_Source\PSoC5/USB_Bootloader_std.c ****                                 /* OUT Endpoint */
 659:.\Generated_Source\PSoC5/USB_Bootloader_std.c ****                                 USB_Bootloader_EP[i].apiEpState = USB_Bootloader_NO_EVENT_PENDING;
 660:.\Generated_Source\PSoC5/USB_Bootloader_std.c ****                                 USB_Bootloader_EP[i].epMode = (epType == USB_Bootloader_EP_TYPE_ISO
 661:.\Generated_Source\PSoC5/USB_Bootloader_std.c ****                                                     USB_Bootloader_MODE_ISO_OUT : USB_Bootloader_MO
 662:.\Generated_Source\PSoC5/USB_Bootloader_std.c ****                                 /* Find and initialize CDC IN endpoint number */
 663:.\Generated_Source\PSoC5/USB_Bootloader_std.c ****                                 #if defined(USB_Bootloader_ENABLE_CDC_CLASS)
 664:.\Generated_Source\PSoC5/USB_Bootloader_std.c ****                                     if(((pEP->bMisc == USB_Bootloader_CLASS_CDC_DATA) ||
 665:.\Generated_Source\PSoC5/USB_Bootloader_std.c ****                                         (pEP->bMisc == USB_Bootloader_CLASS_CDC)) &&
 666:.\Generated_Source\PSoC5/USB_Bootloader_std.c ****                                         (epType != USB_Bootloader_EP_TYPE_INT))
 667:.\Generated_Source\PSoC5/USB_Bootloader_std.c ****                                     {
 668:.\Generated_Source\PSoC5/USB_Bootloader_std.c ****                                         USB_Bootloader_cdc_data_out_ep = i;
 669:.\Generated_Source\PSoC5/USB_Bootloader_std.c ****                                     }
 670:.\Generated_Source\PSoC5/USB_Bootloader_std.c ****                                 #endif  /*  USB_Bootloader_ENABLE_CDC_CLASS*/
 671:.\Generated_Source\PSoC5/USB_Bootloader_std.c ****                                 #if ( defined(USB_Bootloader_ENABLE_MIDI_STREAMING) && \
 672:.\Generated_Source\PSoC5/USB_Bootloader_std.c ****                                              (USB_Bootloader_MIDI_OUT_BUFF_SIZE > 0) )
 673:.\Generated_Source\PSoC5/USB_Bootloader_std.c ****                                     if((pEP->bMisc == USB_Bootloader_CLASS_AUDIO) &&
 674:.\Generated_Source\PSoC5/USB_Bootloader_std.c ****                                        (epType == USB_Bootloader_EP_TYPE_BULK))
 675:.\Generated_Source\PSoC5/USB_Bootloader_std.c ****                                     {
 676:.\Generated_Source\PSoC5/USB_Bootloader_std.c ****                                         USB_Bootloader_midi_out_ep = i;
 677:.\Generated_Source\PSoC5/USB_Bootloader_std.c ****                                     }
 678:.\Generated_Source\PSoC5/USB_Bootloader_std.c ****                                 #endif  /*  USB_Bootloader_ENABLE_MIDI_STREAMING*/
 679:.\Generated_Source\PSoC5/USB_Bootloader_std.c ****                             }
 680:.\Generated_Source\PSoC5/USB_Bootloader_std.c ****                             USB_Bootloader_EP[i].addr = pEP->addr;
 681:.\Generated_Source\PSoC5/USB_Bootloader_std.c ****                             USB_Bootloader_EP[i].attrib = pEP->attributes;
 682:.\Generated_Source\PSoC5/USB_Bootloader_std.c **** 
 683:.\Generated_Source\PSoC5/USB_Bootloader_std.c ****                             #if(USB_Bootloader_EP_MM == USB_Bootloader__EP_DMAAUTO)
 684:.\Generated_Source\PSoC5/USB_Bootloader_std.c ****                                 break;      /* use first EP setting in Auto memory managment */
 685:.\Generated_Source\PSoC5/USB_Bootloader_std.c ****                             #endif /*  USB_Bootloader_EP_MM == USB_Bootloader__EP_DMAAUTO */
 686:.\Generated_Source\PSoC5/USB_Bootloader_std.c ****                         }
 687:.\Generated_Source\PSoC5/USB_Bootloader_std.c ****                     }
 688:.\Generated_Source\PSoC5/USB_Bootloader_std.c ****                     pEP = &pEP[1u];
 689:.\Generated_Source\PSoC5/USB_Bootloader_std.c ****                 }
ARM GAS  C:\Users\Robert\AppData\Local\Temp\ccLuFIyc.s 			page 16


 690:.\Generated_Source\PSoC5/USB_Bootloader_std.c ****             }
 691:.\Generated_Source\PSoC5/USB_Bootloader_std.c ****         #endif /*  (USB_Bootloader_EP_MA == USB_Bootloader__MA_DYNAMIC) */
 692:.\Generated_Source\PSoC5/USB_Bootloader_std.c **** 
 693:.\Generated_Source\PSoC5/USB_Bootloader_std.c ****         /* Init class array for each interface and interface number for each EP.
 694:.\Generated_Source\PSoC5/USB_Bootloader_std.c ****         *  It is used for handling Class specific requests directed to either an
 695:.\Generated_Source\PSoC5/USB_Bootloader_std.c ****         *  interface or the endpoint.
 696:.\Generated_Source\PSoC5/USB_Bootloader_std.c ****         */
 697:.\Generated_Source\PSoC5/USB_Bootloader_std.c ****         /* p_list points the endpoint setting table. */
 698:.\Generated_Source\PSoC5/USB_Bootloader_std.c ****         pEP = (const T_USB_Bootloader_EP_SETTINGS_BLOCK CYCODE *) pTmp->p_list;
 699:.\Generated_Source\PSoC5/USB_Bootloader_std.c ****         for (i = 0u; i < ep; i++)
 700:.\Generated_Source\PSoC5/USB_Bootloader_std.c ****         {
 701:.\Generated_Source\PSoC5/USB_Bootloader_std.c ****             /* Configure interface number for each EP*/
 702:.\Generated_Source\PSoC5/USB_Bootloader_std.c ****             USB_Bootloader_EP[pEP->addr & USB_Bootloader_DIR_UNUSED].interface = pEP->interface;
 703:.\Generated_Source\PSoC5/USB_Bootloader_std.c ****             pEP = &pEP[1u];
 704:.\Generated_Source\PSoC5/USB_Bootloader_std.c ****         }
 705:.\Generated_Source\PSoC5/USB_Bootloader_std.c ****         /* Init pointer on interface class table*/
 706:.\Generated_Source\PSoC5/USB_Bootloader_std.c ****         USB_Bootloader_interfaceClass = USB_Bootloader_GetInterfaceClassTablePtr();
 707:.\Generated_Source\PSoC5/USB_Bootloader_std.c ****         /* Set the endpoint buffer addresses */
 708:.\Generated_Source\PSoC5/USB_Bootloader_std.c **** 
 709:.\Generated_Source\PSoC5/USB_Bootloader_std.c ****         #if(USB_Bootloader_EP_MM != USB_Bootloader__EP_DMAAUTO)
 710:.\Generated_Source\PSoC5/USB_Bootloader_std.c ****             for (ep = USB_Bootloader_EP1; ep < USB_Bootloader_MAX_EP; ep++)
 711:.\Generated_Source\PSoC5/USB_Bootloader_std.c ****             {
 712:.\Generated_Source\PSoC5/USB_Bootloader_std.c ****                 USB_Bootloader_EP[ep].buffOffset = buffCount;
 713:.\Generated_Source\PSoC5/USB_Bootloader_std.c ****                  buffCount += USB_Bootloader_EP[ep].bufferSize;
 714:.\Generated_Source\PSoC5/USB_Bootloader_std.c ****             }
 715:.\Generated_Source\PSoC5/USB_Bootloader_std.c ****         #endif /*  USB_Bootloader_EP_MM != USB_Bootloader__EP_DMAAUTO */
 716:.\Generated_Source\PSoC5/USB_Bootloader_std.c **** 
 717:.\Generated_Source\PSoC5/USB_Bootloader_std.c ****         /* Configure hardware registers */
 718:.\Generated_Source\PSoC5/USB_Bootloader_std.c ****         USB_Bootloader_ConfigReg();
 719:.\Generated_Source\PSoC5/USB_Bootloader_std.c ****     } /* USB_Bootloader_configuration > 0 */
 720:.\Generated_Source\PSoC5/USB_Bootloader_std.c **** }
 721:.\Generated_Source\PSoC5/USB_Bootloader_std.c **** 
 722:.\Generated_Source\PSoC5/USB_Bootloader_std.c **** 
 723:.\Generated_Source\PSoC5/USB_Bootloader_std.c **** /*******************************************************************************
 724:.\Generated_Source\PSoC5/USB_Bootloader_std.c **** * Function Name: USB_Bootloader_ConfigAltChanged
 725:.\Generated_Source\PSoC5/USB_Bootloader_std.c **** ********************************************************************************
 726:.\Generated_Source\PSoC5/USB_Bootloader_std.c **** *
 727:.\Generated_Source\PSoC5/USB_Bootloader_std.c **** * Summary:
 728:.\Generated_Source\PSoC5/USB_Bootloader_std.c **** *  This routine update configuration for the required endpoints only.
 729:.\Generated_Source\PSoC5/USB_Bootloader_std.c **** *  It is called after SET_INTERFACE request when Static memory allocation used.
 730:.\Generated_Source\PSoC5/USB_Bootloader_std.c **** *
 731:.\Generated_Source\PSoC5/USB_Bootloader_std.c **** * Parameters:
 732:.\Generated_Source\PSoC5/USB_Bootloader_std.c **** *  None.
 733:.\Generated_Source\PSoC5/USB_Bootloader_std.c **** *
 734:.\Generated_Source\PSoC5/USB_Bootloader_std.c **** * Return:
 735:.\Generated_Source\PSoC5/USB_Bootloader_std.c **** *  None.
 736:.\Generated_Source\PSoC5/USB_Bootloader_std.c **** *
 737:.\Generated_Source\PSoC5/USB_Bootloader_std.c **** * Reentrant:
 738:.\Generated_Source\PSoC5/USB_Bootloader_std.c **** *  No.
 739:.\Generated_Source\PSoC5/USB_Bootloader_std.c **** *
 740:.\Generated_Source\PSoC5/USB_Bootloader_std.c **** *******************************************************************************/
 741:.\Generated_Source\PSoC5/USB_Bootloader_std.c **** void USB_Bootloader_ConfigAltChanged(void) 
 742:.\Generated_Source\PSoC5/USB_Bootloader_std.c **** {
 743:.\Generated_Source\PSoC5/USB_Bootloader_std.c ****     uint8 ep;
 744:.\Generated_Source\PSoC5/USB_Bootloader_std.c ****     uint8 cur_ep;
 745:.\Generated_Source\PSoC5/USB_Bootloader_std.c ****     uint8 i;
 746:.\Generated_Source\PSoC5/USB_Bootloader_std.c ****     uint8 epType;
ARM GAS  C:\Users\Robert\AppData\Local\Temp\ccLuFIyc.s 			page 17


 747:.\Generated_Source\PSoC5/USB_Bootloader_std.c ****     uint8 ri;
 748:.\Generated_Source\PSoC5/USB_Bootloader_std.c **** 
 749:.\Generated_Source\PSoC5/USB_Bootloader_std.c ****     const T_USB_Bootloader_LUT CYCODE *pTmp;
 750:.\Generated_Source\PSoC5/USB_Bootloader_std.c ****     const T_USB_Bootloader_EP_SETTINGS_BLOCK CYCODE *pEP;
 751:.\Generated_Source\PSoC5/USB_Bootloader_std.c **** 
 752:.\Generated_Source\PSoC5/USB_Bootloader_std.c **** 
 753:.\Generated_Source\PSoC5/USB_Bootloader_std.c ****     /* Init Endpoints and Device Status if configured */
 754:.\Generated_Source\PSoC5/USB_Bootloader_std.c ****     if(USB_Bootloader_configuration > 0u)
 755:.\Generated_Source\PSoC5/USB_Bootloader_std.c ****     {
 756:.\Generated_Source\PSoC5/USB_Bootloader_std.c ****         pTmp = USB_Bootloader_GetConfigTablePtr(USB_Bootloader_configuration - 1u);
 757:.\Generated_Source\PSoC5/USB_Bootloader_std.c ****         pTmp = &pTmp[1u];
 758:.\Generated_Source\PSoC5/USB_Bootloader_std.c ****         ep = pTmp->c;  /* For this table, c is the number of endpoints configurations  */
 759:.\Generated_Source\PSoC5/USB_Bootloader_std.c **** 
 760:.\Generated_Source\PSoC5/USB_Bootloader_std.c ****         /* Do not touch EP which doesn't need reconfiguration */
 761:.\Generated_Source\PSoC5/USB_Bootloader_std.c ****         /* When Alt setting changed, the only required endpoints need to be reconfigured */
 762:.\Generated_Source\PSoC5/USB_Bootloader_std.c ****         /* p_list points the endpoint setting table. */
 763:.\Generated_Source\PSoC5/USB_Bootloader_std.c ****         pEP = (const T_USB_Bootloader_EP_SETTINGS_BLOCK CYCODE *) pTmp->p_list;
 764:.\Generated_Source\PSoC5/USB_Bootloader_std.c ****         for (i = 0u; i < ep; i++)
 765:.\Generated_Source\PSoC5/USB_Bootloader_std.c ****         {
 766:.\Generated_Source\PSoC5/USB_Bootloader_std.c ****             /*If Alt setting changed and new is same with EP Alt */
 767:.\Generated_Source\PSoC5/USB_Bootloader_std.c ****             if((USB_Bootloader_interfaceSetting[pEP->interface] !=
 768:.\Generated_Source\PSoC5/USB_Bootloader_std.c ****                 USB_Bootloader_interfaceSetting_last[pEP->interface] ) &&
 769:.\Generated_Source\PSoC5/USB_Bootloader_std.c ****                (USB_Bootloader_interfaceSetting[pEP->interface] == pEP->altSetting) &&
 770:.\Generated_Source\PSoC5/USB_Bootloader_std.c ****                (pEP->interface == CY_GET_REG8(USB_Bootloader_wIndexLo)))
 771:.\Generated_Source\PSoC5/USB_Bootloader_std.c ****             {
 772:.\Generated_Source\PSoC5/USB_Bootloader_std.c ****                 cur_ep = pEP->addr & USB_Bootloader_DIR_UNUSED;
 773:.\Generated_Source\PSoC5/USB_Bootloader_std.c ****                 ri = ((cur_ep - USB_Bootloader_EP1) << USB_Bootloader_EPX_CNTX_ADDR_SHIFT);
 774:.\Generated_Source\PSoC5/USB_Bootloader_std.c ****                 epType = pEP->attributes & USB_Bootloader_EP_TYPE_MASK;
 775:.\Generated_Source\PSoC5/USB_Bootloader_std.c ****                 if ((pEP->addr & USB_Bootloader_DIR_IN) != 0u)
 776:.\Generated_Source\PSoC5/USB_Bootloader_std.c ****                 {
 777:.\Generated_Source\PSoC5/USB_Bootloader_std.c ****                     /* IN Endpoint */
 778:.\Generated_Source\PSoC5/USB_Bootloader_std.c ****                     USB_Bootloader_EP[cur_ep].apiEpState = USB_Bootloader_EVENT_PENDING;
 779:.\Generated_Source\PSoC5/USB_Bootloader_std.c ****                     USB_Bootloader_EP[cur_ep].epMode = (epType == USB_Bootloader_EP_TYPE_ISOC) ?
 780:.\Generated_Source\PSoC5/USB_Bootloader_std.c ****                                                 USB_Bootloader_MODE_ISO_IN : USB_Bootloader_MODE_AC
 781:.\Generated_Source\PSoC5/USB_Bootloader_std.c ****                 }
 782:.\Generated_Source\PSoC5/USB_Bootloader_std.c ****                 else
 783:.\Generated_Source\PSoC5/USB_Bootloader_std.c ****                 {
 784:.\Generated_Source\PSoC5/USB_Bootloader_std.c ****                     /* OUT Endpoint */
 785:.\Generated_Source\PSoC5/USB_Bootloader_std.c ****                     USB_Bootloader_EP[cur_ep].apiEpState = USB_Bootloader_NO_EVENT_PENDING;
 786:.\Generated_Source\PSoC5/USB_Bootloader_std.c ****                     USB_Bootloader_EP[cur_ep].epMode = (epType == USB_Bootloader_EP_TYPE_ISOC) ?
 787:.\Generated_Source\PSoC5/USB_Bootloader_std.c ****                                                 USB_Bootloader_MODE_ISO_OUT : USB_Bootloader_MODE_A
 788:.\Generated_Source\PSoC5/USB_Bootloader_std.c ****                 }
 789:.\Generated_Source\PSoC5/USB_Bootloader_std.c ****                  /* Change the SIE mode for the selected EP to NAK ALL */
 790:.\Generated_Source\PSoC5/USB_Bootloader_std.c ****                  CY_SET_REG8((reg8 *)(USB_Bootloader_SIE_EP1_CR0_IND + ri), USB_Bootloader_MODE_NAK
 791:.\Generated_Source\PSoC5/USB_Bootloader_std.c ****                 USB_Bootloader_EP[cur_ep].bufferSize = pEP->bufferSize;
 792:.\Generated_Source\PSoC5/USB_Bootloader_std.c ****                 USB_Bootloader_EP[cur_ep].addr = pEP->addr;
 793:.\Generated_Source\PSoC5/USB_Bootloader_std.c ****                 USB_Bootloader_EP[cur_ep].attrib = pEP->attributes;
 794:.\Generated_Source\PSoC5/USB_Bootloader_std.c **** 
 795:.\Generated_Source\PSoC5/USB_Bootloader_std.c ****                 /* Clear the data toggle */
 796:.\Generated_Source\PSoC5/USB_Bootloader_std.c ****                 USB_Bootloader_EP[cur_ep].epToggle = 0u;
 797:.\Generated_Source\PSoC5/USB_Bootloader_std.c **** 
 798:.\Generated_Source\PSoC5/USB_Bootloader_std.c ****                 /* Dynamic reconfiguration for mode 3 transfer */
 799:.\Generated_Source\PSoC5/USB_Bootloader_std.c ****             #if(USB_Bootloader_EP_MM == USB_Bootloader__EP_DMAAUTO)
 800:.\Generated_Source\PSoC5/USB_Bootloader_std.c ****                 /* In_data_rdy for selected EP should be set to 0 */
 801:.\Generated_Source\PSoC5/USB_Bootloader_std.c ****                 * (reg8 *)(USB_Bootloader_ARB_EP1_CFG_IND + ri) &= (uint8)~USB_Bootloader_ARB_EPX_C
 802:.\Generated_Source\PSoC5/USB_Bootloader_std.c **** 
 803:.\Generated_Source\PSoC5/USB_Bootloader_std.c ****                 /* write the EP number for which reconfiguration is required */
ARM GAS  C:\Users\Robert\AppData\Local\Temp\ccLuFIyc.s 			page 18


 804:.\Generated_Source\PSoC5/USB_Bootloader_std.c ****                 USB_Bootloader_DYN_RECONFIG_REG = (cur_ep - USB_Bootloader_EP1) <<
 805:.\Generated_Source\PSoC5/USB_Bootloader_std.c ****                                                     USB_Bootloader_DYN_RECONFIG_EP_SHIFT;
 806:.\Generated_Source\PSoC5/USB_Bootloader_std.c ****                 /* Set the dyn_config_en bit in dynamic reconfiguration register */
 807:.\Generated_Source\PSoC5/USB_Bootloader_std.c ****                 USB_Bootloader_DYN_RECONFIG_REG |= USB_Bootloader_DYN_RECONFIG_ENABLE;
 808:.\Generated_Source\PSoC5/USB_Bootloader_std.c ****                 /* wait for the dyn_config_rdy bit to set by the block,
 809:.\Generated_Source\PSoC5/USB_Bootloader_std.c ****                 *  this bit will be set to 1 when block is ready for reconfiguration.
 810:.\Generated_Source\PSoC5/USB_Bootloader_std.c ****                 */
 811:.\Generated_Source\PSoC5/USB_Bootloader_std.c ****                 while((USB_Bootloader_DYN_RECONFIG_REG & USB_Bootloader_DYN_RECONFIG_RDY_STS) == 0u
 812:.\Generated_Source\PSoC5/USB_Bootloader_std.c ****                 {
 813:.\Generated_Source\PSoC5/USB_Bootloader_std.c ****                     ;
 814:.\Generated_Source\PSoC5/USB_Bootloader_std.c ****                 }
 815:.\Generated_Source\PSoC5/USB_Bootloader_std.c ****                 /* Once dyn_config_rdy bit is set, FW can change the EP configuration. */
 816:.\Generated_Source\PSoC5/USB_Bootloader_std.c ****                 /* Change EP Type with new direction */
 817:.\Generated_Source\PSoC5/USB_Bootloader_std.c ****                 if((pEP->addr & USB_Bootloader_DIR_IN) == 0u)
 818:.\Generated_Source\PSoC5/USB_Bootloader_std.c ****                 {
 819:.\Generated_Source\PSoC5/USB_Bootloader_std.c ****                     USB_Bootloader_EP_TYPE_REG |= (uint8)(0x01u << (cur_ep - USB_Bootloader_EP1));
 820:.\Generated_Source\PSoC5/USB_Bootloader_std.c ****                 }
 821:.\Generated_Source\PSoC5/USB_Bootloader_std.c ****                 else
 822:.\Generated_Source\PSoC5/USB_Bootloader_std.c ****                 {
 823:.\Generated_Source\PSoC5/USB_Bootloader_std.c ****                     USB_Bootloader_EP_TYPE_REG &= (uint8)~(uint8)(0x01u << (cur_ep - USB_Bootloader
 824:.\Generated_Source\PSoC5/USB_Bootloader_std.c ****                 }
 825:.\Generated_Source\PSoC5/USB_Bootloader_std.c ****                 /* dynamic reconfiguration enable bit cleared, pointers and control/status
 826:.\Generated_Source\PSoC5/USB_Bootloader_std.c ****                 *  signals for the selected EP is cleared/re-initialized on negative edge
 827:.\Generated_Source\PSoC5/USB_Bootloader_std.c ****                 *  of dynamic reconfiguration enable bit).
 828:.\Generated_Source\PSoC5/USB_Bootloader_std.c ****                 */
 829:.\Generated_Source\PSoC5/USB_Bootloader_std.c ****                 USB_Bootloader_DYN_RECONFIG_REG &= (uint8)~USB_Bootloader_DYN_RECONFIG_ENABLE;
 830:.\Generated_Source\PSoC5/USB_Bootloader_std.c ****                 /* The main loop has to re-enable DMA and OUT endpoint*/
 831:.\Generated_Source\PSoC5/USB_Bootloader_std.c ****             #else
 832:.\Generated_Source\PSoC5/USB_Bootloader_std.c ****                 CY_SET_REG8((reg8 *)(USB_Bootloader_SIE_EP1_CNT0_IND + ri),
 833:.\Generated_Source\PSoC5/USB_Bootloader_std.c ****                                                                 USB_Bootloader_EP[cur_ep].bufferSiz
 834:.\Generated_Source\PSoC5/USB_Bootloader_std.c ****                 CY_SET_REG8((reg8 *)(USB_Bootloader_SIE_EP1_CNT1_IND + ri),
 835:.\Generated_Source\PSoC5/USB_Bootloader_std.c ****                                                                 USB_Bootloader_EP[cur_ep].bufferSiz
 836:.\Generated_Source\PSoC5/USB_Bootloader_std.c ****                 CY_SET_REG8((reg8 *)(USB_Bootloader_ARB_RW1_RA_IND + ri),
 837:.\Generated_Source\PSoC5/USB_Bootloader_std.c ****                                                                 USB_Bootloader_EP[cur_ep].buffOffse
 838:.\Generated_Source\PSoC5/USB_Bootloader_std.c ****                 CY_SET_REG8((reg8 *)(USB_Bootloader_ARB_RW1_RA_MSB_IND + ri),
 839:.\Generated_Source\PSoC5/USB_Bootloader_std.c ****                                                                 USB_Bootloader_EP[cur_ep].buffOffse
 840:.\Generated_Source\PSoC5/USB_Bootloader_std.c ****                 CY_SET_REG8((reg8 *)(USB_Bootloader_ARB_RW1_WA_IND + ri),
 841:.\Generated_Source\PSoC5/USB_Bootloader_std.c ****                                                                 USB_Bootloader_EP[cur_ep].buffOffse
 842:.\Generated_Source\PSoC5/USB_Bootloader_std.c ****                 CY_SET_REG8((reg8 *)(USB_Bootloader_ARB_RW1_WA_MSB_IND + ri),
 843:.\Generated_Source\PSoC5/USB_Bootloader_std.c ****                                                                 USB_Bootloader_EP[cur_ep].buffOffse
 844:.\Generated_Source\PSoC5/USB_Bootloader_std.c ****             #endif /*  USB_Bootloader_EP_MM == USB_Bootloader__EP_DMAAUTO */
 845:.\Generated_Source\PSoC5/USB_Bootloader_std.c ****             }
 846:.\Generated_Source\PSoC5/USB_Bootloader_std.c ****             /* Get next EP element */
 847:.\Generated_Source\PSoC5/USB_Bootloader_std.c ****             pEP = &pEP[1u];
 848:.\Generated_Source\PSoC5/USB_Bootloader_std.c ****         }
 849:.\Generated_Source\PSoC5/USB_Bootloader_std.c ****     }   /* USB_Bootloader_configuration > 0 */
 850:.\Generated_Source\PSoC5/USB_Bootloader_std.c **** }
 851:.\Generated_Source\PSoC5/USB_Bootloader_std.c **** 
 852:.\Generated_Source\PSoC5/USB_Bootloader_std.c **** 
 853:.\Generated_Source\PSoC5/USB_Bootloader_std.c **** /*******************************************************************************
 854:.\Generated_Source\PSoC5/USB_Bootloader_std.c **** * Function Name: USB_Bootloader_GetConfigTablePtr
 855:.\Generated_Source\PSoC5/USB_Bootloader_std.c **** ********************************************************************************
 856:.\Generated_Source\PSoC5/USB_Bootloader_std.c **** *
 857:.\Generated_Source\PSoC5/USB_Bootloader_std.c **** * Summary:
 858:.\Generated_Source\PSoC5/USB_Bootloader_std.c **** *  This routine returns a pointer a configuration table entry
 859:.\Generated_Source\PSoC5/USB_Bootloader_std.c **** *
 860:.\Generated_Source\PSoC5/USB_Bootloader_std.c **** * Parameters:
ARM GAS  C:\Users\Robert\AppData\Local\Temp\ccLuFIyc.s 			page 19


 861:.\Generated_Source\PSoC5/USB_Bootloader_std.c **** *  confIndex:  Configuration Index
 862:.\Generated_Source\PSoC5/USB_Bootloader_std.c **** *
 863:.\Generated_Source\PSoC5/USB_Bootloader_std.c **** * Return:
 864:.\Generated_Source\PSoC5/USB_Bootloader_std.c **** *  Device Descriptor pointer or NULL when descriptor isn't exists.
 865:.\Generated_Source\PSoC5/USB_Bootloader_std.c **** *
 866:.\Generated_Source\PSoC5/USB_Bootloader_std.c **** *******************************************************************************/
 867:.\Generated_Source\PSoC5/USB_Bootloader_std.c **** const T_USB_Bootloader_LUT CYCODE *USB_Bootloader_GetConfigTablePtr(uint8 confIndex)
 868:.\Generated_Source\PSoC5/USB_Bootloader_std.c ****                                                         
 869:.\Generated_Source\PSoC5/USB_Bootloader_std.c **** {
 164              		.loc 1 869 0
 165              		.cfi_startproc
 166              		@ args = 0, pretend = 0, frame = 0
 167              		@ frame_needed = 0, uses_anonymous_args = 0
 168              		@ link register save eliminated.
 169              	.LVL7:
 870:.\Generated_Source\PSoC5/USB_Bootloader_std.c ****     /* Device Table */
 871:.\Generated_Source\PSoC5/USB_Bootloader_std.c ****     const T_USB_Bootloader_LUT CYCODE *pTmp;
 872:.\Generated_Source\PSoC5/USB_Bootloader_std.c **** 
 873:.\Generated_Source\PSoC5/USB_Bootloader_std.c ****     pTmp = (const T_USB_Bootloader_LUT CYCODE *) USB_Bootloader_TABLE[USB_Bootloader_device].p_list
 170              		.loc 1 873 0
 171 0000 074B     		ldr	r3, .L13
 172 0002 1B78     		ldrb	r3, [r3]	@ zero_extendqisi2
 173 0004 074A     		ldr	r2, .L13+4
 174 0006 02EBC302 		add	r2, r2, r3, lsl #3
 175 000a 5368     		ldr	r3, [r2, #4]
 176              	.LVL8:
 874:.\Generated_Source\PSoC5/USB_Bootloader_std.c **** 
 875:.\Generated_Source\PSoC5/USB_Bootloader_std.c ****     /* The first entry points to the Device Descriptor,
 876:.\Generated_Source\PSoC5/USB_Bootloader_std.c ****     *  the rest configuration entries.
 877:.\Generated_Source\PSoC5/USB_Bootloader_std.c ****     *  Set pointer to the first Configuration Descriptor
 878:.\Generated_Source\PSoC5/USB_Bootloader_std.c ****     */
 879:.\Generated_Source\PSoC5/USB_Bootloader_std.c ****     pTmp = &pTmp[1u];
 880:.\Generated_Source\PSoC5/USB_Bootloader_std.c ****     /* For this table, c is the number of configuration descriptors  */
 881:.\Generated_Source\PSoC5/USB_Bootloader_std.c ****     if(confIndex >= pTmp->c)   /* Verify that required configuration descriptor exists */
 177              		.loc 1 881 0
 178 000c 1A7A     		ldrb	r2, [r3, #8]	@ zero_extendqisi2
 179 000e 8242     		cmp	r2, r0
 180 0010 03D9     		bls	.L12
 181 0012 03EBC003 		add	r3, r3, r0, lsl #3
 182              	.LVL9:
 882:.\Generated_Source\PSoC5/USB_Bootloader_std.c ****     {
 883:.\Generated_Source\PSoC5/USB_Bootloader_std.c ****         pTmp = (const T_USB_Bootloader_LUT CYCODE *) NULL;
 884:.\Generated_Source\PSoC5/USB_Bootloader_std.c ****     }
 885:.\Generated_Source\PSoC5/USB_Bootloader_std.c ****     else
 886:.\Generated_Source\PSoC5/USB_Bootloader_std.c ****     {
 887:.\Generated_Source\PSoC5/USB_Bootloader_std.c ****         pTmp = (const T_USB_Bootloader_LUT CYCODE *) pTmp[confIndex].p_list;
 183              		.loc 1 887 0
 184 0016 D868     		ldr	r0, [r3, #12]
 185              	.LVL10:
 186 0018 7047     		bx	lr
 187              	.LVL11:
 188              	.L12:
 883:.\Generated_Source\PSoC5/USB_Bootloader_std.c ****     }
 189              		.loc 1 883 0
 190 001a 0020     		movs	r0, #0
 191              	.LVL12:
 888:.\Generated_Source\PSoC5/USB_Bootloader_std.c ****     }
ARM GAS  C:\Users\Robert\AppData\Local\Temp\ccLuFIyc.s 			page 20


 889:.\Generated_Source\PSoC5/USB_Bootloader_std.c **** 
 890:.\Generated_Source\PSoC5/USB_Bootloader_std.c ****     return( pTmp );
 891:.\Generated_Source\PSoC5/USB_Bootloader_std.c **** }
 192              		.loc 1 891 0
 193 001c 7047     		bx	lr
 194              	.L14:
 195 001e 00BF     		.align	2
 196              	.L13:
 197 0020 00000000 		.word	USB_Bootloader_device
 198 0024 00000000 		.word	USB_Bootloader_TABLE
 199              		.cfi_endproc
 200              	.LFE4:
 201              		.size	USB_Bootloader_GetConfigTablePtr, .-USB_Bootloader_GetConfigTablePtr
 202              		.section	.text.USB_Bootloader_ConfigAltChanged,"ax",%progbits
 203              		.align	2
 204              		.global	USB_Bootloader_ConfigAltChanged
 205              		.thumb
 206              		.thumb_func
 207              		.type	USB_Bootloader_ConfigAltChanged, %function
 208              	USB_Bootloader_ConfigAltChanged:
 209              	.LFB3:
 742:.\Generated_Source\PSoC5/USB_Bootloader_std.c ****     uint8 ep;
 210              		.loc 1 742 0
 211              		.cfi_startproc
 212              		@ args = 0, pretend = 0, frame = 0
 213              		@ frame_needed = 0, uses_anonymous_args = 0
 214 0000 F8B5     		push	{r3, r4, r5, r6, r7, lr}
 215              		.cfi_def_cfa_offset 24
 216              		.cfi_offset 3, -24
 217              		.cfi_offset 4, -20
 218              		.cfi_offset 5, -16
 219              		.cfi_offset 6, -12
 220              		.cfi_offset 7, -8
 221              		.cfi_offset 14, -4
 754:.\Generated_Source\PSoC5/USB_Bootloader_std.c ****     {
 222              		.loc 1 754 0
 223 0002 4C4B     		ldr	r3, .L27
 224 0004 1B78     		ldrb	r3, [r3]	@ zero_extendqisi2
 225 0006 13F0FF0F 		tst	r3, #255
 226 000a 00F09280 		beq	.L15
 756:.\Generated_Source\PSoC5/USB_Bootloader_std.c ****         pTmp = &pTmp[1u];
 227              		.loc 1 756 0
 228 000e 494B     		ldr	r3, .L27
 229 0010 1878     		ldrb	r0, [r3]	@ zero_extendqisi2
 230 0012 0138     		subs	r0, r0, #1
 231 0014 C0B2     		uxtb	r0, r0
 232 0016 FFF7FEFF 		bl	USB_Bootloader_GetConfigTablePtr
 233              	.LVL13:
 758:.\Generated_Source\PSoC5/USB_Bootloader_std.c **** 
 234              		.loc 1 758 0
 235 001a 057A     		ldrb	r5, [r0, #8]	@ zero_extendqisi2
 236              	.LVL14:
 763:.\Generated_Source\PSoC5/USB_Bootloader_std.c ****         for (i = 0u; i < ep; i++)
 237              		.loc 1 763 0
 238 001c C068     		ldr	r0, [r0, #12]
 239              	.LVL15:
 764:.\Generated_Source\PSoC5/USB_Bootloader_std.c ****         {
ARM GAS  C:\Users\Robert\AppData\Local\Temp\ccLuFIyc.s 			page 21


 240              		.loc 1 764 0
 241 001e 0023     		movs	r3, #0
 242 0020 84E0     		b	.L17
 243              	.LVL16:
 244              	.L23:
 767:.\Generated_Source\PSoC5/USB_Bootloader_std.c ****                 USB_Bootloader_interfaceSetting_last[pEP->interface] ) &&
 245              		.loc 1 767 0
 246 0022 0178     		ldrb	r1, [r0]	@ zero_extendqisi2
 247 0024 444A     		ldr	r2, .L27+4
 248 0026 525C     		ldrb	r2, [r2, r1]	@ zero_extendqisi2
 768:.\Generated_Source\PSoC5/USB_Bootloader_std.c ****                (USB_Bootloader_interfaceSetting[pEP->interface] == pEP->altSetting) &&
 249              		.loc 1 768 0
 250 0028 444C     		ldr	r4, .L27+8
 251 002a 645C     		ldrb	r4, [r4, r1]	@ zero_extendqisi2
 252 002c D2B2     		uxtb	r2, r2
 767:.\Generated_Source\PSoC5/USB_Bootloader_std.c ****                 USB_Bootloader_interfaceSetting_last[pEP->interface] ) &&
 253              		.loc 1 767 0
 254 002e A242     		cmp	r2, r4
 255 0030 79D0     		beq	.L18
 769:.\Generated_Source\PSoC5/USB_Bootloader_std.c ****                (pEP->interface == CY_GET_REG8(USB_Bootloader_wIndexLo)))
 256              		.loc 1 769 0
 257 0032 414A     		ldr	r2, .L27+4
 258 0034 525C     		ldrb	r2, [r2, r1]	@ zero_extendqisi2
 259 0036 D2B2     		uxtb	r2, r2
 260 0038 4478     		ldrb	r4, [r0, #1]	@ zero_extendqisi2
 768:.\Generated_Source\PSoC5/USB_Bootloader_std.c ****                (USB_Bootloader_interfaceSetting[pEP->interface] == pEP->altSetting) &&
 261              		.loc 1 768 0
 262 003a A242     		cmp	r2, r4
 263 003c 73D1     		bne	.L18
 770:.\Generated_Source\PSoC5/USB_Bootloader_std.c ****             {
 264              		.loc 1 770 0
 265 003e 404A     		ldr	r2, .L27+12
 266 0040 1278     		ldrb	r2, [r2]	@ zero_extendqisi2
 267 0042 D2B2     		uxtb	r2, r2
 769:.\Generated_Source\PSoC5/USB_Bootloader_std.c ****                (pEP->interface == CY_GET_REG8(USB_Bootloader_wIndexLo)))
 268              		.loc 1 769 0
 269 0044 9142     		cmp	r1, r2
 270 0046 6ED1     		bne	.L18
 772:.\Generated_Source\PSoC5/USB_Bootloader_std.c ****                 ri = ((cur_ep - USB_Bootloader_EP1) << USB_Bootloader_EPX_CNTX_ADDR_SHIFT);
 271              		.loc 1 772 0
 272 0048 8478     		ldrb	r4, [r0, #2]	@ zero_extendqisi2
 273 004a 04F07F02 		and	r2, r4, #127
 274              	.LVL17:
 773:.\Generated_Source\PSoC5/USB_Bootloader_std.c ****                 epType = pEP->attributes & USB_Bootloader_EP_TYPE_MASK;
 275              		.loc 1 773 0
 276 004e 511E     		subs	r1, r2, #1
 277 0050 0901     		lsls	r1, r1, #4
 278 0052 C9B2     		uxtb	r1, r1
 279              	.LVL18:
 774:.\Generated_Source\PSoC5/USB_Bootloader_std.c ****                 if ((pEP->addr & USB_Bootloader_DIR_IN) != 0u)
 280              		.loc 1 774 0
 281 0054 C678     		ldrb	r6, [r0, #3]	@ zero_extendqisi2
 282 0056 06F00306 		and	r6, r6, #3
 283              	.LVL19:
 775:.\Generated_Source\PSoC5/USB_Bootloader_std.c ****                 {
 284              		.loc 1 775 0
 285 005a 14F0800F 		tst	r4, #128
ARM GAS  C:\Users\Robert\AppData\Local\Temp\ccLuFIyc.s 			page 22


 286 005e 12D0     		beq	.L19
 778:.\Generated_Source\PSoC5/USB_Bootloader_std.c ****                     USB_Bootloader_EP[cur_ep].epMode = (epType == USB_Bootloader_EP_TYPE_ISOC) ?
 287              		.loc 1 778 0
 288 0060 02EB4204 		add	r4, r2, r2, lsl #1
 289 0064 A400     		lsls	r4, r4, #2
 290 0066 374F     		ldr	r7, .L27+16
 291 0068 3C44     		add	r4, r4, r7
 292 006a 0127     		movs	r7, #1
 293 006c 6770     		strb	r7, [r4, #1]
 779:.\Generated_Source\PSoC5/USB_Bootloader_std.c ****                                                 USB_Bootloader_MODE_ISO_IN : USB_Bootloader_MODE_AC
 294              		.loc 1 779 0
 295 006e BE42     		cmp	r6, r7
 296 0070 01D1     		bne	.L24
 297 0072 0726     		movs	r6, #7
 298              	.LVL20:
 299 0074 00E0     		b	.L20
 300              	.LVL21:
 301              	.L24:
 302 0076 0D26     		movs	r6, #13
 303              	.LVL22:
 304              	.L20:
 779:.\Generated_Source\PSoC5/USB_Bootloader_std.c ****                                                 USB_Bootloader_MODE_ISO_IN : USB_Bootloader_MODE_AC
 305              		.loc 1 779 0 is_stmt 0 discriminator 4
 306 0078 02EB4204 		add	r4, r2, r2, lsl #1
 307 007c A400     		lsls	r4, r4, #2
 308 007e 314F     		ldr	r7, .L27+16
 309 0080 3C44     		add	r4, r4, r7
 310 0082 6671     		strb	r6, [r4, #5]
 311 0084 11E0     		b	.L21
 312              	.LVL23:
 313              	.L19:
 785:.\Generated_Source\PSoC5/USB_Bootloader_std.c ****                     USB_Bootloader_EP[cur_ep].epMode = (epType == USB_Bootloader_EP_TYPE_ISOC) ?
 314              		.loc 1 785 0 is_stmt 1
 315 0086 02EB4204 		add	r4, r2, r2, lsl #1
 316 008a A400     		lsls	r4, r4, #2
 317 008c 2D4F     		ldr	r7, .L27+16
 318 008e 3C44     		add	r4, r4, r7
 319 0090 0027     		movs	r7, #0
 320 0092 6770     		strb	r7, [r4, #1]
 786:.\Generated_Source\PSoC5/USB_Bootloader_std.c ****                                                 USB_Bootloader_MODE_ISO_OUT : USB_Bootloader_MODE_A
 321              		.loc 1 786 0
 322 0094 012E     		cmp	r6, #1
 323 0096 01D1     		bne	.L25
 324 0098 0526     		movs	r6, #5
 325              	.LVL24:
 326 009a 00E0     		b	.L22
 327              	.LVL25:
 328              	.L25:
 329 009c 0926     		movs	r6, #9
 330              	.LVL26:
 331              	.L22:
 786:.\Generated_Source\PSoC5/USB_Bootloader_std.c ****                                                 USB_Bootloader_MODE_ISO_OUT : USB_Bootloader_MODE_A
 332              		.loc 1 786 0 is_stmt 0 discriminator 4
 333 009e 02EB4204 		add	r4, r2, r2, lsl #1
 334 00a2 A400     		lsls	r4, r4, #2
 335 00a4 274F     		ldr	r7, .L27+16
 336 00a6 3C44     		add	r4, r4, r7
ARM GAS  C:\Users\Robert\AppData\Local\Temp\ccLuFIyc.s 			page 23


 337 00a8 6671     		strb	r6, [r4, #5]
 338              	.L21:
 790:.\Generated_Source\PSoC5/USB_Bootloader_std.c ****                 USB_Bootloader_EP[cur_ep].bufferSize = pEP->bufferSize;
 339              		.loc 1 790 0 is_stmt 1
 340 00aa 0126     		movs	r6, #1
 341 00ac 264C     		ldr	r4, .L27+20
 342 00ae 0E55     		strb	r6, [r1, r4]
 791:.\Generated_Source\PSoC5/USB_Bootloader_std.c ****                 USB_Bootloader_EP[cur_ep].addr = pEP->addr;
 343              		.loc 1 791 0
 344 00b0 B0F804C0 		ldrh	ip, [r0, #4]
 345 00b4 234F     		ldr	r7, .L27+16
 346 00b6 02FA06FE 		lsl	lr, r2, r6
 347 00ba 0EEB0206 		add	r6, lr, r2
 348 00be B600     		lsls	r6, r6, #2
 349 00c0 BC19     		adds	r4, r7, r6
 350 00c2 A4F808C0 		strh	ip, [r4, #8]	@ movhi
 792:.\Generated_Source\PSoC5/USB_Bootloader_std.c ****                 USB_Bootloader_EP[cur_ep].attrib = pEP->attributes;
 351              		.loc 1 792 0
 352 00c6 90F802C0 		ldrb	ip, [r0, #2]	@ zero_extendqisi2
 353 00ca 84F804C0 		strb	ip, [r4, #4]
 793:.\Generated_Source\PSoC5/USB_Bootloader_std.c **** 
 354              		.loc 1 793 0
 355 00ce 90F803C0 		ldrb	ip, [r0, #3]	@ zero_extendqisi2
 356 00d2 07F806C0 		strb	ip, [r7, r6]
 796:.\Generated_Source\PSoC5/USB_Bootloader_std.c **** 
 357              		.loc 1 796 0
 358 00d6 0026     		movs	r6, #0
 359 00d8 E670     		strb	r6, [r4, #3]
 832:.\Generated_Source\PSoC5/USB_Bootloader_std.c ****                                                                 USB_Bootloader_EP[cur_ep].bufferSiz
 360              		.loc 1 832 0
 361 00da 2689     		ldrh	r6, [r4, #8]
 362 00dc C6F30726 		ubfx	r6, r6, #8, #8
 363 00e0 DFF870C0 		ldr	ip, .L27+32
 364 00e4 01F80C60 		strb	r6, [r1, ip]
 834:.\Generated_Source\PSoC5/USB_Bootloader_std.c ****                                                                 USB_Bootloader_EP[cur_ep].bufferSiz
 365              		.loc 1 834 0
 366 00e8 2689     		ldrh	r6, [r4, #8]
 367 00ea F6B2     		uxtb	r6, r6
 368 00ec 0CF1010C 		add	ip, ip, #1
 369 00f0 01F80C60 		strb	r6, [r1, ip]
 836:.\Generated_Source\PSoC5/USB_Bootloader_std.c ****                                                                 USB_Bootloader_EP[cur_ep].buffOffse
 370              		.loc 1 836 0
 371 00f4 E688     		ldrh	r6, [r4, #6]
 372 00f6 F6B2     		uxtb	r6, r6
 373 00f8 0CF1790C 		add	ip, ip, #121
 374 00fc 01F80C60 		strb	r6, [r1, ip]
 838:.\Generated_Source\PSoC5/USB_Bootloader_std.c ****                                                                 USB_Bootloader_EP[cur_ep].buffOffse
 375              		.loc 1 838 0
 376 0100 E688     		ldrh	r6, [r4, #6]
 377 0102 C6F30726 		ubfx	r6, r6, #8, #8
 378 0106 0CF1010C 		add	ip, ip, #1
 379 010a 01F80C60 		strb	r6, [r1, ip]
 840:.\Generated_Source\PSoC5/USB_Bootloader_std.c ****                                                                 USB_Bootloader_EP[cur_ep].buffOffse
 380              		.loc 1 840 0
 381 010e E488     		ldrh	r4, [r4, #6]
 382 0110 E4B2     		uxtb	r4, r4
 383 0112 0E4E     		ldr	r6, .L27+24
ARM GAS  C:\Users\Robert\AppData\Local\Temp\ccLuFIyc.s 			page 24


 384 0114 8C55     		strb	r4, [r1, r6]
 842:.\Generated_Source\PSoC5/USB_Bootloader_std.c ****                                                                 USB_Bootloader_EP[cur_ep].buffOffse
 385              		.loc 1 842 0
 386 0116 7244     		add	r2, r2, lr
 387              	.LVL27:
 388 0118 9200     		lsls	r2, r2, #2
 389 011a 3A44     		add	r2, r2, r7
 390 011c D288     		ldrh	r2, [r2, #6]
 391 011e C2F30722 		ubfx	r2, r2, #8, #8
 392 0122 0B4C     		ldr	r4, .L27+28
 393 0124 0A55     		strb	r2, [r1, r4]
 394              	.LVL28:
 395              	.L18:
 847:.\Generated_Source\PSoC5/USB_Bootloader_std.c ****         }
 396              		.loc 1 847 0 discriminator 2
 397 0126 0830     		adds	r0, r0, #8
 398              	.LVL29:
 764:.\Generated_Source\PSoC5/USB_Bootloader_std.c ****         {
 399              		.loc 1 764 0 discriminator 2
 400 0128 0133     		adds	r3, r3, #1
 401              	.LVL30:
 402 012a DBB2     		uxtb	r3, r3
 403              	.LVL31:
 404              	.L17:
 764:.\Generated_Source\PSoC5/USB_Bootloader_std.c ****         {
 405              		.loc 1 764 0 is_stmt 0 discriminator 1
 406 012c AB42     		cmp	r3, r5
 407 012e FFF478AF 		bcc	.L23
 408              	.LVL32:
 409              	.L15:
 410 0132 F8BD     		pop	{r3, r4, r5, r6, r7, pc}
 411              	.L28:
 412              		.align	2
 413              	.L27:
 414 0134 00000000 		.word	USB_Bootloader_configuration
 415 0138 00000000 		.word	USB_Bootloader_interfaceSetting
 416 013c 00000000 		.word	USB_Bootloader_interfaceSetting_last
 417 0140 04600040 		.word	1073766404
 418 0144 00000000 		.word	USB_Bootloader_EP
 419 0148 0E600040 		.word	1073766414
 420 014c 84600040 		.word	1073766532
 421 0150 85600040 		.word	1073766533
 422 0154 0C600040 		.word	1073766412
 423              		.cfi_endproc
 424              	.LFE3:
 425              		.size	USB_Bootloader_ConfigAltChanged, .-USB_Bootloader_ConfigAltChanged
 426              		.section	.text.USB_Bootloader_GetDeviceTablePtr,"ax",%progbits
 427              		.align	2
 428              		.global	USB_Bootloader_GetDeviceTablePtr
 429              		.thumb
 430              		.thumb_func
 431              		.type	USB_Bootloader_GetDeviceTablePtr, %function
 432              	USB_Bootloader_GetDeviceTablePtr:
 433              	.LFB5:
 892:.\Generated_Source\PSoC5/USB_Bootloader_std.c **** 
 893:.\Generated_Source\PSoC5/USB_Bootloader_std.c **** 
 894:.\Generated_Source\PSoC5/USB_Bootloader_std.c **** /*******************************************************************************
ARM GAS  C:\Users\Robert\AppData\Local\Temp\ccLuFIyc.s 			page 25


 895:.\Generated_Source\PSoC5/USB_Bootloader_std.c **** * Function Name: USB_Bootloader_GetDeviceTablePtr
 896:.\Generated_Source\PSoC5/USB_Bootloader_std.c **** ********************************************************************************
 897:.\Generated_Source\PSoC5/USB_Bootloader_std.c **** *
 898:.\Generated_Source\PSoC5/USB_Bootloader_std.c **** * Summary:
 899:.\Generated_Source\PSoC5/USB_Bootloader_std.c **** *  This routine returns a pointer to the Device table
 900:.\Generated_Source\PSoC5/USB_Bootloader_std.c **** *
 901:.\Generated_Source\PSoC5/USB_Bootloader_std.c **** * Parameters:
 902:.\Generated_Source\PSoC5/USB_Bootloader_std.c **** *  None.
 903:.\Generated_Source\PSoC5/USB_Bootloader_std.c **** *
 904:.\Generated_Source\PSoC5/USB_Bootloader_std.c **** * Return:
 905:.\Generated_Source\PSoC5/USB_Bootloader_std.c **** *  Device Table pointer
 906:.\Generated_Source\PSoC5/USB_Bootloader_std.c **** *
 907:.\Generated_Source\PSoC5/USB_Bootloader_std.c **** *******************************************************************************/
 908:.\Generated_Source\PSoC5/USB_Bootloader_std.c **** const T_USB_Bootloader_LUT CYCODE *USB_Bootloader_GetDeviceTablePtr(void)
 909:.\Generated_Source\PSoC5/USB_Bootloader_std.c ****                                                             
 910:.\Generated_Source\PSoC5/USB_Bootloader_std.c **** {
 434              		.loc 1 910 0 is_stmt 1
 435              		.cfi_startproc
 436              		@ args = 0, pretend = 0, frame = 0
 437              		@ frame_needed = 0, uses_anonymous_args = 0
 438              		@ link register save eliminated.
 911:.\Generated_Source\PSoC5/USB_Bootloader_std.c ****     /* Device Table */
 912:.\Generated_Source\PSoC5/USB_Bootloader_std.c ****     return( (const T_USB_Bootloader_LUT CYCODE *) USB_Bootloader_TABLE[USB_Bootloader_device].p_lis
 439              		.loc 1 912 0
 440 0000 034B     		ldr	r3, .L30
 441 0002 1A78     		ldrb	r2, [r3]	@ zero_extendqisi2
 442 0004 034B     		ldr	r3, .L30+4
 443 0006 03EBC203 		add	r3, r3, r2, lsl #3
 913:.\Generated_Source\PSoC5/USB_Bootloader_std.c **** }
 444              		.loc 1 913 0
 445 000a 5868     		ldr	r0, [r3, #4]
 446 000c 7047     		bx	lr
 447              	.L31:
 448 000e 00BF     		.align	2
 449              	.L30:
 450 0010 00000000 		.word	USB_Bootloader_device
 451 0014 00000000 		.word	USB_Bootloader_TABLE
 452              		.cfi_endproc
 453              	.LFE5:
 454              		.size	USB_Bootloader_GetDeviceTablePtr, .-USB_Bootloader_GetDeviceTablePtr
 455              		.section	.text.USB_Bootloader_GetInterfaceClassTablePtr,"ax",%progbits
 456              		.align	2
 457              		.global	USB_Bootloader_GetInterfaceClassTablePtr
 458              		.thumb
 459              		.thumb_func
 460              		.type	USB_Bootloader_GetInterfaceClassTablePtr, %function
 461              	USB_Bootloader_GetInterfaceClassTablePtr:
 462              	.LFB6:
 914:.\Generated_Source\PSoC5/USB_Bootloader_std.c **** 
 915:.\Generated_Source\PSoC5/USB_Bootloader_std.c **** 
 916:.\Generated_Source\PSoC5/USB_Bootloader_std.c **** /*******************************************************************************
 917:.\Generated_Source\PSoC5/USB_Bootloader_std.c **** * Function Name: USB_GetInterfaceClassTablePtr
 918:.\Generated_Source\PSoC5/USB_Bootloader_std.c **** ********************************************************************************
 919:.\Generated_Source\PSoC5/USB_Bootloader_std.c **** *
 920:.\Generated_Source\PSoC5/USB_Bootloader_std.c **** * Summary:
 921:.\Generated_Source\PSoC5/USB_Bootloader_std.c **** *  This routine returns Interface Class table pointer, which contains
 922:.\Generated_Source\PSoC5/USB_Bootloader_std.c **** *  the relation between interface number and interface class.
ARM GAS  C:\Users\Robert\AppData\Local\Temp\ccLuFIyc.s 			page 26


 923:.\Generated_Source\PSoC5/USB_Bootloader_std.c **** *
 924:.\Generated_Source\PSoC5/USB_Bootloader_std.c **** * Parameters:
 925:.\Generated_Source\PSoC5/USB_Bootloader_std.c **** *  None.
 926:.\Generated_Source\PSoC5/USB_Bootloader_std.c **** *
 927:.\Generated_Source\PSoC5/USB_Bootloader_std.c **** * Return:
 928:.\Generated_Source\PSoC5/USB_Bootloader_std.c **** *  Interface Class table pointer.
 929:.\Generated_Source\PSoC5/USB_Bootloader_std.c **** *
 930:.\Generated_Source\PSoC5/USB_Bootloader_std.c **** *******************************************************************************/
 931:.\Generated_Source\PSoC5/USB_Bootloader_std.c **** const uint8 CYCODE *USB_Bootloader_GetInterfaceClassTablePtr(void)
 932:.\Generated_Source\PSoC5/USB_Bootloader_std.c ****                                                         
 933:.\Generated_Source\PSoC5/USB_Bootloader_std.c **** {
 463              		.loc 1 933 0
 464              		.cfi_startproc
 465              		@ args = 0, pretend = 0, frame = 0
 466              		@ frame_needed = 0, uses_anonymous_args = 0
 467 0000 08B5     		push	{r3, lr}
 468              		.cfi_def_cfa_offset 8
 469              		.cfi_offset 3, -8
 470              		.cfi_offset 14, -4
 934:.\Generated_Source\PSoC5/USB_Bootloader_std.c ****     const T_USB_Bootloader_LUT CYCODE *pTmp;
 935:.\Generated_Source\PSoC5/USB_Bootloader_std.c ****     const uint8 CYCODE *pInterfaceClass;
 936:.\Generated_Source\PSoC5/USB_Bootloader_std.c ****     uint8 currentInterfacesNum;
 937:.\Generated_Source\PSoC5/USB_Bootloader_std.c **** 
 938:.\Generated_Source\PSoC5/USB_Bootloader_std.c ****     pTmp = USB_Bootloader_GetConfigTablePtr(USB_Bootloader_configuration - 1u);
 471              		.loc 1 938 0
 472 0002 074B     		ldr	r3, .L36
 473 0004 1878     		ldrb	r0, [r3]	@ zero_extendqisi2
 474 0006 0138     		subs	r0, r0, #1
 475 0008 C0B2     		uxtb	r0, r0
 476 000a FFF7FEFF 		bl	USB_Bootloader_GetConfigTablePtr
 477              	.LVL33:
 939:.\Generated_Source\PSoC5/USB_Bootloader_std.c ****     if( pTmp != NULL )
 478              		.loc 1 939 0
 479 000e 28B1     		cbz	r0, .L34
 940:.\Generated_Source\PSoC5/USB_Bootloader_std.c ****     {
 941:.\Generated_Source\PSoC5/USB_Bootloader_std.c ****         currentInterfacesNum  = ((const uint8 *) pTmp->p_list)[USB_Bootloader_CONFIG_DESCR_NUM_INTE
 480              		.loc 1 941 0
 481 0010 4268     		ldr	r2, [r0, #4]
 482 0012 1279     		ldrb	r2, [r2, #4]	@ zero_extendqisi2
 483              	.LVL34:
 942:.\Generated_Source\PSoC5/USB_Bootloader_std.c ****         /* Third entry in the LUT starts the Interface Table pointers */
 943:.\Generated_Source\PSoC5/USB_Bootloader_std.c ****         /* The INTERFACE_CLASS table is located after all interfaces */
 944:.\Generated_Source\PSoC5/USB_Bootloader_std.c ****         pTmp = &pTmp[currentInterfacesNum + 2u];
 484              		.loc 1 944 0
 485 0014 00EBC203 		add	r3, r0, r2, lsl #3
 486              	.LVL35:
 945:.\Generated_Source\PSoC5/USB_Bootloader_std.c ****         pInterfaceClass = (const uint8 CYCODE *) pTmp->p_list;
 487              		.loc 1 945 0
 488 0018 5869     		ldr	r0, [r3, #20]
 489              	.LVL36:
 490 001a 08BD     		pop	{r3, pc}
 491              	.LVL37:
 492              	.L34:
 946:.\Generated_Source\PSoC5/USB_Bootloader_std.c ****     }
 947:.\Generated_Source\PSoC5/USB_Bootloader_std.c ****     else
 948:.\Generated_Source\PSoC5/USB_Bootloader_std.c ****     {
 949:.\Generated_Source\PSoC5/USB_Bootloader_std.c ****         pInterfaceClass = (const uint8 CYCODE *) NULL;
ARM GAS  C:\Users\Robert\AppData\Local\Temp\ccLuFIyc.s 			page 27


 493              		.loc 1 949 0
 494 001c 0020     		movs	r0, #0
 495              	.LVL38:
 950:.\Generated_Source\PSoC5/USB_Bootloader_std.c ****     }
 951:.\Generated_Source\PSoC5/USB_Bootloader_std.c **** 
 952:.\Generated_Source\PSoC5/USB_Bootloader_std.c ****     return( pInterfaceClass );
 953:.\Generated_Source\PSoC5/USB_Bootloader_std.c **** }
 496              		.loc 1 953 0
 497 001e 08BD     		pop	{r3, pc}
 498              	.L37:
 499              		.align	2
 500              	.L36:
 501 0020 00000000 		.word	USB_Bootloader_configuration
 502              		.cfi_endproc
 503              	.LFE6:
 504              		.size	USB_Bootloader_GetInterfaceClassTablePtr, .-USB_Bootloader_GetInterfaceClassTablePtr
 505              		.section	.text.USB_Bootloader_Config,"ax",%progbits
 506              		.align	2
 507              		.global	USB_Bootloader_Config
 508              		.thumb
 509              		.thumb_func
 510              		.type	USB_Bootloader_Config, %function
 511              	USB_Bootloader_Config:
 512              	.LFB2:
 494:.\Generated_Source\PSoC5/USB_Bootloader_std.c ****     uint8 ep;
 513              		.loc 1 494 0
 514              		.cfi_startproc
 515              		@ args = 0, pretend = 0, frame = 0
 516              		@ frame_needed = 0, uses_anonymous_args = 0
 517              	.LVL39:
 518 0000 F8B5     		push	{r3, r4, r5, r6, r7, lr}
 519              		.cfi_def_cfa_offset 24
 520              		.cfi_offset 3, -24
 521              		.cfi_offset 4, -20
 522              		.cfi_offset 5, -16
 523              		.cfi_offset 6, -12
 524              		.cfi_offset 7, -8
 525              		.cfi_offset 14, -4
 526              	.LVL40:
 508:.\Generated_Source\PSoC5/USB_Bootloader_std.c ****     {
 527              		.loc 1 508 0
 528 0002 0022     		movs	r2, #0
 529 0004 0EE0     		b	.L39
 530              	.LVL41:
 531              	.L40:
 510:.\Generated_Source\PSoC5/USB_Bootloader_std.c ****         USB_Bootloader_EP[ep].hwEpState = 0u;
 532              		.loc 1 510 0 discriminator 3
 533 0006 6B4E     		ldr	r6, .L65
 534 0008 5300     		lsls	r3, r2, #1
 535 000a 9D18     		adds	r5, r3, r2
 536 000c AD00     		lsls	r5, r5, #2
 537 000e 7419     		adds	r4, r6, r5
 538 0010 0021     		movs	r1, #0
 539 0012 7155     		strb	r1, [r6, r5]
 511:.\Generated_Source\PSoC5/USB_Bootloader_std.c ****         USB_Bootloader_EP[ep].apiEpState = USB_Bootloader_NO_EVENT_PENDING;
 540              		.loc 1 511 0 discriminator 3
 541 0014 A170     		strb	r1, [r4, #2]
ARM GAS  C:\Users\Robert\AppData\Local\Temp\ccLuFIyc.s 			page 28


 512:.\Generated_Source\PSoC5/USB_Bootloader_std.c ****         USB_Bootloader_EP[ep].epToggle = 0u;
 542              		.loc 1 512 0 discriminator 3
 543 0016 6170     		strb	r1, [r4, #1]
 513:.\Generated_Source\PSoC5/USB_Bootloader_std.c ****         USB_Bootloader_EP[ep].epMode = USB_Bootloader_MODE_DISABLE;
 544              		.loc 1 513 0 discriminator 3
 545 0018 E170     		strb	r1, [r4, #3]
 514:.\Generated_Source\PSoC5/USB_Bootloader_std.c ****         USB_Bootloader_EP[ep].bufferSize = 0u;
 546              		.loc 1 514 0 discriminator 3
 547 001a 6171     		strb	r1, [r4, #5]
 515:.\Generated_Source\PSoC5/USB_Bootloader_std.c ****         USB_Bootloader_EP[ep].interface = 0u;
 548              		.loc 1 515 0 discriminator 3
 549 001c 2181     		strh	r1, [r4, #8]	@ movhi
 516:.\Generated_Source\PSoC5/USB_Bootloader_std.c **** 
 550              		.loc 1 516 0 discriminator 3
 551 001e A172     		strb	r1, [r4, #10]
 508:.\Generated_Source\PSoC5/USB_Bootloader_std.c ****     {
 552              		.loc 1 508 0 discriminator 3
 553 0020 0132     		adds	r2, r2, #1
 554              	.LVL42:
 555 0022 D2B2     		uxtb	r2, r2
 556              	.LVL43:
 557              	.L39:
 508:.\Generated_Source\PSoC5/USB_Bootloader_std.c ****     {
 558              		.loc 1 508 0 is_stmt 0 discriminator 1
 559 0024 082A     		cmp	r2, #8
 560 0026 EED9     		bls	.L40
 521:.\Generated_Source\PSoC5/USB_Bootloader_std.c ****     {
 561              		.loc 1 521 0 is_stmt 1
 562 0028 40B9     		cbnz	r0, .L61
 563 002a 0AE0     		b	.L42
 564              	.LVL44:
 565              	.L43:
 525:.\Generated_Source\PSoC5/USB_Bootloader_std.c ****             USB_Bootloader_interfaceSetting_last[i] = 0x00u;
 566              		.loc 1 525 0 discriminator 3
 567 002c 0022     		movs	r2, #0
 568 002e 6249     		ldr	r1, .L65+4
 569 0030 CA54     		strb	r2, [r1, r3]
 526:.\Generated_Source\PSoC5/USB_Bootloader_std.c ****         }
 570              		.loc 1 526 0 discriminator 3
 571 0032 6249     		ldr	r1, .L65+8
 572 0034 CA54     		strb	r2, [r1, r3]
 523:.\Generated_Source\PSoC5/USB_Bootloader_std.c ****         {
 573              		.loc 1 523 0 discriminator 3
 574 0036 0133     		adds	r3, r3, #1
 575              	.LVL45:
 576 0038 DBB2     		uxtb	r3, r3
 577              	.LVL46:
 578 003a 00E0     		b	.L41
 579              	.LVL47:
 580              	.L61:
 581 003c 0023     		movs	r3, #0
 582              	.LVL48:
 583              	.L41:
 523:.\Generated_Source\PSoC5/USB_Bootloader_std.c ****         {
 584              		.loc 1 523 0 is_stmt 0 discriminator 1
 585 003e 002B     		cmp	r3, #0
 586 0040 F4D0     		beq	.L43
ARM GAS  C:\Users\Robert\AppData\Local\Temp\ccLuFIyc.s 			page 29


 587              	.LVL49:
 588              	.L42:
 531:.\Generated_Source\PSoC5/USB_Bootloader_std.c ****     {
 589              		.loc 1 531 0 is_stmt 1
 590 0042 5F4B     		ldr	r3, .L65+12
 591 0044 1B78     		ldrb	r3, [r3]	@ zero_extendqisi2
 592 0046 13F0FF0F 		tst	r3, #255
 593 004a 00F0B280 		beq	.L38
 533:.\Generated_Source\PSoC5/USB_Bootloader_std.c ****         /* Set Power status for current configuration */
 594              		.loc 1 533 0
 595 004e 5C4B     		ldr	r3, .L65+12
 596 0050 1878     		ldrb	r0, [r3]	@ zero_extendqisi2
 597              	.LVL50:
 598 0052 0138     		subs	r0, r0, #1
 599 0054 C0B2     		uxtb	r0, r0
 600 0056 FFF7FEFF 		bl	USB_Bootloader_GetConfigTablePtr
 601              	.LVL51:
 535:.\Generated_Source\PSoC5/USB_Bootloader_std.c ****         if((pDescr[USB_Bootloader_CONFIG_DESCR_ATTRIB] & USB_Bootloader_CONFIG_DESCR_ATTRIB_SELF_PO
 602              		.loc 1 535 0
 603 005a 4368     		ldr	r3, [r0, #4]
 604              	.LVL52:
 536:.\Generated_Source\PSoC5/USB_Bootloader_std.c ****         {
 605              		.loc 1 536 0
 606 005c DB79     		ldrb	r3, [r3, #7]	@ zero_extendqisi2
 607              	.LVL53:
 608 005e 13F0400F 		tst	r3, #64
 609 0062 05D0     		beq	.L45
 538:.\Generated_Source\PSoC5/USB_Bootloader_std.c ****         }
 610              		.loc 1 538 0
 611 0064 574A     		ldr	r2, .L65+16
 612 0066 1378     		ldrb	r3, [r2]	@ zero_extendqisi2
 613 0068 43F00103 		orr	r3, r3, #1
 614 006c 1370     		strb	r3, [r2]
 615 006e 04E0     		b	.L46
 616              	.L45:
 542:.\Generated_Source\PSoC5/USB_Bootloader_std.c ****         }
 617              		.loc 1 542 0
 618 0070 544A     		ldr	r2, .L65+16
 619 0072 1378     		ldrb	r3, [r2]	@ zero_extendqisi2
 620 0074 03F0FE03 		and	r3, r3, #254
 621 0078 1370     		strb	r3, [r2]
 622              	.L46:
 623              	.LVL54:
 546:.\Generated_Source\PSoC5/USB_Bootloader_std.c **** 
 624              		.loc 1 546 0
 625 007a 057A     		ldrb	r5, [r0, #8]	@ zero_extendqisi2
 626              	.LVL55:
 613:.\Generated_Source\PSoC5/USB_Bootloader_std.c ****             {
 627              		.loc 1 613 0
 628 007c 0124     		movs	r4, #1
 629 007e 6EE0     		b	.L47
 630              	.LVL56:
 631              	.L56:
 616:.\Generated_Source\PSoC5/USB_Bootloader_std.c ****                 /* Find max length for each EP and select it (length could be different in differen
 632              		.loc 1 616 0
 633 0080 C168     		ldr	r1, [r0, #12]
 634              	.LVL57:
ARM GAS  C:\Users\Robert\AppData\Local\Temp\ccLuFIyc.s 			page 30


 619:.\Generated_Source\PSoC5/USB_Bootloader_std.c ****                 {
 635              		.loc 1 619 0
 636 0082 0023     		movs	r3, #0
 637 0084 67E0     		b	.L48
 638              	.LVL58:
 639              	.L55:
 622:.\Generated_Source\PSoC5/USB_Bootloader_std.c ****                     {
 640              		.loc 1 622 0
 641 0086 8A78     		ldrb	r2, [r1, #2]	@ zero_extendqisi2
 642 0088 02F07F02 		and	r2, r2, #127
 643 008c 9442     		cmp	r4, r2
 644 008e 5FD1     		bne	.L49
 624:.\Generated_Source\PSoC5/USB_Bootloader_std.c ****                         {
 645              		.loc 1 624 0
 646 0090 2646     		mov	r6, r4
 647 0092 04EB4402 		add	r2, r4, r4, lsl #1
 648 0096 9200     		lsls	r2, r2, #2
 649 0098 464F     		ldr	r7, .L65
 650 009a 3A44     		add	r2, r2, r7
 651 009c 1289     		ldrh	r2, [r2, #8]
 652 009e 92B2     		uxth	r2, r2
 653 00a0 8F88     		ldrh	r7, [r1, #4]
 654 00a2 BA42     		cmp	r2, r7
 655 00a4 06D2     		bcs	.L50
 626:.\Generated_Source\PSoC5/USB_Bootloader_std.c ****                         }
 656              		.loc 1 626 0
 657 00a6 04EB4402 		add	r2, r4, r4, lsl #1
 658 00aa 9200     		lsls	r2, r2, #2
 659 00ac DFF804E1 		ldr	lr, .L65
 660 00b0 7244     		add	r2, r2, lr
 661 00b2 1781     		strh	r7, [r2, #8]	@ movhi
 662              	.L50:
 629:.\Generated_Source\PSoC5/USB_Bootloader_std.c ****                         {
 663              		.loc 1 629 0
 664 00b4 0A78     		ldrb	r2, [r1]	@ zero_extendqisi2
 665 00b6 404F     		ldr	r7, .L65+4
 666 00b8 BA5C     		ldrb	r2, [r7, r2]	@ zero_extendqisi2
 667 00ba D2B2     		uxtb	r2, r2
 668 00bc 4F78     		ldrb	r7, [r1, #1]	@ zero_extendqisi2
 669 00be BA42     		cmp	r2, r7
 670 00c0 46D1     		bne	.L49
 631:.\Generated_Source\PSoC5/USB_Bootloader_std.c ****                             if ((pEP->addr & USB_Bootloader_DIR_IN) != 0u)
 671              		.loc 1 631 0
 672 00c2 CF78     		ldrb	r7, [r1, #3]	@ zero_extendqisi2
 673 00c4 07F00307 		and	r7, r7, #3
 674              	.LVL59:
 632:.\Generated_Source\PSoC5/USB_Bootloader_std.c ****                             {
 675              		.loc 1 632 0
 676 00c8 91F90220 		ldrsb	r2, [r1, #2]
 677 00cc 002A     		cmp	r2, #0
 678 00ce 18DA     		bge	.L51
 635:.\Generated_Source\PSoC5/USB_Bootloader_std.c ****                                 USB_Bootloader_EP[i].epMode = (epType == USB_Bootloader_EP_TYPE_ISO
 679              		.loc 1 635 0
 680 00d0 06EB4602 		add	r2, r6, r6, lsl #1
 681 00d4 9200     		lsls	r2, r2, #2
 682 00d6 DFF8DCE0 		ldr	lr, .L65
 683 00da 7244     		add	r2, r2, lr
ARM GAS  C:\Users\Robert\AppData\Local\Temp\ccLuFIyc.s 			page 31


 684 00dc 4FF0010E 		mov	lr, #1
 685 00e0 82F801E0 		strb	lr, [r2, #1]
 636:.\Generated_Source\PSoC5/USB_Bootloader_std.c ****                                                         USB_Bootloader_MODE_ISO_IN : USB_Bootloader
 686              		.loc 1 636 0
 687 00e4 7745     		cmp	r7, lr
 688 00e6 02D1     		bne	.L62
 689 00e8 4FF0070E 		mov	lr, #7
 690 00ec 01E0     		b	.L52
 691              	.L62:
 692 00ee 4FF00D0E 		mov	lr, #13
 693              	.L52:
 636:.\Generated_Source\PSoC5/USB_Bootloader_std.c ****                                                         USB_Bootloader_MODE_ISO_IN : USB_Bootloader
 694              		.loc 1 636 0 is_stmt 0 discriminator 4
 695 00f2 06EB4602 		add	r2, r6, r6, lsl #1
 696 00f6 9200     		lsls	r2, r2, #2
 697 00f8 2E4F     		ldr	r7, .L65
 698              	.LVL60:
 699 00fa 3A44     		add	r2, r2, r7
 700 00fc 82F805E0 		strb	lr, [r2, #5]
 701 0100 17E0     		b	.L53
 702              	.LVL61:
 703              	.L51:
 659:.\Generated_Source\PSoC5/USB_Bootloader_std.c ****                                 USB_Bootloader_EP[i].epMode = (epType == USB_Bootloader_EP_TYPE_ISO
 704              		.loc 1 659 0 is_stmt 1
 705 0102 06EB4602 		add	r2, r6, r6, lsl #1
 706 0106 9200     		lsls	r2, r2, #2
 707 0108 DFF8A8E0 		ldr	lr, .L65
 708 010c 7244     		add	r2, r2, lr
 709 010e 4FF0000E 		mov	lr, #0
 710 0112 82F801E0 		strb	lr, [r2, #1]
 660:.\Generated_Source\PSoC5/USB_Bootloader_std.c ****                                                     USB_Bootloader_MODE_ISO_OUT : USB_Bootloader_MO
 711              		.loc 1 660 0
 712 0116 012F     		cmp	r7, #1
 713 0118 02D1     		bne	.L63
 714 011a 4FF0050E 		mov	lr, #5
 715 011e 01E0     		b	.L54
 716              	.L63:
 717 0120 4FF0090E 		mov	lr, #9
 718              	.L54:
 660:.\Generated_Source\PSoC5/USB_Bootloader_std.c ****                                                     USB_Bootloader_MODE_ISO_OUT : USB_Bootloader_MO
 719              		.loc 1 660 0 is_stmt 0 discriminator 4
 720 0124 06EB4602 		add	r2, r6, r6, lsl #1
 721 0128 9200     		lsls	r2, r2, #2
 722 012a 224F     		ldr	r7, .L65
 723              	.LVL62:
 724 012c 3A44     		add	r2, r2, r7
 725 012e 82F805E0 		strb	lr, [r2, #5]
 726              	.L53:
 680:.\Generated_Source\PSoC5/USB_Bootloader_std.c ****                             USB_Bootloader_EP[i].attrib = pEP->attributes;
 727              		.loc 1 680 0 is_stmt 1
 728 0132 91F802C0 		ldrb	ip, [r1, #2]	@ zero_extendqisi2
 729 0136 1F4F     		ldr	r7, .L65
 730 0138 4FEA460E 		lsl	lr, r6, #1
 731 013c 0EEB0602 		add	r2, lr, r6
 732 0140 9200     		lsls	r2, r2, #2
 733 0142 3A44     		add	r2, r2, r7
 734 0144 82F804C0 		strb	ip, [r2, #4]
ARM GAS  C:\Users\Robert\AppData\Local\Temp\ccLuFIyc.s 			page 32


 681:.\Generated_Source\PSoC5/USB_Bootloader_std.c **** 
 735              		.loc 1 681 0
 736 0148 CA78     		ldrb	r2, [r1, #3]	@ zero_extendqisi2
 737 014a 7644     		add	r6, r6, lr
 738 014c B600     		lsls	r6, r6, #2
 739 014e BA55     		strb	r2, [r7, r6]
 740              	.L49:
 688:.\Generated_Source\PSoC5/USB_Bootloader_std.c ****                 }
 741              		.loc 1 688 0 discriminator 2
 742 0150 0831     		adds	r1, r1, #8
 743              	.LVL63:
 619:.\Generated_Source\PSoC5/USB_Bootloader_std.c ****                 {
 744              		.loc 1 619 0 discriminator 2
 745 0152 0133     		adds	r3, r3, #1
 746              	.LVL64:
 747 0154 DBB2     		uxtb	r3, r3
 748              	.LVL65:
 749              	.L48:
 619:.\Generated_Source\PSoC5/USB_Bootloader_std.c ****                 {
 750              		.loc 1 619 0 is_stmt 0 discriminator 1
 751 0156 AB42     		cmp	r3, r5
 752 0158 95D3     		bcc	.L55
 613:.\Generated_Source\PSoC5/USB_Bootloader_std.c ****             {
 753              		.loc 1 613 0 is_stmt 1 discriminator 2
 754 015a 0134     		adds	r4, r4, #1
 755              	.LVL66:
 756 015c E4B2     		uxtb	r4, r4
 757              	.LVL67:
 758              	.L47:
 613:.\Generated_Source\PSoC5/USB_Bootloader_std.c ****             {
 759              		.loc 1 613 0 is_stmt 0 discriminator 1
 760 015e 082C     		cmp	r4, #8
 761 0160 8ED9     		bls	.L56
 698:.\Generated_Source\PSoC5/USB_Bootloader_std.c ****         for (i = 0u; i < ep; i++)
 762              		.loc 1 698 0 is_stmt 1
 763 0162 C068     		ldr	r0, [r0, #12]
 764              	.LVL68:
 699:.\Generated_Source\PSoC5/USB_Bootloader_std.c ****         {
 765              		.loc 1 699 0
 766 0164 0022     		movs	r2, #0
 767 0166 0CE0     		b	.L57
 768              	.LVL69:
 769              	.L58:
 702:.\Generated_Source\PSoC5/USB_Bootloader_std.c ****             pEP = &pEP[1u];
 770              		.loc 1 702 0 discriminator 3
 771 0168 8378     		ldrb	r3, [r0, #2]	@ zero_extendqisi2
 772 016a 03F07F03 		and	r3, r3, #127
 773 016e 10F8084B 		ldrb	r4, [r0], #8	@ zero_extendqisi2
 774              	.LVL70:
 775 0172 03EB4303 		add	r3, r3, r3, lsl #1
 776 0176 9B00     		lsls	r3, r3, #2
 777 0178 1349     		ldr	r1, .L65+20
 778 017a 0B44     		add	r3, r3, r1
 779 017c 9C70     		strb	r4, [r3, #2]
 780              	.LVL71:
 699:.\Generated_Source\PSoC5/USB_Bootloader_std.c ****         {
 781              		.loc 1 699 0 discriminator 3
ARM GAS  C:\Users\Robert\AppData\Local\Temp\ccLuFIyc.s 			page 33


 782 017e 0132     		adds	r2, r2, #1
 783              	.LVL72:
 784 0180 D2B2     		uxtb	r2, r2
 785              	.LVL73:
 786              	.L57:
 699:.\Generated_Source\PSoC5/USB_Bootloader_std.c ****         {
 787              		.loc 1 699 0 is_stmt 0 discriminator 1
 788 0182 AA42     		cmp	r2, r5
 789 0184 F0D3     		bcc	.L58
 706:.\Generated_Source\PSoC5/USB_Bootloader_std.c ****         /* Set the endpoint buffer addresses */
 790              		.loc 1 706 0 is_stmt 1
 791 0186 FFF7FEFF 		bl	USB_Bootloader_GetInterfaceClassTablePtr
 792              	.LVL74:
 793 018a 104B     		ldr	r3, .L65+24
 794 018c 1860     		str	r0, [r3]
 795              	.LVL75:
 501:.\Generated_Source\PSoC5/USB_Bootloader_std.c ****     #endif /*  USB_Bootloader_EP_MM != USB_Bootloader__EP_DMAAUTO */
 796              		.loc 1 501 0
 797 018e 0020     		movs	r0, #0
 710:.\Generated_Source\PSoC5/USB_Bootloader_std.c ****             {
 798              		.loc 1 710 0
 799 0190 0122     		movs	r2, #1
 800 0192 0AE0     		b	.L59
 801              	.LVL76:
 802              	.L60:
 712:.\Generated_Source\PSoC5/USB_Bootloader_std.c ****                  buffCount += USB_Bootloader_EP[ep].bufferSize;
 803              		.loc 1 712 0 discriminator 3
 804 0194 074C     		ldr	r4, .L65
 805 0196 5300     		lsls	r3, r2, #1
 806 0198 9918     		adds	r1, r3, r2
 807 019a 8900     		lsls	r1, r1, #2
 808 019c 2144     		add	r1, r1, r4
 809 019e C880     		strh	r0, [r1, #6]	@ movhi
 713:.\Generated_Source\PSoC5/USB_Bootloader_std.c ****             }
 810              		.loc 1 713 0 discriminator 3
 811 01a0 0B89     		ldrh	r3, [r1, #8]
 812 01a2 1844     		add	r0, r0, r3
 813              	.LVL77:
 814 01a4 80B2     		uxth	r0, r0
 815              	.LVL78:
 710:.\Generated_Source\PSoC5/USB_Bootloader_std.c ****             {
 816              		.loc 1 710 0 discriminator 3
 817 01a6 0132     		adds	r2, r2, #1
 818              	.LVL79:
 819 01a8 D2B2     		uxtb	r2, r2
 820              	.LVL80:
 821              	.L59:
 710:.\Generated_Source\PSoC5/USB_Bootloader_std.c ****             {
 822              		.loc 1 710 0 is_stmt 0 discriminator 1
 823 01aa 082A     		cmp	r2, #8
 824 01ac F2D9     		bls	.L60
 718:.\Generated_Source\PSoC5/USB_Bootloader_std.c ****     } /* USB_Bootloader_configuration > 0 */
 825              		.loc 1 718 0 is_stmt 1
 826 01ae FFF7FEFF 		bl	USB_Bootloader_ConfigReg
 827              	.LVL81:
 828              	.L38:
 829 01b2 F8BD     		pop	{r3, r4, r5, r6, r7, pc}
ARM GAS  C:\Users\Robert\AppData\Local\Temp\ccLuFIyc.s 			page 34


 830              	.L66:
 831              		.align	2
 832              	.L65:
 833 01b4 00000000 		.word	USB_Bootloader_EP
 834 01b8 00000000 		.word	USB_Bootloader_interfaceSetting
 835 01bc 00000000 		.word	USB_Bootloader_interfaceSetting_last
 836 01c0 00000000 		.word	USB_Bootloader_configuration
 837 01c4 00000000 		.word	USB_Bootloader_deviceStatus
 838 01c8 08000000 		.word	USB_Bootloader_EP+8
 839 01cc 00000000 		.word	USB_Bootloader_interfaceClass
 840              		.cfi_endproc
 841              	.LFE2:
 842              		.size	USB_Bootloader_Config, .-USB_Bootloader_Config
 843              		.section	.text.USB_Bootloader_TerminateEP,"ax",%progbits
 844              		.align	2
 845              		.global	USB_Bootloader_TerminateEP
 846              		.thumb
 847              		.thumb_func
 848              		.type	USB_Bootloader_TerminateEP, %function
 849              	USB_Bootloader_TerminateEP:
 850              	.LFB7:
 954:.\Generated_Source\PSoC5/USB_Bootloader_std.c **** 
 955:.\Generated_Source\PSoC5/USB_Bootloader_std.c **** 
 956:.\Generated_Source\PSoC5/USB_Bootloader_std.c **** /*******************************************************************************
 957:.\Generated_Source\PSoC5/USB_Bootloader_std.c **** * Function Name: USB_Bootloader_TerminateEP
 958:.\Generated_Source\PSoC5/USB_Bootloader_std.c **** ********************************************************************************
 959:.\Generated_Source\PSoC5/USB_Bootloader_std.c **** *
 960:.\Generated_Source\PSoC5/USB_Bootloader_std.c **** * Summary:
 961:.\Generated_Source\PSoC5/USB_Bootloader_std.c **** *  This function terminates the specified USBFS endpoint.
 962:.\Generated_Source\PSoC5/USB_Bootloader_std.c **** *  This function should be used before endpoint reconfiguration.
 963:.\Generated_Source\PSoC5/USB_Bootloader_std.c **** *
 964:.\Generated_Source\PSoC5/USB_Bootloader_std.c **** * Parameters:
 965:.\Generated_Source\PSoC5/USB_Bootloader_std.c **** *  Endpoint number.
 966:.\Generated_Source\PSoC5/USB_Bootloader_std.c **** *
 967:.\Generated_Source\PSoC5/USB_Bootloader_std.c **** * Return:
 968:.\Generated_Source\PSoC5/USB_Bootloader_std.c **** *  None.
 969:.\Generated_Source\PSoC5/USB_Bootloader_std.c **** *
 970:.\Generated_Source\PSoC5/USB_Bootloader_std.c **** * Reentrant:
 971:.\Generated_Source\PSoC5/USB_Bootloader_std.c **** *  No.
 972:.\Generated_Source\PSoC5/USB_Bootloader_std.c **** *
 973:.\Generated_Source\PSoC5/USB_Bootloader_std.c **** *******************************************************************************/
 974:.\Generated_Source\PSoC5/USB_Bootloader_std.c **** void USB_Bootloader_TerminateEP(uint8 ep) 
 975:.\Generated_Source\PSoC5/USB_Bootloader_std.c **** {
 851              		.loc 1 975 0
 852              		.cfi_startproc
 853              		@ args = 0, pretend = 0, frame = 0
 854              		@ frame_needed = 0, uses_anonymous_args = 0
 855              		@ link register save eliminated.
 856              	.LVL82:
 976:.\Generated_Source\PSoC5/USB_Bootloader_std.c ****     uint8 ri;
 977:.\Generated_Source\PSoC5/USB_Bootloader_std.c **** 
 978:.\Generated_Source\PSoC5/USB_Bootloader_std.c ****     ep &= USB_Bootloader_DIR_UNUSED;
 857              		.loc 1 978 0
 858 0000 00F07F00 		and	r0, r0, #127
 859              	.LVL83:
 979:.\Generated_Source\PSoC5/USB_Bootloader_std.c ****     ri = ((ep - USB_Bootloader_EP1) << USB_Bootloader_EPX_CNTX_ADDR_SHIFT);
 860              		.loc 1 979 0
ARM GAS  C:\Users\Robert\AppData\Local\Temp\ccLuFIyc.s 			page 35


 861 0004 431E     		subs	r3, r0, #1
 862 0006 DBB2     		uxtb	r3, r3
 863 0008 1A01     		lsls	r2, r3, #4
 864 000a D1B2     		uxtb	r1, r2
 865              	.LVL84:
 980:.\Generated_Source\PSoC5/USB_Bootloader_std.c **** 
 981:.\Generated_Source\PSoC5/USB_Bootloader_std.c ****     if ((ep > USB_Bootloader_EP0) && (ep < USB_Bootloader_MAX_EP))
 866              		.loc 1 981 0
 867 000c 072B     		cmp	r3, #7
 868 000e 19D8     		bhi	.L72
 975:.\Generated_Source\PSoC5/USB_Bootloader_std.c ****     uint8 ri;
 869              		.loc 1 975 0
 870 0010 30B4     		push	{r4, r5}
 871              		.cfi_def_cfa_offset 8
 872              		.cfi_offset 4, -8
 873              		.cfi_offset 5, -4
 982:.\Generated_Source\PSoC5/USB_Bootloader_std.c ****     {
 983:.\Generated_Source\PSoC5/USB_Bootloader_std.c ****         /* Set the endpoint Halt */
 984:.\Generated_Source\PSoC5/USB_Bootloader_std.c ****         USB_Bootloader_EP[ep].hwEpState |= (USB_Bootloader_ENDPOINT_STATUS_HALT);
 874              		.loc 1 984 0
 875 0012 0D4C     		ldr	r4, .L73
 876 0014 4500     		lsls	r5, r0, #1
 877 0016 2B18     		adds	r3, r5, r0
 878 0018 9B00     		lsls	r3, r3, #2
 879 001a 2344     		add	r3, r3, r4
 880 001c 9A78     		ldrb	r2, [r3, #2]	@ zero_extendqisi2
 881 001e 42F00102 		orr	r2, r2, #1
 882 0022 9A70     		strb	r2, [r3, #2]
 985:.\Generated_Source\PSoC5/USB_Bootloader_std.c **** 
 986:.\Generated_Source\PSoC5/USB_Bootloader_std.c ****         /* Clear the data toggle */
 987:.\Generated_Source\PSoC5/USB_Bootloader_std.c ****         USB_Bootloader_EP[ep].epToggle = 0u;
 883              		.loc 1 987 0
 884 0024 0022     		movs	r2, #0
 885 0026 DA70     		strb	r2, [r3, #3]
 988:.\Generated_Source\PSoC5/USB_Bootloader_std.c ****         USB_Bootloader_EP[ep].apiEpState = USB_Bootloader_NO_EVENT_ALLOWED;
 886              		.loc 1 988 0
 887 0028 0222     		movs	r2, #2
 888 002a 5A70     		strb	r2, [r3, #1]
 989:.\Generated_Source\PSoC5/USB_Bootloader_std.c **** 
 990:.\Generated_Source\PSoC5/USB_Bootloader_std.c ****         if ((USB_Bootloader_EP[ep].addr & USB_Bootloader_DIR_IN) != 0u)
 889              		.loc 1 990 0
 890 002c 1B79     		ldrb	r3, [r3, #4]	@ zero_extendqisi2
 891 002e 13F0800F 		tst	r3, #128
 892 0032 03D0     		beq	.L69
 991:.\Generated_Source\PSoC5/USB_Bootloader_std.c ****         {
 992:.\Generated_Source\PSoC5/USB_Bootloader_std.c ****             /* IN Endpoint */
 993:.\Generated_Source\PSoC5/USB_Bootloader_std.c ****             CY_SET_REG8((reg8 *)(USB_Bootloader_SIE_EP1_CR0_IND + ri), USB_Bootloader_MODE_NAK_IN);
 893              		.loc 1 993 0
 894 0034 0C22     		movs	r2, #12
 895 0036 054B     		ldr	r3, .L73+4
 896 0038 CA54     		strb	r2, [r1, r3]
 897 003a 02E0     		b	.L67
 898              	.L69:
 994:.\Generated_Source\PSoC5/USB_Bootloader_std.c ****         }
 995:.\Generated_Source\PSoC5/USB_Bootloader_std.c ****         else
 996:.\Generated_Source\PSoC5/USB_Bootloader_std.c ****         {
 997:.\Generated_Source\PSoC5/USB_Bootloader_std.c ****             /* OUT Endpoint */
ARM GAS  C:\Users\Robert\AppData\Local\Temp\ccLuFIyc.s 			page 36


 998:.\Generated_Source\PSoC5/USB_Bootloader_std.c ****             CY_SET_REG8((reg8 *)(USB_Bootloader_SIE_EP1_CR0_IND + ri), USB_Bootloader_MODE_NAK_OUT)
 899              		.loc 1 998 0
 900 003c 0822     		movs	r2, #8
 901 003e 034B     		ldr	r3, .L73+4
 902 0040 CA54     		strb	r2, [r1, r3]
 903              	.L67:
 999:.\Generated_Source\PSoC5/USB_Bootloader_std.c ****         }
1000:.\Generated_Source\PSoC5/USB_Bootloader_std.c ****     }
1001:.\Generated_Source\PSoC5/USB_Bootloader_std.c **** }
 904              		.loc 1 1001 0
 905 0042 30BC     		pop	{r4, r5}
 906              		.cfi_restore 5
 907              		.cfi_restore 4
 908              		.cfi_def_cfa_offset 0
 909              	.L72:
 910 0044 7047     		bx	lr
 911              	.L74:
 912 0046 00BF     		.align	2
 913              	.L73:
 914 0048 00000000 		.word	USB_Bootloader_EP
 915 004c 0E600040 		.word	1073766414
 916              		.cfi_endproc
 917              	.LFE7:
 918              		.size	USB_Bootloader_TerminateEP, .-USB_Bootloader_TerminateEP
 919              		.section	.text.USB_Bootloader_SetEndpointHalt,"ax",%progbits
 920              		.align	2
 921              		.global	USB_Bootloader_SetEndpointHalt
 922              		.thumb
 923              		.thumb_func
 924              		.type	USB_Bootloader_SetEndpointHalt, %function
 925              	USB_Bootloader_SetEndpointHalt:
 926              	.LFB8:
1002:.\Generated_Source\PSoC5/USB_Bootloader_std.c **** 
1003:.\Generated_Source\PSoC5/USB_Bootloader_std.c **** 
1004:.\Generated_Source\PSoC5/USB_Bootloader_std.c **** /*******************************************************************************
1005:.\Generated_Source\PSoC5/USB_Bootloader_std.c **** * Function Name: USB_Bootloader_SetEndpointHalt
1006:.\Generated_Source\PSoC5/USB_Bootloader_std.c **** ********************************************************************************
1007:.\Generated_Source\PSoC5/USB_Bootloader_std.c **** *
1008:.\Generated_Source\PSoC5/USB_Bootloader_std.c **** * Summary:
1009:.\Generated_Source\PSoC5/USB_Bootloader_std.c **** *  This routine handles set endpoint halt.
1010:.\Generated_Source\PSoC5/USB_Bootloader_std.c **** *
1011:.\Generated_Source\PSoC5/USB_Bootloader_std.c **** * Parameters:
1012:.\Generated_Source\PSoC5/USB_Bootloader_std.c **** *  None.
1013:.\Generated_Source\PSoC5/USB_Bootloader_std.c **** *
1014:.\Generated_Source\PSoC5/USB_Bootloader_std.c **** * Return:
1015:.\Generated_Source\PSoC5/USB_Bootloader_std.c **** *  requestHandled.
1016:.\Generated_Source\PSoC5/USB_Bootloader_std.c **** *
1017:.\Generated_Source\PSoC5/USB_Bootloader_std.c **** * Reentrant:
1018:.\Generated_Source\PSoC5/USB_Bootloader_std.c **** *  No.
1019:.\Generated_Source\PSoC5/USB_Bootloader_std.c **** *
1020:.\Generated_Source\PSoC5/USB_Bootloader_std.c **** *******************************************************************************/
1021:.\Generated_Source\PSoC5/USB_Bootloader_std.c **** uint8 USB_Bootloader_SetEndpointHalt(void) 
1022:.\Generated_Source\PSoC5/USB_Bootloader_std.c **** {
 927              		.loc 1 1022 0
 928              		.cfi_startproc
 929              		@ args = 0, pretend = 0, frame = 0
 930              		@ frame_needed = 0, uses_anonymous_args = 0
ARM GAS  C:\Users\Robert\AppData\Local\Temp\ccLuFIyc.s 			page 37


 931 0000 38B5     		push	{r3, r4, r5, lr}
 932              		.cfi_def_cfa_offset 16
 933              		.cfi_offset 3, -16
 934              		.cfi_offset 4, -12
 935              		.cfi_offset 5, -8
 936              		.cfi_offset 14, -4
 937              	.LVL85:
1023:.\Generated_Source\PSoC5/USB_Bootloader_std.c ****     uint8 ep;
1024:.\Generated_Source\PSoC5/USB_Bootloader_std.c ****     uint8 ri;
1025:.\Generated_Source\PSoC5/USB_Bootloader_std.c ****     uint8 requestHandled = USB_Bootloader_FALSE;
1026:.\Generated_Source\PSoC5/USB_Bootloader_std.c **** 
1027:.\Generated_Source\PSoC5/USB_Bootloader_std.c ****     /* Set endpoint halt */
1028:.\Generated_Source\PSoC5/USB_Bootloader_std.c ****     ep = CY_GET_REG8(USB_Bootloader_wIndexLo) & USB_Bootloader_DIR_UNUSED;
 938              		.loc 1 1028 0
 939 0002 144B     		ldr	r3, .L81
 940 0004 1B78     		ldrb	r3, [r3]	@ zero_extendqisi2
 941 0006 03F07F03 		and	r3, r3, #127
 942              	.LVL86:
1029:.\Generated_Source\PSoC5/USB_Bootloader_std.c ****     ri = ((ep - USB_Bootloader_EP1) << USB_Bootloader_EPX_CNTX_ADDR_SHIFT);
 943              		.loc 1 1029 0
 944 000a 5A1E     		subs	r2, r3, #1
 945 000c D2B2     		uxtb	r2, r2
 946 000e 1101     		lsls	r1, r2, #4
 947 0010 C8B2     		uxtb	r0, r1
 948              	.LVL87:
1030:.\Generated_Source\PSoC5/USB_Bootloader_std.c **** 
1031:.\Generated_Source\PSoC5/USB_Bootloader_std.c ****     if ((ep > USB_Bootloader_EP0) && (ep < USB_Bootloader_MAX_EP))
 949              		.loc 1 1031 0
 950 0012 072A     		cmp	r2, #7
 951 0014 1CD8     		bhi	.L79
1032:.\Generated_Source\PSoC5/USB_Bootloader_std.c ****     {
1033:.\Generated_Source\PSoC5/USB_Bootloader_std.c ****         /* Set the endpoint Halt */
1034:.\Generated_Source\PSoC5/USB_Bootloader_std.c ****         USB_Bootloader_EP[ep].hwEpState |= (USB_Bootloader_ENDPOINT_STATUS_HALT);
 952              		.loc 1 1034 0
 953 0016 104C     		ldr	r4, .L81+4
 954 0018 5D00     		lsls	r5, r3, #1
 955 001a EA18     		adds	r2, r5, r3
 956 001c 9200     		lsls	r2, r2, #2
 957 001e 2244     		add	r2, r2, r4
 958 0020 9178     		ldrb	r1, [r2, #2]	@ zero_extendqisi2
 959 0022 41F00101 		orr	r1, r1, #1
 960 0026 9170     		strb	r1, [r2, #2]
1035:.\Generated_Source\PSoC5/USB_Bootloader_std.c **** 
1036:.\Generated_Source\PSoC5/USB_Bootloader_std.c ****         /* Clear the data toggle */
1037:.\Generated_Source\PSoC5/USB_Bootloader_std.c ****         USB_Bootloader_EP[ep].epToggle = 0u;
 961              		.loc 1 1037 0
 962 0028 0021     		movs	r1, #0
 963 002a D170     		strb	r1, [r2, #3]
1038:.\Generated_Source\PSoC5/USB_Bootloader_std.c ****         USB_Bootloader_EP[ep].apiEpState |= USB_Bootloader_NO_EVENT_ALLOWED;
 964              		.loc 1 1038 0
 965 002c 5178     		ldrb	r1, [r2, #1]	@ zero_extendqisi2
 966 002e 41F00201 		orr	r1, r1, #2
 967 0032 5170     		strb	r1, [r2, #1]
1039:.\Generated_Source\PSoC5/USB_Bootloader_std.c **** 
1040:.\Generated_Source\PSoC5/USB_Bootloader_std.c ****         if ((USB_Bootloader_EP[ep].addr & USB_Bootloader_DIR_IN) != 0u)
 968              		.loc 1 1040 0
 969 0034 1379     		ldrb	r3, [r2, #4]	@ zero_extendqisi2
ARM GAS  C:\Users\Robert\AppData\Local\Temp\ccLuFIyc.s 			page 38


 970              	.LVL88:
 971 0036 13F0800F 		tst	r3, #128
 972 003a 03D0     		beq	.L77
1041:.\Generated_Source\PSoC5/USB_Bootloader_std.c ****         {
1042:.\Generated_Source\PSoC5/USB_Bootloader_std.c ****             /* IN Endpoint */
1043:.\Generated_Source\PSoC5/USB_Bootloader_std.c ****             CY_SET_REG8((reg8 *)(USB_Bootloader_SIE_EP1_CR0_IND + ri), USB_Bootloader_MODE_STALL_DA
 973              		.loc 1 1043 0
 974 003c 8D22     		movs	r2, #141
 975 003e 074B     		ldr	r3, .L81+8
 976 0040 C254     		strb	r2, [r0, r3]
 977 0042 02E0     		b	.L78
 978              	.L77:
1044:.\Generated_Source\PSoC5/USB_Bootloader_std.c ****                                                                USB_Bootloader_MODE_ACK_IN);
1045:.\Generated_Source\PSoC5/USB_Bootloader_std.c ****         }
1046:.\Generated_Source\PSoC5/USB_Bootloader_std.c ****         else
1047:.\Generated_Source\PSoC5/USB_Bootloader_std.c ****         {
1048:.\Generated_Source\PSoC5/USB_Bootloader_std.c ****             /* OUT Endpoint */
1049:.\Generated_Source\PSoC5/USB_Bootloader_std.c ****             CY_SET_REG8((reg8 *)(USB_Bootloader_SIE_EP1_CR0_IND + ri), USB_Bootloader_MODE_STALL_DA
 979              		.loc 1 1049 0
 980 0044 8922     		movs	r2, #137
 981 0046 054B     		ldr	r3, .L81+8
 982 0048 C254     		strb	r2, [r0, r3]
 983              	.L78:
1050:.\Generated_Source\PSoC5/USB_Bootloader_std.c ****                                                                USB_Bootloader_MODE_ACK_OUT);
1051:.\Generated_Source\PSoC5/USB_Bootloader_std.c ****         }
1052:.\Generated_Source\PSoC5/USB_Bootloader_std.c ****         requestHandled = USB_Bootloader_InitNoDataControlTransfer();
 984              		.loc 1 1052 0
 985 004a FFF7FEFF 		bl	USB_Bootloader_InitNoDataControlTransfer
 986              	.LVL89:
 987 004e 38BD     		pop	{r3, r4, r5, pc}
 988              	.LVL90:
 989              	.L79:
1025:.\Generated_Source\PSoC5/USB_Bootloader_std.c **** 
 990              		.loc 1 1025 0
 991 0050 0020     		movs	r0, #0
 992              	.LVL91:
1053:.\Generated_Source\PSoC5/USB_Bootloader_std.c ****     }
1054:.\Generated_Source\PSoC5/USB_Bootloader_std.c **** 
1055:.\Generated_Source\PSoC5/USB_Bootloader_std.c ****     return(requestHandled);
1056:.\Generated_Source\PSoC5/USB_Bootloader_std.c **** }
 993              		.loc 1 1056 0
 994 0052 38BD     		pop	{r3, r4, r5, pc}
 995              	.LVL92:
 996              	.L82:
 997              		.align	2
 998              	.L81:
 999 0054 04600040 		.word	1073766404
 1000 0058 00000000 		.word	USB_Bootloader_EP
 1001 005c 0E600040 		.word	1073766414
 1002              		.cfi_endproc
 1003              	.LFE8:
 1004              		.size	USB_Bootloader_SetEndpointHalt, .-USB_Bootloader_SetEndpointHalt
 1005              		.section	.text.USB_Bootloader_ClearEndpointHalt,"ax",%progbits
 1006              		.align	2
 1007              		.global	USB_Bootloader_ClearEndpointHalt
 1008              		.thumb
 1009              		.thumb_func
ARM GAS  C:\Users\Robert\AppData\Local\Temp\ccLuFIyc.s 			page 39


 1010              		.type	USB_Bootloader_ClearEndpointHalt, %function
 1011              	USB_Bootloader_ClearEndpointHalt:
 1012              	.LFB9:
1057:.\Generated_Source\PSoC5/USB_Bootloader_std.c **** 
1058:.\Generated_Source\PSoC5/USB_Bootloader_std.c **** 
1059:.\Generated_Source\PSoC5/USB_Bootloader_std.c **** /*******************************************************************************
1060:.\Generated_Source\PSoC5/USB_Bootloader_std.c **** * Function Name: USB_Bootloader_ClearEndpointHalt
1061:.\Generated_Source\PSoC5/USB_Bootloader_std.c **** ********************************************************************************
1062:.\Generated_Source\PSoC5/USB_Bootloader_std.c **** *
1063:.\Generated_Source\PSoC5/USB_Bootloader_std.c **** * Summary:
1064:.\Generated_Source\PSoC5/USB_Bootloader_std.c **** *  This routine handles clear endpoint halt.
1065:.\Generated_Source\PSoC5/USB_Bootloader_std.c **** *
1066:.\Generated_Source\PSoC5/USB_Bootloader_std.c **** * Parameters:
1067:.\Generated_Source\PSoC5/USB_Bootloader_std.c **** *  None.
1068:.\Generated_Source\PSoC5/USB_Bootloader_std.c **** *
1069:.\Generated_Source\PSoC5/USB_Bootloader_std.c **** * Return:
1070:.\Generated_Source\PSoC5/USB_Bootloader_std.c **** *  requestHandled.
1071:.\Generated_Source\PSoC5/USB_Bootloader_std.c **** *
1072:.\Generated_Source\PSoC5/USB_Bootloader_std.c **** * Reentrant:
1073:.\Generated_Source\PSoC5/USB_Bootloader_std.c **** *  No.
1074:.\Generated_Source\PSoC5/USB_Bootloader_std.c **** *
1075:.\Generated_Source\PSoC5/USB_Bootloader_std.c **** *******************************************************************************/
1076:.\Generated_Source\PSoC5/USB_Bootloader_std.c **** uint8 USB_Bootloader_ClearEndpointHalt(void) 
1077:.\Generated_Source\PSoC5/USB_Bootloader_std.c **** {
 1013              		.loc 1 1077 0
 1014              		.cfi_startproc
 1015              		@ args = 0, pretend = 0, frame = 0
 1016              		@ frame_needed = 0, uses_anonymous_args = 0
 1017              	.LVL93:
1078:.\Generated_Source\PSoC5/USB_Bootloader_std.c ****     uint8 ep;
1079:.\Generated_Source\PSoC5/USB_Bootloader_std.c ****     uint8 ri;
1080:.\Generated_Source\PSoC5/USB_Bootloader_std.c ****     uint8 requestHandled = USB_Bootloader_FALSE;
1081:.\Generated_Source\PSoC5/USB_Bootloader_std.c **** 
1082:.\Generated_Source\PSoC5/USB_Bootloader_std.c ****     /* Clear endpoint halt */
1083:.\Generated_Source\PSoC5/USB_Bootloader_std.c ****     ep = CY_GET_REG8(USB_Bootloader_wIndexLo) & USB_Bootloader_DIR_UNUSED;
 1018              		.loc 1 1083 0
 1019 0000 244B     		ldr	r3, .L92
 1020 0002 1B78     		ldrb	r3, [r3]	@ zero_extendqisi2
 1021 0004 03F07F03 		and	r3, r3, #127
 1022              	.LVL94:
1084:.\Generated_Source\PSoC5/USB_Bootloader_std.c ****     ri = ((ep - USB_Bootloader_EP1) << USB_Bootloader_EPX_CNTX_ADDR_SHIFT);
 1023              		.loc 1 1084 0
 1024 0008 5A1E     		subs	r2, r3, #1
 1025 000a D2B2     		uxtb	r2, r2
 1026 000c 1101     		lsls	r1, r2, #4
 1027 000e C9B2     		uxtb	r1, r1
 1028              	.LVL95:
1085:.\Generated_Source\PSoC5/USB_Bootloader_std.c **** 
1086:.\Generated_Source\PSoC5/USB_Bootloader_std.c ****     if ((ep > USB_Bootloader_EP0) && (ep < USB_Bootloader_MAX_EP))
 1029              		.loc 1 1086 0
 1030 0010 072A     		cmp	r2, #7
 1031 0012 3CD8     		bhi	.L89
1077:.\Generated_Source\PSoC5/USB_Bootloader_std.c ****     uint8 ep;
 1032              		.loc 1 1077 0
 1033 0014 10B5     		push	{r4, lr}
 1034              		.cfi_def_cfa_offset 8
 1035              		.cfi_offset 4, -8
ARM GAS  C:\Users\Robert\AppData\Local\Temp\ccLuFIyc.s 			page 40


 1036              		.cfi_offset 14, -4
1087:.\Generated_Source\PSoC5/USB_Bootloader_std.c ****     {
1088:.\Generated_Source\PSoC5/USB_Bootloader_std.c ****         /* Clear the endpoint Halt */
1089:.\Generated_Source\PSoC5/USB_Bootloader_std.c ****         USB_Bootloader_EP[ep].hwEpState &= (uint8)~(USB_Bootloader_ENDPOINT_STATUS_HALT);
 1037              		.loc 1 1089 0
 1038 0016 5A00     		lsls	r2, r3, #1
 1039 0018 1A44     		add	r2, r2, r3
 1040 001a 9200     		lsls	r2, r2, #2
 1041 001c 1E48     		ldr	r0, .L92+4
 1042 001e 0244     		add	r2, r2, r0
 1043 0020 9078     		ldrb	r0, [r2, #2]	@ zero_extendqisi2
 1044 0022 00F0FE00 		and	r0, r0, #254
 1045 0026 9070     		strb	r0, [r2, #2]
1090:.\Generated_Source\PSoC5/USB_Bootloader_std.c **** 
1091:.\Generated_Source\PSoC5/USB_Bootloader_std.c ****         /* Clear the data toggle */
1092:.\Generated_Source\PSoC5/USB_Bootloader_std.c ****         USB_Bootloader_EP[ep].epToggle = 0u;
 1046              		.loc 1 1092 0
 1047 0028 0020     		movs	r0, #0
 1048 002a D070     		strb	r0, [r2, #3]
1093:.\Generated_Source\PSoC5/USB_Bootloader_std.c ****         /* Clear toggle bit for already armed packet */
1094:.\Generated_Source\PSoC5/USB_Bootloader_std.c ****         CY_SET_REG8((reg8 *)(USB_Bootloader_SIE_EP1_CNT0_IND + ri), CY_GET_REG8(
 1049              		.loc 1 1094 0
 1050 002c 1B4C     		ldr	r4, .L92+8
 1051 002e 085D     		ldrb	r0, [r1, r4]	@ zero_extendqisi2
 1052 0030 00F07F00 		and	r0, r0, #127
 1053 0034 0855     		strb	r0, [r1, r4]
1095:.\Generated_Source\PSoC5/USB_Bootloader_std.c ****                     (reg8 *)(USB_Bootloader_SIE_EP1_CNT0_IND + ri)) & (uint8)~USB_Bootloader_EPX_CN
1096:.\Generated_Source\PSoC5/USB_Bootloader_std.c ****         /* Return API State as it was defined before */
1097:.\Generated_Source\PSoC5/USB_Bootloader_std.c ****         USB_Bootloader_EP[ep].apiEpState &= (uint8)~USB_Bootloader_NO_EVENT_ALLOWED;
 1054              		.loc 1 1097 0
 1055 0036 5078     		ldrb	r0, [r2, #1]	@ zero_extendqisi2
 1056 0038 00F0FD00 		and	r0, r0, #253
 1057 003c 5070     		strb	r0, [r2, #1]
1098:.\Generated_Source\PSoC5/USB_Bootloader_std.c **** 
1099:.\Generated_Source\PSoC5/USB_Bootloader_std.c ****         if ((USB_Bootloader_EP[ep].addr & USB_Bootloader_DIR_IN) != 0u)
 1058              		.loc 1 1099 0
 1059 003e 1279     		ldrb	r2, [r2, #4]	@ zero_extendqisi2
 1060 0040 12F0800F 		tst	r2, #128
 1061 0044 10D0     		beq	.L85
1100:.\Generated_Source\PSoC5/USB_Bootloader_std.c ****         {
1101:.\Generated_Source\PSoC5/USB_Bootloader_std.c ****             /* IN Endpoint */
1102:.\Generated_Source\PSoC5/USB_Bootloader_std.c ****             if(USB_Bootloader_EP[ep].apiEpState == USB_Bootloader_IN_BUFFER_EMPTY)
 1062              		.loc 1 1102 0
 1063 0046 03EB4303 		add	r3, r3, r3, lsl #1
 1064              	.LVL96:
 1065 004a 9B00     		lsls	r3, r3, #2
 1066 004c 124A     		ldr	r2, .L92+4
 1067 004e 1344     		add	r3, r3, r2
 1068 0050 5B78     		ldrb	r3, [r3, #1]	@ zero_extendqisi2
 1069 0052 DBB2     		uxtb	r3, r3
 1070 0054 012B     		cmp	r3, #1
 1071 0056 03D1     		bne	.L86
1103:.\Generated_Source\PSoC5/USB_Bootloader_std.c ****             {       /* Wait for next packet from application */
1104:.\Generated_Source\PSoC5/USB_Bootloader_std.c ****                 CY_SET_REG8((reg8 *)(USB_Bootloader_SIE_EP1_CR0_IND + ri), USB_Bootloader_MODE_NAK_
 1072              		.loc 1 1104 0
 1073 0058 0C22     		movs	r2, #12
 1074 005a 114B     		ldr	r3, .L92+12
ARM GAS  C:\Users\Robert\AppData\Local\Temp\ccLuFIyc.s 			page 41


 1075 005c CA54     		strb	r2, [r1, r3]
 1076 005e 13E0     		b	.L87
 1077              	.L86:
1105:.\Generated_Source\PSoC5/USB_Bootloader_std.c ****             }
1106:.\Generated_Source\PSoC5/USB_Bootloader_std.c ****             else    /* Continue armed transfer */
1107:.\Generated_Source\PSoC5/USB_Bootloader_std.c ****             {
1108:.\Generated_Source\PSoC5/USB_Bootloader_std.c ****                 CY_SET_REG8((reg8 *)(USB_Bootloader_SIE_EP1_CR0_IND + ri), USB_Bootloader_MODE_ACK_
 1078              		.loc 1 1108 0
 1079 0060 0D22     		movs	r2, #13
 1080 0062 0F4B     		ldr	r3, .L92+12
 1081 0064 CA54     		strb	r2, [r1, r3]
 1082 0066 0FE0     		b	.L87
 1083              	.LVL97:
 1084              	.L85:
1109:.\Generated_Source\PSoC5/USB_Bootloader_std.c ****             }
1110:.\Generated_Source\PSoC5/USB_Bootloader_std.c ****         }
1111:.\Generated_Source\PSoC5/USB_Bootloader_std.c ****         else
1112:.\Generated_Source\PSoC5/USB_Bootloader_std.c ****         {
1113:.\Generated_Source\PSoC5/USB_Bootloader_std.c ****             /* OUT Endpoint */
1114:.\Generated_Source\PSoC5/USB_Bootloader_std.c ****             if(USB_Bootloader_EP[ep].apiEpState == USB_Bootloader_OUT_BUFFER_FULL)
 1085              		.loc 1 1114 0
 1086 0068 03EB4303 		add	r3, r3, r3, lsl #1
 1087              	.LVL98:
 1088 006c 9B00     		lsls	r3, r3, #2
 1089 006e 0A4A     		ldr	r2, .L92+4
 1090 0070 1344     		add	r3, r3, r2
 1091 0072 5B78     		ldrb	r3, [r3, #1]	@ zero_extendqisi2
 1092 0074 DBB2     		uxtb	r3, r3
 1093 0076 012B     		cmp	r3, #1
 1094 0078 03D1     		bne	.L88
1115:.\Generated_Source\PSoC5/USB_Bootloader_std.c ****             {       /* Allow application to read full buffer */
1116:.\Generated_Source\PSoC5/USB_Bootloader_std.c ****                 CY_SET_REG8((reg8 *)(USB_Bootloader_SIE_EP1_CR0_IND + ri), USB_Bootloader_MODE_NAK_
 1095              		.loc 1 1116 0
 1096 007a 0822     		movs	r2, #8
 1097 007c 084B     		ldr	r3, .L92+12
 1098 007e CA54     		strb	r2, [r1, r3]
 1099 0080 02E0     		b	.L87
 1100              	.L88:
1117:.\Generated_Source\PSoC5/USB_Bootloader_std.c ****             }
1118:.\Generated_Source\PSoC5/USB_Bootloader_std.c ****             else    /* Mark endpoint as empty, so it will be reloaded */
1119:.\Generated_Source\PSoC5/USB_Bootloader_std.c ****             {
1120:.\Generated_Source\PSoC5/USB_Bootloader_std.c ****                 CY_SET_REG8((reg8 *)(USB_Bootloader_SIE_EP1_CR0_IND + ri), USB_Bootloader_MODE_ACK_
 1101              		.loc 1 1120 0
 1102 0082 0922     		movs	r2, #9
 1103 0084 064B     		ldr	r3, .L92+12
 1104 0086 CA54     		strb	r2, [r1, r3]
 1105              	.L87:
1121:.\Generated_Source\PSoC5/USB_Bootloader_std.c ****             }
1122:.\Generated_Source\PSoC5/USB_Bootloader_std.c ****         }
1123:.\Generated_Source\PSoC5/USB_Bootloader_std.c ****         requestHandled = USB_Bootloader_InitNoDataControlTransfer();
 1106              		.loc 1 1123 0
 1107 0088 FFF7FEFF 		bl	USB_Bootloader_InitNoDataControlTransfer
 1108              	.LVL99:
 1109 008c 10BD     		pop	{r4, pc}
 1110              	.LVL100:
 1111              	.L89:
 1112              		.cfi_def_cfa_offset 0
ARM GAS  C:\Users\Robert\AppData\Local\Temp\ccLuFIyc.s 			page 42


 1113              		.cfi_restore 4
 1114              		.cfi_restore 14
1080:.\Generated_Source\PSoC5/USB_Bootloader_std.c **** 
 1115              		.loc 1 1080 0
 1116 008e 0020     		movs	r0, #0
 1117 0090 7047     		bx	lr
 1118              	.L93:
 1119 0092 00BF     		.align	2
 1120              	.L92:
 1121 0094 04600040 		.word	1073766404
 1122 0098 00000000 		.word	USB_Bootloader_EP
 1123 009c 0C600040 		.word	1073766412
 1124 00a0 0E600040 		.word	1073766414
 1125              		.cfi_endproc
 1126              	.LFE9:
 1127              		.size	USB_Bootloader_ClearEndpointHalt, .-USB_Bootloader_ClearEndpointHalt
 1128              		.section	.text.USB_Bootloader_ValidateAlternateSetting,"ax",%progbits
 1129              		.align	2
 1130              		.global	USB_Bootloader_ValidateAlternateSetting
 1131              		.thumb
 1132              		.thumb_func
 1133              		.type	USB_Bootloader_ValidateAlternateSetting, %function
 1134              	USB_Bootloader_ValidateAlternateSetting:
 1135              	.LFB10:
1124:.\Generated_Source\PSoC5/USB_Bootloader_std.c ****     }
1125:.\Generated_Source\PSoC5/USB_Bootloader_std.c **** 
1126:.\Generated_Source\PSoC5/USB_Bootloader_std.c ****     return(requestHandled);
1127:.\Generated_Source\PSoC5/USB_Bootloader_std.c **** }
1128:.\Generated_Source\PSoC5/USB_Bootloader_std.c **** 
1129:.\Generated_Source\PSoC5/USB_Bootloader_std.c **** 
1130:.\Generated_Source\PSoC5/USB_Bootloader_std.c **** /*******************************************************************************
1131:.\Generated_Source\PSoC5/USB_Bootloader_std.c **** * Function Name: USB_Bootloader_ValidateAlternateSetting
1132:.\Generated_Source\PSoC5/USB_Bootloader_std.c **** ********************************************************************************
1133:.\Generated_Source\PSoC5/USB_Bootloader_std.c **** *
1134:.\Generated_Source\PSoC5/USB_Bootloader_std.c **** * Summary:
1135:.\Generated_Source\PSoC5/USB_Bootloader_std.c **** *  Validates (and records) a SET INTERFACE request.
1136:.\Generated_Source\PSoC5/USB_Bootloader_std.c **** *
1137:.\Generated_Source\PSoC5/USB_Bootloader_std.c **** * Parameters:
1138:.\Generated_Source\PSoC5/USB_Bootloader_std.c **** *  None.
1139:.\Generated_Source\PSoC5/USB_Bootloader_std.c **** *
1140:.\Generated_Source\PSoC5/USB_Bootloader_std.c **** * Return:
1141:.\Generated_Source\PSoC5/USB_Bootloader_std.c **** *  requestHandled.
1142:.\Generated_Source\PSoC5/USB_Bootloader_std.c **** *
1143:.\Generated_Source\PSoC5/USB_Bootloader_std.c **** * Reentrant:
1144:.\Generated_Source\PSoC5/USB_Bootloader_std.c **** *  No.
1145:.\Generated_Source\PSoC5/USB_Bootloader_std.c **** *
1146:.\Generated_Source\PSoC5/USB_Bootloader_std.c **** *******************************************************************************/
1147:.\Generated_Source\PSoC5/USB_Bootloader_std.c **** uint8 USB_Bootloader_ValidateAlternateSetting(void) 
1148:.\Generated_Source\PSoC5/USB_Bootloader_std.c **** {
 1136              		.loc 1 1148 0
 1137              		.cfi_startproc
 1138              		@ args = 0, pretend = 0, frame = 0
 1139              		@ frame_needed = 0, uses_anonymous_args = 0
 1140 0000 10B5     		push	{r4, lr}
 1141              		.cfi_def_cfa_offset 8
 1142              		.cfi_offset 4, -8
 1143              		.cfi_offset 14, -4
ARM GAS  C:\Users\Robert\AppData\Local\Temp\ccLuFIyc.s 			page 43


 1144              	.LVL101:
1149:.\Generated_Source\PSoC5/USB_Bootloader_std.c ****     uint8 requestHandled = USB_Bootloader_TRUE;
1150:.\Generated_Source\PSoC5/USB_Bootloader_std.c ****     uint8 interfaceNum;
1151:.\Generated_Source\PSoC5/USB_Bootloader_std.c ****     const T_USB_Bootloader_LUT CYCODE *pTmp;
1152:.\Generated_Source\PSoC5/USB_Bootloader_std.c ****     uint8 currentInterfacesNum;
1153:.\Generated_Source\PSoC5/USB_Bootloader_std.c **** 
1154:.\Generated_Source\PSoC5/USB_Bootloader_std.c ****     interfaceNum = CY_GET_REG8(USB_Bootloader_wIndexLo);
 1145              		.loc 1 1154 0
 1146 0002 0E4B     		ldr	r3, .L99
 1147 0004 1C78     		ldrb	r4, [r3]	@ zero_extendqisi2
 1148 0006 E4B2     		uxtb	r4, r4
 1149              	.LVL102:
1155:.\Generated_Source\PSoC5/USB_Bootloader_std.c ****     /* Validate interface setting, stall if invalid. */
1156:.\Generated_Source\PSoC5/USB_Bootloader_std.c ****     pTmp = USB_Bootloader_GetConfigTablePtr(USB_Bootloader_configuration - 1u);
 1150              		.loc 1 1156 0
 1151 0008 0D4B     		ldr	r3, .L99+4
 1152 000a 1878     		ldrb	r0, [r3]	@ zero_extendqisi2
 1153 000c 0138     		subs	r0, r0, #1
 1154 000e C0B2     		uxtb	r0, r0
 1155 0010 FFF7FEFF 		bl	USB_Bootloader_GetConfigTablePtr
 1156              	.LVL103:
1157:.\Generated_Source\PSoC5/USB_Bootloader_std.c ****     currentInterfacesNum  = ((const uint8 *) pTmp->p_list)[USB_Bootloader_CONFIG_DESCR_NUM_INTERFAC
 1157              		.loc 1 1157 0
 1158 0014 4368     		ldr	r3, [r0, #4]
 1159 0016 1B79     		ldrb	r3, [r3, #4]	@ zero_extendqisi2
 1160              	.LVL104:
1158:.\Generated_Source\PSoC5/USB_Bootloader_std.c **** 
1159:.\Generated_Source\PSoC5/USB_Bootloader_std.c ****     if((interfaceNum >= currentInterfacesNum) || (interfaceNum >= USB_Bootloader_MAX_INTERFACES_NUM
 1161              		.loc 1 1159 0
 1162 0018 9C42     		cmp	r4, r3
 1163 001a 0BD2     		bcs	.L96
 1164              		.loc 1 1159 0 is_stmt 0 discriminator 1
 1165 001c 64B9     		cbnz	r4, .L97
1160:.\Generated_Source\PSoC5/USB_Bootloader_std.c ****     {   /* Wrong interface number */
1161:.\Generated_Source\PSoC5/USB_Bootloader_std.c ****         requestHandled = USB_Bootloader_FALSE;
1162:.\Generated_Source\PSoC5/USB_Bootloader_std.c ****     }
1163:.\Generated_Source\PSoC5/USB_Bootloader_std.c ****     else
1164:.\Generated_Source\PSoC5/USB_Bootloader_std.c ****     {
1165:.\Generated_Source\PSoC5/USB_Bootloader_std.c ****         /* Save current Alt setting to find out the difference in Config() function */
1166:.\Generated_Source\PSoC5/USB_Bootloader_std.c ****         USB_Bootloader_interfaceSetting_last[interfaceNum] = USB_Bootloader_interfaceSetting[interf
 1166              		.loc 1 1166 0 is_stmt 1
 1167 001e 094A     		ldr	r2, .L99+8
 1168 0020 135D     		ldrb	r3, [r2, r4]	@ zero_extendqisi2
 1169              	.LVL105:
 1170 0022 DBB2     		uxtb	r3, r3
 1171 0024 0849     		ldr	r1, .L99+12
 1172 0026 0B55     		strb	r3, [r1, r4]
1167:.\Generated_Source\PSoC5/USB_Bootloader_std.c ****         USB_Bootloader_interfaceSetting[interfaceNum] = CY_GET_REG8(USB_Bootloader_wValueLo);
 1173              		.loc 1 1167 0
 1174 0028 084B     		ldr	r3, .L99+16
 1175 002a 1B78     		ldrb	r3, [r3]	@ zero_extendqisi2
 1176 002c DBB2     		uxtb	r3, r3
 1177 002e 1355     		strb	r3, [r2, r4]
1149:.\Generated_Source\PSoC5/USB_Bootloader_std.c ****     uint8 interfaceNum;
 1178              		.loc 1 1149 0
 1179 0030 0120     		movs	r0, #1
 1180              	.LVL106:
ARM GAS  C:\Users\Robert\AppData\Local\Temp\ccLuFIyc.s 			page 44


 1181 0032 10BD     		pop	{r4, pc}
 1182              	.LVL107:
 1183              	.L96:
1161:.\Generated_Source\PSoC5/USB_Bootloader_std.c ****     }
 1184              		.loc 1 1161 0
 1185 0034 0020     		movs	r0, #0
 1186              	.LVL108:
 1187 0036 10BD     		pop	{r4, pc}
 1188              	.LVL109:
 1189              	.L97:
 1190 0038 0020     		movs	r0, #0
 1191              	.LVL110:
1168:.\Generated_Source\PSoC5/USB_Bootloader_std.c ****     }
1169:.\Generated_Source\PSoC5/USB_Bootloader_std.c **** 
1170:.\Generated_Source\PSoC5/USB_Bootloader_std.c ****     return (requestHandled);
1171:.\Generated_Source\PSoC5/USB_Bootloader_std.c **** }
 1192              		.loc 1 1171 0
 1193 003a 10BD     		pop	{r4, pc}
 1194              	.LVL111:
 1195              	.L100:
 1196              		.align	2
 1197              	.L99:
 1198 003c 04600040 		.word	1073766404
 1199 0040 00000000 		.word	USB_Bootloader_configuration
 1200 0044 00000000 		.word	USB_Bootloader_interfaceSetting
 1201 0048 00000000 		.word	USB_Bootloader_interfaceSetting_last
 1202 004c 02600040 		.word	1073766402
 1203              		.cfi_endproc
 1204              	.LFE10:
 1205              		.size	USB_Bootloader_ValidateAlternateSetting, .-USB_Bootloader_ValidateAlternateSetting
 1206              		.section	.text.USB_Bootloader_HandleStandardRqst,"ax",%progbits
 1207              		.align	2
 1208              		.global	USB_Bootloader_HandleStandardRqst
 1209              		.thumb
 1210              		.thumb_func
 1211              		.type	USB_Bootloader_HandleStandardRqst, %function
 1212              	USB_Bootloader_HandleStandardRqst:
 1213              	.LFB0:
  89:.\Generated_Source\PSoC5/USB_Bootloader_std.c ****     uint8 requestHandled = USB_Bootloader_FALSE;
 1214              		.loc 1 89 0
 1215              		.cfi_startproc
 1216              		@ args = 0, pretend = 0, frame = 0
 1217              		@ frame_needed = 0, uses_anonymous_args = 0
 1218 0000 10B5     		push	{r4, lr}
 1219              		.cfi_def_cfa_offset 8
 1220              		.cfi_offset 4, -8
 1221              		.cfi_offset 14, -4
 1222              	.LVL112:
 102:.\Generated_Source\PSoC5/USB_Bootloader_std.c **** 
 1223              		.loc 1 102 0
 1224 0002 0022     		movs	r2, #0
 1225 0004 974B     		ldr	r3, .L158
 1226 0006 1A80     		strh	r2, [r3]	@ movhi
 104:.\Generated_Source\PSoC5/USB_Bootloader_std.c ****     {
 1227              		.loc 1 104 0
 1228 0008 974B     		ldr	r3, .L158+4
 1229 000a 1B78     		ldrb	r3, [r3]	@ zero_extendqisi2
ARM GAS  C:\Users\Robert\AppData\Local\Temp\ccLuFIyc.s 			page 45


 1230 000c 13F0800F 		tst	r3, #128
 1231 0010 00F0B480 		beq	.L102
 107:.\Generated_Source\PSoC5/USB_Bootloader_std.c ****         {
 1232              		.loc 1 107 0
 1233 0014 954B     		ldr	r3, .L158+8
 1234 0016 1B78     		ldrb	r3, [r3]	@ zero_extendqisi2
 1235 0018 DBB2     		uxtb	r3, r3
 1236 001a 0A2B     		cmp	r3, #10
 1237 001c 00F28D81 		bhi	.L135
 1238 0020 DFE813F0 		tbh	[pc, r3, lsl #1]
 1239              	.L105:
 1240 0024 6E00     		.2byte	(.L104-.L105)/2
 1241 0026 8B01     		.2byte	(.L135-.L105)/2
 1242 0028 8B01     		.2byte	(.L135-.L105)/2
 1243 002a 8B01     		.2byte	(.L135-.L105)/2
 1244 002c 8B01     		.2byte	(.L135-.L105)/2
 1245 002e 8B01     		.2byte	(.L135-.L105)/2
 1246 0030 0B00     		.2byte	(.L106-.L105)/2
 1247 0032 8B01     		.2byte	(.L135-.L105)/2
 1248 0034 9900     		.2byte	(.L107-.L105)/2
 1249 0036 8B01     		.2byte	(.L135-.L105)/2
 1250 0038 A100     		.2byte	(.L108-.L105)/2
 1251              		.p2align 1
 1252              	.L106:
 110:.\Generated_Source\PSoC5/USB_Bootloader_std.c ****                 {
 1253              		.loc 1 110 0
 1254 003a 8D4B     		ldr	r3, .L158+12
 1255 003c 1B78     		ldrb	r3, [r3]	@ zero_extendqisi2
 1256 003e DBB2     		uxtb	r3, r3
 1257 0040 012B     		cmp	r3, #1
 1258 0042 09D1     		bne	.L109
 112:.\Generated_Source\PSoC5/USB_Bootloader_std.c ****                     USB_Bootloader_currentTD.pData = (volatile uint8 *)pTmp->p_list;
 1259              		.loc 1 112 0
 1260 0044 FFF7FEFF 		bl	USB_Bootloader_GetDeviceTablePtr
 1261              	.LVL113:
 113:.\Generated_Source\PSoC5/USB_Bootloader_std.c ****                     USB_Bootloader_currentTD.count = USB_Bootloader_DEVICE_DESCR_LENGTH;
 1262              		.loc 1 113 0
 1263 0048 4268     		ldr	r2, [r0, #4]
 1264 004a 864B     		ldr	r3, .L158
 1265 004c 5A60     		str	r2, [r3, #4]
 114:.\Generated_Source\PSoC5/USB_Bootloader_std.c ****                     requestHandled  = USB_Bootloader_InitControlRead();
 1266              		.loc 1 114 0
 1267 004e 1222     		movs	r2, #18
 1268 0050 1A80     		strh	r2, [r3]	@ movhi
 115:.\Generated_Source\PSoC5/USB_Bootloader_std.c ****                 }
 1269              		.loc 1 115 0
 1270 0052 FFF7FEFF 		bl	USB_Bootloader_InitControlRead
 1271              	.LVL114:
 1272 0056 10BD     		pop	{r4, pc}
 1273              	.LVL115:
 1274              	.L109:
 117:.\Generated_Source\PSoC5/USB_Bootloader_std.c ****                 {
 1275              		.loc 1 117 0
 1276 0058 854B     		ldr	r3, .L158+12
 1277 005a 1B78     		ldrb	r3, [r3]	@ zero_extendqisi2
 1278 005c DBB2     		uxtb	r3, r3
 1279 005e 022B     		cmp	r3, #2
ARM GAS  C:\Users\Robert\AppData\Local\Temp\ccLuFIyc.s 			page 46


 1280 0060 16D1     		bne	.L110
 119:.\Generated_Source\PSoC5/USB_Bootloader_std.c ****                     if( pTmp != NULL )  /* Verify that requested descriptor exists */
 1281              		.loc 1 119 0
 1282 0062 03F18043 		add	r3, r3, #1073741824
 1283 0066 03F5C043 		add	r3, r3, #24576
 1284 006a 1878     		ldrb	r0, [r3]	@ zero_extendqisi2
 1285 006c FFF7FEFF 		bl	USB_Bootloader_GetConfigTablePtr
 1286              	.LVL116:
 120:.\Generated_Source\PSoC5/USB_Bootloader_std.c ****                     {
 1287              		.loc 1 120 0
 1288 0070 0028     		cmp	r0, #0
 1289 0072 00F06481 		beq	.L136
 122:.\Generated_Source\PSoC5/USB_Bootloader_std.c ****                         USB_Bootloader_currentTD.count = ((uint16)(USB_Bootloader_currentTD.pData)[
 1290              		.loc 1 122 0
 1291 0076 4268     		ldr	r2, [r0, #4]
 1292 0078 7A4B     		ldr	r3, .L158
 1293 007a 5A60     		str	r2, [r3, #4]
 123:.\Generated_Source\PSoC5/USB_Bootloader_std.c ****                                           USB_Bootloader_CONFIG_DESCR_TOTAL_LENGTH_HI] << 8u) | \
 1294              		.loc 1 123 0
 1295 007c 5A68     		ldr	r2, [r3, #4]
 1296 007e D178     		ldrb	r1, [r2, #3]	@ zero_extendqisi2
 125:.\Generated_Source\PSoC5/USB_Bootloader_std.c ****                         requestHandled  = USB_Bootloader_InitControlRead();
 1297              		.loc 1 125 0
 1298 0080 5A68     		ldr	r2, [r3, #4]
 1299 0082 9278     		ldrb	r2, [r2, #2]	@ zero_extendqisi2
 123:.\Generated_Source\PSoC5/USB_Bootloader_std.c ****                                           USB_Bootloader_CONFIG_DESCR_TOTAL_LENGTH_HI] << 8u) | \
 1300              		.loc 1 123 0
 1301 0084 42EA0122 		orr	r2, r2, r1, lsl #8
 1302 0088 1A80     		strh	r2, [r3]	@ movhi
 126:.\Generated_Source\PSoC5/USB_Bootloader_std.c ****                     }
 1303              		.loc 1 126 0
 1304 008a FFF7FEFF 		bl	USB_Bootloader_InitControlRead
 1305              	.LVL117:
 1306 008e 10BD     		pop	{r4, pc}
 1307              	.LVL118:
 1308              	.L110:
 130:.\Generated_Source\PSoC5/USB_Bootloader_std.c ****                 {
 1309              		.loc 1 130 0
 1310 0090 774B     		ldr	r3, .L158+12
 1311 0092 1B78     		ldrb	r3, [r3]	@ zero_extendqisi2
 1312 0094 DBB2     		uxtb	r3, r3
 1313 0096 032B     		cmp	r3, #3
 1314 0098 05D0     		beq	.L137
 1315 009a 2EE0     		b	.L153
 1316              	.LVL119:
 1317              	.L114:
 139:.\Generated_Source\PSoC5/USB_Bootloader_std.c ****                             /* Move to next string descriptor */
 1318              		.loc 1 139 0
 1319 009c 0A78     		ldrb	r2, [r1]	@ zero_extendqisi2
 1320              	.LVL120:
 141:.\Generated_Source\PSoC5/USB_Bootloader_std.c ****                             nStr++;
 1321              		.loc 1 141 0
 1322 009e 1144     		add	r1, r1, r2
 1323              	.LVL121:
 142:.\Generated_Source\PSoC5/USB_Bootloader_std.c ****                         }
 1324              		.loc 1 142 0
 1325 00a0 0133     		adds	r3, r3, #1
ARM GAS  C:\Users\Robert\AppData\Local\Temp\ccLuFIyc.s 			page 47


 1326              	.LVL122:
 1327 00a2 DBB2     		uxtb	r3, r3
 1328              	.LVL123:
 1329 00a4 01E0     		b	.L111
 1330              	.LVL124:
 1331              	.L137:
 1332 00a6 0023     		movs	r3, #0
 1333 00a8 7249     		ldr	r1, .L158+16
 1334              	.LVL125:
 1335              	.L111:
 136:.\Generated_Source\PSoC5/USB_Bootloader_std.c ****                         {
 1336              		.loc 1 136 0
 1337 00aa 734A     		ldr	r2, .L158+20
 1338 00ac 1278     		ldrb	r2, [r2]	@ zero_extendqisi2
 1339 00ae D2B2     		uxtb	r2, r2
 1340 00b0 9A42     		cmp	r2, r3
 1341 00b2 03D9     		bls	.L113
 136:.\Generated_Source\PSoC5/USB_Bootloader_std.c ****                         {
 1342              		.loc 1 136 0 is_stmt 0 discriminator 1
 1343 00b4 0A78     		ldrb	r2, [r1]	@ zero_extendqisi2
 1344 00b6 12F0FF0F 		tst	r2, #255
 1345 00ba EFD1     		bne	.L114
 1346              	.L113:
 147:.\Generated_Source\PSoC5/USB_Bootloader_std.c ****                         {
 1347              		.loc 1 147 0 is_stmt 1
 1348 00bc 6E4B     		ldr	r3, .L158+20
 1349              	.LVL126:
 1350 00be 1B78     		ldrb	r3, [r3]	@ zero_extendqisi2
 1351 00c0 DBB2     		uxtb	r3, r3
 1352 00c2 EE2B     		cmp	r3, #238
 1353 00c4 00D1     		bne	.L115
 149:.\Generated_Source\PSoC5/USB_Bootloader_std.c ****                         }
 1354              		.loc 1 149 0
 1355 00c6 6D49     		ldr	r1, .L158+24
 1356              	.LVL127:
 1357              	.L115:
 154:.\Generated_Source\PSoC5/USB_Bootloader_std.c ****                             (CY_GET_REG8(USB_Bootloader_wValueLo) ==
 1358              		.loc 1 154 0
 1359 00c8 6B4B     		ldr	r3, .L158+20
 1360 00ca 1B78     		ldrb	r3, [r3]	@ zero_extendqisi2
 1361 00cc 13F0FF0F 		tst	r3, #255
 1362 00d0 07D0     		beq	.L116
 155:.\Generated_Source\PSoC5/USB_Bootloader_std.c ****                             USB_Bootloader_DEVICE0_DESCR[USB_Bootloader_DEVICE_DESCR_SN_SHIFT]) )
 1363              		.loc 1 155 0 discriminator 1
 1364 00d2 694B     		ldr	r3, .L158+20
 1365 00d4 1B78     		ldrb	r3, [r3]	@ zero_extendqisi2
 1366 00d6 DBB2     		uxtb	r3, r3
 156:.\Generated_Source\PSoC5/USB_Bootloader_std.c ****                         {
 1367              		.loc 1 156 0 discriminator 1
 1368 00d8 694A     		ldr	r2, .L158+28
 1369 00da 127C     		ldrb	r2, [r2, #16]	@ zero_extendqisi2
 154:.\Generated_Source\PSoC5/USB_Bootloader_std.c ****                             (CY_GET_REG8(USB_Bootloader_wValueLo) ==
 1370              		.loc 1 154 0 discriminator 1
 1371 00dc 9342     		cmp	r3, r2
 1372 00de 00D1     		bne	.L116
 173:.\Generated_Source\PSoC5/USB_Bootloader_std.c ****                             #endif  /* defined(USB_Bootloader_ENABLE_IDSN_STRING) */
 1373              		.loc 1 173 0
ARM GAS  C:\Users\Robert\AppData\Local\Temp\ccLuFIyc.s 			page 48


 1374 00e0 6849     		ldr	r1, .L158+32
 1375              	.LVL128:
 1376              	.L116:
 177:.\Generated_Source\PSoC5/USB_Bootloader_std.c ****                     {
 1377              		.loc 1 177 0
 1378 00e2 0B78     		ldrb	r3, [r1]	@ zero_extendqisi2
 1379 00e4 13F0FF0F 		tst	r3, #255
 1380 00e8 00F02B81 		beq	.L140
 179:.\Generated_Source\PSoC5/USB_Bootloader_std.c ****                         USB_Bootloader_currentTD.pData = pStr;
 1381              		.loc 1 179 0
 1382 00ec 0B78     		ldrb	r3, [r1]	@ zero_extendqisi2
 1383 00ee 5D4A     		ldr	r2, .L158
 1384 00f0 1380     		strh	r3, [r2]	@ movhi
 180:.\Generated_Source\PSoC5/USB_Bootloader_std.c ****                         requestHandled  = USB_Bootloader_InitControlRead();
 1385              		.loc 1 180 0
 1386 00f2 5160     		str	r1, [r2, #4]
 181:.\Generated_Source\PSoC5/USB_Bootloader_std.c ****                     }
 1387              		.loc 1 181 0
 1388 00f4 FFF7FEFF 		bl	USB_Bootloader_InitControlRead
 1389              	.LVL129:
 1390 00f8 10BD     		pop	{r4, pc}
 1391              	.LVL130:
 1392              	.L153:
 187:.\Generated_Source\PSoC5/USB_Bootloader_std.c ****                 }
 1393              		.loc 1 187 0
 1394 00fa FFF7FEFF 		bl	USB_Bootloader_DispatchClassRqst
 1395              	.LVL131:
 1396 00fe 10BD     		pop	{r4, pc}
 1397              	.LVL132:
 1398              	.L104:
 191:.\Generated_Source\PSoC5/USB_Bootloader_std.c ****                 {
 1399              		.loc 1 191 0
 1400 0100 594B     		ldr	r3, .L158+4
 1401 0102 1B78     		ldrb	r3, [r3]	@ zero_extendqisi2
 1402 0104 13F00303 		ands	r3, r3, #3
 1403 0108 17D0     		beq	.L117
 1404 010a 022B     		cmp	r3, #2
 1405 010c 40F01B81 		bne	.L154
 194:.\Generated_Source\PSoC5/USB_Bootloader_std.c ****                         USB_Bootloader_tBuffer[0u] = USB_Bootloader_EP[ \
 1406              		.loc 1 194 0
 1407 0110 5449     		ldr	r1, .L158
 1408 0112 0B80     		strh	r3, [r1]	@ movhi
 196:.\Generated_Source\PSoC5/USB_Bootloader_std.c ****                         USB_Bootloader_tBuffer[1u] = 0u;
 1409              		.loc 1 196 0
 1410 0114 5C4B     		ldr	r3, .L158+36
 1411 0116 1B78     		ldrb	r3, [r3]	@ zero_extendqisi2
 1412 0118 03F07F03 		and	r3, r3, #127
 1413 011c 03EB4303 		add	r3, r3, r3, lsl #1
 1414 0120 9B00     		lsls	r3, r3, #2
 1415 0122 5A4A     		ldr	r2, .L158+40
 1416 0124 1344     		add	r3, r3, r2
 1417 0126 9A78     		ldrb	r2, [r3, #2]	@ zero_extendqisi2
 1418 0128 D2B2     		uxtb	r2, r2
 195:.\Generated_Source\PSoC5/USB_Bootloader_std.c ****                                         CY_GET_REG8(USB_Bootloader_wIndexLo) & USB_Bootloader_DIR_U
 1419              		.loc 1 195 0
 1420 012a 594B     		ldr	r3, .L158+44
 1421 012c 1A70     		strb	r2, [r3]
ARM GAS  C:\Users\Robert\AppData\Local\Temp\ccLuFIyc.s 			page 49


 197:.\Generated_Source\PSoC5/USB_Bootloader_std.c ****                         USB_Bootloader_currentTD.pData = &USB_Bootloader_tBuffer[0u];
 1422              		.loc 1 197 0
 1423 012e 0022     		movs	r2, #0
 1424 0130 5A70     		strb	r2, [r3, #1]
 198:.\Generated_Source\PSoC5/USB_Bootloader_std.c ****                         requestHandled  = USB_Bootloader_InitControlRead();
 1425              		.loc 1 198 0
 1426 0132 4B60     		str	r3, [r1, #4]
 199:.\Generated_Source\PSoC5/USB_Bootloader_std.c ****                         break;
 1427              		.loc 1 199 0
 1428 0134 FFF7FEFF 		bl	USB_Bootloader_InitControlRead
 1429              	.LVL133:
 200:.\Generated_Source\PSoC5/USB_Bootloader_std.c ****                     case USB_Bootloader_RQST_RCPT_DEV:
 1430              		.loc 1 200 0
 1431 0138 10BD     		pop	{r4, pc}
 1432              	.LVL134:
 1433              	.L117:
 202:.\Generated_Source\PSoC5/USB_Bootloader_std.c ****                         USB_Bootloader_tBuffer[0u] = USB_Bootloader_deviceStatus;
 1434              		.loc 1 202 0
 1435 013a 4A49     		ldr	r1, .L158
 1436 013c 0223     		movs	r3, #2
 1437 013e 0B80     		strh	r3, [r1]	@ movhi
 203:.\Generated_Source\PSoC5/USB_Bootloader_std.c ****                         USB_Bootloader_tBuffer[1u] = 0u;
 1438              		.loc 1 203 0
 1439 0140 544B     		ldr	r3, .L158+48
 1440 0142 1A78     		ldrb	r2, [r3]	@ zero_extendqisi2
 1441 0144 D2B2     		uxtb	r2, r2
 1442 0146 524B     		ldr	r3, .L158+44
 1443 0148 1A70     		strb	r2, [r3]
 204:.\Generated_Source\PSoC5/USB_Bootloader_std.c ****                         USB_Bootloader_currentTD.pData = &USB_Bootloader_tBuffer[0u];
 1444              		.loc 1 204 0
 1445 014a 0022     		movs	r2, #0
 1446 014c 5A70     		strb	r2, [r3, #1]
 205:.\Generated_Source\PSoC5/USB_Bootloader_std.c ****                         requestHandled  = USB_Bootloader_InitControlRead();
 1447              		.loc 1 205 0
 1448 014e 4B60     		str	r3, [r1, #4]
 206:.\Generated_Source\PSoC5/USB_Bootloader_std.c ****                         break;
 1449              		.loc 1 206 0
 1450 0150 FFF7FEFF 		bl	USB_Bootloader_InitControlRead
 1451              	.LVL135:
 207:.\Generated_Source\PSoC5/USB_Bootloader_std.c ****                     default:    /* requestHandled is initialized as FALSE by default */
 1452              		.loc 1 207 0
 1453 0154 10BD     		pop	{r4, pc}
 1454              	.LVL136:
 1455              	.L107:
 213:.\Generated_Source\PSoC5/USB_Bootloader_std.c ****                 USB_Bootloader_currentTD.pData = (volatile uint8 *)&USB_Bootloader_configuration;
 1456              		.loc 1 213 0
 1457 0156 434B     		ldr	r3, .L158
 1458 0158 0122     		movs	r2, #1
 1459 015a 1A80     		strh	r2, [r3]	@ movhi
 214:.\Generated_Source\PSoC5/USB_Bootloader_std.c ****                 requestHandled  = USB_Bootloader_InitControlRead();
 1460              		.loc 1 214 0
 1461 015c 4E4A     		ldr	r2, .L158+52
 1462 015e 5A60     		str	r2, [r3, #4]
 215:.\Generated_Source\PSoC5/USB_Bootloader_std.c ****                 break;
 1463              		.loc 1 215 0
 1464 0160 FFF7FEFF 		bl	USB_Bootloader_InitControlRead
 1465              	.LVL137:
ARM GAS  C:\Users\Robert\AppData\Local\Temp\ccLuFIyc.s 			page 50


 216:.\Generated_Source\PSoC5/USB_Bootloader_std.c ****             case USB_Bootloader_GET_INTERFACE:
 1466              		.loc 1 216 0
 1467 0164 10BD     		pop	{r4, pc}
 1468              	.LVL138:
 1469              	.L108:
 218:.\Generated_Source\PSoC5/USB_Bootloader_std.c ****                 USB_Bootloader_currentTD.pData = (volatile uint8 *)&USB_Bootloader_interfaceSetting
 1470              		.loc 1 218 0
 1471 0166 3F4A     		ldr	r2, .L158
 1472 0168 0123     		movs	r3, #1
 1473 016a 1380     		strh	r3, [r2]	@ movhi
 220:.\Generated_Source\PSoC5/USB_Bootloader_std.c ****                 requestHandled  = USB_Bootloader_InitControlRead();
 1474              		.loc 1 220 0
 1475 016c 464B     		ldr	r3, .L158+36
 1476 016e 1B78     		ldrb	r3, [r3]	@ zero_extendqisi2
 219:.\Generated_Source\PSoC5/USB_Bootloader_std.c ****                                                                             CY_GET_REG8(USB_Bootloa
 1477              		.loc 1 219 0
 1478 0170 4A49     		ldr	r1, .L158+56
 1479 0172 0B44     		add	r3, r3, r1
 1480 0174 5360     		str	r3, [r2, #4]
 221:.\Generated_Source\PSoC5/USB_Bootloader_std.c ****                 break;
 1481              		.loc 1 221 0
 1482 0176 FFF7FEFF 		bl	USB_Bootloader_InitControlRead
 1483              	.LVL139:
 222:.\Generated_Source\PSoC5/USB_Bootloader_std.c ****             default: /* requestHandled is initialized as FALSE by default */
 1484              		.loc 1 222 0
 1485 017a 10BD     		pop	{r4, pc}
 1486              	.LVL140:
 1487              	.L102:
 229:.\Generated_Source\PSoC5/USB_Bootloader_std.c ****         {
 1488              		.loc 1 229 0
 1489 017c 3B4B     		ldr	r3, .L158+8
 1490 017e 1B78     		ldrb	r3, [r3]	@ zero_extendqisi2
 1491 0180 013B     		subs	r3, r3, #1
 1492 0182 0A2B     		cmp	r3, #10
 1493 0184 00F2E180 		bhi	.L142
 1494 0188 DFE813F0 		tbh	[pc, r3, lsl #1]
 1495              	.L120:
 1496 018c 4700     		.2byte	(.L119-.L120)/2
 1497 018e DF00     		.2byte	(.L142-.L120)/2
 1498 0190 A400     		.2byte	(.L121-.L120)/2
 1499 0192 DF00     		.2byte	(.L142-.L120)/2
 1500 0194 0B00     		.2byte	(.L122-.L120)/2
 1501 0196 DF00     		.2byte	(.L142-.L120)/2
 1502 0198 DF00     		.2byte	(.L142-.L120)/2
 1503 019a DF00     		.2byte	(.L142-.L120)/2
 1504 019c 1300     		.2byte	(.L123-.L120)/2
 1505 019e DF00     		.2byte	(.L142-.L120)/2
 1506 01a0 3000     		.2byte	(.L124-.L120)/2
 1507              		.p2align 1
 1508              	.L122:
 232:.\Generated_Source\PSoC5/USB_Bootloader_std.c ****                 requestHandled = USB_Bootloader_InitNoDataControlTransfer();
 1509              		.loc 1 232 0
 1510 01a2 354B     		ldr	r3, .L158+20
 1511 01a4 1B78     		ldrb	r3, [r3]	@ zero_extendqisi2
 1512 01a6 DBB2     		uxtb	r3, r3
 1513 01a8 3D4A     		ldr	r2, .L158+60
 1514 01aa 1370     		strb	r3, [r2]
ARM GAS  C:\Users\Robert\AppData\Local\Temp\ccLuFIyc.s 			page 51


 233:.\Generated_Source\PSoC5/USB_Bootloader_std.c ****                 break;
 1515              		.loc 1 233 0
 1516 01ac FFF7FEFF 		bl	USB_Bootloader_InitNoDataControlTransfer
 1517              	.LVL141:
 234:.\Generated_Source\PSoC5/USB_Bootloader_std.c ****             case USB_Bootloader_SET_CONFIGURATION:
 1518              		.loc 1 234 0
 1519 01b0 10BD     		pop	{r4, pc}
 1520              	.LVL142:
 1521              	.L123:
 236:.\Generated_Source\PSoC5/USB_Bootloader_std.c ****                 if(configurationN > 0u)
 1522              		.loc 1 236 0
 1523 01b2 314B     		ldr	r3, .L158+20
 1524 01b4 1B78     		ldrb	r3, [r3]	@ zero_extendqisi2
 1525              	.LVL143:
 237:.\Generated_Source\PSoC5/USB_Bootloader_std.c ****                 {   /* Verify that configuration descriptor exists */
 1526              		.loc 1 237 0
 1527 01b6 03F0FF04 		and	r4, r3, #255
 1528 01ba 1BB1     		cbz	r3, .L125
 239:.\Generated_Source\PSoC5/USB_Bootloader_std.c ****                 }
 1529              		.loc 1 239 0
 1530 01bc 601E     		subs	r0, r4, #1
 1531 01be C0B2     		uxtb	r0, r0
 1532 01c0 FFF7FEFF 		bl	USB_Bootloader_GetConfigTablePtr
 1533              	.LVL144:
 1534              	.L125:
 242:.\Generated_Source\PSoC5/USB_Bootloader_std.c ****                 {
 1535              		.loc 1 242 0
 1536 01c4 04B1     		cbz	r4, .L126
 242:.\Generated_Source\PSoC5/USB_Bootloader_std.c ****                 {
 1537              		.loc 1 242 0 is_stmt 0 discriminator 1
 1538 01c6 10B9     		cbnz	r0, .L127
 1539              	.L126:
 242:.\Generated_Source\PSoC5/USB_Bootloader_std.c ****                 {
 1540              		.loc 1 242 0 discriminator 3
 1541 01c8 002C     		cmp	r4, #0
 1542 01ca 40F0C080 		bne	.L143
 1543              	.L127:
 245:.\Generated_Source\PSoC5/USB_Bootloader_std.c ****                     {
 1544              		.loc 1 245 0 is_stmt 1
 1545 01ce 324B     		ldr	r3, .L158+52
 1546 01d0 1B78     		ldrb	r3, [r3]	@ zero_extendqisi2
 1547 01d2 DBB2     		uxtb	r3, r3
 1548 01d4 9C42     		cmp	r4, r3
 1549 01d6 06D0     		beq	.L128
 247:.\Generated_Source\PSoC5/USB_Bootloader_std.c ****                         USB_Bootloader_configurationChanged = USB_Bootloader_TRUE;
 1550              		.loc 1 247 0
 1551 01d8 2F4B     		ldr	r3, .L158+52
 1552 01da 1C70     		strb	r4, [r3]
 248:.\Generated_Source\PSoC5/USB_Bootloader_std.c ****                         USB_Bootloader_Config(USB_Bootloader_TRUE);
 1553              		.loc 1 248 0
 1554 01dc 0120     		movs	r0, #1
 1555              	.LVL145:
 1556 01de 314B     		ldr	r3, .L158+64
 1557 01e0 1870     		strb	r0, [r3]
 249:.\Generated_Source\PSoC5/USB_Bootloader_std.c ****                     }
 1558              		.loc 1 249 0
 1559 01e2 FFF7FEFF 		bl	USB_Bootloader_Config
ARM GAS  C:\Users\Robert\AppData\Local\Temp\ccLuFIyc.s 			page 52


 1560              	.LVL146:
 1561              	.L128:
 251:.\Generated_Source\PSoC5/USB_Bootloader_std.c ****                 }
 1562              		.loc 1 251 0
 1563 01e6 FFF7FEFF 		bl	USB_Bootloader_InitNoDataControlTransfer
 1564              	.LVL147:
 1565 01ea 10BD     		pop	{r4, pc}
 1566              	.LVL148:
 1567              	.L124:
 255:.\Generated_Source\PSoC5/USB_Bootloader_std.c ****                 {
 1568              		.loc 1 255 0
 1569 01ec FFF7FEFF 		bl	USB_Bootloader_ValidateAlternateSetting
 1570              	.LVL149:
 1571 01f0 0028     		cmp	r0, #0
 1572 01f2 00F0AE80 		beq	.L144
 257:.\Generated_Source\PSoC5/USB_Bootloader_std.c ****                     USB_Bootloader_interfaceNumber = interfaceNumber;
 1573              		.loc 1 257 0
 1574 01f6 244B     		ldr	r3, .L158+36
 1575 01f8 1C78     		ldrb	r4, [r3]	@ zero_extendqisi2
 1576 01fa E4B2     		uxtb	r4, r4
 1577              	.LVL150:
 258:.\Generated_Source\PSoC5/USB_Bootloader_std.c ****                     USB_Bootloader_configurationChanged = USB_Bootloader_TRUE;
 1578              		.loc 1 258 0
 1579 01fc 2A4B     		ldr	r3, .L158+68
 1580 01fe 1C70     		strb	r4, [r3]
 259:.\Generated_Source\PSoC5/USB_Bootloader_std.c ****                     #if ((USB_Bootloader_EP_MA == USB_Bootloader__MA_DYNAMIC) && \
 1581              		.loc 1 259 0
 1582 0200 0122     		movs	r2, #1
 1583 0202 284B     		ldr	r3, .L158+64
 1584 0204 1A70     		strb	r2, [r3]
 264:.\Generated_Source\PSoC5/USB_Bootloader_std.c ****                     #endif /*  (USB_Bootloader_EP_MA == USB_Bootloader__MA_DYNAMIC) */
 1585              		.loc 1 264 0
 1586 0206 FFF7FEFF 		bl	USB_Bootloader_ConfigAltChanged
 1587              	.LVL151:
 268:.\Generated_Source\PSoC5/USB_Bootloader_std.c ****                     requestHandled = USB_Bootloader_InitNoDataControlTransfer();
 1588              		.loc 1 268 0
 1589 020a 244B     		ldr	r3, .L158+56
 1590 020c 1B5D     		ldrb	r3, [r3, r4]	@ zero_extendqisi2
 1591 020e DBB2     		uxtb	r3, r3
 267:.\Generated_Source\PSoC5/USB_Bootloader_std.c ****                          USB_Bootloader_interfaceSetting[interfaceNumber];
 1592              		.loc 1 267 0
 1593 0210 264A     		ldr	r2, .L158+72
 1594 0212 1355     		strb	r3, [r2, r4]
 269:.\Generated_Source\PSoC5/USB_Bootloader_std.c ****                 }
 1595              		.loc 1 269 0
 1596 0214 FFF7FEFF 		bl	USB_Bootloader_InitNoDataControlTransfer
 1597              	.LVL152:
 1598 0218 10BD     		pop	{r4, pc}
 1599              	.LVL153:
 1600              	.L119:
 273:.\Generated_Source\PSoC5/USB_Bootloader_std.c ****                 {
 1601              		.loc 1 273 0
 1602 021a 134B     		ldr	r3, .L158+4
 1603 021c 1B78     		ldrb	r3, [r3]	@ zero_extendqisi2
 1604 021e 03F00303 		and	r3, r3, #3
 1605 0222 012B     		cmp	r3, #1
 1606 0224 44D0     		beq	.L129
ARM GAS  C:\Users\Robert\AppData\Local\Temp\ccLuFIyc.s 			page 53


 1607 0226 73B1     		cbz	r3, .L130
 1608 0228 022B     		cmp	r3, #2
 1609 022a 40F09480 		bne	.L155
 276:.\Generated_Source\PSoC5/USB_Bootloader_std.c ****                         {
 1610              		.loc 1 276 0
 1611 022e 03F18043 		add	r3, r3, #1073741824
 1612 0232 03F5C043 		add	r3, r3, #24576
 1613 0236 1B78     		ldrb	r3, [r3]	@ zero_extendqisi2
 1614 0238 13F0FF0F 		tst	r3, #255
 1615 023c 40F08D80 		bne	.L146
 278:.\Generated_Source\PSoC5/USB_Bootloader_std.c ****                         }
 1616              		.loc 1 278 0
 1617 0240 FFF7FEFF 		bl	USB_Bootloader_ClearEndpointHalt
 1618              	.LVL154:
 1619 0244 10BD     		pop	{r4, pc}
 1620              	.LVL155:
 1621              	.L130:
 283:.\Generated_Source\PSoC5/USB_Bootloader_std.c ****                         {
 1622              		.loc 1 283 0
 1623 0246 0C4B     		ldr	r3, .L158+20
 1624 0248 1B78     		ldrb	r3, [r3]	@ zero_extendqisi2
 1625 024a DBB2     		uxtb	r3, r3
 1626 024c 012B     		cmp	r3, #1
 1627 024e 40F08680 		bne	.L147
 285:.\Generated_Source\PSoC5/USB_Bootloader_std.c ****                             requestHandled = USB_Bootloader_InitNoDataControlTransfer();
 1628              		.loc 1 285 0
 1629 0252 104A     		ldr	r2, .L158+48
 1630 0254 1378     		ldrb	r3, [r2]	@ zero_extendqisi2
 1631 0256 03F0FD03 		and	r3, r3, #253
 1632 025a 1370     		strb	r3, [r2]
 286:.\Generated_Source\PSoC5/USB_Bootloader_std.c ****                         }
 1633              		.loc 1 286 0
 1634 025c FFF7FEFF 		bl	USB_Bootloader_InitNoDataControlTransfer
 1635              	.LVL156:
 1636 0260 10BD     		pop	{r4, pc}
 1637              	.L159:
 1638 0262 00BF     		.align	2
 1639              	.L158:
 1640 0264 00000000 		.word	USB_Bootloader_currentTD
 1641 0268 00600040 		.word	1073766400
 1642 026c 01600040 		.word	1073766401
 1643 0270 03600040 		.word	1073766403
 1644 0274 00000000 		.word	USB_Bootloader_STRING_DESCRIPTORS
 1645 0278 02600040 		.word	1073766402
 1646 027c 00000000 		.word	USB_Bootloader_MSOS_DESCRIPTOR
 1647 0280 00000000 		.word	USB_Bootloader_DEVICE0_DESCR
 1648 0284 00000000 		.word	USB_Bootloader_SN_STRING_DESCRIPTOR
 1649 0288 04600040 		.word	1073766404
 1650 028c 00000000 		.word	USB_Bootloader_EP
 1651 0290 00000000 		.word	.LANCHOR0
 1652 0294 00000000 		.word	USB_Bootloader_deviceStatus
 1653 0298 00000000 		.word	USB_Bootloader_configuration
 1654 029c 00000000 		.word	USB_Bootloader_interfaceSetting
 1655 02a0 00000000 		.word	USB_Bootloader_deviceAddress
 1656 02a4 00000000 		.word	USB_Bootloader_configurationChanged
 1657 02a8 00000000 		.word	USB_Bootloader_interfaceNumber
 1658 02ac 00000000 		.word	USB_Bootloader_interfaceSetting_last
ARM GAS  C:\Users\Robert\AppData\Local\Temp\ccLuFIyc.s 			page 54


 1659              	.LVL157:
 1660              	.L129:
 291:.\Generated_Source\PSoC5/USB_Bootloader_std.c ****                         {
 1661              		.loc 1 291 0
 1662 02b0 314B     		ldr	r3, .L160
 1663 02b2 1B78     		ldrb	r3, [r3]	@ zero_extendqisi2
 1664 02b4 13F0FF0F 		tst	r3, #255
 1665 02b8 53D1     		bne	.L148
 294:.\Generated_Source\PSoC5/USB_Bootloader_std.c ****                             requestHandled = USB_Bootloader_InitNoDataControlTransfer();
 1666              		.loc 1 294 0
 1667 02ba 304B     		ldr	r3, .L160+4
 1668 02bc 1878     		ldrb	r0, [r3]	@ zero_extendqisi2
 293:.\Generated_Source\PSoC5/USB_Bootloader_std.c ****                                                                 (uint8)~(CY_GET_REG8(USB_Bootloader
 1669              		.loc 1 293 0
 1670 02be 0233     		adds	r3, r3, #2
 1671 02c0 1B78     		ldrb	r3, [r3]	@ zero_extendqisi2
 1672 02c2 DBB2     		uxtb	r3, r3
 1673 02c4 2E49     		ldr	r1, .L160+8
 1674 02c6 CA5C     		ldrb	r2, [r1, r3]	@ zero_extendqisi2
 1675 02c8 22EA0002 		bic	r2, r2, r0
 1676 02cc CA54     		strb	r2, [r1, r3]
 295:.\Generated_Source\PSoC5/USB_Bootloader_std.c ****                         }
 1677              		.loc 1 295 0
 1678 02ce FFF7FEFF 		bl	USB_Bootloader_InitNoDataControlTransfer
 1679              	.LVL158:
 1680 02d2 10BD     		pop	{r4, pc}
 1681              	.LVL159:
 1682              	.L121:
 303:.\Generated_Source\PSoC5/USB_Bootloader_std.c ****                 {
 1683              		.loc 1 303 0
 1684 02d4 2B4B     		ldr	r3, .L160+12
 1685 02d6 1B78     		ldrb	r3, [r3]	@ zero_extendqisi2
 1686 02d8 03F00303 		and	r3, r3, #3
 1687 02dc 012B     		cmp	r3, #1
 1688 02de 1AD0     		beq	.L132
 1689 02e0 63B1     		cbz	r3, .L133
 1690 02e2 022B     		cmp	r3, #2
 1691 02e4 3FD1     		bne	.L156
 306:.\Generated_Source\PSoC5/USB_Bootloader_std.c ****                         {
 1692              		.loc 1 306 0
 1693 02e6 03F18043 		add	r3, r3, #1073741824
 1694 02ea 03F5C043 		add	r3, r3, #24576
 1695 02ee 1B78     		ldrb	r3, [r3]	@ zero_extendqisi2
 1696 02f0 13F0FF0F 		tst	r3, #255
 1697 02f4 39D1     		bne	.L150
 308:.\Generated_Source\PSoC5/USB_Bootloader_std.c ****                         }
 1698              		.loc 1 308 0
 1699 02f6 FFF7FEFF 		bl	USB_Bootloader_SetEndpointHalt
 1700              	.LVL160:
 1701 02fa 10BD     		pop	{r4, pc}
 1702              	.LVL161:
 1703              	.L133:
 313:.\Generated_Source\PSoC5/USB_Bootloader_std.c ****                         {
 1704              		.loc 1 313 0
 1705 02fc 1F4B     		ldr	r3, .L160+4
 1706 02fe 1B78     		ldrb	r3, [r3]	@ zero_extendqisi2
 1707 0300 DBB2     		uxtb	r3, r3
ARM GAS  C:\Users\Robert\AppData\Local\Temp\ccLuFIyc.s 			page 55


 1708 0302 012B     		cmp	r3, #1
 1709 0304 33D1     		bne	.L151
 315:.\Generated_Source\PSoC5/USB_Bootloader_std.c ****                             requestHandled = USB_Bootloader_InitNoDataControlTransfer();
 1710              		.loc 1 315 0
 1711 0306 204A     		ldr	r2, .L160+16
 1712 0308 1378     		ldrb	r3, [r2]	@ zero_extendqisi2
 1713 030a 43F00203 		orr	r3, r3, #2
 1714 030e 1370     		strb	r3, [r2]
 316:.\Generated_Source\PSoC5/USB_Bootloader_std.c ****                         }
 1715              		.loc 1 316 0
 1716 0310 FFF7FEFF 		bl	USB_Bootloader_InitNoDataControlTransfer
 1717              	.LVL162:
 1718 0314 10BD     		pop	{r4, pc}
 1719              	.LVL163:
 1720              	.L132:
 321:.\Generated_Source\PSoC5/USB_Bootloader_std.c ****                         {
 1721              		.loc 1 321 0
 1722 0316 184B     		ldr	r3, .L160
 1723 0318 1B78     		ldrb	r3, [r3]	@ zero_extendqisi2
 1724 031a 13F0FF0F 		tst	r3, #255
 1725 031e 28D1     		bne	.L152
 324:.\Generated_Source\PSoC5/USB_Bootloader_std.c ****                             requestHandled = USB_Bootloader_InitNoDataControlTransfer();
 1726              		.loc 1 324 0
 1727 0320 164B     		ldr	r3, .L160+4
 1728 0322 1878     		ldrb	r0, [r3]	@ zero_extendqisi2
 323:.\Generated_Source\PSoC5/USB_Bootloader_std.c ****                                                                 (uint8)~(CY_GET_REG8(USB_Bootloader
 1729              		.loc 1 323 0
 1730 0324 0233     		adds	r3, r3, #2
 1731 0326 1B78     		ldrb	r3, [r3]	@ zero_extendqisi2
 1732 0328 DBB2     		uxtb	r3, r3
 1733 032a 1549     		ldr	r1, .L160+8
 1734 032c CA5C     		ldrb	r2, [r1, r3]	@ zero_extendqisi2
 1735 032e 22EA0002 		bic	r2, r2, r0
 1736 0332 CA54     		strb	r2, [r1, r3]
 325:.\Generated_Source\PSoC5/USB_Bootloader_std.c ****                         }
 1737              		.loc 1 325 0
 1738 0334 FFF7FEFF 		bl	USB_Bootloader_InitNoDataControlTransfer
 1739              	.LVL164:
 1740 0338 10BD     		pop	{r4, pc}
 1741              	.LVL165:
 1742              	.L135:
  90:.\Generated_Source\PSoC5/USB_Bootloader_std.c ****     uint8 interfaceNumber;
 1743              		.loc 1 90 0
 1744 033a 0020     		movs	r0, #0
 1745 033c 10BD     		pop	{r4, pc}
 1746              	.LVL166:
 1747              	.L136:
 1748 033e 0020     		movs	r0, #0
 1749              	.LVL167:
 1750 0340 10BD     		pop	{r4, pc}
 1751              	.LVL168:
 1752              	.L140:
 1753 0342 0020     		movs	r0, #0
 1754 0344 10BD     		pop	{r4, pc}
 1755              	.LVL169:
 1756              	.L154:
 1757 0346 0020     		movs	r0, #0
ARM GAS  C:\Users\Robert\AppData\Local\Temp\ccLuFIyc.s 			page 56


 1758 0348 10BD     		pop	{r4, pc}
 1759              	.L142:
 1760 034a 0020     		movs	r0, #0
 1761 034c 10BD     		pop	{r4, pc}
 1762              	.LVL170:
 1763              	.L143:
 1764 034e 0020     		movs	r0, #0
 1765              	.LVL171:
 1766 0350 10BD     		pop	{r4, pc}
 1767              	.L144:
 1768 0352 0020     		movs	r0, #0
 1769 0354 10BD     		pop	{r4, pc}
 1770              	.L155:
 1771 0356 0020     		movs	r0, #0
 1772 0358 10BD     		pop	{r4, pc}
 1773              	.L146:
 1774 035a 0020     		movs	r0, #0
 1775 035c 10BD     		pop	{r4, pc}
 1776              	.L147:
 1777 035e 0020     		movs	r0, #0
 1778 0360 10BD     		pop	{r4, pc}
 1779              	.L148:
 1780 0362 0020     		movs	r0, #0
 1781 0364 10BD     		pop	{r4, pc}
 1782              	.L156:
 1783 0366 0020     		movs	r0, #0
 1784 0368 10BD     		pop	{r4, pc}
 1785              	.L150:
 1786 036a 0020     		movs	r0, #0
 1787 036c 10BD     		pop	{r4, pc}
 1788              	.L151:
 1789 036e 0020     		movs	r0, #0
 1790 0370 10BD     		pop	{r4, pc}
 1791              	.L152:
 1792 0372 0020     		movs	r0, #0
 1793              	.LVL172:
 337:.\Generated_Source\PSoC5/USB_Bootloader_std.c **** 
 1794              		.loc 1 337 0
 1795 0374 10BD     		pop	{r4, pc}
 1796              	.L161:
 1797 0376 00BF     		.align	2
 1798              	.L160:
 1799 0378 04600040 		.word	1073766404
 1800 037c 02600040 		.word	1073766402
 1801 0380 00000000 		.word	USB_Bootloader_interfaceStatus
 1802 0384 00600040 		.word	1073766400
 1803 0388 00000000 		.word	USB_Bootloader_deviceStatus
 1804              		.cfi_endproc
 1805              	.LFE0:
 1806              		.size	USB_Bootloader_HandleStandardRqst, .-USB_Bootloader_HandleStandardRqst
 1807              		.bss
 1808              		.align	2
 1809              		.set	.LANCHOR0,. + 0
 1810              		.type	USB_Bootloader_tBuffer.5077, %object
 1811              		.size	USB_Bootloader_tBuffer.5077, 2
 1812              	USB_Bootloader_tBuffer.5077:
 1813 0000 0000     		.space	2
ARM GAS  C:\Users\Robert\AppData\Local\Temp\ccLuFIyc.s 			page 57


 1814 0002 0000     		.text
 1815              	.Letext0:
 1816              		.file 2 ".\\Generated_Source\\PSoC5\\cytypes.h"
 1817              		.file 3 ".\\Generated_Source\\PSoC5\\USB_Bootloader.h"
 1818              		.file 4 ".\\Generated_Source\\PSoC5\\USB_Bootloader_pvt.h"
 1819              		.section	.debug_info,"",%progbits
 1820              	.Ldebug_info0:
 1821 0000 A7080000 		.4byte	0x8a7
 1822 0004 0400     		.2byte	0x4
 1823 0006 00000000 		.4byte	.Ldebug_abbrev0
 1824 000a 04       		.byte	0x4
 1825 000b 01       		.uleb128 0x1
 1826 000c C6050000 		.4byte	.LASF86
 1827 0010 01       		.byte	0x1
 1828 0011 DA020000 		.4byte	.LASF87
 1829 0015 1B070000 		.4byte	.LASF88
 1830 0019 00000000 		.4byte	.Ldebug_ranges0+0
 1831 001d 00000000 		.4byte	0
 1832 0021 00000000 		.4byte	.Ldebug_line0
 1833 0025 02       		.uleb128 0x2
 1834 0026 01       		.byte	0x1
 1835 0027 06       		.byte	0x6
 1836 0028 F4000000 		.4byte	.LASF0
 1837 002c 02       		.uleb128 0x2
 1838 002d 01       		.byte	0x1
 1839 002e 08       		.byte	0x8
 1840 002f 74040000 		.4byte	.LASF1
 1841 0033 02       		.uleb128 0x2
 1842 0034 02       		.byte	0x2
 1843 0035 05       		.byte	0x5
 1844 0036 82040000 		.4byte	.LASF2
 1845 003a 02       		.uleb128 0x2
 1846 003b 02       		.byte	0x2
 1847 003c 07       		.byte	0x7
 1848 003d 77020000 		.4byte	.LASF3
 1849 0041 02       		.uleb128 0x2
 1850 0042 04       		.byte	0x4
 1851 0043 05       		.byte	0x5
 1852 0044 4F010000 		.4byte	.LASF4
 1853 0048 02       		.uleb128 0x2
 1854 0049 04       		.byte	0x4
 1855 004a 07       		.byte	0x7
 1856 004b 24020000 		.4byte	.LASF5
 1857 004f 02       		.uleb128 0x2
 1858 0050 08       		.byte	0x8
 1859 0051 05       		.byte	0x5
 1860 0052 E6000000 		.4byte	.LASF6
 1861 0056 02       		.uleb128 0x2
 1862 0057 08       		.byte	0x8
 1863 0058 07       		.byte	0x7
 1864 0059 9B000000 		.4byte	.LASF7
 1865 005d 03       		.uleb128 0x3
 1866 005e 04       		.byte	0x4
 1867 005f 05       		.byte	0x5
 1868 0060 696E7400 		.ascii	"int\000"
 1869 0064 02       		.uleb128 0x2
 1870 0065 04       		.byte	0x4
ARM GAS  C:\Users\Robert\AppData\Local\Temp\ccLuFIyc.s 			page 58


 1871 0066 07       		.byte	0x7
 1872 0067 FB010000 		.4byte	.LASF8
 1873 006b 04       		.uleb128 0x4
 1874 006c 58010000 		.4byte	.LASF9
 1875 0070 02       		.byte	0x2
 1876 0071 C2       		.byte	0xc2
 1877 0072 2C000000 		.4byte	0x2c
 1878 0076 04       		.uleb128 0x4
 1879 0077 13000000 		.4byte	.LASF10
 1880 007b 02       		.byte	0x2
 1881 007c C3       		.byte	0xc3
 1882 007d 3A000000 		.4byte	0x3a
 1883 0081 02       		.uleb128 0x2
 1884 0082 04       		.byte	0x4
 1885 0083 04       		.byte	0x4
 1886 0084 16040000 		.4byte	.LASF11
 1887 0088 02       		.uleb128 0x2
 1888 0089 08       		.byte	0x8
 1889 008a 04       		.byte	0x4
 1890 008b 7D010000 		.4byte	.LASF12
 1891 008f 02       		.uleb128 0x2
 1892 0090 01       		.byte	0x1
 1893 0091 08       		.byte	0x8
 1894 0092 EE040000 		.4byte	.LASF13
 1895 0096 05       		.uleb128 0x5
 1896 0097 6F040000 		.4byte	.LASF14
 1897 009b 02       		.byte	0x2
 1898 009c 6C01     		.2byte	0x16c
 1899 009e A2000000 		.4byte	0xa2
 1900 00a2 06       		.uleb128 0x6
 1901 00a3 6B000000 		.4byte	0x6b
 1902 00a7 02       		.uleb128 0x2
 1903 00a8 04       		.byte	0x4
 1904 00a9 07       		.byte	0x7
 1905 00aa 28030000 		.4byte	.LASF15
 1906 00ae 07       		.uleb128 0x7
 1907 00af 0C       		.byte	0xc
 1908 00b0 03       		.byte	0x3
 1909 00b1 80       		.byte	0x80
 1910 00b2 23010000 		.4byte	0x123
 1911 00b6 08       		.uleb128 0x8
 1912 00b7 67030000 		.4byte	.LASF16
 1913 00bb 03       		.byte	0x3
 1914 00bc 82       		.byte	0x82
 1915 00bd 6B000000 		.4byte	0x6b
 1916 00c1 00       		.byte	0
 1917 00c2 08       		.uleb128 0x8
 1918 00c3 1C040000 		.4byte	.LASF17
 1919 00c7 03       		.byte	0x3
 1920 00c8 83       		.byte	0x83
 1921 00c9 6B000000 		.4byte	0x6b
 1922 00cd 01       		.byte	0x1
 1923 00ce 08       		.uleb128 0x8
 1924 00cf 12030000 		.4byte	.LASF18
 1925 00d3 03       		.byte	0x3
 1926 00d4 84       		.byte	0x84
 1927 00d5 6B000000 		.4byte	0x6b
ARM GAS  C:\Users\Robert\AppData\Local\Temp\ccLuFIyc.s 			page 59


 1928 00d9 02       		.byte	0x2
 1929 00da 08       		.uleb128 0x8
 1930 00db 74010000 		.4byte	.LASF19
 1931 00df 03       		.byte	0x3
 1932 00e0 85       		.byte	0x85
 1933 00e1 6B000000 		.4byte	0x6b
 1934 00e5 03       		.byte	0x3
 1935 00e6 08       		.uleb128 0x8
 1936 00e7 B2000000 		.4byte	.LASF20
 1937 00eb 03       		.byte	0x3
 1938 00ec 86       		.byte	0x86
 1939 00ed 6B000000 		.4byte	0x6b
 1940 00f1 04       		.byte	0x4
 1941 00f2 08       		.uleb128 0x8
 1942 00f3 A9010000 		.4byte	.LASF21
 1943 00f7 03       		.byte	0x3
 1944 00f8 87       		.byte	0x87
 1945 00f9 6B000000 		.4byte	0x6b
 1946 00fd 05       		.byte	0x5
 1947 00fe 08       		.uleb128 0x8
 1948 00ff 55050000 		.4byte	.LASF22
 1949 0103 03       		.byte	0x3
 1950 0104 88       		.byte	0x88
 1951 0105 76000000 		.4byte	0x76
 1952 0109 06       		.byte	0x6
 1953 010a 08       		.uleb128 0x8
 1954 010b F3040000 		.4byte	.LASF23
 1955 010f 03       		.byte	0x3
 1956 0110 89       		.byte	0x89
 1957 0111 76000000 		.4byte	0x76
 1958 0115 08       		.byte	0x8
 1959 0116 08       		.uleb128 0x8
 1960 0117 08030000 		.4byte	.LASF24
 1961 011b 03       		.byte	0x3
 1962 011c 8A       		.byte	0x8a
 1963 011d 6B000000 		.4byte	0x6b
 1964 0121 0A       		.byte	0xa
 1965 0122 00       		.byte	0
 1966 0123 04       		.uleb128 0x4
 1967 0124 31010000 		.4byte	.LASF25
 1968 0128 03       		.byte	0x3
 1969 0129 8B       		.byte	0x8b
 1970 012a AE000000 		.4byte	0xae
 1971 012e 07       		.uleb128 0x7
 1972 012f 08       		.byte	0x8
 1973 0130 03       		.byte	0x3
 1974 0131 8D       		.byte	0x8d
 1975 0132 7F010000 		.4byte	0x17f
 1976 0136 08       		.uleb128 0x8
 1977 0137 08030000 		.4byte	.LASF24
 1978 013b 03       		.byte	0x3
 1979 013c 8F       		.byte	0x8f
 1980 013d 6B000000 		.4byte	0x6b
 1981 0141 00       		.byte	0
 1982 0142 08       		.uleb128 0x8
 1983 0143 E3040000 		.4byte	.LASF26
 1984 0147 03       		.byte	0x3
ARM GAS  C:\Users\Robert\AppData\Local\Temp\ccLuFIyc.s 			page 60


 1985 0148 90       		.byte	0x90
 1986 0149 6B000000 		.4byte	0x6b
 1987 014d 01       		.byte	0x1
 1988 014e 08       		.uleb128 0x8
 1989 014f B2000000 		.4byte	.LASF20
 1990 0153 03       		.byte	0x3
 1991 0154 91       		.byte	0x91
 1992 0155 6B000000 		.4byte	0x6b
 1993 0159 02       		.byte	0x2
 1994 015a 08       		.uleb128 0x8
 1995 015b A2040000 		.4byte	.LASF27
 1996 015f 03       		.byte	0x3
 1997 0160 92       		.byte	0x92
 1998 0161 6B000000 		.4byte	0x6b
 1999 0165 03       		.byte	0x3
 2000 0166 08       		.uleb128 0x8
 2001 0167 F3040000 		.4byte	.LASF23
 2002 016b 03       		.byte	0x3
 2003 016c 93       		.byte	0x93
 2004 016d 76000000 		.4byte	0x76
 2005 0171 04       		.byte	0x4
 2006 0172 08       		.uleb128 0x8
 2007 0173 87060000 		.4byte	.LASF28
 2008 0177 03       		.byte	0x3
 2009 0178 94       		.byte	0x94
 2010 0179 6B000000 		.4byte	0x6b
 2011 017d 06       		.byte	0x6
 2012 017e 00       		.byte	0
 2013 017f 04       		.uleb128 0x4
 2014 0180 B7010000 		.4byte	.LASF29
 2015 0184 03       		.byte	0x3
 2016 0185 95       		.byte	0x95
 2017 0186 2E010000 		.4byte	0x12e
 2018 018a 07       		.uleb128 0x7
 2019 018b 04       		.byte	0x4
 2020 018c 03       		.byte	0x3
 2021 018d 97       		.byte	0x97
 2022 018e AB010000 		.4byte	0x1ab
 2023 0192 08       		.uleb128 0x8
 2024 0193 BF050000 		.4byte	.LASF30
 2025 0197 03       		.byte	0x3
 2026 0198 99       		.byte	0x99
 2027 0199 6B000000 		.4byte	0x6b
 2028 019d 00       		.byte	0
 2029 019e 08       		.uleb128 0x8
 2030 019f AC050000 		.4byte	.LASF31
 2031 01a3 03       		.byte	0x3
 2032 01a4 9A       		.byte	0x9a
 2033 01a5 76000000 		.4byte	0x76
 2034 01a9 02       		.byte	0x2
 2035 01aa 00       		.byte	0
 2036 01ab 04       		.uleb128 0x4
 2037 01ac 8D060000 		.4byte	.LASF32
 2038 01b0 03       		.byte	0x3
 2039 01b1 9B       		.byte	0x9b
 2040 01b2 8A010000 		.4byte	0x18a
 2041 01b6 07       		.uleb128 0x7
ARM GAS  C:\Users\Robert\AppData\Local\Temp\ccLuFIyc.s 			page 61


 2042 01b7 0C       		.byte	0xc
 2043 01b8 03       		.byte	0x3
 2044 01b9 9D       		.byte	0x9d
 2045 01ba E3010000 		.4byte	0x1e3
 2046 01be 08       		.uleb128 0x8
 2047 01bf 0D000000 		.4byte	.LASF33
 2048 01c3 03       		.byte	0x3
 2049 01c4 9F       		.byte	0x9f
 2050 01c5 76000000 		.4byte	0x76
 2051 01c9 00       		.byte	0
 2052 01ca 08       		.uleb128 0x8
 2053 01cb A3010000 		.4byte	.LASF34
 2054 01cf 03       		.byte	0x3
 2055 01d0 A0       		.byte	0xa0
 2056 01d1 E3010000 		.4byte	0x1e3
 2057 01d5 04       		.byte	0x4
 2058 01d6 08       		.uleb128 0x8
 2059 01d7 00000000 		.4byte	.LASF35
 2060 01db 03       		.byte	0x3
 2061 01dc A1       		.byte	0xa1
 2062 01dd E9010000 		.4byte	0x1e9
 2063 01e1 08       		.byte	0x8
 2064 01e2 00       		.byte	0
 2065 01e3 09       		.uleb128 0x9
 2066 01e4 04       		.byte	0x4
 2067 01e5 A2000000 		.4byte	0xa2
 2068 01e9 09       		.uleb128 0x9
 2069 01ea 04       		.byte	0x4
 2070 01eb AB010000 		.4byte	0x1ab
 2071 01ef 04       		.uleb128 0x4
 2072 01f0 F5030000 		.4byte	.LASF36
 2073 01f4 03       		.byte	0x3
 2074 01f5 A2       		.byte	0xa2
 2075 01f6 B6010000 		.4byte	0x1b6
 2076 01fa 07       		.uleb128 0x7
 2077 01fb 08       		.byte	0x8
 2078 01fc 03       		.byte	0x3
 2079 01fd A5       		.byte	0xa5
 2080 01fe 19020000 		.4byte	0x219
 2081 0202 0A       		.uleb128 0xa
 2082 0203 6300     		.ascii	"c\000"
 2083 0205 03       		.byte	0x3
 2084 0206 A7       		.byte	0xa7
 2085 0207 6B000000 		.4byte	0x6b
 2086 020b 00       		.byte	0
 2087 020c 08       		.uleb128 0x8
 2088 020d 56030000 		.4byte	.LASF37
 2089 0211 03       		.byte	0x3
 2090 0212 A8       		.byte	0xa8
 2091 0213 19020000 		.4byte	0x219
 2092 0217 04       		.byte	0x4
 2093 0218 00       		.byte	0
 2094 0219 09       		.uleb128 0x9
 2095 021a 04       		.byte	0x4
 2096 021b 1F020000 		.4byte	0x21f
 2097 021f 0B       		.uleb128 0xb
 2098 0220 04       		.uleb128 0x4
ARM GAS  C:\Users\Robert\AppData\Local\Temp\ccLuFIyc.s 			page 62


 2099 0221 97050000 		.4byte	.LASF38
 2100 0225 03       		.byte	0x3
 2101 0226 A9       		.byte	0xa9
 2102 0227 FA010000 		.4byte	0x1fa
 2103 022b 0C       		.uleb128 0xc
 2104 022c 1A000000 		.4byte	.LASF40
 2105 0230 01       		.byte	0x1
 2106 0231 9201     		.2byte	0x192
 2107 0233 00000000 		.4byte	.LFB1
 2108 0237 D4000000 		.4byte	.LFE1-.LFB1
 2109 023b 01       		.uleb128 0x1
 2110 023c 9C       		.byte	0x9c
 2111 023d 5F020000 		.4byte	0x25f
 2112 0241 0D       		.uleb128 0xd
 2113 0242 657000   		.ascii	"ep\000"
 2114 0245 01       		.byte	0x1
 2115 0246 9401     		.2byte	0x194
 2116 0248 6B000000 		.4byte	0x6b
 2117 024c 00000000 		.4byte	.LLST0
 2118 0250 0D       		.uleb128 0xd
 2119 0251 6900     		.ascii	"i\000"
 2120 0253 01       		.byte	0x1
 2121 0254 9501     		.2byte	0x195
 2122 0256 6B000000 		.4byte	0x6b
 2123 025a 2A000000 		.4byte	.LLST1
 2124 025e 00       		.byte	0
 2125 025f 0E       		.uleb128 0xe
 2126 0260 54060000 		.4byte	.LASF44
 2127 0264 01       		.byte	0x1
 2128 0265 6303     		.2byte	0x363
 2129 0267 9A020000 		.4byte	0x29a
 2130 026b 00000000 		.4byte	.LFB4
 2131 026f 28000000 		.4byte	.LFE4-.LFB4
 2132 0273 01       		.uleb128 0x1
 2133 0274 9C       		.byte	0x9c
 2134 0275 9A020000 		.4byte	0x29a
 2135 0279 0F       		.uleb128 0xf
 2136 027a 91000000 		.4byte	.LASF49
 2137 027e 01       		.byte	0x1
 2138 027f 6303     		.2byte	0x363
 2139 0281 6B000000 		.4byte	0x6b
 2140 0285 54000000 		.4byte	.LLST2
 2141 0289 10       		.uleb128 0x10
 2142 028a 51030000 		.4byte	.LASF39
 2143 028e 01       		.byte	0x1
 2144 028f 6703     		.2byte	0x367
 2145 0291 9A020000 		.4byte	0x29a
 2146 0295 8E000000 		.4byte	.LLST3
 2147 0299 00       		.byte	0
 2148 029a 09       		.uleb128 0x9
 2149 029b 04       		.byte	0x4
 2150 029c A0020000 		.4byte	0x2a0
 2151 02a0 11       		.uleb128 0x11
 2152 02a1 20020000 		.4byte	0x220
 2153 02a5 0C       		.uleb128 0xc
 2154 02a6 57020000 		.4byte	.LASF41
 2155 02aa 01       		.byte	0x1
ARM GAS  C:\Users\Robert\AppData\Local\Temp\ccLuFIyc.s 			page 63


 2156 02ab E502     		.2byte	0x2e5
 2157 02ad 00000000 		.4byte	.LFB3
 2158 02b1 58010000 		.4byte	.LFE3-.LFB3
 2159 02b5 01       		.uleb128 0x1
 2160 02b6 9C       		.byte	0x9c
 2161 02b7 31030000 		.4byte	0x331
 2162 02bb 0D       		.uleb128 0xd
 2163 02bc 657000   		.ascii	"ep\000"
 2164 02bf 01       		.byte	0x1
 2165 02c0 E702     		.2byte	0x2e7
 2166 02c2 6B000000 		.4byte	0x6b
 2167 02c6 C6000000 		.4byte	.LLST4
 2168 02ca 10       		.uleb128 0x10
 2169 02cb B8050000 		.4byte	.LASF42
 2170 02cf 01       		.byte	0x1
 2171 02d0 E802     		.2byte	0x2e8
 2172 02d2 6B000000 		.4byte	0x6b
 2173 02d6 D9000000 		.4byte	.LLST5
 2174 02da 0D       		.uleb128 0xd
 2175 02db 6900     		.ascii	"i\000"
 2176 02dd 01       		.byte	0x1
 2177 02de E902     		.2byte	0x2e9
 2178 02e0 6B000000 		.4byte	0x6b
 2179 02e4 EC000000 		.4byte	.LLST6
 2180 02e8 10       		.uleb128 0x10
 2181 02e9 B0010000 		.4byte	.LASF43
 2182 02ed 01       		.byte	0x1
 2183 02ee EA02     		.2byte	0x2ea
 2184 02f0 6B000000 		.4byte	0x6b
 2185 02f4 16010000 		.4byte	.LLST7
 2186 02f8 0D       		.uleb128 0xd
 2187 02f9 726900   		.ascii	"ri\000"
 2188 02fc 01       		.byte	0x1
 2189 02fd EB02     		.2byte	0x2eb
 2190 02ff 6B000000 		.4byte	0x6b
 2191 0303 4A010000 		.4byte	.LLST8
 2192 0307 10       		.uleb128 0x10
 2193 0308 51030000 		.4byte	.LASF39
 2194 030c 01       		.byte	0x1
 2195 030d ED02     		.2byte	0x2ed
 2196 030f 9A020000 		.4byte	0x29a
 2197 0313 5D010000 		.4byte	.LLST9
 2198 0317 0D       		.uleb128 0xd
 2199 0318 70455000 		.ascii	"pEP\000"
 2200 031c 01       		.byte	0x1
 2201 031d EE02     		.2byte	0x2ee
 2202 031f 31030000 		.4byte	0x331
 2203 0323 72010000 		.4byte	.LLST10
 2204 0327 12       		.uleb128 0x12
 2205 0328 1A000000 		.4byte	.LVL13
 2206 032c 5F020000 		.4byte	0x25f
 2207 0330 00       		.byte	0
 2208 0331 09       		.uleb128 0x9
 2209 0332 04       		.byte	0x4
 2210 0333 37030000 		.4byte	0x337
 2211 0337 11       		.uleb128 0x11
 2212 0338 7F010000 		.4byte	0x17f
ARM GAS  C:\Users\Robert\AppData\Local\Temp\ccLuFIyc.s 			page 64


 2213 033c 13       		.uleb128 0x13
 2214 033d 10010000 		.4byte	.LASF89
 2215 0341 01       		.byte	0x1
 2216 0342 8C03     		.2byte	0x38c
 2217 0344 9A020000 		.4byte	0x29a
 2218 0348 00000000 		.4byte	.LFB5
 2219 034c 18000000 		.4byte	.LFE5-.LFB5
 2220 0350 01       		.uleb128 0x1
 2221 0351 9C       		.byte	0x9c
 2222 0352 0E       		.uleb128 0xe
 2223 0353 FE040000 		.4byte	.LASF45
 2224 0357 01       		.byte	0x1
 2225 0358 A303     		.2byte	0x3a3
 2226 035a A6030000 		.4byte	0x3a6
 2227 035e 00000000 		.4byte	.LFB6
 2228 0362 24000000 		.4byte	.LFE6-.LFB6
 2229 0366 01       		.uleb128 0x1
 2230 0367 9C       		.byte	0x9c
 2231 0368 A6030000 		.4byte	0x3a6
 2232 036c 10       		.uleb128 0x10
 2233 036d 51030000 		.4byte	.LASF39
 2234 0371 01       		.byte	0x1
 2235 0372 A603     		.2byte	0x3a6
 2236 0374 9A020000 		.4byte	0x29a
 2237 0378 85010000 		.4byte	.LLST11
 2238 037c 10       		.uleb128 0x10
 2239 037d CA020000 		.4byte	.LASF46
 2240 0381 01       		.byte	0x1
 2241 0382 A703     		.2byte	0x3a7
 2242 0384 A6030000 		.4byte	0x3a6
 2243 0388 B5010000 		.4byte	.LLST12
 2244 038c 10       		.uleb128 0x10
 2245 038d E0030000 		.4byte	.LASF47
 2246 0391 01       		.byte	0x1
 2247 0392 A803     		.2byte	0x3a8
 2248 0394 6B000000 		.4byte	0x6b
 2249 0398 D3010000 		.4byte	.LLST13
 2250 039c 12       		.uleb128 0x12
 2251 039d 0E000000 		.4byte	.LVL33
 2252 03a1 5F020000 		.4byte	0x25f
 2253 03a5 00       		.byte	0
 2254 03a6 09       		.uleb128 0x9
 2255 03a7 04       		.byte	0x4
 2256 03a8 AC030000 		.4byte	0x3ac
 2257 03ac 11       		.uleb128 0x11
 2258 03ad 6B000000 		.4byte	0x6b
 2259 03b1 0C       		.uleb128 0xc
 2260 03b2 8C040000 		.4byte	.LASF48
 2261 03b6 01       		.byte	0x1
 2262 03b7 ED01     		.2byte	0x1ed
 2263 03b9 00000000 		.4byte	.LFB2
 2264 03bd D0010000 		.4byte	.LFE2-.LFB2
 2265 03c1 01       		.uleb128 0x1
 2266 03c2 9C       		.byte	0x9c
 2267 03c3 70040000 		.4byte	0x470
 2268 03c7 0F       		.uleb128 0xf
 2269 03c8 00010000 		.4byte	.LASF50
ARM GAS  C:\Users\Robert\AppData\Local\Temp\ccLuFIyc.s 			page 65


 2270 03cc 01       		.byte	0x1
 2271 03cd ED01     		.2byte	0x1ed
 2272 03cf 6B000000 		.4byte	0x6b
 2273 03d3 E6010000 		.4byte	.LLST14
 2274 03d7 0D       		.uleb128 0xd
 2275 03d8 657000   		.ascii	"ep\000"
 2276 03db 01       		.byte	0x1
 2277 03dc EF01     		.2byte	0x1ef
 2278 03de 6B000000 		.4byte	0x6b
 2279 03e2 07020000 		.4byte	.LLST15
 2280 03e6 10       		.uleb128 0x10
 2281 03e7 B8050000 		.4byte	.LASF42
 2282 03eb 01       		.byte	0x1
 2283 03ec F001     		.2byte	0x1f0
 2284 03ee 6B000000 		.4byte	0x6b
 2285 03f2 69020000 		.4byte	.LLST16
 2286 03f6 0D       		.uleb128 0xd
 2287 03f7 6900     		.ascii	"i\000"
 2288 03f9 01       		.byte	0x1
 2289 03fa F101     		.2byte	0x1f1
 2290 03fc 6B000000 		.4byte	0x6b
 2291 0400 93020000 		.4byte	.LLST17
 2292 0404 10       		.uleb128 0x10
 2293 0405 B0010000 		.4byte	.LASF43
 2294 0409 01       		.byte	0x1
 2295 040a F201     		.2byte	0x1f2
 2296 040c 6B000000 		.4byte	0x6b
 2297 0410 00030000 		.4byte	.LLST18
 2298 0414 10       		.uleb128 0x10
 2299 0415 A5020000 		.4byte	.LASF51
 2300 0419 01       		.byte	0x1
 2301 041a F301     		.2byte	0x1f3
 2302 041c A6030000 		.4byte	0x3a6
 2303 0420 1E030000 		.4byte	.LLST19
 2304 0424 10       		.uleb128 0x10
 2305 0425 5D030000 		.4byte	.LASF52
 2306 0429 01       		.byte	0x1
 2307 042a F501     		.2byte	0x1f5
 2308 042c 76000000 		.4byte	0x76
 2309 0430 3D030000 		.4byte	.LLST20
 2310 0434 10       		.uleb128 0x10
 2311 0435 51030000 		.4byte	.LASF39
 2312 0439 01       		.byte	0x1
 2313 043a F801     		.2byte	0x1f8
 2314 043c 9A020000 		.4byte	0x29a
 2315 0440 73030000 		.4byte	.LLST21
 2316 0444 0D       		.uleb128 0xd
 2317 0445 70455000 		.ascii	"pEP\000"
 2318 0449 01       		.byte	0x1
 2319 044a F901     		.2byte	0x1f9
 2320 044c 31030000 		.4byte	0x331
 2321 0450 93030000 		.4byte	.LLST22
 2322 0454 12       		.uleb128 0x12
 2323 0455 5A000000 		.4byte	.LVL51
 2324 0459 5F020000 		.4byte	0x25f
 2325 045d 12       		.uleb128 0x12
 2326 045e 8A010000 		.4byte	.LVL74
ARM GAS  C:\Users\Robert\AppData\Local\Temp\ccLuFIyc.s 			page 66


 2327 0462 52030000 		.4byte	0x352
 2328 0466 12       		.uleb128 0x12
 2329 0467 B2010000 		.4byte	.LVL81
 2330 046b 2B020000 		.4byte	0x22b
 2331 046f 00       		.byte	0
 2332 0470 0C       		.uleb128 0xc
 2333 0471 8A020000 		.4byte	.LASF53
 2334 0475 01       		.byte	0x1
 2335 0476 CE03     		.2byte	0x3ce
 2336 0478 00000000 		.4byte	.LFB7
 2337 047c 50000000 		.4byte	.LFE7-.LFB7
 2338 0480 01       		.uleb128 0x1
 2339 0481 9C       		.byte	0x9c
 2340 0482 A3040000 		.4byte	0x4a3
 2341 0486 14       		.uleb128 0x14
 2342 0487 657000   		.ascii	"ep\000"
 2343 048a 01       		.byte	0x1
 2344 048b CE03     		.2byte	0x3ce
 2345 048d 6B000000 		.4byte	0x6b
 2346 0491 C9030000 		.4byte	.LLST23
 2347 0495 15       		.uleb128 0x15
 2348 0496 726900   		.ascii	"ri\000"
 2349 0499 01       		.byte	0x1
 2350 049a D003     		.2byte	0x3d0
 2351 049c 6B000000 		.4byte	0x6b
 2352 04a0 01       		.uleb128 0x1
 2353 04a1 51       		.byte	0x51
 2354 04a2 00       		.byte	0
 2355 04a3 0E       		.uleb128 0xe
 2356 04a4 C7000000 		.4byte	.LASF54
 2357 04a8 01       		.byte	0x1
 2358 04a9 FD03     		.2byte	0x3fd
 2359 04ab 6B000000 		.4byte	0x6b
 2360 04af 00000000 		.4byte	.LFB8
 2361 04b3 60000000 		.4byte	.LFE8-.LFB8
 2362 04b7 01       		.uleb128 0x1
 2363 04b8 9C       		.byte	0x9c
 2364 04b9 F5040000 		.4byte	0x4f5
 2365 04bd 0D       		.uleb128 0xd
 2366 04be 657000   		.ascii	"ep\000"
 2367 04c1 01       		.byte	0x1
 2368 04c2 FF03     		.2byte	0x3ff
 2369 04c4 6B000000 		.4byte	0x6b
 2370 04c8 E7030000 		.4byte	.LLST24
 2371 04cc 0D       		.uleb128 0xd
 2372 04cd 726900   		.ascii	"ri\000"
 2373 04d0 01       		.byte	0x1
 2374 04d1 0004     		.2byte	0x400
 2375 04d3 6B000000 		.4byte	0x6b
 2376 04d7 05040000 		.4byte	.LLST25
 2377 04db 10       		.uleb128 0x10
 2378 04dc 27050000 		.4byte	.LASF55
 2379 04e0 01       		.byte	0x1
 2380 04e1 0104     		.2byte	0x401
 2381 04e3 6B000000 		.4byte	0x6b
 2382 04e7 2E040000 		.4byte	.LLST26
 2383 04eb 12       		.uleb128 0x12
ARM GAS  C:\Users\Robert\AppData\Local\Temp\ccLuFIyc.s 			page 67


 2384 04ec 4E000000 		.4byte	.LVL89
 2385 04f0 89080000 		.4byte	0x889
 2386 04f4 00       		.byte	0
 2387 04f5 0E       		.uleb128 0xe
 2388 04f6 36020000 		.4byte	.LASF56
 2389 04fa 01       		.byte	0x1
 2390 04fb 3404     		.2byte	0x434
 2391 04fd 6B000000 		.4byte	0x6b
 2392 0501 00000000 		.4byte	.LFB9
 2393 0505 A4000000 		.4byte	.LFE9-.LFB9
 2394 0509 01       		.uleb128 0x1
 2395 050a 9C       		.byte	0x9c
 2396 050b 47050000 		.4byte	0x547
 2397 050f 0D       		.uleb128 0xd
 2398 0510 657000   		.ascii	"ep\000"
 2399 0513 01       		.byte	0x1
 2400 0514 3604     		.2byte	0x436
 2401 0516 6B000000 		.4byte	0x6b
 2402 051a 64040000 		.4byte	.LLST27
 2403 051e 0D       		.uleb128 0xd
 2404 051f 726900   		.ascii	"ri\000"
 2405 0522 01       		.byte	0x1
 2406 0523 3704     		.2byte	0x437
 2407 0525 6B000000 		.4byte	0x6b
 2408 0529 8D040000 		.4byte	.LLST28
 2409 052d 10       		.uleb128 0x10
 2410 052e 27050000 		.4byte	.LASF55
 2411 0532 01       		.byte	0x1
 2412 0533 3804     		.2byte	0x438
 2413 0535 6B000000 		.4byte	0x6b
 2414 0539 AB040000 		.4byte	.LLST29
 2415 053d 12       		.uleb128 0x12
 2416 053e 8C000000 		.4byte	.LVL99
 2417 0542 89080000 		.4byte	0x889
 2418 0546 00       		.byte	0
 2419 0547 0E       		.uleb128 0xe
 2420 0548 CF060000 		.4byte	.LASF57
 2421 054c 01       		.byte	0x1
 2422 054d 7B04     		.2byte	0x47b
 2423 054f 6B000000 		.4byte	0x6b
 2424 0553 00000000 		.4byte	.LFB10
 2425 0557 50000000 		.4byte	.LFE10-.LFB10
 2426 055b 01       		.uleb128 0x1
 2427 055c 9C       		.byte	0x9c
 2428 055d AB050000 		.4byte	0x5ab
 2429 0561 10       		.uleb128 0x10
 2430 0562 27050000 		.4byte	.LASF55
 2431 0566 01       		.byte	0x1
 2432 0567 7D04     		.2byte	0x47d
 2433 0569 6B000000 		.4byte	0x6b
 2434 056d D6040000 		.4byte	.LLST30
 2435 0571 10       		.uleb128 0x10
 2436 0572 09040000 		.4byte	.LASF58
 2437 0576 01       		.byte	0x1
 2438 0577 7E04     		.2byte	0x47e
 2439 0579 6B000000 		.4byte	0x6b
 2440 057d F5040000 		.4byte	.LLST31
ARM GAS  C:\Users\Robert\AppData\Local\Temp\ccLuFIyc.s 			page 68


 2441 0581 10       		.uleb128 0x10
 2442 0582 51030000 		.4byte	.LASF39
 2443 0586 01       		.byte	0x1
 2444 0587 7F04     		.2byte	0x47f
 2445 0589 9A020000 		.4byte	0x29a
 2446 058d 08050000 		.4byte	.LLST32
 2447 0591 10       		.uleb128 0x10
 2448 0592 E0030000 		.4byte	.LASF47
 2449 0596 01       		.byte	0x1
 2450 0597 8004     		.2byte	0x480
 2451 0599 6B000000 		.4byte	0x6b
 2452 059d 31050000 		.4byte	.LLST33
 2453 05a1 12       		.uleb128 0x12
 2454 05a2 14000000 		.4byte	.LVL103
 2455 05a6 5F020000 		.4byte	0x25f
 2456 05aa 00       		.byte	0
 2457 05ab 16       		.uleb128 0x16
 2458 05ac 75050000 		.4byte	.LASF59
 2459 05b0 01       		.byte	0x1
 2460 05b1 58       		.byte	0x58
 2461 05b2 6B000000 		.4byte	0x6b
 2462 05b6 00000000 		.4byte	.LFB0
 2463 05ba 8C030000 		.4byte	.LFE0-.LFB0
 2464 05be 01       		.uleb128 0x1
 2465 05bf 9C       		.byte	0x9c
 2466 05c0 23070000 		.4byte	0x723
 2467 05c4 17       		.uleb128 0x17
 2468 05c5 27050000 		.4byte	.LASF55
 2469 05c9 01       		.byte	0x1
 2470 05ca 5A       		.byte	0x5a
 2471 05cb 6B000000 		.4byte	0x6b
 2472 05cf 5E050000 		.4byte	.LLST34
 2473 05d3 17       		.uleb128 0x17
 2474 05d4 B7000000 		.4byte	.LASF60
 2475 05d8 01       		.byte	0x1
 2476 05d9 5B       		.byte	0x5b
 2477 05da 6B000000 		.4byte	0x6b
 2478 05de 04070000 		.4byte	.LLST35
 2479 05e2 17       		.uleb128 0x17
 2480 05e3 27040000 		.4byte	.LASF61
 2481 05e7 01       		.byte	0x1
 2482 05e8 5C       		.byte	0x5c
 2483 05e9 6B000000 		.4byte	0x6b
 2484 05ed 17070000 		.4byte	.LLST36
 2485 05f1 17       		.uleb128 0x17
 2486 05f2 6A040000 		.4byte	.LASF62
 2487 05f6 01       		.byte	0x1
 2488 05f7 5E       		.byte	0x5e
 2489 05f8 E3010000 		.4byte	0x1e3
 2490 05fc 2A070000 		.4byte	.LLST37
 2491 0600 17       		.uleb128 0x17
 2492 0601 B3050000 		.4byte	.LASF63
 2493 0605 01       		.byte	0x1
 2494 0606 60       		.byte	0x60
 2495 0607 6B000000 		.4byte	0x6b
 2496 060b 83070000 		.4byte	.LLST38
 2497 060f 17       		.uleb128 0x17
ARM GAS  C:\Users\Robert\AppData\Local\Temp\ccLuFIyc.s 			page 69


 2498 0610 1C030000 		.4byte	.LASF64
 2499 0614 01       		.byte	0x1
 2500 0615 61       		.byte	0x61
 2501 0616 6B000000 		.4byte	0x6b
 2502 061a AC070000 		.4byte	.LLST39
 2503 061e 18       		.uleb128 0x18
 2504 061f 53040000 		.4byte	.LASF65
 2505 0623 01       		.byte	0x1
 2506 0624 64       		.byte	0x64
 2507 0625 33070000 		.4byte	0x733
 2508 0629 05       		.uleb128 0x5
 2509 062a 03       		.byte	0x3
 2510 062b 00000000 		.4byte	USB_Bootloader_tBuffer.5077
 2511 062f 17       		.uleb128 0x17
 2512 0630 51030000 		.4byte	.LASF39
 2513 0634 01       		.byte	0x1
 2514 0635 65       		.byte	0x65
 2515 0636 9A020000 		.4byte	0x29a
 2516 063a BF070000 		.4byte	.LLST40
 2517 063e 12       		.uleb128 0x12
 2518 063f 48000000 		.4byte	.LVL113
 2519 0643 3C030000 		.4byte	0x33c
 2520 0647 12       		.uleb128 0x12
 2521 0648 56000000 		.4byte	.LVL114
 2522 064c 94080000 		.4byte	0x894
 2523 0650 12       		.uleb128 0x12
 2524 0651 70000000 		.4byte	.LVL116
 2525 0655 5F020000 		.4byte	0x25f
 2526 0659 12       		.uleb128 0x12
 2527 065a 8E000000 		.4byte	.LVL117
 2528 065e 94080000 		.4byte	0x894
 2529 0662 12       		.uleb128 0x12
 2530 0663 F8000000 		.4byte	.LVL129
 2531 0667 94080000 		.4byte	0x894
 2532 066b 12       		.uleb128 0x12
 2533 066c FE000000 		.4byte	.LVL131
 2534 0670 9F080000 		.4byte	0x89f
 2535 0674 12       		.uleb128 0x12
 2536 0675 38010000 		.4byte	.LVL133
 2537 0679 94080000 		.4byte	0x894
 2538 067d 12       		.uleb128 0x12
 2539 067e 54010000 		.4byte	.LVL135
 2540 0682 94080000 		.4byte	0x894
 2541 0686 12       		.uleb128 0x12
 2542 0687 64010000 		.4byte	.LVL137
 2543 068b 94080000 		.4byte	0x894
 2544 068f 12       		.uleb128 0x12
 2545 0690 7A010000 		.4byte	.LVL139
 2546 0694 94080000 		.4byte	0x894
 2547 0698 12       		.uleb128 0x12
 2548 0699 B0010000 		.4byte	.LVL141
 2549 069d 89080000 		.4byte	0x889
 2550 06a1 19       		.uleb128 0x19
 2551 06a2 C4010000 		.4byte	.LVL144
 2552 06a6 5F020000 		.4byte	0x25f
 2553 06aa B5060000 		.4byte	0x6b5
 2554 06ae 1A       		.uleb128 0x1a
ARM GAS  C:\Users\Robert\AppData\Local\Temp\ccLuFIyc.s 			page 70


 2555 06af 01       		.uleb128 0x1
 2556 06b0 50       		.byte	0x50
 2557 06b1 02       		.uleb128 0x2
 2558 06b2 74       		.byte	0x74
 2559 06b3 7F       		.sleb128 -1
 2560 06b4 00       		.byte	0
 2561 06b5 19       		.uleb128 0x19
 2562 06b6 E6010000 		.4byte	.LVL146
 2563 06ba B1030000 		.4byte	0x3b1
 2564 06be C8060000 		.4byte	0x6c8
 2565 06c2 1A       		.uleb128 0x1a
 2566 06c3 01       		.uleb128 0x1
 2567 06c4 50       		.byte	0x50
 2568 06c5 01       		.uleb128 0x1
 2569 06c6 31       		.byte	0x31
 2570 06c7 00       		.byte	0
 2571 06c8 12       		.uleb128 0x12
 2572 06c9 EA010000 		.4byte	.LVL147
 2573 06cd 89080000 		.4byte	0x889
 2574 06d1 12       		.uleb128 0x12
 2575 06d2 F0010000 		.4byte	.LVL149
 2576 06d6 47050000 		.4byte	0x547
 2577 06da 12       		.uleb128 0x12
 2578 06db 0A020000 		.4byte	.LVL151
 2579 06df A5020000 		.4byte	0x2a5
 2580 06e3 12       		.uleb128 0x12
 2581 06e4 18020000 		.4byte	.LVL152
 2582 06e8 89080000 		.4byte	0x889
 2583 06ec 12       		.uleb128 0x12
 2584 06ed 44020000 		.4byte	.LVL154
 2585 06f1 F5040000 		.4byte	0x4f5
 2586 06f5 12       		.uleb128 0x12
 2587 06f6 60020000 		.4byte	.LVL156
 2588 06fa 89080000 		.4byte	0x889
 2589 06fe 12       		.uleb128 0x12
 2590 06ff D2020000 		.4byte	.LVL158
 2591 0703 89080000 		.4byte	0x889
 2592 0707 12       		.uleb128 0x12
 2593 0708 FA020000 		.4byte	.LVL160
 2594 070c A3040000 		.4byte	0x4a3
 2595 0710 12       		.uleb128 0x12
 2596 0711 14030000 		.4byte	.LVL162
 2597 0715 89080000 		.4byte	0x889
 2598 0719 12       		.uleb128 0x12
 2599 071a 38030000 		.4byte	.LVL164
 2600 071e 89080000 		.4byte	0x889
 2601 0722 00       		.byte	0
 2602 0723 1B       		.uleb128 0x1b
 2603 0724 6B000000 		.4byte	0x6b
 2604 0728 33070000 		.4byte	0x733
 2605 072c 1C       		.uleb128 0x1c
 2606 072d A7000000 		.4byte	0xa7
 2607 0731 01       		.byte	0x1
 2608 0732 00       		.byte	0
 2609 0733 06       		.uleb128 0x6
 2610 0734 23070000 		.4byte	0x723
 2611 0738 1D       		.uleb128 0x1d
ARM GAS  C:\Users\Robert\AppData\Local\Temp\ccLuFIyc.s 			page 71


 2612 0739 5E010000 		.4byte	.LASF66
 2613 073d 03       		.byte	0x3
 2614 073e 5202     		.2byte	0x252
 2615 0740 A2000000 		.4byte	0xa2
 2616 0744 1D       		.uleb128 0x1d
 2617 0745 AD040000 		.4byte	.LASF67
 2618 0749 03       		.byte	0x3
 2619 074a 5402     		.2byte	0x254
 2620 074c A2000000 		.4byte	0xa2
 2621 0750 1D       		.uleb128 0x1d
 2622 0751 6E030000 		.4byte	.LASF68
 2623 0755 03       		.byte	0x3
 2624 0756 5502     		.2byte	0x255
 2625 0758 A2000000 		.4byte	0xa2
 2626 075c 1D       		.uleb128 0x1d
 2627 075d 08020000 		.4byte	.LASF69
 2628 0761 03       		.byte	0x3
 2629 0762 5602     		.2byte	0x256
 2630 0764 A2000000 		.4byte	0xa2
 2631 0768 1B       		.uleb128 0x1b
 2632 0769 6B000000 		.4byte	0x6b
 2633 076d 78070000 		.4byte	0x778
 2634 0771 1C       		.uleb128 0x1c
 2635 0772 A7000000 		.4byte	0xa7
 2636 0776 11       		.byte	0x11
 2637 0777 00       		.byte	0
 2638 0778 1E       		.uleb128 0x1e
 2639 0779 74000000 		.4byte	.LASF70
 2640 077d 04       		.byte	0x4
 2641 077e 1C       		.byte	0x1c
 2642 077f 83070000 		.4byte	0x783
 2643 0783 11       		.uleb128 0x11
 2644 0784 68070000 		.4byte	0x768
 2645 0788 1B       		.uleb128 0x1b
 2646 0789 20020000 		.4byte	0x220
 2647 078d 98070000 		.4byte	0x798
 2648 0791 1C       		.uleb128 0x1c
 2649 0792 A7000000 		.4byte	0xa7
 2650 0796 00       		.byte	0
 2651 0797 00       		.byte	0
 2652 0798 1E       		.uleb128 0x1e
 2653 0799 60050000 		.4byte	.LASF71
 2654 079d 04       		.byte	0x4
 2655 079e 23       		.byte	0x23
 2656 079f A3070000 		.4byte	0x7a3
 2657 07a3 11       		.uleb128 0x11
 2658 07a4 88070000 		.4byte	0x788
 2659 07a8 1B       		.uleb128 0x1b
 2660 07a9 6B000000 		.4byte	0x6b
 2661 07ad B8070000 		.4byte	0x7b8
 2662 07b1 1C       		.uleb128 0x1c
 2663 07b2 A7000000 		.4byte	0xa7
 2664 07b6 09       		.byte	0x9
 2665 07b7 00       		.byte	0
 2666 07b8 1E       		.uleb128 0x1e
 2667 07b9 F7060000 		.4byte	.LASF72
 2668 07bd 04       		.byte	0x4
ARM GAS  C:\Users\Robert\AppData\Local\Temp\ccLuFIyc.s 			page 72


 2669 07be 24       		.byte	0x24
 2670 07bf C3070000 		.4byte	0x7c3
 2671 07c3 11       		.uleb128 0x11
 2672 07c4 A8070000 		.4byte	0x7a8
 2673 07c8 1B       		.uleb128 0x1b
 2674 07c9 6B000000 		.4byte	0x6b
 2675 07cd D8070000 		.4byte	0x7d8
 2676 07d1 1C       		.uleb128 0x1c
 2677 07d2 A7000000 		.4byte	0xa7
 2678 07d6 9C       		.byte	0x9c
 2679 07d7 00       		.byte	0
 2680 07d8 1E       		.uleb128 0x1e
 2681 07d9 52000000 		.4byte	.LASF73
 2682 07dd 04       		.byte	0x4
 2683 07de 25       		.byte	0x25
 2684 07df E3070000 		.4byte	0x7e3
 2685 07e3 11       		.uleb128 0x11
 2686 07e4 C8070000 		.4byte	0x7c8
 2687 07e8 1E       		.uleb128 0x1e
 2688 07e9 84010000 		.4byte	.LASF74
 2689 07ed 04       		.byte	0x4
 2690 07ee 32       		.byte	0x32
 2691 07ef F3070000 		.4byte	0x7f3
 2692 07f3 11       		.uleb128 0x11
 2693 07f4 68070000 		.4byte	0x768
 2694 07f8 1E       		.uleb128 0x1e
 2695 07f9 33000000 		.4byte	.LASF75
 2696 07fd 04       		.byte	0x4
 2697 07fe 38       		.byte	0x38
 2698 07ff A2000000 		.4byte	0xa2
 2699 0803 1B       		.uleb128 0x1b
 2700 0804 6B000000 		.4byte	0x6b
 2701 0808 13080000 		.4byte	0x813
 2702 080c 1C       		.uleb128 0x1c
 2703 080d A7000000 		.4byte	0xa7
 2704 0811 00       		.byte	0
 2705 0812 00       		.byte	0
 2706 0813 1E       		.uleb128 0x1e
 2707 0814 31030000 		.4byte	.LASF76
 2708 0818 04       		.byte	0x4
 2709 0819 39       		.byte	0x39
 2710 081a 1E080000 		.4byte	0x81e
 2711 081e 06       		.uleb128 0x6
 2712 081f 03080000 		.4byte	0x803
 2713 0823 1E       		.uleb128 0x1e
 2714 0824 BB030000 		.4byte	.LASF77
 2715 0828 04       		.byte	0x4
 2716 0829 3A       		.byte	0x3a
 2717 082a 2E080000 		.4byte	0x82e
 2718 082e 06       		.uleb128 0x6
 2719 082f 03080000 		.4byte	0x803
 2720 0833 1E       		.uleb128 0x1e
 2721 0834 36040000 		.4byte	.LASF78
 2722 0838 04       		.byte	0x4
 2723 0839 3B       		.byte	0x3b
 2724 083a A2000000 		.4byte	0xa2
 2725 083e 1E       		.uleb128 0x1e
ARM GAS  C:\Users\Robert\AppData\Local\Temp\ccLuFIyc.s 			page 73


 2726 083f 36050000 		.4byte	.LASF79
 2727 0843 04       		.byte	0x4
 2728 0844 3C       		.byte	0x3c
 2729 0845 49080000 		.4byte	0x849
 2730 0849 06       		.uleb128 0x6
 2731 084a 03080000 		.4byte	0x803
 2732 084e 1E       		.uleb128 0x1e
 2733 084f AC020000 		.4byte	.LASF80
 2734 0853 04       		.byte	0x4
 2735 0854 3D       		.byte	0x3d
 2736 0855 A6030000 		.4byte	0x3a6
 2737 0859 1B       		.uleb128 0x1b
 2738 085a 23010000 		.4byte	0x123
 2739 085e 69080000 		.4byte	0x869
 2740 0862 1C       		.uleb128 0x1c
 2741 0863 A7000000 		.4byte	0xa7
 2742 0867 08       		.byte	0x8
 2743 0868 00       		.byte	0
 2744 0869 1E       		.uleb128 0x1e
 2745 086a 75060000 		.4byte	.LASF81
 2746 086e 04       		.byte	0x4
 2747 086f 3F       		.byte	0x3f
 2748 0870 74080000 		.4byte	0x874
 2749 0874 06       		.uleb128 0x6
 2750 0875 59080000 		.4byte	0x859
 2751 0879 1E       		.uleb128 0x1e
 2752 087a CA040000 		.4byte	.LASF82
 2753 087e 04       		.byte	0x4
 2754 087f 40       		.byte	0x40
 2755 0880 84080000 		.4byte	0x884
 2756 0884 06       		.uleb128 0x6
 2757 0885 EF010000 		.4byte	0x1ef
 2758 0889 1F       		.uleb128 0x1f
 2759 088a 92030000 		.4byte	.LASF83
 2760 088e 04       		.byte	0x4
 2761 088f 6A       		.byte	0x6a
 2762 0890 6B000000 		.4byte	0x6b
 2763 0894 1F       		.uleb128 0x1f
 2764 0895 B0060000 		.4byte	.LASF84
 2765 0899 04       		.byte	0x4
 2766 089a 5D       		.byte	0x5d
 2767 089b 6B000000 		.4byte	0x6b
 2768 089f 1F       		.uleb128 0x1f
 2769 08a0 DA010000 		.4byte	.LASF85
 2770 08a4 04       		.byte	0x4
 2771 08a5 BF       		.byte	0xbf
 2772 08a6 6B000000 		.4byte	0x6b
 2773 08aa 00       		.byte	0
 2774              		.section	.debug_abbrev,"",%progbits
 2775              	.Ldebug_abbrev0:
 2776 0000 01       		.uleb128 0x1
 2777 0001 11       		.uleb128 0x11
 2778 0002 01       		.byte	0x1
 2779 0003 25       		.uleb128 0x25
 2780 0004 0E       		.uleb128 0xe
 2781 0005 13       		.uleb128 0x13
 2782 0006 0B       		.uleb128 0xb
ARM GAS  C:\Users\Robert\AppData\Local\Temp\ccLuFIyc.s 			page 74


 2783 0007 03       		.uleb128 0x3
 2784 0008 0E       		.uleb128 0xe
 2785 0009 1B       		.uleb128 0x1b
 2786 000a 0E       		.uleb128 0xe
 2787 000b 55       		.uleb128 0x55
 2788 000c 17       		.uleb128 0x17
 2789 000d 11       		.uleb128 0x11
 2790 000e 01       		.uleb128 0x1
 2791 000f 10       		.uleb128 0x10
 2792 0010 17       		.uleb128 0x17
 2793 0011 00       		.byte	0
 2794 0012 00       		.byte	0
 2795 0013 02       		.uleb128 0x2
 2796 0014 24       		.uleb128 0x24
 2797 0015 00       		.byte	0
 2798 0016 0B       		.uleb128 0xb
 2799 0017 0B       		.uleb128 0xb
 2800 0018 3E       		.uleb128 0x3e
 2801 0019 0B       		.uleb128 0xb
 2802 001a 03       		.uleb128 0x3
 2803 001b 0E       		.uleb128 0xe
 2804 001c 00       		.byte	0
 2805 001d 00       		.byte	0
 2806 001e 03       		.uleb128 0x3
 2807 001f 24       		.uleb128 0x24
 2808 0020 00       		.byte	0
 2809 0021 0B       		.uleb128 0xb
 2810 0022 0B       		.uleb128 0xb
 2811 0023 3E       		.uleb128 0x3e
 2812 0024 0B       		.uleb128 0xb
 2813 0025 03       		.uleb128 0x3
 2814 0026 08       		.uleb128 0x8
 2815 0027 00       		.byte	0
 2816 0028 00       		.byte	0
 2817 0029 04       		.uleb128 0x4
 2818 002a 16       		.uleb128 0x16
 2819 002b 00       		.byte	0
 2820 002c 03       		.uleb128 0x3
 2821 002d 0E       		.uleb128 0xe
 2822 002e 3A       		.uleb128 0x3a
 2823 002f 0B       		.uleb128 0xb
 2824 0030 3B       		.uleb128 0x3b
 2825 0031 0B       		.uleb128 0xb
 2826 0032 49       		.uleb128 0x49
 2827 0033 13       		.uleb128 0x13
 2828 0034 00       		.byte	0
 2829 0035 00       		.byte	0
 2830 0036 05       		.uleb128 0x5
 2831 0037 16       		.uleb128 0x16
 2832 0038 00       		.byte	0
 2833 0039 03       		.uleb128 0x3
 2834 003a 0E       		.uleb128 0xe
 2835 003b 3A       		.uleb128 0x3a
 2836 003c 0B       		.uleb128 0xb
 2837 003d 3B       		.uleb128 0x3b
 2838 003e 05       		.uleb128 0x5
 2839 003f 49       		.uleb128 0x49
ARM GAS  C:\Users\Robert\AppData\Local\Temp\ccLuFIyc.s 			page 75


 2840 0040 13       		.uleb128 0x13
 2841 0041 00       		.byte	0
 2842 0042 00       		.byte	0
 2843 0043 06       		.uleb128 0x6
 2844 0044 35       		.uleb128 0x35
 2845 0045 00       		.byte	0
 2846 0046 49       		.uleb128 0x49
 2847 0047 13       		.uleb128 0x13
 2848 0048 00       		.byte	0
 2849 0049 00       		.byte	0
 2850 004a 07       		.uleb128 0x7
 2851 004b 13       		.uleb128 0x13
 2852 004c 01       		.byte	0x1
 2853 004d 0B       		.uleb128 0xb
 2854 004e 0B       		.uleb128 0xb
 2855 004f 3A       		.uleb128 0x3a
 2856 0050 0B       		.uleb128 0xb
 2857 0051 3B       		.uleb128 0x3b
 2858 0052 0B       		.uleb128 0xb
 2859 0053 01       		.uleb128 0x1
 2860 0054 13       		.uleb128 0x13
 2861 0055 00       		.byte	0
 2862 0056 00       		.byte	0
 2863 0057 08       		.uleb128 0x8
 2864 0058 0D       		.uleb128 0xd
 2865 0059 00       		.byte	0
 2866 005a 03       		.uleb128 0x3
 2867 005b 0E       		.uleb128 0xe
 2868 005c 3A       		.uleb128 0x3a
 2869 005d 0B       		.uleb128 0xb
 2870 005e 3B       		.uleb128 0x3b
 2871 005f 0B       		.uleb128 0xb
 2872 0060 49       		.uleb128 0x49
 2873 0061 13       		.uleb128 0x13
 2874 0062 38       		.uleb128 0x38
 2875 0063 0B       		.uleb128 0xb
 2876 0064 00       		.byte	0
 2877 0065 00       		.byte	0
 2878 0066 09       		.uleb128 0x9
 2879 0067 0F       		.uleb128 0xf
 2880 0068 00       		.byte	0
 2881 0069 0B       		.uleb128 0xb
 2882 006a 0B       		.uleb128 0xb
 2883 006b 49       		.uleb128 0x49
 2884 006c 13       		.uleb128 0x13
 2885 006d 00       		.byte	0
 2886 006e 00       		.byte	0
 2887 006f 0A       		.uleb128 0xa
 2888 0070 0D       		.uleb128 0xd
 2889 0071 00       		.byte	0
 2890 0072 03       		.uleb128 0x3
 2891 0073 08       		.uleb128 0x8
 2892 0074 3A       		.uleb128 0x3a
 2893 0075 0B       		.uleb128 0xb
 2894 0076 3B       		.uleb128 0x3b
 2895 0077 0B       		.uleb128 0xb
 2896 0078 49       		.uleb128 0x49
ARM GAS  C:\Users\Robert\AppData\Local\Temp\ccLuFIyc.s 			page 76


 2897 0079 13       		.uleb128 0x13
 2898 007a 38       		.uleb128 0x38
 2899 007b 0B       		.uleb128 0xb
 2900 007c 00       		.byte	0
 2901 007d 00       		.byte	0
 2902 007e 0B       		.uleb128 0xb
 2903 007f 26       		.uleb128 0x26
 2904 0080 00       		.byte	0
 2905 0081 00       		.byte	0
 2906 0082 00       		.byte	0
 2907 0083 0C       		.uleb128 0xc
 2908 0084 2E       		.uleb128 0x2e
 2909 0085 01       		.byte	0x1
 2910 0086 3F       		.uleb128 0x3f
 2911 0087 19       		.uleb128 0x19
 2912 0088 03       		.uleb128 0x3
 2913 0089 0E       		.uleb128 0xe
 2914 008a 3A       		.uleb128 0x3a
 2915 008b 0B       		.uleb128 0xb
 2916 008c 3B       		.uleb128 0x3b
 2917 008d 05       		.uleb128 0x5
 2918 008e 27       		.uleb128 0x27
 2919 008f 19       		.uleb128 0x19
 2920 0090 11       		.uleb128 0x11
 2921 0091 01       		.uleb128 0x1
 2922 0092 12       		.uleb128 0x12
 2923 0093 06       		.uleb128 0x6
 2924 0094 40       		.uleb128 0x40
 2925 0095 18       		.uleb128 0x18
 2926 0096 9742     		.uleb128 0x2117
 2927 0098 19       		.uleb128 0x19
 2928 0099 01       		.uleb128 0x1
 2929 009a 13       		.uleb128 0x13
 2930 009b 00       		.byte	0
 2931 009c 00       		.byte	0
 2932 009d 0D       		.uleb128 0xd
 2933 009e 34       		.uleb128 0x34
 2934 009f 00       		.byte	0
 2935 00a0 03       		.uleb128 0x3
 2936 00a1 08       		.uleb128 0x8
 2937 00a2 3A       		.uleb128 0x3a
 2938 00a3 0B       		.uleb128 0xb
 2939 00a4 3B       		.uleb128 0x3b
 2940 00a5 05       		.uleb128 0x5
 2941 00a6 49       		.uleb128 0x49
 2942 00a7 13       		.uleb128 0x13
 2943 00a8 02       		.uleb128 0x2
 2944 00a9 17       		.uleb128 0x17
 2945 00aa 00       		.byte	0
 2946 00ab 00       		.byte	0
 2947 00ac 0E       		.uleb128 0xe
 2948 00ad 2E       		.uleb128 0x2e
 2949 00ae 01       		.byte	0x1
 2950 00af 3F       		.uleb128 0x3f
 2951 00b0 19       		.uleb128 0x19
 2952 00b1 03       		.uleb128 0x3
 2953 00b2 0E       		.uleb128 0xe
ARM GAS  C:\Users\Robert\AppData\Local\Temp\ccLuFIyc.s 			page 77


 2954 00b3 3A       		.uleb128 0x3a
 2955 00b4 0B       		.uleb128 0xb
 2956 00b5 3B       		.uleb128 0x3b
 2957 00b6 05       		.uleb128 0x5
 2958 00b7 27       		.uleb128 0x27
 2959 00b8 19       		.uleb128 0x19
 2960 00b9 49       		.uleb128 0x49
 2961 00ba 13       		.uleb128 0x13
 2962 00bb 11       		.uleb128 0x11
 2963 00bc 01       		.uleb128 0x1
 2964 00bd 12       		.uleb128 0x12
 2965 00be 06       		.uleb128 0x6
 2966 00bf 40       		.uleb128 0x40
 2967 00c0 18       		.uleb128 0x18
 2968 00c1 9742     		.uleb128 0x2117
 2969 00c3 19       		.uleb128 0x19
 2970 00c4 01       		.uleb128 0x1
 2971 00c5 13       		.uleb128 0x13
 2972 00c6 00       		.byte	0
 2973 00c7 00       		.byte	0
 2974 00c8 0F       		.uleb128 0xf
 2975 00c9 05       		.uleb128 0x5
 2976 00ca 00       		.byte	0
 2977 00cb 03       		.uleb128 0x3
 2978 00cc 0E       		.uleb128 0xe
 2979 00cd 3A       		.uleb128 0x3a
 2980 00ce 0B       		.uleb128 0xb
 2981 00cf 3B       		.uleb128 0x3b
 2982 00d0 05       		.uleb128 0x5
 2983 00d1 49       		.uleb128 0x49
 2984 00d2 13       		.uleb128 0x13
 2985 00d3 02       		.uleb128 0x2
 2986 00d4 17       		.uleb128 0x17
 2987 00d5 00       		.byte	0
 2988 00d6 00       		.byte	0
 2989 00d7 10       		.uleb128 0x10
 2990 00d8 34       		.uleb128 0x34
 2991 00d9 00       		.byte	0
 2992 00da 03       		.uleb128 0x3
 2993 00db 0E       		.uleb128 0xe
 2994 00dc 3A       		.uleb128 0x3a
 2995 00dd 0B       		.uleb128 0xb
 2996 00de 3B       		.uleb128 0x3b
 2997 00df 05       		.uleb128 0x5
 2998 00e0 49       		.uleb128 0x49
 2999 00e1 13       		.uleb128 0x13
 3000 00e2 02       		.uleb128 0x2
 3001 00e3 17       		.uleb128 0x17
 3002 00e4 00       		.byte	0
 3003 00e5 00       		.byte	0
 3004 00e6 11       		.uleb128 0x11
 3005 00e7 26       		.uleb128 0x26
 3006 00e8 00       		.byte	0
 3007 00e9 49       		.uleb128 0x49
 3008 00ea 13       		.uleb128 0x13
 3009 00eb 00       		.byte	0
 3010 00ec 00       		.byte	0
ARM GAS  C:\Users\Robert\AppData\Local\Temp\ccLuFIyc.s 			page 78


 3011 00ed 12       		.uleb128 0x12
 3012 00ee 898201   		.uleb128 0x4109
 3013 00f1 00       		.byte	0
 3014 00f2 11       		.uleb128 0x11
 3015 00f3 01       		.uleb128 0x1
 3016 00f4 31       		.uleb128 0x31
 3017 00f5 13       		.uleb128 0x13
 3018 00f6 00       		.byte	0
 3019 00f7 00       		.byte	0
 3020 00f8 13       		.uleb128 0x13
 3021 00f9 2E       		.uleb128 0x2e
 3022 00fa 00       		.byte	0
 3023 00fb 3F       		.uleb128 0x3f
 3024 00fc 19       		.uleb128 0x19
 3025 00fd 03       		.uleb128 0x3
 3026 00fe 0E       		.uleb128 0xe
 3027 00ff 3A       		.uleb128 0x3a
 3028 0100 0B       		.uleb128 0xb
 3029 0101 3B       		.uleb128 0x3b
 3030 0102 05       		.uleb128 0x5
 3031 0103 27       		.uleb128 0x27
 3032 0104 19       		.uleb128 0x19
 3033 0105 49       		.uleb128 0x49
 3034 0106 13       		.uleb128 0x13
 3035 0107 11       		.uleb128 0x11
 3036 0108 01       		.uleb128 0x1
 3037 0109 12       		.uleb128 0x12
 3038 010a 06       		.uleb128 0x6
 3039 010b 40       		.uleb128 0x40
 3040 010c 18       		.uleb128 0x18
 3041 010d 9742     		.uleb128 0x2117
 3042 010f 19       		.uleb128 0x19
 3043 0110 00       		.byte	0
 3044 0111 00       		.byte	0
 3045 0112 14       		.uleb128 0x14
 3046 0113 05       		.uleb128 0x5
 3047 0114 00       		.byte	0
 3048 0115 03       		.uleb128 0x3
 3049 0116 08       		.uleb128 0x8
 3050 0117 3A       		.uleb128 0x3a
 3051 0118 0B       		.uleb128 0xb
 3052 0119 3B       		.uleb128 0x3b
 3053 011a 05       		.uleb128 0x5
 3054 011b 49       		.uleb128 0x49
 3055 011c 13       		.uleb128 0x13
 3056 011d 02       		.uleb128 0x2
 3057 011e 17       		.uleb128 0x17
 3058 011f 00       		.byte	0
 3059 0120 00       		.byte	0
 3060 0121 15       		.uleb128 0x15
 3061 0122 34       		.uleb128 0x34
 3062 0123 00       		.byte	0
 3063 0124 03       		.uleb128 0x3
 3064 0125 08       		.uleb128 0x8
 3065 0126 3A       		.uleb128 0x3a
 3066 0127 0B       		.uleb128 0xb
 3067 0128 3B       		.uleb128 0x3b
ARM GAS  C:\Users\Robert\AppData\Local\Temp\ccLuFIyc.s 			page 79


 3068 0129 05       		.uleb128 0x5
 3069 012a 49       		.uleb128 0x49
 3070 012b 13       		.uleb128 0x13
 3071 012c 02       		.uleb128 0x2
 3072 012d 18       		.uleb128 0x18
 3073 012e 00       		.byte	0
 3074 012f 00       		.byte	0
 3075 0130 16       		.uleb128 0x16
 3076 0131 2E       		.uleb128 0x2e
 3077 0132 01       		.byte	0x1
 3078 0133 3F       		.uleb128 0x3f
 3079 0134 19       		.uleb128 0x19
 3080 0135 03       		.uleb128 0x3
 3081 0136 0E       		.uleb128 0xe
 3082 0137 3A       		.uleb128 0x3a
 3083 0138 0B       		.uleb128 0xb
 3084 0139 3B       		.uleb128 0x3b
 3085 013a 0B       		.uleb128 0xb
 3086 013b 27       		.uleb128 0x27
 3087 013c 19       		.uleb128 0x19
 3088 013d 49       		.uleb128 0x49
 3089 013e 13       		.uleb128 0x13
 3090 013f 11       		.uleb128 0x11
 3091 0140 01       		.uleb128 0x1
 3092 0141 12       		.uleb128 0x12
 3093 0142 06       		.uleb128 0x6
 3094 0143 40       		.uleb128 0x40
 3095 0144 18       		.uleb128 0x18
 3096 0145 9742     		.uleb128 0x2117
 3097 0147 19       		.uleb128 0x19
 3098 0148 01       		.uleb128 0x1
 3099 0149 13       		.uleb128 0x13
 3100 014a 00       		.byte	0
 3101 014b 00       		.byte	0
 3102 014c 17       		.uleb128 0x17
 3103 014d 34       		.uleb128 0x34
 3104 014e 00       		.byte	0
 3105 014f 03       		.uleb128 0x3
 3106 0150 0E       		.uleb128 0xe
 3107 0151 3A       		.uleb128 0x3a
 3108 0152 0B       		.uleb128 0xb
 3109 0153 3B       		.uleb128 0x3b
 3110 0154 0B       		.uleb128 0xb
 3111 0155 49       		.uleb128 0x49
 3112 0156 13       		.uleb128 0x13
 3113 0157 02       		.uleb128 0x2
 3114 0158 17       		.uleb128 0x17
 3115 0159 00       		.byte	0
 3116 015a 00       		.byte	0
 3117 015b 18       		.uleb128 0x18
 3118 015c 34       		.uleb128 0x34
 3119 015d 00       		.byte	0
 3120 015e 03       		.uleb128 0x3
 3121 015f 0E       		.uleb128 0xe
 3122 0160 3A       		.uleb128 0x3a
 3123 0161 0B       		.uleb128 0xb
 3124 0162 3B       		.uleb128 0x3b
ARM GAS  C:\Users\Robert\AppData\Local\Temp\ccLuFIyc.s 			page 80


 3125 0163 0B       		.uleb128 0xb
 3126 0164 49       		.uleb128 0x49
 3127 0165 13       		.uleb128 0x13
 3128 0166 02       		.uleb128 0x2
 3129 0167 18       		.uleb128 0x18
 3130 0168 00       		.byte	0
 3131 0169 00       		.byte	0
 3132 016a 19       		.uleb128 0x19
 3133 016b 898201   		.uleb128 0x4109
 3134 016e 01       		.byte	0x1
 3135 016f 11       		.uleb128 0x11
 3136 0170 01       		.uleb128 0x1
 3137 0171 31       		.uleb128 0x31
 3138 0172 13       		.uleb128 0x13
 3139 0173 01       		.uleb128 0x1
 3140 0174 13       		.uleb128 0x13
 3141 0175 00       		.byte	0
 3142 0176 00       		.byte	0
 3143 0177 1A       		.uleb128 0x1a
 3144 0178 8A8201   		.uleb128 0x410a
 3145 017b 00       		.byte	0
 3146 017c 02       		.uleb128 0x2
 3147 017d 18       		.uleb128 0x18
 3148 017e 9142     		.uleb128 0x2111
 3149 0180 18       		.uleb128 0x18
 3150 0181 00       		.byte	0
 3151 0182 00       		.byte	0
 3152 0183 1B       		.uleb128 0x1b
 3153 0184 01       		.uleb128 0x1
 3154 0185 01       		.byte	0x1
 3155 0186 49       		.uleb128 0x49
 3156 0187 13       		.uleb128 0x13
 3157 0188 01       		.uleb128 0x1
 3158 0189 13       		.uleb128 0x13
 3159 018a 00       		.byte	0
 3160 018b 00       		.byte	0
 3161 018c 1C       		.uleb128 0x1c
 3162 018d 21       		.uleb128 0x21
 3163 018e 00       		.byte	0
 3164 018f 49       		.uleb128 0x49
 3165 0190 13       		.uleb128 0x13
 3166 0191 2F       		.uleb128 0x2f
 3167 0192 0B       		.uleb128 0xb
 3168 0193 00       		.byte	0
 3169 0194 00       		.byte	0
 3170 0195 1D       		.uleb128 0x1d
 3171 0196 34       		.uleb128 0x34
 3172 0197 00       		.byte	0
 3173 0198 03       		.uleb128 0x3
 3174 0199 0E       		.uleb128 0xe
 3175 019a 3A       		.uleb128 0x3a
 3176 019b 0B       		.uleb128 0xb
 3177 019c 3B       		.uleb128 0x3b
 3178 019d 05       		.uleb128 0x5
 3179 019e 49       		.uleb128 0x49
 3180 019f 13       		.uleb128 0x13
 3181 01a0 3F       		.uleb128 0x3f
ARM GAS  C:\Users\Robert\AppData\Local\Temp\ccLuFIyc.s 			page 81


 3182 01a1 19       		.uleb128 0x19
 3183 01a2 3C       		.uleb128 0x3c
 3184 01a3 19       		.uleb128 0x19
 3185 01a4 00       		.byte	0
 3186 01a5 00       		.byte	0
 3187 01a6 1E       		.uleb128 0x1e
 3188 01a7 34       		.uleb128 0x34
 3189 01a8 00       		.byte	0
 3190 01a9 03       		.uleb128 0x3
 3191 01aa 0E       		.uleb128 0xe
 3192 01ab 3A       		.uleb128 0x3a
 3193 01ac 0B       		.uleb128 0xb
 3194 01ad 3B       		.uleb128 0x3b
 3195 01ae 0B       		.uleb128 0xb
 3196 01af 49       		.uleb128 0x49
 3197 01b0 13       		.uleb128 0x13
 3198 01b1 3F       		.uleb128 0x3f
 3199 01b2 19       		.uleb128 0x19
 3200 01b3 3C       		.uleb128 0x3c
 3201 01b4 19       		.uleb128 0x19
 3202 01b5 00       		.byte	0
 3203 01b6 00       		.byte	0
 3204 01b7 1F       		.uleb128 0x1f
 3205 01b8 2E       		.uleb128 0x2e
 3206 01b9 00       		.byte	0
 3207 01ba 3F       		.uleb128 0x3f
 3208 01bb 19       		.uleb128 0x19
 3209 01bc 03       		.uleb128 0x3
 3210 01bd 0E       		.uleb128 0xe
 3211 01be 3A       		.uleb128 0x3a
 3212 01bf 0B       		.uleb128 0xb
 3213 01c0 3B       		.uleb128 0x3b
 3214 01c1 0B       		.uleb128 0xb
 3215 01c2 27       		.uleb128 0x27
 3216 01c3 19       		.uleb128 0x19
 3217 01c4 49       		.uleb128 0x49
 3218 01c5 13       		.uleb128 0x13
 3219 01c6 3C       		.uleb128 0x3c
 3220 01c7 19       		.uleb128 0x19
 3221 01c8 00       		.byte	0
 3222 01c9 00       		.byte	0
 3223 01ca 00       		.byte	0
 3224              		.section	.debug_loc,"",%progbits
 3225              	.Ldebug_loc0:
 3226              	.LLST0:
 3227 0000 02000000 		.4byte	.LVL0
 3228 0004 08000000 		.4byte	.LVL1
 3229 0008 0200     		.2byte	0x2
 3230 000a 31       		.byte	0x31
 3231 000b 9F       		.byte	0x9f
 3232 000c 08000000 		.4byte	.LVL1
 3233 0010 A8000000 		.4byte	.LVL2
 3234 0014 0100     		.2byte	0x1
 3235 0016 50       		.byte	0x50
 3236 0017 AA000000 		.4byte	.LVL3
 3237 001b D4000000 		.4byte	.LFE1
 3238 001f 0100     		.2byte	0x1
ARM GAS  C:\Users\Robert\AppData\Local\Temp\ccLuFIyc.s 			page 82


 3239 0021 50       		.byte	0x50
 3240 0022 00000000 		.4byte	0
 3241 0026 00000000 		.4byte	0
 3242              	.LLST1:
 3243 002a 02000000 		.4byte	.LVL0
 3244 002e 08000000 		.4byte	.LVL1
 3245 0032 0200     		.2byte	0x2
 3246 0034 30       		.byte	0x30
 3247 0035 9F       		.byte	0x9f
 3248 0036 08000000 		.4byte	.LVL1
 3249 003a AC000000 		.4byte	.LVL4
 3250 003e 0100     		.2byte	0x1
 3251 0040 54       		.byte	0x54
 3252 0041 AE000000 		.4byte	.LVL5
 3253 0045 BC000000 		.4byte	.LVL6
 3254 0049 0100     		.2byte	0x1
 3255 004b 54       		.byte	0x54
 3256 004c 00000000 		.4byte	0
 3257 0050 00000000 		.4byte	0
 3258              	.LLST2:
 3259 0054 00000000 		.4byte	.LVL7
 3260 0058 18000000 		.4byte	.LVL10
 3261 005c 0100     		.2byte	0x1
 3262 005e 50       		.byte	0x50
 3263 005f 18000000 		.4byte	.LVL10
 3264 0063 1A000000 		.4byte	.LVL11
 3265 0067 0400     		.2byte	0x4
 3266 0069 F3       		.byte	0xf3
 3267 006a 01       		.uleb128 0x1
 3268 006b 50       		.byte	0x50
 3269 006c 9F       		.byte	0x9f
 3270 006d 1A000000 		.4byte	.LVL11
 3271 0071 1C000000 		.4byte	.LVL12
 3272 0075 0100     		.2byte	0x1
 3273 0077 50       		.byte	0x50
 3274 0078 1C000000 		.4byte	.LVL12
 3275 007c 28000000 		.4byte	.LFE4
 3276 0080 0400     		.2byte	0x4
 3277 0082 F3       		.byte	0xf3
 3278 0083 01       		.uleb128 0x1
 3279 0084 50       		.byte	0x50
 3280 0085 9F       		.byte	0x9f
 3281 0086 00000000 		.4byte	0
 3282 008a 00000000 		.4byte	0
 3283              	.LLST3:
 3284 008e 0C000000 		.4byte	.LVL8
 3285 0092 16000000 		.4byte	.LVL9
 3286 0096 0300     		.2byte	0x3
 3287 0098 73       		.byte	0x73
 3288 0099 08       		.sleb128 8
 3289 009a 9F       		.byte	0x9f
 3290 009b 18000000 		.4byte	.LVL10
 3291 009f 1A000000 		.4byte	.LVL11
 3292 00a3 0100     		.2byte	0x1
 3293 00a5 50       		.byte	0x50
 3294 00a6 1A000000 		.4byte	.LVL11
 3295 00aa 1C000000 		.4byte	.LVL12
ARM GAS  C:\Users\Robert\AppData\Local\Temp\ccLuFIyc.s 			page 83


 3296 00ae 0300     		.2byte	0x3
 3297 00b0 73       		.byte	0x73
 3298 00b1 08       		.sleb128 8
 3299 00b2 9F       		.byte	0x9f
 3300 00b3 1C000000 		.4byte	.LVL12
 3301 00b7 28000000 		.4byte	.LFE4
 3302 00bb 0100     		.2byte	0x1
 3303 00bd 50       		.byte	0x50
 3304 00be 00000000 		.4byte	0
 3305 00c2 00000000 		.4byte	0
 3306              	.LLST4:
 3307 00c6 1C000000 		.4byte	.LVL14
 3308 00ca 32010000 		.4byte	.LVL32
 3309 00ce 0100     		.2byte	0x1
 3310 00d0 55       		.byte	0x55
 3311 00d1 00000000 		.4byte	0
 3312 00d5 00000000 		.4byte	0
 3313              	.LLST5:
 3314 00d9 4E000000 		.4byte	.LVL17
 3315 00dd 18010000 		.4byte	.LVL27
 3316 00e1 0100     		.2byte	0x1
 3317 00e3 52       		.byte	0x52
 3318 00e4 00000000 		.4byte	0
 3319 00e8 00000000 		.4byte	0
 3320              	.LLST6:
 3321 00ec 1E000000 		.4byte	.LVL15
 3322 00f0 22000000 		.4byte	.LVL16
 3323 00f4 0200     		.2byte	0x2
 3324 00f6 30       		.byte	0x30
 3325 00f7 9F       		.byte	0x9f
 3326 00f8 22000000 		.4byte	.LVL16
 3327 00fc 2A010000 		.4byte	.LVL30
 3328 0100 0100     		.2byte	0x1
 3329 0102 53       		.byte	0x53
 3330 0103 2C010000 		.4byte	.LVL31
 3331 0107 32010000 		.4byte	.LVL32
 3332 010b 0100     		.2byte	0x1
 3333 010d 53       		.byte	0x53
 3334 010e 00000000 		.4byte	0
 3335 0112 00000000 		.4byte	0
 3336              	.LLST7:
 3337 0116 5A000000 		.4byte	.LVL19
 3338 011a 74000000 		.4byte	.LVL20
 3339 011e 0100     		.2byte	0x1
 3340 0120 56       		.byte	0x56
 3341 0121 76000000 		.4byte	.LVL21
 3342 0125 78000000 		.4byte	.LVL22
 3343 0129 0100     		.2byte	0x1
 3344 012b 56       		.byte	0x56
 3345 012c 86000000 		.4byte	.LVL23
 3346 0130 9A000000 		.4byte	.LVL24
 3347 0134 0100     		.2byte	0x1
 3348 0136 56       		.byte	0x56
 3349 0137 9C000000 		.4byte	.LVL25
 3350 013b 9E000000 		.4byte	.LVL26
 3351 013f 0100     		.2byte	0x1
 3352 0141 56       		.byte	0x56
ARM GAS  C:\Users\Robert\AppData\Local\Temp\ccLuFIyc.s 			page 84


 3353 0142 00000000 		.4byte	0
 3354 0146 00000000 		.4byte	0
 3355              	.LLST8:
 3356 014a 54000000 		.4byte	.LVL18
 3357 014e 26010000 		.4byte	.LVL28
 3358 0152 0100     		.2byte	0x1
 3359 0154 51       		.byte	0x51
 3360 0155 00000000 		.4byte	0
 3361 0159 00000000 		.4byte	0
 3362              	.LLST9:
 3363 015d 1A000000 		.4byte	.LVL13
 3364 0161 1E000000 		.4byte	.LVL15
 3365 0165 0300     		.2byte	0x3
 3366 0167 70       		.byte	0x70
 3367 0168 08       		.sleb128 8
 3368 0169 9F       		.byte	0x9f
 3369 016a 00000000 		.4byte	0
 3370 016e 00000000 		.4byte	0
 3371              	.LLST10:
 3372 0172 1E000000 		.4byte	.LVL15
 3373 0176 32010000 		.4byte	.LVL32
 3374 017a 0100     		.2byte	0x1
 3375 017c 50       		.byte	0x50
 3376 017d 00000000 		.4byte	0
 3377 0181 00000000 		.4byte	0
 3378              	.LLST11:
 3379 0185 0E000000 		.4byte	.LVL33
 3380 0189 18000000 		.4byte	.LVL35
 3381 018d 0100     		.2byte	0x1
 3382 018f 50       		.byte	0x50
 3383 0190 18000000 		.4byte	.LVL35
 3384 0194 1A000000 		.4byte	.LVL36
 3385 0198 0800     		.2byte	0x8
 3386 019a 72       		.byte	0x72
 3387 019b 02       		.sleb128 2
 3388 019c 33       		.byte	0x33
 3389 019d 24       		.byte	0x24
 3390 019e 70       		.byte	0x70
 3391 019f 00       		.sleb128 0
 3392 01a0 22       		.byte	0x22
 3393 01a1 9F       		.byte	0x9f
 3394 01a2 1C000000 		.4byte	.LVL37
 3395 01a6 1E000000 		.4byte	.LVL38
 3396 01aa 0100     		.2byte	0x1
 3397 01ac 50       		.byte	0x50
 3398 01ad 00000000 		.4byte	0
 3399 01b1 00000000 		.4byte	0
 3400              	.LLST12:
 3401 01b5 1A000000 		.4byte	.LVL36
 3402 01b9 1C000000 		.4byte	.LVL37
 3403 01bd 0100     		.2byte	0x1
 3404 01bf 50       		.byte	0x50
 3405 01c0 1E000000 		.4byte	.LVL38
 3406 01c4 24000000 		.4byte	.LFE6
 3407 01c8 0100     		.2byte	0x1
 3408 01ca 50       		.byte	0x50
 3409 01cb 00000000 		.4byte	0
ARM GAS  C:\Users\Robert\AppData\Local\Temp\ccLuFIyc.s 			page 85


 3410 01cf 00000000 		.4byte	0
 3411              	.LLST13:
 3412 01d3 14000000 		.4byte	.LVL34
 3413 01d7 1C000000 		.4byte	.LVL37
 3414 01db 0100     		.2byte	0x1
 3415 01dd 52       		.byte	0x52
 3416 01de 00000000 		.4byte	0
 3417 01e2 00000000 		.4byte	0
 3418              	.LLST14:
 3419 01e6 00000000 		.4byte	.LVL39
 3420 01ea 52000000 		.4byte	.LVL50
 3421 01ee 0100     		.2byte	0x1
 3422 01f0 50       		.byte	0x50
 3423 01f1 52000000 		.4byte	.LVL50
 3424 01f5 D0010000 		.4byte	.LFE2
 3425 01f9 0400     		.2byte	0x4
 3426 01fb F3       		.byte	0xf3
 3427 01fc 01       		.uleb128 0x1
 3428 01fd 50       		.byte	0x50
 3429 01fe 9F       		.byte	0x9f
 3430 01ff 00000000 		.4byte	0
 3431 0203 00000000 		.4byte	0
 3432              	.LLST15:
 3433 0207 02000000 		.4byte	.LVL40
 3434 020b 06000000 		.4byte	.LVL41
 3435 020f 0200     		.2byte	0x2
 3436 0211 30       		.byte	0x30
 3437 0212 9F       		.byte	0x9f
 3438 0213 06000000 		.4byte	.LVL41
 3439 0217 22000000 		.4byte	.LVL42
 3440 021b 0100     		.2byte	0x1
 3441 021d 52       		.byte	0x52
 3442 021e 24000000 		.4byte	.LVL43
 3443 0222 2C000000 		.4byte	.LVL44
 3444 0226 0100     		.2byte	0x1
 3445 0228 52       		.byte	0x52
 3446 0229 3C000000 		.4byte	.LVL47
 3447 022d 3E000000 		.4byte	.LVL48
 3448 0231 0100     		.2byte	0x1
 3449 0233 52       		.byte	0x52
 3450 0234 7C000000 		.4byte	.LVL55
 3451 0238 8E010000 		.4byte	.LVL75
 3452 023c 0100     		.2byte	0x1
 3453 023e 55       		.byte	0x55
 3454 023f 8E010000 		.4byte	.LVL75
 3455 0243 94010000 		.4byte	.LVL76
 3456 0247 0200     		.2byte	0x2
 3457 0249 31       		.byte	0x31
 3458 024a 9F       		.byte	0x9f
 3459 024b 94010000 		.4byte	.LVL76
 3460 024f A8010000 		.4byte	.LVL79
 3461 0253 0100     		.2byte	0x1
 3462 0255 52       		.byte	0x52
 3463 0256 AA010000 		.4byte	.LVL80
 3464 025a B1010000 		.4byte	.LVL81-1
 3465 025e 0100     		.2byte	0x1
 3466 0260 52       		.byte	0x52
ARM GAS  C:\Users\Robert\AppData\Local\Temp\ccLuFIyc.s 			page 86


 3467 0261 00000000 		.4byte	0
 3468 0265 00000000 		.4byte	0
 3469              	.LLST16:
 3470 0269 82000000 		.4byte	.LVL57
 3471 026d 86000000 		.4byte	.LVL58
 3472 0271 0200     		.2byte	0x2
 3473 0273 30       		.byte	0x30
 3474 0274 9F       		.byte	0x9f
 3475 0275 86000000 		.4byte	.LVL58
 3476 0279 54010000 		.4byte	.LVL64
 3477 027d 0100     		.2byte	0x1
 3478 027f 53       		.byte	0x53
 3479 0280 56010000 		.4byte	.LVL65
 3480 0284 5E010000 		.4byte	.LVL67
 3481 0288 0100     		.2byte	0x1
 3482 028a 53       		.byte	0x53
 3483 028b 00000000 		.4byte	0
 3484 028f 00000000 		.4byte	0
 3485              	.LLST17:
 3486 0293 2C000000 		.4byte	.LVL44
 3487 0297 38000000 		.4byte	.LVL45
 3488 029b 0100     		.2byte	0x1
 3489 029d 53       		.byte	0x53
 3490 029e 3A000000 		.4byte	.LVL46
 3491 02a2 3C000000 		.4byte	.LVL47
 3492 02a6 0100     		.2byte	0x1
 3493 02a8 53       		.byte	0x53
 3494 02a9 3E000000 		.4byte	.LVL48
 3495 02ad 42000000 		.4byte	.LVL49
 3496 02b1 0100     		.2byte	0x1
 3497 02b3 53       		.byte	0x53
 3498 02b4 7C000000 		.4byte	.LVL55
 3499 02b8 80000000 		.4byte	.LVL56
 3500 02bc 0200     		.2byte	0x2
 3501 02be 31       		.byte	0x31
 3502 02bf 9F       		.byte	0x9f
 3503 02c0 80000000 		.4byte	.LVL56
 3504 02c4 5C010000 		.4byte	.LVL66
 3505 02c8 0100     		.2byte	0x1
 3506 02ca 54       		.byte	0x54
 3507 02cb 5E010000 		.4byte	.LVL67
 3508 02cf 64010000 		.4byte	.LVL68
 3509 02d3 0100     		.2byte	0x1
 3510 02d5 54       		.byte	0x54
 3511 02d6 64010000 		.4byte	.LVL68
 3512 02da 68010000 		.4byte	.LVL69
 3513 02de 0200     		.2byte	0x2
 3514 02e0 30       		.byte	0x30
 3515 02e1 9F       		.byte	0x9f
 3516 02e2 68010000 		.4byte	.LVL69
 3517 02e6 80010000 		.4byte	.LVL72
 3518 02ea 0100     		.2byte	0x1
 3519 02ec 52       		.byte	0x52
 3520 02ed 82010000 		.4byte	.LVL73
 3521 02f1 89010000 		.4byte	.LVL74-1
 3522 02f5 0100     		.2byte	0x1
 3523 02f7 52       		.byte	0x52
ARM GAS  C:\Users\Robert\AppData\Local\Temp\ccLuFIyc.s 			page 87


 3524 02f8 00000000 		.4byte	0
 3525 02fc 00000000 		.4byte	0
 3526              	.LLST18:
 3527 0300 C8000000 		.4byte	.LVL59
 3528 0304 FA000000 		.4byte	.LVL60
 3529 0308 0100     		.2byte	0x1
 3530 030a 57       		.byte	0x57
 3531 030b 02010000 		.4byte	.LVL61
 3532 030f 2C010000 		.4byte	.LVL62
 3533 0313 0100     		.2byte	0x1
 3534 0315 57       		.byte	0x57
 3535 0316 00000000 		.4byte	0
 3536 031a 00000000 		.4byte	0
 3537              	.LLST19:
 3538 031e 5C000000 		.4byte	.LVL52
 3539 0322 5E000000 		.4byte	.LVL53
 3540 0326 0100     		.2byte	0x1
 3541 0328 53       		.byte	0x53
 3542 0329 5E000000 		.4byte	.LVL53
 3543 032d 80000000 		.4byte	.LVL56
 3544 0331 0200     		.2byte	0x2
 3545 0333 70       		.byte	0x70
 3546 0334 04       		.sleb128 4
 3547 0335 00000000 		.4byte	0
 3548 0339 00000000 		.4byte	0
 3549              	.LLST20:
 3550 033d 02000000 		.4byte	.LVL40
 3551 0341 94010000 		.4byte	.LVL76
 3552 0345 0200     		.2byte	0x2
 3553 0347 30       		.byte	0x30
 3554 0348 9F       		.byte	0x9f
 3555 0349 94010000 		.4byte	.LVL76
 3556 034d A4010000 		.4byte	.LVL77
 3557 0351 0100     		.2byte	0x1
 3558 0353 50       		.byte	0x50
 3559 0354 A4010000 		.4byte	.LVL77
 3560 0358 A6010000 		.4byte	.LVL78
 3561 035c 0200     		.2byte	0x2
 3562 035e 71       		.byte	0x71
 3563 035f 06       		.sleb128 6
 3564 0360 A6010000 		.4byte	.LVL78
 3565 0364 B1010000 		.4byte	.LVL81-1
 3566 0368 0100     		.2byte	0x1
 3567 036a 50       		.byte	0x50
 3568 036b 00000000 		.4byte	0
 3569 036f 00000000 		.4byte	0
 3570              	.LLST21:
 3571 0373 5A000000 		.4byte	.LVL51
 3572 0377 7A000000 		.4byte	.LVL54
 3573 037b 0100     		.2byte	0x1
 3574 037d 50       		.byte	0x50
 3575 037e 7A000000 		.4byte	.LVL54
 3576 0382 64010000 		.4byte	.LVL68
 3577 0386 0300     		.2byte	0x3
 3578 0388 70       		.byte	0x70
 3579 0389 08       		.sleb128 8
 3580 038a 9F       		.byte	0x9f
ARM GAS  C:\Users\Robert\AppData\Local\Temp\ccLuFIyc.s 			page 88


 3581 038b 00000000 		.4byte	0
 3582 038f 00000000 		.4byte	0
 3583              	.LLST22:
 3584 0393 82000000 		.4byte	.LVL57
 3585 0397 5E010000 		.4byte	.LVL67
 3586 039b 0100     		.2byte	0x1
 3587 039d 51       		.byte	0x51
 3588 039e 64010000 		.4byte	.LVL68
 3589 03a2 72010000 		.4byte	.LVL70
 3590 03a6 0100     		.2byte	0x1
 3591 03a8 50       		.byte	0x50
 3592 03a9 72010000 		.4byte	.LVL70
 3593 03ad 7E010000 		.4byte	.LVL71
 3594 03b1 0300     		.2byte	0x3
 3595 03b3 70       		.byte	0x70
 3596 03b4 78       		.sleb128 -8
 3597 03b5 9F       		.byte	0x9f
 3598 03b6 7E010000 		.4byte	.LVL71
 3599 03ba 89010000 		.4byte	.LVL74-1
 3600 03be 0100     		.2byte	0x1
 3601 03c0 50       		.byte	0x50
 3602 03c1 00000000 		.4byte	0
 3603 03c5 00000000 		.4byte	0
 3604              	.LLST23:
 3605 03c9 00000000 		.4byte	.LVL82
 3606 03cd 04000000 		.4byte	.LVL83
 3607 03d1 0100     		.2byte	0x1
 3608 03d3 50       		.byte	0x50
 3609 03d4 04000000 		.4byte	.LVL83
 3610 03d8 50000000 		.4byte	.LFE7
 3611 03dc 0100     		.2byte	0x1
 3612 03de 50       		.byte	0x50
 3613 03df 00000000 		.4byte	0
 3614 03e3 00000000 		.4byte	0
 3615              	.LLST24:
 3616 03e7 0A000000 		.4byte	.LVL86
 3617 03eb 36000000 		.4byte	.LVL88
 3618 03ef 0100     		.2byte	0x1
 3619 03f1 53       		.byte	0x53
 3620 03f2 50000000 		.4byte	.LVL90
 3621 03f6 54000000 		.4byte	.LVL92
 3622 03fa 0100     		.2byte	0x1
 3623 03fc 53       		.byte	0x53
 3624 03fd 00000000 		.4byte	0
 3625 0401 00000000 		.4byte	0
 3626              	.LLST25:
 3627 0405 12000000 		.4byte	.LVL87
 3628 0409 4D000000 		.4byte	.LVL89-1
 3629 040d 0100     		.2byte	0x1
 3630 040f 50       		.byte	0x50
 3631 0410 50000000 		.4byte	.LVL90
 3632 0414 52000000 		.4byte	.LVL91
 3633 0418 0100     		.2byte	0x1
 3634 041a 50       		.byte	0x50
 3635 041b 52000000 		.4byte	.LVL91
 3636 041f 60000000 		.4byte	.LFE8
 3637 0423 0100     		.2byte	0x1
ARM GAS  C:\Users\Robert\AppData\Local\Temp\ccLuFIyc.s 			page 89


 3638 0425 51       		.byte	0x51
 3639 0426 00000000 		.4byte	0
 3640 042a 00000000 		.4byte	0
 3641              	.LLST26:
 3642 042e 02000000 		.4byte	.LVL85
 3643 0432 4E000000 		.4byte	.LVL89
 3644 0436 0200     		.2byte	0x2
 3645 0438 30       		.byte	0x30
 3646 0439 9F       		.byte	0x9f
 3647 043a 4E000000 		.4byte	.LVL89
 3648 043e 50000000 		.4byte	.LVL90
 3649 0442 0100     		.2byte	0x1
 3650 0444 50       		.byte	0x50
 3651 0445 50000000 		.4byte	.LVL90
 3652 0449 52000000 		.4byte	.LVL91
 3653 044d 0200     		.2byte	0x2
 3654 044f 30       		.byte	0x30
 3655 0450 9F       		.byte	0x9f
 3656 0451 52000000 		.4byte	.LVL91
 3657 0455 60000000 		.4byte	.LFE8
 3658 0459 0100     		.2byte	0x1
 3659 045b 50       		.byte	0x50
 3660 045c 00000000 		.4byte	0
 3661 0460 00000000 		.4byte	0
 3662              	.LLST27:
 3663 0464 08000000 		.4byte	.LVL94
 3664 0468 4A000000 		.4byte	.LVL96
 3665 046c 0100     		.2byte	0x1
 3666 046e 53       		.byte	0x53
 3667 046f 68000000 		.4byte	.LVL97
 3668 0473 6C000000 		.4byte	.LVL98
 3669 0477 0100     		.2byte	0x1
 3670 0479 53       		.byte	0x53
 3671 047a 8E000000 		.4byte	.LVL100
 3672 047e A4000000 		.4byte	.LFE9
 3673 0482 0100     		.2byte	0x1
 3674 0484 53       		.byte	0x53
 3675 0485 00000000 		.4byte	0
 3676 0489 00000000 		.4byte	0
 3677              	.LLST28:
 3678 048d 10000000 		.4byte	.LVL95
 3679 0491 8B000000 		.4byte	.LVL99-1
 3680 0495 0100     		.2byte	0x1
 3681 0497 51       		.byte	0x51
 3682 0498 8E000000 		.4byte	.LVL100
 3683 049c A4000000 		.4byte	.LFE9
 3684 04a0 0100     		.2byte	0x1
 3685 04a2 51       		.byte	0x51
 3686 04a3 00000000 		.4byte	0
 3687 04a7 00000000 		.4byte	0
 3688              	.LLST29:
 3689 04ab 00000000 		.4byte	.LVL93
 3690 04af 8C000000 		.4byte	.LVL99
 3691 04b3 0200     		.2byte	0x2
 3692 04b5 30       		.byte	0x30
 3693 04b6 9F       		.byte	0x9f
 3694 04b7 8C000000 		.4byte	.LVL99
ARM GAS  C:\Users\Robert\AppData\Local\Temp\ccLuFIyc.s 			page 90


 3695 04bb 8E000000 		.4byte	.LVL100
 3696 04bf 0100     		.2byte	0x1
 3697 04c1 50       		.byte	0x50
 3698 04c2 8E000000 		.4byte	.LVL100
 3699 04c6 A4000000 		.4byte	.LFE9
 3700 04ca 0200     		.2byte	0x2
 3701 04cc 30       		.byte	0x30
 3702 04cd 9F       		.byte	0x9f
 3703 04ce 00000000 		.4byte	0
 3704 04d2 00000000 		.4byte	0
 3705              	.LLST30:
 3706 04d6 02000000 		.4byte	.LVL101
 3707 04da 3A000000 		.4byte	.LVL110
 3708 04de 0200     		.2byte	0x2
 3709 04e0 31       		.byte	0x31
 3710 04e1 9F       		.byte	0x9f
 3711 04e2 3A000000 		.4byte	.LVL110
 3712 04e6 50000000 		.4byte	.LFE10
 3713 04ea 0100     		.2byte	0x1
 3714 04ec 50       		.byte	0x50
 3715 04ed 00000000 		.4byte	0
 3716 04f1 00000000 		.4byte	0
 3717              	.LLST31:
 3718 04f5 08000000 		.4byte	.LVL102
 3719 04f9 3C000000 		.4byte	.LVL111
 3720 04fd 0100     		.2byte	0x1
 3721 04ff 54       		.byte	0x54
 3722 0500 00000000 		.4byte	0
 3723 0504 00000000 		.4byte	0
 3724              	.LLST32:
 3725 0508 14000000 		.4byte	.LVL103
 3726 050c 32000000 		.4byte	.LVL106
 3727 0510 0100     		.2byte	0x1
 3728 0512 50       		.byte	0x50
 3729 0513 34000000 		.4byte	.LVL107
 3730 0517 36000000 		.4byte	.LVL108
 3731 051b 0100     		.2byte	0x1
 3732 051d 50       		.byte	0x50
 3733 051e 38000000 		.4byte	.LVL109
 3734 0522 3A000000 		.4byte	.LVL110
 3735 0526 0100     		.2byte	0x1
 3736 0528 50       		.byte	0x50
 3737 0529 00000000 		.4byte	0
 3738 052d 00000000 		.4byte	0
 3739              	.LLST33:
 3740 0531 18000000 		.4byte	.LVL104
 3741 0535 22000000 		.4byte	.LVL105
 3742 0539 0100     		.2byte	0x1
 3743 053b 53       		.byte	0x53
 3744 053c 22000000 		.4byte	.LVL105
 3745 0540 32000000 		.4byte	.LVL106
 3746 0544 0500     		.2byte	0x5
 3747 0546 70       		.byte	0x70
 3748 0547 04       		.sleb128 4
 3749 0548 06       		.byte	0x6
 3750 0549 23       		.byte	0x23
 3751 054a 04       		.uleb128 0x4
ARM GAS  C:\Users\Robert\AppData\Local\Temp\ccLuFIyc.s 			page 91


 3752 054b 34000000 		.4byte	.LVL107
 3753 054f 50000000 		.4byte	.LFE10
 3754 0553 0100     		.2byte	0x1
 3755 0555 53       		.byte	0x53
 3756 0556 00000000 		.4byte	0
 3757 055a 00000000 		.4byte	0
 3758              	.LLST34:
 3759 055e 02000000 		.4byte	.LVL112
 3760 0562 56000000 		.4byte	.LVL114
 3761 0566 0200     		.2byte	0x2
 3762 0568 30       		.byte	0x30
 3763 0569 9F       		.byte	0x9f
 3764 056a 56000000 		.4byte	.LVL114
 3765 056e 58000000 		.4byte	.LVL115
 3766 0572 0100     		.2byte	0x1
 3767 0574 50       		.byte	0x50
 3768 0575 58000000 		.4byte	.LVL115
 3769 0579 8E000000 		.4byte	.LVL117
 3770 057d 0200     		.2byte	0x2
 3771 057f 30       		.byte	0x30
 3772 0580 9F       		.byte	0x9f
 3773 0581 8E000000 		.4byte	.LVL117
 3774 0585 90000000 		.4byte	.LVL118
 3775 0589 0100     		.2byte	0x1
 3776 058b 50       		.byte	0x50
 3777 058c 90000000 		.4byte	.LVL118
 3778 0590 F8000000 		.4byte	.LVL129
 3779 0594 0200     		.2byte	0x2
 3780 0596 30       		.byte	0x30
 3781 0597 9F       		.byte	0x9f
 3782 0598 F8000000 		.4byte	.LVL129
 3783 059c FA000000 		.4byte	.LVL130
 3784 05a0 0100     		.2byte	0x1
 3785 05a2 50       		.byte	0x50
 3786 05a3 FA000000 		.4byte	.LVL130
 3787 05a7 FE000000 		.4byte	.LVL131
 3788 05ab 0200     		.2byte	0x2
 3789 05ad 30       		.byte	0x30
 3790 05ae 9F       		.byte	0x9f
 3791 05af FE000000 		.4byte	.LVL131
 3792 05b3 00010000 		.4byte	.LVL132
 3793 05b7 0100     		.2byte	0x1
 3794 05b9 50       		.byte	0x50
 3795 05ba 00010000 		.4byte	.LVL132
 3796 05be 38010000 		.4byte	.LVL133
 3797 05c2 0200     		.2byte	0x2
 3798 05c4 30       		.byte	0x30
 3799 05c5 9F       		.byte	0x9f
 3800 05c6 38010000 		.4byte	.LVL133
 3801 05ca 3A010000 		.4byte	.LVL134
 3802 05ce 0100     		.2byte	0x1
 3803 05d0 50       		.byte	0x50
 3804 05d1 3A010000 		.4byte	.LVL134
 3805 05d5 54010000 		.4byte	.LVL135
 3806 05d9 0200     		.2byte	0x2
 3807 05db 30       		.byte	0x30
 3808 05dc 9F       		.byte	0x9f
ARM GAS  C:\Users\Robert\AppData\Local\Temp\ccLuFIyc.s 			page 92


 3809 05dd 54010000 		.4byte	.LVL135
 3810 05e1 56010000 		.4byte	.LVL136
 3811 05e5 0100     		.2byte	0x1
 3812 05e7 50       		.byte	0x50
 3813 05e8 56010000 		.4byte	.LVL136
 3814 05ec 64010000 		.4byte	.LVL137
 3815 05f0 0200     		.2byte	0x2
 3816 05f2 30       		.byte	0x30
 3817 05f3 9F       		.byte	0x9f
 3818 05f4 64010000 		.4byte	.LVL137
 3819 05f8 66010000 		.4byte	.LVL138
 3820 05fc 0100     		.2byte	0x1
 3821 05fe 50       		.byte	0x50
 3822 05ff 66010000 		.4byte	.LVL138
 3823 0603 7A010000 		.4byte	.LVL139
 3824 0607 0200     		.2byte	0x2
 3825 0609 30       		.byte	0x30
 3826 060a 9F       		.byte	0x9f
 3827 060b 7A010000 		.4byte	.LVL139
 3828 060f 7C010000 		.4byte	.LVL140
 3829 0613 0100     		.2byte	0x1
 3830 0615 50       		.byte	0x50
 3831 0616 7C010000 		.4byte	.LVL140
 3832 061a B0010000 		.4byte	.LVL141
 3833 061e 0200     		.2byte	0x2
 3834 0620 30       		.byte	0x30
 3835 0621 9F       		.byte	0x9f
 3836 0622 B0010000 		.4byte	.LVL141
 3837 0626 B2010000 		.4byte	.LVL142
 3838 062a 0100     		.2byte	0x1
 3839 062c 50       		.byte	0x50
 3840 062d B2010000 		.4byte	.LVL142
 3841 0631 EA010000 		.4byte	.LVL147
 3842 0635 0200     		.2byte	0x2
 3843 0637 30       		.byte	0x30
 3844 0638 9F       		.byte	0x9f
 3845 0639 EA010000 		.4byte	.LVL147
 3846 063d EC010000 		.4byte	.LVL148
 3847 0641 0100     		.2byte	0x1
 3848 0643 50       		.byte	0x50
 3849 0644 EC010000 		.4byte	.LVL148
 3850 0648 18020000 		.4byte	.LVL152
 3851 064c 0200     		.2byte	0x2
 3852 064e 30       		.byte	0x30
 3853 064f 9F       		.byte	0x9f
 3854 0650 18020000 		.4byte	.LVL152
 3855 0654 1A020000 		.4byte	.LVL153
 3856 0658 0100     		.2byte	0x1
 3857 065a 50       		.byte	0x50
 3858 065b 1A020000 		.4byte	.LVL153
 3859 065f 44020000 		.4byte	.LVL154
 3860 0663 0200     		.2byte	0x2
 3861 0665 30       		.byte	0x30
 3862 0666 9F       		.byte	0x9f
 3863 0667 44020000 		.4byte	.LVL154
 3864 066b 46020000 		.4byte	.LVL155
 3865 066f 0100     		.2byte	0x1
ARM GAS  C:\Users\Robert\AppData\Local\Temp\ccLuFIyc.s 			page 93


 3866 0671 50       		.byte	0x50
 3867 0672 46020000 		.4byte	.LVL155
 3868 0676 60020000 		.4byte	.LVL156
 3869 067a 0200     		.2byte	0x2
 3870 067c 30       		.byte	0x30
 3871 067d 9F       		.byte	0x9f
 3872 067e 60020000 		.4byte	.LVL156
 3873 0682 B0020000 		.4byte	.LVL157
 3874 0686 0100     		.2byte	0x1
 3875 0688 50       		.byte	0x50
 3876 0689 B0020000 		.4byte	.LVL157
 3877 068d D2020000 		.4byte	.LVL158
 3878 0691 0200     		.2byte	0x2
 3879 0693 30       		.byte	0x30
 3880 0694 9F       		.byte	0x9f
 3881 0695 D2020000 		.4byte	.LVL158
 3882 0699 D4020000 		.4byte	.LVL159
 3883 069d 0100     		.2byte	0x1
 3884 069f 50       		.byte	0x50
 3885 06a0 D4020000 		.4byte	.LVL159
 3886 06a4 FA020000 		.4byte	.LVL160
 3887 06a8 0200     		.2byte	0x2
 3888 06aa 30       		.byte	0x30
 3889 06ab 9F       		.byte	0x9f
 3890 06ac FA020000 		.4byte	.LVL160
 3891 06b0 FC020000 		.4byte	.LVL161
 3892 06b4 0100     		.2byte	0x1
 3893 06b6 50       		.byte	0x50
 3894 06b7 FC020000 		.4byte	.LVL161
 3895 06bb 14030000 		.4byte	.LVL162
 3896 06bf 0200     		.2byte	0x2
 3897 06c1 30       		.byte	0x30
 3898 06c2 9F       		.byte	0x9f
 3899 06c3 14030000 		.4byte	.LVL162
 3900 06c7 16030000 		.4byte	.LVL163
 3901 06cb 0100     		.2byte	0x1
 3902 06cd 50       		.byte	0x50
 3903 06ce 16030000 		.4byte	.LVL163
 3904 06d2 38030000 		.4byte	.LVL164
 3905 06d6 0200     		.2byte	0x2
 3906 06d8 30       		.byte	0x30
 3907 06d9 9F       		.byte	0x9f
 3908 06da 38030000 		.4byte	.LVL164
 3909 06de 3A030000 		.4byte	.LVL165
 3910 06e2 0100     		.2byte	0x1
 3911 06e4 50       		.byte	0x50
 3912 06e5 3A030000 		.4byte	.LVL165
 3913 06e9 74030000 		.4byte	.LVL172
 3914 06ed 0200     		.2byte	0x2
 3915 06ef 30       		.byte	0x30
 3916 06f0 9F       		.byte	0x9f
 3917 06f1 74030000 		.4byte	.LVL172
 3918 06f5 8C030000 		.4byte	.LFE0
 3919 06f9 0100     		.2byte	0x1
 3920 06fb 50       		.byte	0x50
 3921 06fc 00000000 		.4byte	0
 3922 0700 00000000 		.4byte	0
ARM GAS  C:\Users\Robert\AppData\Local\Temp\ccLuFIyc.s 			page 94


 3923              	.LLST35:
 3924 0704 FC010000 		.4byte	.LVL150
 3925 0708 1A020000 		.4byte	.LVL153
 3926 070c 0100     		.2byte	0x1
 3927 070e 54       		.byte	0x54
 3928 070f 00000000 		.4byte	0
 3929 0713 00000000 		.4byte	0
 3930              	.LLST36:
 3931 0717 B6010000 		.4byte	.LVL143
 3932 071b C3010000 		.4byte	.LVL144-1
 3933 071f 0100     		.2byte	0x1
 3934 0721 53       		.byte	0x53
 3935 0722 00000000 		.4byte	0
 3936 0726 00000000 		.4byte	0
 3937              	.LLST37:
 3938 072a 02000000 		.4byte	.LVL112
 3939 072e 9C000000 		.4byte	.LVL119
 3940 0732 0200     		.2byte	0x2
 3941 0734 30       		.byte	0x30
 3942 0735 9F       		.byte	0x9f
 3943 0736 9C000000 		.4byte	.LVL119
 3944 073a A6000000 		.4byte	.LVL124
 3945 073e 0100     		.2byte	0x1
 3946 0740 51       		.byte	0x51
 3947 0741 A6000000 		.4byte	.LVL124
 3948 0745 AA000000 		.4byte	.LVL125
 3949 0749 0200     		.2byte	0x2
 3950 074b 30       		.byte	0x30
 3951 074c 9F       		.byte	0x9f
 3952 074d AA000000 		.4byte	.LVL125
 3953 0751 F7000000 		.4byte	.LVL129-1
 3954 0755 0100     		.2byte	0x1
 3955 0757 51       		.byte	0x51
 3956 0758 FA000000 		.4byte	.LVL130
 3957 075c 42030000 		.4byte	.LVL168
 3958 0760 0200     		.2byte	0x2
 3959 0762 30       		.byte	0x30
 3960 0763 9F       		.byte	0x9f
 3961 0764 42030000 		.4byte	.LVL168
 3962 0768 46030000 		.4byte	.LVL169
 3963 076c 0100     		.2byte	0x1
 3964 076e 51       		.byte	0x51
 3965 076f 46030000 		.4byte	.LVL169
 3966 0773 8C030000 		.4byte	.LFE0
 3967 0777 0200     		.2byte	0x2
 3968 0779 30       		.byte	0x30
 3969 077a 9F       		.byte	0x9f
 3970 077b 00000000 		.4byte	0
 3971 077f 00000000 		.4byte	0
 3972              	.LLST38:
 3973 0783 9C000000 		.4byte	.LVL119
 3974 0787 A2000000 		.4byte	.LVL122
 3975 078b 0100     		.2byte	0x1
 3976 078d 53       		.byte	0x53
 3977 078e A4000000 		.4byte	.LVL123
 3978 0792 A6000000 		.4byte	.LVL124
 3979 0796 0100     		.2byte	0x1
ARM GAS  C:\Users\Robert\AppData\Local\Temp\ccLuFIyc.s 			page 95


 3980 0798 53       		.byte	0x53
 3981 0799 AA000000 		.4byte	.LVL125
 3982 079d BE000000 		.4byte	.LVL126
 3983 07a1 0100     		.2byte	0x1
 3984 07a3 53       		.byte	0x53
 3985 07a4 00000000 		.4byte	0
 3986 07a8 00000000 		.4byte	0
 3987              	.LLST39:
 3988 07ac 9E000000 		.4byte	.LVL120
 3989 07b0 A6000000 		.4byte	.LVL124
 3990 07b4 0100     		.2byte	0x1
 3991 07b6 52       		.byte	0x52
 3992 07b7 00000000 		.4byte	0
 3993 07bb 00000000 		.4byte	0
 3994              	.LLST40:
 3995 07bf 48000000 		.4byte	.LVL113
 3996 07c3 55000000 		.4byte	.LVL114-1
 3997 07c7 0100     		.2byte	0x1
 3998 07c9 50       		.byte	0x50
 3999 07ca 70000000 		.4byte	.LVL116
 4000 07ce 8D000000 		.4byte	.LVL117-1
 4001 07d2 0100     		.2byte	0x1
 4002 07d4 50       		.byte	0x50
 4003 07d5 C4010000 		.4byte	.LVL144
 4004 07d9 DE010000 		.4byte	.LVL145
 4005 07dd 0100     		.2byte	0x1
 4006 07df 50       		.byte	0x50
 4007 07e0 3E030000 		.4byte	.LVL166
 4008 07e4 40030000 		.4byte	.LVL167
 4009 07e8 0100     		.2byte	0x1
 4010 07ea 50       		.byte	0x50
 4011 07eb 4E030000 		.4byte	.LVL170
 4012 07ef 50030000 		.4byte	.LVL171
 4013 07f3 0100     		.2byte	0x1
 4014 07f5 50       		.byte	0x50
 4015 07f6 00000000 		.4byte	0
 4016 07fa 00000000 		.4byte	0
 4017              		.section	.debug_aranges,"",%progbits
 4018 0000 6C000000 		.4byte	0x6c
 4019 0004 0200     		.2byte	0x2
 4020 0006 00000000 		.4byte	.Ldebug_info0
 4021 000a 04       		.byte	0x4
 4022 000b 00       		.byte	0
 4023 000c 0000     		.2byte	0
 4024 000e 0000     		.2byte	0
 4025 0010 00000000 		.4byte	.LFB1
 4026 0014 D4000000 		.4byte	.LFE1-.LFB1
 4027 0018 00000000 		.4byte	.LFB4
 4028 001c 28000000 		.4byte	.LFE4-.LFB4
 4029 0020 00000000 		.4byte	.LFB3
 4030 0024 58010000 		.4byte	.LFE3-.LFB3
 4031 0028 00000000 		.4byte	.LFB5
 4032 002c 18000000 		.4byte	.LFE5-.LFB5
 4033 0030 00000000 		.4byte	.LFB6
 4034 0034 24000000 		.4byte	.LFE6-.LFB6
 4035 0038 00000000 		.4byte	.LFB2
 4036 003c D0010000 		.4byte	.LFE2-.LFB2
ARM GAS  C:\Users\Robert\AppData\Local\Temp\ccLuFIyc.s 			page 96


 4037 0040 00000000 		.4byte	.LFB7
 4038 0044 50000000 		.4byte	.LFE7-.LFB7
 4039 0048 00000000 		.4byte	.LFB8
 4040 004c 60000000 		.4byte	.LFE8-.LFB8
 4041 0050 00000000 		.4byte	.LFB9
 4042 0054 A4000000 		.4byte	.LFE9-.LFB9
 4043 0058 00000000 		.4byte	.LFB10
 4044 005c 50000000 		.4byte	.LFE10-.LFB10
 4045 0060 00000000 		.4byte	.LFB0
 4046 0064 8C030000 		.4byte	.LFE0-.LFB0
 4047 0068 00000000 		.4byte	0
 4048 006c 00000000 		.4byte	0
 4049              		.section	.debug_ranges,"",%progbits
 4050              	.Ldebug_ranges0:
 4051 0000 00000000 		.4byte	.LFB1
 4052 0004 D4000000 		.4byte	.LFE1
 4053 0008 00000000 		.4byte	.LFB4
 4054 000c 28000000 		.4byte	.LFE4
 4055 0010 00000000 		.4byte	.LFB3
 4056 0014 58010000 		.4byte	.LFE3
 4057 0018 00000000 		.4byte	.LFB5
 4058 001c 18000000 		.4byte	.LFE5
 4059 0020 00000000 		.4byte	.LFB6
 4060 0024 24000000 		.4byte	.LFE6
 4061 0028 00000000 		.4byte	.LFB2
 4062 002c D0010000 		.4byte	.LFE2
 4063 0030 00000000 		.4byte	.LFB7
 4064 0034 50000000 		.4byte	.LFE7
 4065 0038 00000000 		.4byte	.LFB8
 4066 003c 60000000 		.4byte	.LFE8
 4067 0040 00000000 		.4byte	.LFB9
 4068 0044 A4000000 		.4byte	.LFE9
 4069 0048 00000000 		.4byte	.LFB10
 4070 004c 50000000 		.4byte	.LFE10
 4071 0050 00000000 		.4byte	.LFB0
 4072 0054 8C030000 		.4byte	.LFE0
 4073 0058 00000000 		.4byte	0
 4074 005c 00000000 		.4byte	0
 4075              		.section	.debug_line,"",%progbits
 4076              	.Ldebug_line0:
 4077 0000 78030000 		.section	.debug_str,"MS",%progbits,1
 4077      02007D00 
 4077      00000201 
 4077      FB0E0D00 
 4077      01010101 
 4078              	.LASF35:
 4079 0000 70537461 		.ascii	"pStatusBlock\000"
 4079      74757342 
 4079      6C6F636B 
 4079      00
 4080              	.LASF33:
 4081 000d 636F756E 		.ascii	"count\000"
 4081      7400
 4082              	.LASF10:
 4083 0013 75696E74 		.ascii	"uint16\000"
 4083      313600
 4084              	.LASF40:
ARM GAS  C:\Users\Robert\AppData\Local\Temp\ccLuFIyc.s 			page 97


 4085 001a 5553425F 		.ascii	"USB_Bootloader_ConfigReg\000"
 4085      426F6F74 
 4085      6C6F6164 
 4085      65725F43 
 4085      6F6E6669 
 4086              	.LASF75:
 4087 0033 5553425F 		.ascii	"USB_Bootloader_interfaceNumber\000"
 4087      426F6F74 
 4087      6C6F6164 
 4087      65725F69 
 4087      6E746572 
 4088              	.LASF73:
 4089 0052 5553425F 		.ascii	"USB_Bootloader_STRING_DESCRIPTORS\000"
 4089      426F6F74 
 4089      6C6F6164 
 4089      65725F53 
 4089      5452494E 
 4090              	.LASF70:
 4091 0074 5553425F 		.ascii	"USB_Bootloader_DEVICE0_DESCR\000"
 4091      426F6F74 
 4091      6C6F6164 
 4091      65725F44 
 4091      45564943 
 4092              	.LASF49:
 4093 0091 636F6E66 		.ascii	"confIndex\000"
 4093      496E6465 
 4093      7800
 4094              	.LASF7:
 4095 009b 6C6F6E67 		.ascii	"long long unsigned int\000"
 4095      206C6F6E 
 4095      6720756E 
 4095      7369676E 
 4095      65642069 
 4096              	.LASF20:
 4097 00b2 61646472 		.ascii	"addr\000"
 4097      00
 4098              	.LASF60:
 4099 00b7 696E7465 		.ascii	"interfaceNumber\000"
 4099      72666163 
 4099      654E756D 
 4099      62657200 
 4100              	.LASF54:
 4101 00c7 5553425F 		.ascii	"USB_Bootloader_SetEndpointHalt\000"
 4101      426F6F74 
 4101      6C6F6164 
 4101      65725F53 
 4101      6574456E 
 4102              	.LASF6:
 4103 00e6 6C6F6E67 		.ascii	"long long int\000"
 4103      206C6F6E 
 4103      6720696E 
 4103      7400
 4104              	.LASF0:
 4105 00f4 7369676E 		.ascii	"signed char\000"
 4105      65642063 
 4105      68617200 
 4106              	.LASF50:
ARM GAS  C:\Users\Robert\AppData\Local\Temp\ccLuFIyc.s 			page 98


 4107 0100 636C6561 		.ascii	"clearAltSetting\000"
 4107      72416C74 
 4107      53657474 
 4107      696E6700 
 4108              	.LASF89:
 4109 0110 5553425F 		.ascii	"USB_Bootloader_GetDeviceTablePtr\000"
 4109      426F6F74 
 4109      6C6F6164 
 4109      65725F47 
 4109      65744465 
 4110              	.LASF25:
 4111 0131 545F5553 		.ascii	"T_USB_Bootloader_EP_CTL_BLOCK\000"
 4111      425F426F 
 4111      6F746C6F 
 4111      61646572 
 4111      5F45505F 
 4112              	.LASF4:
 4113 014f 6C6F6E67 		.ascii	"long int\000"
 4113      20696E74 
 4113      00
 4114              	.LASF9:
 4115 0158 75696E74 		.ascii	"uint8\000"
 4115      3800
 4116              	.LASF66:
 4117 015e 5553425F 		.ascii	"USB_Bootloader_device\000"
 4117      426F6F74 
 4117      6C6F6164 
 4117      65725F64 
 4117      65766963 
 4118              	.LASF19:
 4119 0174 6570546F 		.ascii	"epToggle\000"
 4119      67676C65 
 4119      00
 4120              	.LASF12:
 4121 017d 646F7562 		.ascii	"double\000"
 4121      6C6500
 4122              	.LASF74:
 4123 0184 5553425F 		.ascii	"USB_Bootloader_MSOS_DESCRIPTOR\000"
 4123      426F6F74 
 4123      6C6F6164 
 4123      65725F4D 
 4123      534F535F 
 4124              	.LASF34:
 4125 01a3 70446174 		.ascii	"pData\000"
 4125      6100
 4126              	.LASF21:
 4127 01a9 65704D6F 		.ascii	"epMode\000"
 4127      646500
 4128              	.LASF43:
 4129 01b0 65705479 		.ascii	"epType\000"
 4129      706500
 4130              	.LASF29:
 4131 01b7 545F5553 		.ascii	"T_USB_Bootloader_EP_SETTINGS_BLOCK\000"
 4131      425F426F 
 4131      6F746C6F 
 4131      61646572 
 4131      5F45505F 
ARM GAS  C:\Users\Robert\AppData\Local\Temp\ccLuFIyc.s 			page 99


 4132              	.LASF85:
 4133 01da 5553425F 		.ascii	"USB_Bootloader_DispatchClassRqst\000"
 4133      426F6F74 
 4133      6C6F6164 
 4133      65725F44 
 4133      69737061 
 4134              	.LASF8:
 4135 01fb 756E7369 		.ascii	"unsigned int\000"
 4135      676E6564 
 4135      20696E74 
 4135      00
 4136              	.LASF69:
 4137 0208 5553425F 		.ascii	"USB_Bootloader_deviceStatus\000"
 4137      426F6F74 
 4137      6C6F6164 
 4137      65725F64 
 4137      65766963 
 4138              	.LASF5:
 4139 0224 6C6F6E67 		.ascii	"long unsigned int\000"
 4139      20756E73 
 4139      69676E65 
 4139      6420696E 
 4139      7400
 4140              	.LASF56:
 4141 0236 5553425F 		.ascii	"USB_Bootloader_ClearEndpointHalt\000"
 4141      426F6F74 
 4141      6C6F6164 
 4141      65725F43 
 4141      6C656172 
 4142              	.LASF41:
 4143 0257 5553425F 		.ascii	"USB_Bootloader_ConfigAltChanged\000"
 4143      426F6F74 
 4143      6C6F6164 
 4143      65725F43 
 4143      6F6E6669 
 4144              	.LASF3:
 4145 0277 73686F72 		.ascii	"short unsigned int\000"
 4145      7420756E 
 4145      7369676E 
 4145      65642069 
 4145      6E7400
 4146              	.LASF53:
 4147 028a 5553425F 		.ascii	"USB_Bootloader_TerminateEP\000"
 4147      426F6F74 
 4147      6C6F6164 
 4147      65725F54 
 4147      65726D69 
 4148              	.LASF51:
 4149 02a5 70446573 		.ascii	"pDescr\000"
 4149      637200
 4150              	.LASF80:
 4151 02ac 5553425F 		.ascii	"USB_Bootloader_interfaceClass\000"
 4151      426F6F74 
 4151      6C6F6164 
 4151      65725F69 
 4151      6E746572 
 4152              	.LASF46:
ARM GAS  C:\Users\Robert\AppData\Local\Temp\ccLuFIyc.s 			page 100


 4153 02ca 70496E74 		.ascii	"pInterfaceClass\000"
 4153      65726661 
 4153      6365436C 
 4153      61737300 
 4154              	.LASF87:
 4155 02da 2E5C4765 		.ascii	".\\Generated_Source\\PSoC5\\USB_Bootloader_std.c\000"
 4155      6E657261 
 4155      7465645F 
 4155      536F7572 
 4155      63655C50 
 4156              	.LASF24:
 4157 0308 696E7465 		.ascii	"interface\000"
 4157      72666163 
 4157      6500
 4158              	.LASF18:
 4159 0312 68774570 		.ascii	"hwEpState\000"
 4159      53746174 
 4159      6500
 4160              	.LASF64:
 4161 031c 64657363 		.ascii	"descrLength\000"
 4161      724C656E 
 4161      67746800 
 4162              	.LASF15:
 4163 0328 73697A65 		.ascii	"sizetype\000"
 4163      74797065 
 4163      00
 4164              	.LASF76:
 4165 0331 5553425F 		.ascii	"USB_Bootloader_interfaceSetting\000"
 4165      426F6F74 
 4165      6C6F6164 
 4165      65725F69 
 4165      6E746572 
 4166              	.LASF39:
 4167 0351 70546D70 		.ascii	"pTmp\000"
 4167      00
 4168              	.LASF37:
 4169 0356 705F6C69 		.ascii	"p_list\000"
 4169      737400
 4170              	.LASF52:
 4171 035d 62756666 		.ascii	"buffCount\000"
 4171      436F756E 
 4171      7400
 4172              	.LASF16:
 4173 0367 61747472 		.ascii	"attrib\000"
 4173      696200
 4174              	.LASF68:
 4175 036e 5553425F 		.ascii	"USB_Bootloader_configurationChanged\000"
 4175      426F6F74 
 4175      6C6F6164 
 4175      65725F63 
 4175      6F6E6669 
 4176              	.LASF83:
 4177 0392 5553425F 		.ascii	"USB_Bootloader_InitNoDataControlTransfer\000"
 4177      426F6F74 
 4177      6C6F6164 
 4177      65725F49 
 4177      6E69744E 
ARM GAS  C:\Users\Robert\AppData\Local\Temp\ccLuFIyc.s 			page 101


 4178              	.LASF77:
 4179 03bb 5553425F 		.ascii	"USB_Bootloader_interfaceSetting_last\000"
 4179      426F6F74 
 4179      6C6F6164 
 4179      65725F69 
 4179      6E746572 
 4180              	.LASF47:
 4181 03e0 63757272 		.ascii	"currentInterfacesNum\000"
 4181      656E7449 
 4181      6E746572 
 4181      66616365 
 4181      734E756D 
 4182              	.LASF36:
 4183 03f5 545F5553 		.ascii	"T_USB_Bootloader_TD\000"
 4183      425F426F 
 4183      6F746C6F 
 4183      61646572 
 4183      5F544400 
 4184              	.LASF58:
 4185 0409 696E7465 		.ascii	"interfaceNum\000"
 4185      72666163 
 4185      654E756D 
 4185      00
 4186              	.LASF11:
 4187 0416 666C6F61 		.ascii	"float\000"
 4187      7400
 4188              	.LASF17:
 4189 041c 61706945 		.ascii	"apiEpState\000"
 4189      70537461 
 4189      746500
 4190              	.LASF61:
 4191 0427 636F6E66 		.ascii	"configurationN\000"
 4191      69677572 
 4191      6174696F 
 4191      6E4E00
 4192              	.LASF78:
 4193 0436 5553425F 		.ascii	"USB_Bootloader_deviceAddress\000"
 4193      426F6F74 
 4193      6C6F6164 
 4193      65725F64 
 4193      65766963 
 4194              	.LASF65:
 4195 0453 5553425F 		.ascii	"USB_Bootloader_tBuffer\000"
 4195      426F6F74 
 4195      6C6F6164 
 4195      65725F74 
 4195      42756666 
 4196              	.LASF62:
 4197 046a 70537472 		.ascii	"pStr\000"
 4197      00
 4198              	.LASF14:
 4199 046f 72656738 		.ascii	"reg8\000"
 4199      00
 4200              	.LASF1:
 4201 0474 756E7369 		.ascii	"unsigned char\000"
 4201      676E6564 
 4201      20636861 
ARM GAS  C:\Users\Robert\AppData\Local\Temp\ccLuFIyc.s 			page 102


 4201      7200
 4202              	.LASF2:
 4203 0482 73686F72 		.ascii	"short int\000"
 4203      7420696E 
 4203      7400
 4204              	.LASF48:
 4205 048c 5553425F 		.ascii	"USB_Bootloader_Config\000"
 4205      426F6F74 
 4205      6C6F6164 
 4205      65725F43 
 4205      6F6E6669 
 4206              	.LASF27:
 4207 04a2 61747472 		.ascii	"attributes\000"
 4207      69627574 
 4207      657300
 4208              	.LASF67:
 4209 04ad 5553425F 		.ascii	"USB_Bootloader_configuration\000"
 4209      426F6F74 
 4209      6C6F6164 
 4209      65725F63 
 4209      6F6E6669 
 4210              	.LASF82:
 4211 04ca 5553425F 		.ascii	"USB_Bootloader_currentTD\000"
 4211      426F6F74 
 4211      6C6F6164 
 4211      65725F63 
 4211      75727265 
 4212              	.LASF26:
 4213 04e3 616C7453 		.ascii	"altSetting\000"
 4213      65747469 
 4213      6E6700
 4214              	.LASF13:
 4215 04ee 63686172 		.ascii	"char\000"
 4215      00
 4216              	.LASF23:
 4217 04f3 62756666 		.ascii	"bufferSize\000"
 4217      65725369 
 4217      7A6500
 4218              	.LASF45:
 4219 04fe 5553425F 		.ascii	"USB_Bootloader_GetInterfaceClassTablePtr\000"
 4219      426F6F74 
 4219      6C6F6164 
 4219      65725F47 
 4219      6574496E 
 4220              	.LASF55:
 4221 0527 72657175 		.ascii	"requestHandled\000"
 4221      65737448 
 4221      616E646C 
 4221      656400
 4222              	.LASF79:
 4223 0536 5553425F 		.ascii	"USB_Bootloader_interfaceStatus\000"
 4223      426F6F74 
 4223      6C6F6164 
 4223      65725F69 
 4223      6E746572 
 4224              	.LASF22:
 4225 0555 62756666 		.ascii	"buffOffset\000"
ARM GAS  C:\Users\Robert\AppData\Local\Temp\ccLuFIyc.s 			page 103


 4225      4F666673 
 4225      657400
 4226              	.LASF71:
 4227 0560 5553425F 		.ascii	"USB_Bootloader_TABLE\000"
 4227      426F6F74 
 4227      6C6F6164 
 4227      65725F54 
 4227      41424C45 
 4228              	.LASF59:
 4229 0575 5553425F 		.ascii	"USB_Bootloader_HandleStandardRqst\000"
 4229      426F6F74 
 4229      6C6F6164 
 4229      65725F48 
 4229      616E646C 
 4230              	.LASF38:
 4231 0597 545F5553 		.ascii	"T_USB_Bootloader_LUT\000"
 4231      425F426F 
 4231      6F746C6F 
 4231      61646572 
 4231      5F4C5554 
 4232              	.LASF31:
 4233 05ac 6C656E67 		.ascii	"length\000"
 4233      746800
 4234              	.LASF63:
 4235 05b3 6E537472 		.ascii	"nStr\000"
 4235      00
 4236              	.LASF42:
 4237 05b8 6375725F 		.ascii	"cur_ep\000"
 4237      657000
 4238              	.LASF30:
 4239 05bf 73746174 		.ascii	"status\000"
 4239      757300
 4240              	.LASF86:
 4241 05c6 474E5520 		.ascii	"GNU C 4.9.3 20150303 (release) [ARM/embedded-4_9-br"
 4241      4320342E 
 4241      392E3320 
 4241      32303135 
 4241      30333033 
 4242 05f9 616E6368 		.ascii	"anch revision 221220] -mcpu=cortex-m3 -mthumb -g -O"
 4242      20726576 
 4242      6973696F 
 4242      6E203232 
 4242      31323230 
 4243 062c 67202D66 		.ascii	"g -ffunction-sections -ffat-lto-objects\000"
 4243      66756E63 
 4243      74696F6E 
 4243      2D736563 
 4243      74696F6E 
 4244              	.LASF44:
 4245 0654 5553425F 		.ascii	"USB_Bootloader_GetConfigTablePtr\000"
 4245      426F6F74 
 4245      6C6F6164 
 4245      65725F47 
 4245      6574436F 
 4246              	.LASF81:
 4247 0675 5553425F 		.ascii	"USB_Bootloader_EP\000"
 4247      426F6F74 
ARM GAS  C:\Users\Robert\AppData\Local\Temp\ccLuFIyc.s 			page 104


 4247      6C6F6164 
 4247      65725F45 
 4247      5000
 4248              	.LASF28:
 4249 0687 624D6973 		.ascii	"bMisc\000"
 4249      6300
 4250              	.LASF32:
 4251 068d 545F5553 		.ascii	"T_USB_Bootloader_XFER_STATUS_BLOCK\000"
 4251      425F426F 
 4251      6F746C6F 
 4251      61646572 
 4251      5F584645 
 4252              	.LASF84:
 4253 06b0 5553425F 		.ascii	"USB_Bootloader_InitControlRead\000"
 4253      426F6F74 
 4253      6C6F6164 
 4253      65725F49 
 4253      6E697443 
 4254              	.LASF57:
 4255 06cf 5553425F 		.ascii	"USB_Bootloader_ValidateAlternateSetting\000"
 4255      426F6F74 
 4255      6C6F6164 
 4255      65725F56 
 4255      616C6964 
 4256              	.LASF72:
 4257 06f7 5553425F 		.ascii	"USB_Bootloader_SN_STRING_DESCRIPTOR\000"
 4257      426F6F74 
 4257      6C6F6164 
 4257      65725F53 
 4257      4E5F5354 
 4258              	.LASF88:
 4259 071b 433A5C55 		.ascii	"C:\\Users\\Robert\\Documents\\PSoC Creator\\product"
 4259      73657273 
 4259      5C526F62 
 4259      6572745C 
 4259      446F6375 
 4260 0749 696F6E5F 		.ascii	"ion_108\\PSoC Creator\\pisoc_bootloader.cydsn\000"
 4260      3130385C 
 4260      50536F43 
 4260      20437265 
 4260      61746F72 
 4261              		.ident	"GCC: (GNU Tools for ARM Embedded Processors) 4.9.3 20150303 (release) [ARM/embedded-4_9-br
