ARM GAS  C:\Users\Robert\AppData\Local\Temp\ccr2TuqX.s 			page 1


   1              		.syntax unified
   2              		.cpu cortex-m3
   3              		.fpu softvfp
   4              		.eabi_attribute 20, 1
   5              		.eabi_attribute 21, 1
   6              		.eabi_attribute 23, 3
   7              		.eabi_attribute 24, 1
   8              		.eabi_attribute 25, 1
   9              		.eabi_attribute 26, 1
  10              		.eabi_attribute 30, 1
  11              		.eabi_attribute 34, 1
  12              		.eabi_attribute 18, 4
  13              		.thumb
  14              		.file	"USB_Bootloader_hid.c"
  15              		.text
  16              	.Ltext0:
  17              		.cfi_sections	.debug_frame
  18              		.section	.text.USB_Bootloader_UpdateHIDTimer,"ax",%progbits
  19              		.align	2
  20              		.global	USB_Bootloader_UpdateHIDTimer
  21              		.thumb
  22              		.thumb_func
  23              		.type	USB_Bootloader_UpdateHIDTimer, %function
  24              	USB_Bootloader_UpdateHIDTimer:
  25              	.LFB0:
  26              		.file 1 ".\\Generated_Source\\PSoC5\\USB_Bootloader_hid.c"
   1:.\Generated_Source\PSoC5/USB_Bootloader_hid.c **** /*******************************************************************************
   2:.\Generated_Source\PSoC5/USB_Bootloader_hid.c **** * File Name: USB_Bootloader_hid.c
   3:.\Generated_Source\PSoC5/USB_Bootloader_hid.c **** * Version 2.80
   4:.\Generated_Source\PSoC5/USB_Bootloader_hid.c **** *
   5:.\Generated_Source\PSoC5/USB_Bootloader_hid.c **** * Description:
   6:.\Generated_Source\PSoC5/USB_Bootloader_hid.c **** *  USB HID Class request handler.
   7:.\Generated_Source\PSoC5/USB_Bootloader_hid.c **** *
   8:.\Generated_Source\PSoC5/USB_Bootloader_hid.c **** * Related Document:
   9:.\Generated_Source\PSoC5/USB_Bootloader_hid.c **** *  Device Class Definition for Human Interface Devices (HID) Version 1.11
  10:.\Generated_Source\PSoC5/USB_Bootloader_hid.c **** *
  11:.\Generated_Source\PSoC5/USB_Bootloader_hid.c **** * Note:
  12:.\Generated_Source\PSoC5/USB_Bootloader_hid.c **** *
  13:.\Generated_Source\PSoC5/USB_Bootloader_hid.c **** ********************************************************************************
  14:.\Generated_Source\PSoC5/USB_Bootloader_hid.c **** * Copyright 2008-2014, Cypress Semiconductor Corporation.  All rights reserved.
  15:.\Generated_Source\PSoC5/USB_Bootloader_hid.c **** * You may use this file only in accordance with the license, terms, conditions,
  16:.\Generated_Source\PSoC5/USB_Bootloader_hid.c **** * disclaimers, and limitations in the end user license agreement accompanying
  17:.\Generated_Source\PSoC5/USB_Bootloader_hid.c **** * the software package with which this file was provided.
  18:.\Generated_Source\PSoC5/USB_Bootloader_hid.c **** *******************************************************************************/
  19:.\Generated_Source\PSoC5/USB_Bootloader_hid.c **** 
  20:.\Generated_Source\PSoC5/USB_Bootloader_hid.c **** #include "USB_Bootloader.h"
  21:.\Generated_Source\PSoC5/USB_Bootloader_hid.c **** 
  22:.\Generated_Source\PSoC5/USB_Bootloader_hid.c **** #if defined(USB_Bootloader_ENABLE_HID_CLASS)
  23:.\Generated_Source\PSoC5/USB_Bootloader_hid.c **** 
  24:.\Generated_Source\PSoC5/USB_Bootloader_hid.c **** #include "USB_Bootloader_pvt.h"
  25:.\Generated_Source\PSoC5/USB_Bootloader_hid.c **** #include "USB_Bootloader_hid.h"
  26:.\Generated_Source\PSoC5/USB_Bootloader_hid.c **** #include "cyapicallbacks.h"
  27:.\Generated_Source\PSoC5/USB_Bootloader_hid.c **** 
  28:.\Generated_Source\PSoC5/USB_Bootloader_hid.c **** 
  29:.\Generated_Source\PSoC5/USB_Bootloader_hid.c **** /***************************************
  30:.\Generated_Source\PSoC5/USB_Bootloader_hid.c **** *    HID Variables
  31:.\Generated_Source\PSoC5/USB_Bootloader_hid.c **** ***************************************/
ARM GAS  C:\Users\Robert\AppData\Local\Temp\ccr2TuqX.s 			page 2


  32:.\Generated_Source\PSoC5/USB_Bootloader_hid.c **** 
  33:.\Generated_Source\PSoC5/USB_Bootloader_hid.c **** volatile uint8 USB_Bootloader_hidProtocol[USB_Bootloader_MAX_INTERFACES_NUMBER];  /* HID device pro
  34:.\Generated_Source\PSoC5/USB_Bootloader_hid.c **** volatile uint8 USB_Bootloader_hidIdleRate[USB_Bootloader_MAX_INTERFACES_NUMBER];  /* HID device idl
  35:.\Generated_Source\PSoC5/USB_Bootloader_hid.c **** volatile uint8 USB_Bootloader_hidIdleTimer[USB_Bootloader_MAX_INTERFACES_NUMBER]; /* HID device idl
  36:.\Generated_Source\PSoC5/USB_Bootloader_hid.c **** 
  37:.\Generated_Source\PSoC5/USB_Bootloader_hid.c **** 
  38:.\Generated_Source\PSoC5/USB_Bootloader_hid.c **** /***************************************
  39:.\Generated_Source\PSoC5/USB_Bootloader_hid.c **** * Custom Declarations
  40:.\Generated_Source\PSoC5/USB_Bootloader_hid.c **** ***************************************/
  41:.\Generated_Source\PSoC5/USB_Bootloader_hid.c **** 
  42:.\Generated_Source\PSoC5/USB_Bootloader_hid.c **** /* `#START HID_CUSTOM_DECLARATIONS` Place your declaration here */
  43:.\Generated_Source\PSoC5/USB_Bootloader_hid.c **** 
  44:.\Generated_Source\PSoC5/USB_Bootloader_hid.c **** /* `#END` */
  45:.\Generated_Source\PSoC5/USB_Bootloader_hid.c **** 
  46:.\Generated_Source\PSoC5/USB_Bootloader_hid.c **** 
  47:.\Generated_Source\PSoC5/USB_Bootloader_hid.c **** /*******************************************************************************
  48:.\Generated_Source\PSoC5/USB_Bootloader_hid.c **** * Function Name: USB_Bootloader_UpdateHIDTimer
  49:.\Generated_Source\PSoC5/USB_Bootloader_hid.c **** ********************************************************************************
  50:.\Generated_Source\PSoC5/USB_Bootloader_hid.c **** *
  51:.\Generated_Source\PSoC5/USB_Bootloader_hid.c **** * Summary:
  52:.\Generated_Source\PSoC5/USB_Bootloader_hid.c **** *  Updates the HID report timer and reloads it if expired
  53:.\Generated_Source\PSoC5/USB_Bootloader_hid.c **** *
  54:.\Generated_Source\PSoC5/USB_Bootloader_hid.c **** * Parameters:
  55:.\Generated_Source\PSoC5/USB_Bootloader_hid.c **** *  interface:  Interface Number.
  56:.\Generated_Source\PSoC5/USB_Bootloader_hid.c **** *
  57:.\Generated_Source\PSoC5/USB_Bootloader_hid.c **** * Return:
  58:.\Generated_Source\PSoC5/USB_Bootloader_hid.c **** *  status.
  59:.\Generated_Source\PSoC5/USB_Bootloader_hid.c **** *
  60:.\Generated_Source\PSoC5/USB_Bootloader_hid.c **** * Reentrant:
  61:.\Generated_Source\PSoC5/USB_Bootloader_hid.c **** *  No.
  62:.\Generated_Source\PSoC5/USB_Bootloader_hid.c **** *
  63:.\Generated_Source\PSoC5/USB_Bootloader_hid.c **** *******************************************************************************/
  64:.\Generated_Source\PSoC5/USB_Bootloader_hid.c **** uint8 USB_Bootloader_UpdateHIDTimer(uint8 interface) 
  65:.\Generated_Source\PSoC5/USB_Bootloader_hid.c **** {
  27              		.loc 1 65 0
  28              		.cfi_startproc
  29              		@ args = 0, pretend = 0, frame = 0
  30              		@ frame_needed = 0, uses_anonymous_args = 0
  31              		@ link register save eliminated.
  32              	.LVL0:
  66:.\Generated_Source\PSoC5/USB_Bootloader_hid.c ****     uint8 stat = USB_Bootloader_IDLE_TIMER_INDEFINITE;
  67:.\Generated_Source\PSoC5/USB_Bootloader_hid.c **** 
  68:.\Generated_Source\PSoC5/USB_Bootloader_hid.c ****     if(USB_Bootloader_hidIdleRate[interface] != 0u)
  33              		.loc 1 68 0
  34 0000 0C4B     		ldr	r3, .L5
  35 0002 1B5C     		ldrb	r3, [r3, r0]	@ zero_extendqisi2
  36 0004 13F0FF0F 		tst	r3, #255
  37 0008 12D0     		beq	.L4
  69:.\Generated_Source\PSoC5/USB_Bootloader_hid.c ****     {
  70:.\Generated_Source\PSoC5/USB_Bootloader_hid.c ****         if(USB_Bootloader_hidIdleTimer[interface] > 0u)
  38              		.loc 1 70 0
  39 000a 0B4B     		ldr	r3, .L5+4
  40 000c 1B5C     		ldrb	r3, [r3, r0]	@ zero_extendqisi2
  41 000e 13F0FF0F 		tst	r3, #255
  42 0012 06D0     		beq	.L3
  71:.\Generated_Source\PSoC5/USB_Bootloader_hid.c ****         {
  72:.\Generated_Source\PSoC5/USB_Bootloader_hid.c ****             USB_Bootloader_hidIdleTimer[interface]--;
ARM GAS  C:\Users\Robert\AppData\Local\Temp\ccr2TuqX.s 			page 3


  43              		.loc 1 72 0
  44 0014 084A     		ldr	r2, .L5+4
  45 0016 135C     		ldrb	r3, [r2, r0]	@ zero_extendqisi2
  46 0018 013B     		subs	r3, r3, #1
  47 001a DBB2     		uxtb	r3, r3
  48 001c 1354     		strb	r3, [r2, r0]
  49              	.LVL1:
  73:.\Generated_Source\PSoC5/USB_Bootloader_hid.c ****             stat = USB_Bootloader_IDLE_TIMER_RUNNING;
  50              		.loc 1 73 0
  51 001e 0220     		movs	r0, #2
  52              	.LVL2:
  53 0020 7047     		bx	lr
  54              	.LVL3:
  55              	.L3:
  74:.\Generated_Source\PSoC5/USB_Bootloader_hid.c ****         }
  75:.\Generated_Source\PSoC5/USB_Bootloader_hid.c ****         else
  76:.\Generated_Source\PSoC5/USB_Bootloader_hid.c ****         {
  77:.\Generated_Source\PSoC5/USB_Bootloader_hid.c ****             USB_Bootloader_hidIdleTimer[interface] = USB_Bootloader_hidIdleRate[interface];
  56              		.loc 1 77 0
  57 0022 044B     		ldr	r3, .L5
  58 0024 1B5C     		ldrb	r3, [r3, r0]	@ zero_extendqisi2
  59 0026 DBB2     		uxtb	r3, r3
  60 0028 034A     		ldr	r2, .L5+4
  61 002a 1354     		strb	r3, [r2, r0]
  62              	.LVL4:
  78:.\Generated_Source\PSoC5/USB_Bootloader_hid.c ****             stat = USB_Bootloader_IDLE_TIMER_EXPIRED;
  63              		.loc 1 78 0
  64 002c 0120     		movs	r0, #1
  65              	.LVL5:
  66 002e 7047     		bx	lr
  67              	.LVL6:
  68              	.L4:
  66:.\Generated_Source\PSoC5/USB_Bootloader_hid.c **** 
  69              		.loc 1 66 0
  70 0030 0020     		movs	r0, #0
  71              	.LVL7:
  79:.\Generated_Source\PSoC5/USB_Bootloader_hid.c ****         }
  80:.\Generated_Source\PSoC5/USB_Bootloader_hid.c ****     }
  81:.\Generated_Source\PSoC5/USB_Bootloader_hid.c **** 
  82:.\Generated_Source\PSoC5/USB_Bootloader_hid.c ****     return(stat);
  83:.\Generated_Source\PSoC5/USB_Bootloader_hid.c **** }
  72              		.loc 1 83 0
  73 0032 7047     		bx	lr
  74              	.L6:
  75              		.align	2
  76              	.L5:
  77 0034 00000000 		.word	USB_Bootloader_hidIdleRate
  78 0038 00000000 		.word	USB_Bootloader_hidIdleTimer
  79              		.cfi_endproc
  80              	.LFE0:
  81              		.size	USB_Bootloader_UpdateHIDTimer, .-USB_Bootloader_UpdateHIDTimer
  82              		.section	.text.USB_Bootloader_GetProtocol,"ax",%progbits
  83              		.align	2
  84              		.global	USB_Bootloader_GetProtocol
  85              		.thumb
  86              		.thumb_func
  87              		.type	USB_Bootloader_GetProtocol, %function
ARM GAS  C:\Users\Robert\AppData\Local\Temp\ccr2TuqX.s 			page 4


  88              	USB_Bootloader_GetProtocol:
  89              	.LFB1:
  84:.\Generated_Source\PSoC5/USB_Bootloader_hid.c **** 
  85:.\Generated_Source\PSoC5/USB_Bootloader_hid.c **** 
  86:.\Generated_Source\PSoC5/USB_Bootloader_hid.c **** /*******************************************************************************
  87:.\Generated_Source\PSoC5/USB_Bootloader_hid.c **** * Function Name: USB_Bootloader_GetProtocol
  88:.\Generated_Source\PSoC5/USB_Bootloader_hid.c **** ********************************************************************************
  89:.\Generated_Source\PSoC5/USB_Bootloader_hid.c **** *
  90:.\Generated_Source\PSoC5/USB_Bootloader_hid.c **** * Summary:
  91:.\Generated_Source\PSoC5/USB_Bootloader_hid.c **** *  Returns the selected protocol value to the application
  92:.\Generated_Source\PSoC5/USB_Bootloader_hid.c **** *
  93:.\Generated_Source\PSoC5/USB_Bootloader_hid.c **** * Parameters:
  94:.\Generated_Source\PSoC5/USB_Bootloader_hid.c **** *  interface:  Interface Number.
  95:.\Generated_Source\PSoC5/USB_Bootloader_hid.c **** *
  96:.\Generated_Source\PSoC5/USB_Bootloader_hid.c **** * Return:
  97:.\Generated_Source\PSoC5/USB_Bootloader_hid.c **** *  Interface protocol.
  98:.\Generated_Source\PSoC5/USB_Bootloader_hid.c **** *
  99:.\Generated_Source\PSoC5/USB_Bootloader_hid.c **** *******************************************************************************/
 100:.\Generated_Source\PSoC5/USB_Bootloader_hid.c **** uint8 USB_Bootloader_GetProtocol(uint8 interface) 
 101:.\Generated_Source\PSoC5/USB_Bootloader_hid.c **** {
  90              		.loc 1 101 0
  91              		.cfi_startproc
  92              		@ args = 0, pretend = 0, frame = 0
  93              		@ frame_needed = 0, uses_anonymous_args = 0
  94              		@ link register save eliminated.
  95              	.LVL8:
 102:.\Generated_Source\PSoC5/USB_Bootloader_hid.c ****     return(USB_Bootloader_hidProtocol[interface]);
  96              		.loc 1 102 0
  97 0000 014B     		ldr	r3, .L8
  98 0002 185C     		ldrb	r0, [r3, r0]	@ zero_extendqisi2
  99              	.LVL9:
 103:.\Generated_Source\PSoC5/USB_Bootloader_hid.c **** }
 100              		.loc 1 103 0
 101 0004 7047     		bx	lr
 102              	.L9:
 103 0006 00BF     		.align	2
 104              	.L8:
 105 0008 00000000 		.word	USB_Bootloader_hidProtocol
 106              		.cfi_endproc
 107              	.LFE1:
 108              		.size	USB_Bootloader_GetProtocol, .-USB_Bootloader_GetProtocol
 109              		.section	.text.USB_Bootloader_FindHidClassDecriptor,"ax",%progbits
 110              		.align	2
 111              		.global	USB_Bootloader_FindHidClassDecriptor
 112              		.thumb
 113              		.thumb_func
 114              		.type	USB_Bootloader_FindHidClassDecriptor, %function
 115              	USB_Bootloader_FindHidClassDecriptor:
 116              	.LFB3:
 104:.\Generated_Source\PSoC5/USB_Bootloader_hid.c **** 
 105:.\Generated_Source\PSoC5/USB_Bootloader_hid.c **** 
 106:.\Generated_Source\PSoC5/USB_Bootloader_hid.c **** /*******************************************************************************
 107:.\Generated_Source\PSoC5/USB_Bootloader_hid.c **** * Function Name: USB_Bootloader_DispatchHIDClassRqst
 108:.\Generated_Source\PSoC5/USB_Bootloader_hid.c **** ********************************************************************************
 109:.\Generated_Source\PSoC5/USB_Bootloader_hid.c **** *
 110:.\Generated_Source\PSoC5/USB_Bootloader_hid.c **** * Summary:
 111:.\Generated_Source\PSoC5/USB_Bootloader_hid.c **** *  This routine dispatches class requests
ARM GAS  C:\Users\Robert\AppData\Local\Temp\ccr2TuqX.s 			page 5


 112:.\Generated_Source\PSoC5/USB_Bootloader_hid.c **** *
 113:.\Generated_Source\PSoC5/USB_Bootloader_hid.c **** * Parameters:
 114:.\Generated_Source\PSoC5/USB_Bootloader_hid.c **** *  None.
 115:.\Generated_Source\PSoC5/USB_Bootloader_hid.c **** *
 116:.\Generated_Source\PSoC5/USB_Bootloader_hid.c **** * Return:
 117:.\Generated_Source\PSoC5/USB_Bootloader_hid.c **** *  requestHandled
 118:.\Generated_Source\PSoC5/USB_Bootloader_hid.c **** *
 119:.\Generated_Source\PSoC5/USB_Bootloader_hid.c **** * Reentrant:
 120:.\Generated_Source\PSoC5/USB_Bootloader_hid.c **** *  No.
 121:.\Generated_Source\PSoC5/USB_Bootloader_hid.c **** *
 122:.\Generated_Source\PSoC5/USB_Bootloader_hid.c **** *******************************************************************************/
 123:.\Generated_Source\PSoC5/USB_Bootloader_hid.c **** uint8 USB_Bootloader_DispatchHIDClassRqst(void) 
 124:.\Generated_Source\PSoC5/USB_Bootloader_hid.c **** {
 125:.\Generated_Source\PSoC5/USB_Bootloader_hid.c ****     uint8 requestHandled = USB_Bootloader_FALSE;
 126:.\Generated_Source\PSoC5/USB_Bootloader_hid.c ****     uint8 interfaceNumber;
 127:.\Generated_Source\PSoC5/USB_Bootloader_hid.c **** 
 128:.\Generated_Source\PSoC5/USB_Bootloader_hid.c ****     interfaceNumber = CY_GET_REG8(USB_Bootloader_wIndexLo);
 129:.\Generated_Source\PSoC5/USB_Bootloader_hid.c ****     if ((CY_GET_REG8(USB_Bootloader_bmRequestType) & USB_Bootloader_RQST_DIR_MASK) == USB_Bootloade
 130:.\Generated_Source\PSoC5/USB_Bootloader_hid.c ****     {   /* Control Read */
 131:.\Generated_Source\PSoC5/USB_Bootloader_hid.c ****         switch (CY_GET_REG8(USB_Bootloader_bRequest))
 132:.\Generated_Source\PSoC5/USB_Bootloader_hid.c ****         {
 133:.\Generated_Source\PSoC5/USB_Bootloader_hid.c ****             case USB_Bootloader_GET_DESCRIPTOR:
 134:.\Generated_Source\PSoC5/USB_Bootloader_hid.c ****                 if (CY_GET_REG8(USB_Bootloader_wValueHi) == USB_Bootloader_DESCR_HID_CLASS)
 135:.\Generated_Source\PSoC5/USB_Bootloader_hid.c ****                 {
 136:.\Generated_Source\PSoC5/USB_Bootloader_hid.c ****                     USB_Bootloader_FindHidClassDecriptor();
 137:.\Generated_Source\PSoC5/USB_Bootloader_hid.c ****                     if (USB_Bootloader_currentTD.count != 0u)
 138:.\Generated_Source\PSoC5/USB_Bootloader_hid.c ****                     {
 139:.\Generated_Source\PSoC5/USB_Bootloader_hid.c ****                         requestHandled = USB_Bootloader_InitControlRead();
 140:.\Generated_Source\PSoC5/USB_Bootloader_hid.c ****                     }
 141:.\Generated_Source\PSoC5/USB_Bootloader_hid.c ****                 }
 142:.\Generated_Source\PSoC5/USB_Bootloader_hid.c ****                 else if (CY_GET_REG8(USB_Bootloader_wValueHi) == USB_Bootloader_DESCR_HID_REPORT)
 143:.\Generated_Source\PSoC5/USB_Bootloader_hid.c ****                 {
 144:.\Generated_Source\PSoC5/USB_Bootloader_hid.c ****                     USB_Bootloader_FindReportDescriptor();
 145:.\Generated_Source\PSoC5/USB_Bootloader_hid.c ****                     if (USB_Bootloader_currentTD.count != 0u)
 146:.\Generated_Source\PSoC5/USB_Bootloader_hid.c ****                     {
 147:.\Generated_Source\PSoC5/USB_Bootloader_hid.c ****                         requestHandled = USB_Bootloader_InitControlRead();
 148:.\Generated_Source\PSoC5/USB_Bootloader_hid.c ****                     }
 149:.\Generated_Source\PSoC5/USB_Bootloader_hid.c ****                 }
 150:.\Generated_Source\PSoC5/USB_Bootloader_hid.c ****                 else
 151:.\Generated_Source\PSoC5/USB_Bootloader_hid.c ****                 {   /* requestHandled is initialezed as FALSE by default */
 152:.\Generated_Source\PSoC5/USB_Bootloader_hid.c ****                 }
 153:.\Generated_Source\PSoC5/USB_Bootloader_hid.c ****                 break;
 154:.\Generated_Source\PSoC5/USB_Bootloader_hid.c ****             case USB_Bootloader_HID_GET_REPORT:
 155:.\Generated_Source\PSoC5/USB_Bootloader_hid.c ****                 USB_Bootloader_FindReport();
 156:.\Generated_Source\PSoC5/USB_Bootloader_hid.c ****                 if (USB_Bootloader_currentTD.count != 0u)
 157:.\Generated_Source\PSoC5/USB_Bootloader_hid.c ****                 {
 158:.\Generated_Source\PSoC5/USB_Bootloader_hid.c ****                     requestHandled = USB_Bootloader_InitControlRead();
 159:.\Generated_Source\PSoC5/USB_Bootloader_hid.c ****                 }
 160:.\Generated_Source\PSoC5/USB_Bootloader_hid.c ****                 break;
 161:.\Generated_Source\PSoC5/USB_Bootloader_hid.c **** 
 162:.\Generated_Source\PSoC5/USB_Bootloader_hid.c ****             case USB_Bootloader_HID_GET_IDLE:
 163:.\Generated_Source\PSoC5/USB_Bootloader_hid.c ****                 /* This function does not support multiple reports per interface*/
 164:.\Generated_Source\PSoC5/USB_Bootloader_hid.c ****                 /* Validate interfaceNumber and Report ID (should be 0) */
 165:.\Generated_Source\PSoC5/USB_Bootloader_hid.c ****                 if( (interfaceNumber < USB_Bootloader_MAX_INTERFACES_NUMBER) &&
 166:.\Generated_Source\PSoC5/USB_Bootloader_hid.c ****                     (CY_GET_REG8(USB_Bootloader_wValueLo) == 0u ) ) /* Do not support Idle per Repo
 167:.\Generated_Source\PSoC5/USB_Bootloader_hid.c ****                 {
 168:.\Generated_Source\PSoC5/USB_Bootloader_hid.c ****                     USB_Bootloader_currentTD.count = 1u;
ARM GAS  C:\Users\Robert\AppData\Local\Temp\ccr2TuqX.s 			page 6


 169:.\Generated_Source\PSoC5/USB_Bootloader_hid.c ****                     USB_Bootloader_currentTD.pData = &USB_Bootloader_hidIdleRate[interfaceNumber];
 170:.\Generated_Source\PSoC5/USB_Bootloader_hid.c ****                     requestHandled  = USB_Bootloader_InitControlRead();
 171:.\Generated_Source\PSoC5/USB_Bootloader_hid.c ****                 }
 172:.\Generated_Source\PSoC5/USB_Bootloader_hid.c ****                 break;
 173:.\Generated_Source\PSoC5/USB_Bootloader_hid.c ****             case USB_Bootloader_HID_GET_PROTOCOL:
 174:.\Generated_Source\PSoC5/USB_Bootloader_hid.c ****                 /* Validate interfaceNumber */
 175:.\Generated_Source\PSoC5/USB_Bootloader_hid.c ****                 if( interfaceNumber < USB_Bootloader_MAX_INTERFACES_NUMBER)
 176:.\Generated_Source\PSoC5/USB_Bootloader_hid.c ****                 {
 177:.\Generated_Source\PSoC5/USB_Bootloader_hid.c ****                     USB_Bootloader_currentTD.count = 1u;
 178:.\Generated_Source\PSoC5/USB_Bootloader_hid.c ****                     USB_Bootloader_currentTD.pData = &USB_Bootloader_hidProtocol[interfaceNumber];
 179:.\Generated_Source\PSoC5/USB_Bootloader_hid.c ****                     requestHandled  = USB_Bootloader_InitControlRead();
 180:.\Generated_Source\PSoC5/USB_Bootloader_hid.c ****                 }
 181:.\Generated_Source\PSoC5/USB_Bootloader_hid.c ****                 break;
 182:.\Generated_Source\PSoC5/USB_Bootloader_hid.c ****             default:    /* requestHandled is initialized as FALSE by default */
 183:.\Generated_Source\PSoC5/USB_Bootloader_hid.c ****                 break;
 184:.\Generated_Source\PSoC5/USB_Bootloader_hid.c ****         }
 185:.\Generated_Source\PSoC5/USB_Bootloader_hid.c ****     }
 186:.\Generated_Source\PSoC5/USB_Bootloader_hid.c ****     else if ((CY_GET_REG8(USB_Bootloader_bmRequestType) & USB_Bootloader_RQST_DIR_MASK) ==
 187:.\Generated_Source\PSoC5/USB_Bootloader_hid.c ****                                                                             USB_Bootloader_RQST_DIR
 188:.\Generated_Source\PSoC5/USB_Bootloader_hid.c ****     {   /* Control Write */
 189:.\Generated_Source\PSoC5/USB_Bootloader_hid.c ****         switch (CY_GET_REG8(USB_Bootloader_bRequest))
 190:.\Generated_Source\PSoC5/USB_Bootloader_hid.c ****         {
 191:.\Generated_Source\PSoC5/USB_Bootloader_hid.c ****             case USB_Bootloader_HID_SET_REPORT:
 192:.\Generated_Source\PSoC5/USB_Bootloader_hid.c ****                 USB_Bootloader_FindReport();
 193:.\Generated_Source\PSoC5/USB_Bootloader_hid.c ****                 if (USB_Bootloader_currentTD.count != 0u)
 194:.\Generated_Source\PSoC5/USB_Bootloader_hid.c ****                 {
 195:.\Generated_Source\PSoC5/USB_Bootloader_hid.c ****                     requestHandled = USB_Bootloader_InitControlWrite();
 196:.\Generated_Source\PSoC5/USB_Bootloader_hid.c ****                 }
 197:.\Generated_Source\PSoC5/USB_Bootloader_hid.c ****                 break;
 198:.\Generated_Source\PSoC5/USB_Bootloader_hid.c ****             case USB_Bootloader_HID_SET_IDLE:
 199:.\Generated_Source\PSoC5/USB_Bootloader_hid.c ****                 /* This function does not support multiple reports per interface */
 200:.\Generated_Source\PSoC5/USB_Bootloader_hid.c ****                 /* Validate interfaceNumber and Report ID (should be 0) */
 201:.\Generated_Source\PSoC5/USB_Bootloader_hid.c ****                 if( (interfaceNumber < USB_Bootloader_MAX_INTERFACES_NUMBER) &&
 202:.\Generated_Source\PSoC5/USB_Bootloader_hid.c ****                     (CY_GET_REG8(USB_Bootloader_wValueLo) == 0u ) ) /* Do not support Idle per Repo
 203:.\Generated_Source\PSoC5/USB_Bootloader_hid.c ****                 {
 204:.\Generated_Source\PSoC5/USB_Bootloader_hid.c ****                     USB_Bootloader_hidIdleRate[interfaceNumber] = CY_GET_REG8(USB_Bootloader_wValue
 205:.\Generated_Source\PSoC5/USB_Bootloader_hid.c ****                     /* With regards to HID spec: "7.2.4 Set_Idle Request"
 206:.\Generated_Source\PSoC5/USB_Bootloader_hid.c ****                     *  Latency. If the current period has gone past the
 207:.\Generated_Source\PSoC5/USB_Bootloader_hid.c ****                     *  newly proscribed time duration, then a report
 208:.\Generated_Source\PSoC5/USB_Bootloader_hid.c ****                     *  will be generated immediately.
 209:.\Generated_Source\PSoC5/USB_Bootloader_hid.c ****                     */
 210:.\Generated_Source\PSoC5/USB_Bootloader_hid.c ****                     if(USB_Bootloader_hidIdleRate[interfaceNumber] <
 211:.\Generated_Source\PSoC5/USB_Bootloader_hid.c ****                        USB_Bootloader_hidIdleTimer[interfaceNumber])
 212:.\Generated_Source\PSoC5/USB_Bootloader_hid.c ****                     {
 213:.\Generated_Source\PSoC5/USB_Bootloader_hid.c ****                         /* Set the timer to zero and let the UpdateHIDTimer() API return IDLE_TIMER
 214:.\Generated_Source\PSoC5/USB_Bootloader_hid.c ****                         USB_Bootloader_hidIdleTimer[interfaceNumber] = 0u;
 215:.\Generated_Source\PSoC5/USB_Bootloader_hid.c ****                     }
 216:.\Generated_Source\PSoC5/USB_Bootloader_hid.c ****                     /* If the new request is received within 4 milliseconds
 217:.\Generated_Source\PSoC5/USB_Bootloader_hid.c ****                     *  (1 count) of the end of the current period, then the
 218:.\Generated_Source\PSoC5/USB_Bootloader_hid.c ****                     *  new request will have no effect until after the report.
 219:.\Generated_Source\PSoC5/USB_Bootloader_hid.c ****                     */
 220:.\Generated_Source\PSoC5/USB_Bootloader_hid.c ****                     else if(USB_Bootloader_hidIdleTimer[interfaceNumber] <= 1u)
 221:.\Generated_Source\PSoC5/USB_Bootloader_hid.c ****                     {
 222:.\Generated_Source\PSoC5/USB_Bootloader_hid.c ****                         /* Do nothing.
 223:.\Generated_Source\PSoC5/USB_Bootloader_hid.c ****                         *  Let the UpdateHIDTimer() API continue to work and
 224:.\Generated_Source\PSoC5/USB_Bootloader_hid.c ****                         *  return IDLE_TIMER_EXPIRED status
 225:.\Generated_Source\PSoC5/USB_Bootloader_hid.c ****                         */
ARM GAS  C:\Users\Robert\AppData\Local\Temp\ccr2TuqX.s 			page 7


 226:.\Generated_Source\PSoC5/USB_Bootloader_hid.c ****                     }
 227:.\Generated_Source\PSoC5/USB_Bootloader_hid.c ****                     else
 228:.\Generated_Source\PSoC5/USB_Bootloader_hid.c ****                     {   /* Reload the timer*/
 229:.\Generated_Source\PSoC5/USB_Bootloader_hid.c ****                         USB_Bootloader_hidIdleTimer[interfaceNumber] =
 230:.\Generated_Source\PSoC5/USB_Bootloader_hid.c ****                         USB_Bootloader_hidIdleRate[interfaceNumber];
 231:.\Generated_Source\PSoC5/USB_Bootloader_hid.c ****                     }
 232:.\Generated_Source\PSoC5/USB_Bootloader_hid.c ****                     requestHandled = USB_Bootloader_InitNoDataControlTransfer();
 233:.\Generated_Source\PSoC5/USB_Bootloader_hid.c ****                 }
 234:.\Generated_Source\PSoC5/USB_Bootloader_hid.c ****                 break;
 235:.\Generated_Source\PSoC5/USB_Bootloader_hid.c **** 
 236:.\Generated_Source\PSoC5/USB_Bootloader_hid.c ****             case USB_Bootloader_HID_SET_PROTOCOL:
 237:.\Generated_Source\PSoC5/USB_Bootloader_hid.c ****                 /* Validate interfaceNumber and protocol (must be 0 or 1) */
 238:.\Generated_Source\PSoC5/USB_Bootloader_hid.c ****                 if( (interfaceNumber < USB_Bootloader_MAX_INTERFACES_NUMBER) &&
 239:.\Generated_Source\PSoC5/USB_Bootloader_hid.c ****                     (CY_GET_REG8(USB_Bootloader_wValueLo) <= 1u) )
 240:.\Generated_Source\PSoC5/USB_Bootloader_hid.c ****                 {
 241:.\Generated_Source\PSoC5/USB_Bootloader_hid.c ****                     USB_Bootloader_hidProtocol[interfaceNumber] = CY_GET_REG8(USB_Bootloader_wValue
 242:.\Generated_Source\PSoC5/USB_Bootloader_hid.c ****                     requestHandled = USB_Bootloader_InitNoDataControlTransfer();
 243:.\Generated_Source\PSoC5/USB_Bootloader_hid.c ****                 }
 244:.\Generated_Source\PSoC5/USB_Bootloader_hid.c ****                 break;
 245:.\Generated_Source\PSoC5/USB_Bootloader_hid.c ****             default:    /* requestHandled is initialized as FALSE by default */
 246:.\Generated_Source\PSoC5/USB_Bootloader_hid.c ****                 break;
 247:.\Generated_Source\PSoC5/USB_Bootloader_hid.c ****         }
 248:.\Generated_Source\PSoC5/USB_Bootloader_hid.c ****     }
 249:.\Generated_Source\PSoC5/USB_Bootloader_hid.c ****     else
 250:.\Generated_Source\PSoC5/USB_Bootloader_hid.c ****     {   /* requestHandled is initialized as FALSE by default */
 251:.\Generated_Source\PSoC5/USB_Bootloader_hid.c ****     }
 252:.\Generated_Source\PSoC5/USB_Bootloader_hid.c **** 
 253:.\Generated_Source\PSoC5/USB_Bootloader_hid.c ****     return(requestHandled);
 254:.\Generated_Source\PSoC5/USB_Bootloader_hid.c **** }
 255:.\Generated_Source\PSoC5/USB_Bootloader_hid.c **** 
 256:.\Generated_Source\PSoC5/USB_Bootloader_hid.c **** 
 257:.\Generated_Source\PSoC5/USB_Bootloader_hid.c **** /*******************************************************************************
 258:.\Generated_Source\PSoC5/USB_Bootloader_hid.c **** * Function Name: USB_FindHidClassDescriptor
 259:.\Generated_Source\PSoC5/USB_Bootloader_hid.c **** ********************************************************************************
 260:.\Generated_Source\PSoC5/USB_Bootloader_hid.c **** *
 261:.\Generated_Source\PSoC5/USB_Bootloader_hid.c **** * Summary:
 262:.\Generated_Source\PSoC5/USB_Bootloader_hid.c **** *  This routine find Hid Class Descriptor pointer based on the Interface number
 263:.\Generated_Source\PSoC5/USB_Bootloader_hid.c **** *  and Alternate setting then loads the currentTD structure with the address of
 264:.\Generated_Source\PSoC5/USB_Bootloader_hid.c **** *  the buffer and the size.
 265:.\Generated_Source\PSoC5/USB_Bootloader_hid.c **** *  The HID Class Descriptor resides inside the config descriptor.
 266:.\Generated_Source\PSoC5/USB_Bootloader_hid.c **** *
 267:.\Generated_Source\PSoC5/USB_Bootloader_hid.c **** * Parameters:
 268:.\Generated_Source\PSoC5/USB_Bootloader_hid.c **** *  None.
 269:.\Generated_Source\PSoC5/USB_Bootloader_hid.c **** *
 270:.\Generated_Source\PSoC5/USB_Bootloader_hid.c **** * Return:
 271:.\Generated_Source\PSoC5/USB_Bootloader_hid.c **** *  currentTD
 272:.\Generated_Source\PSoC5/USB_Bootloader_hid.c **** *
 273:.\Generated_Source\PSoC5/USB_Bootloader_hid.c **** * Reentrant:
 274:.\Generated_Source\PSoC5/USB_Bootloader_hid.c **** *  No.
 275:.\Generated_Source\PSoC5/USB_Bootloader_hid.c **** *
 276:.\Generated_Source\PSoC5/USB_Bootloader_hid.c **** *******************************************************************************/
 277:.\Generated_Source\PSoC5/USB_Bootloader_hid.c **** void USB_Bootloader_FindHidClassDecriptor(void) 
 278:.\Generated_Source\PSoC5/USB_Bootloader_hid.c **** {
 117              		.loc 1 278 0
 118              		.cfi_startproc
 119              		@ args = 0, pretend = 0, frame = 0
 120              		@ frame_needed = 0, uses_anonymous_args = 0
ARM GAS  C:\Users\Robert\AppData\Local\Temp\ccr2TuqX.s 			page 8


 121 0000 08B5     		push	{r3, lr}
 122              		.cfi_def_cfa_offset 8
 123              		.cfi_offset 3, -8
 124              		.cfi_offset 14, -4
 279:.\Generated_Source\PSoC5/USB_Bootloader_hid.c ****     const T_USB_Bootloader_LUT CYCODE *pTmp;
 280:.\Generated_Source\PSoC5/USB_Bootloader_hid.c ****     volatile uint8 *pDescr;
 281:.\Generated_Source\PSoC5/USB_Bootloader_hid.c ****     uint8 interfaceN;
 282:.\Generated_Source\PSoC5/USB_Bootloader_hid.c **** 
 283:.\Generated_Source\PSoC5/USB_Bootloader_hid.c ****     pTmp = USB_Bootloader_GetConfigTablePtr(USB_Bootloader_configuration - 1u);
 125              		.loc 1 283 0
 126 0002 0B4B     		ldr	r3, .L12
 127 0004 1878     		ldrb	r0, [r3]	@ zero_extendqisi2
 128 0006 0138     		subs	r0, r0, #1
 129 0008 C0B2     		uxtb	r0, r0
 130 000a FFF7FEFF 		bl	USB_Bootloader_GetConfigTablePtr
 131              	.LVL10:
 284:.\Generated_Source\PSoC5/USB_Bootloader_hid.c ****     interfaceN = CY_GET_REG8(USB_Bootloader_wIndexLo);
 132              		.loc 1 284 0
 133 000e 094B     		ldr	r3, .L12+4
 134 0010 1B78     		ldrb	r3, [r3]	@ zero_extendqisi2
 135 0012 DBB2     		uxtb	r3, r3
 136              	.LVL11:
 285:.\Generated_Source\PSoC5/USB_Bootloader_hid.c ****     /* Third entry in the LUT starts the Interface Table pointers */
 286:.\Generated_Source\PSoC5/USB_Bootloader_hid.c ****     /* Now use the request interface number*/
 287:.\Generated_Source\PSoC5/USB_Bootloader_hid.c ****     pTmp = &pTmp[interfaceN + 2u];
 137              		.loc 1 287 0
 138 0014 00EBC300 		add	r0, r0, r3, lsl #3
 139              	.LVL12:
 288:.\Generated_Source\PSoC5/USB_Bootloader_hid.c ****     /* USB_DEVICEx_CONFIGURATIONy_INTERFACEz_TABLE */
 289:.\Generated_Source\PSoC5/USB_Bootloader_hid.c ****     pTmp = (const T_USB_Bootloader_LUT CYCODE *) pTmp->p_list;
 140              		.loc 1 289 0
 141 0018 4269     		ldr	r2, [r0, #20]
 142              	.LVL13:
 290:.\Generated_Source\PSoC5/USB_Bootloader_hid.c ****     /* Now use Alternate setting number */
 291:.\Generated_Source\PSoC5/USB_Bootloader_hid.c ****     pTmp = &pTmp[USB_Bootloader_interfaceSetting[interfaceN]];
 143              		.loc 1 291 0
 144 001a 0749     		ldr	r1, .L12+8
 145 001c CB5C     		ldrb	r3, [r1, r3]	@ zero_extendqisi2
 146              	.LVL14:
 147 001e 02EBC303 		add	r3, r2, r3, lsl #3
 148              	.LVL15:
 292:.\Generated_Source\PSoC5/USB_Bootloader_hid.c ****     /* USB_DEVICEx_CONFIGURATIONy_INTERFACEz_ALTERNATEi_HID_TABLE */
 293:.\Generated_Source\PSoC5/USB_Bootloader_hid.c ****     pTmp = (const T_USB_Bootloader_LUT CYCODE *) pTmp->p_list;
 149              		.loc 1 293 0
 150 0022 5B68     		ldr	r3, [r3, #4]
 151              	.LVL16:
 294:.\Generated_Source\PSoC5/USB_Bootloader_hid.c ****     /* Fifth entry in the LUT points to Hid Class Descriptor in Configuration Descriptor */
 295:.\Generated_Source\PSoC5/USB_Bootloader_hid.c ****     pTmp = &pTmp[4u];
 296:.\Generated_Source\PSoC5/USB_Bootloader_hid.c ****     pDescr = (volatile uint8 *)pTmp->p_list;
 152              		.loc 1 296 0
 153 0024 596A     		ldr	r1, [r3, #36]
 154              	.LVL17:
 297:.\Generated_Source\PSoC5/USB_Bootloader_hid.c ****     /* The first byte contains the descriptor length */
 298:.\Generated_Source\PSoC5/USB_Bootloader_hid.c ****     USB_Bootloader_currentTD.count = *pDescr;
 155              		.loc 1 298 0
 156 0026 0B78     		ldrb	r3, [r1]	@ zero_extendqisi2
 157              	.LVL18:
ARM GAS  C:\Users\Robert\AppData\Local\Temp\ccr2TuqX.s 			page 9


 158 0028 044A     		ldr	r2, .L12+12
 159 002a 1380     		strh	r3, [r2]	@ movhi
 299:.\Generated_Source\PSoC5/USB_Bootloader_hid.c ****     USB_Bootloader_currentTD.pData = pDescr;
 160              		.loc 1 299 0
 161 002c 5160     		str	r1, [r2, #4]
 162 002e 08BD     		pop	{r3, pc}
 163              	.L13:
 164              		.align	2
 165              	.L12:
 166 0030 00000000 		.word	USB_Bootloader_configuration
 167 0034 04600040 		.word	1073766404
 168 0038 00000000 		.word	USB_Bootloader_interfaceSetting
 169 003c 00000000 		.word	USB_Bootloader_currentTD
 170              		.cfi_endproc
 171              	.LFE3:
 172              		.size	USB_Bootloader_FindHidClassDecriptor, .-USB_Bootloader_FindHidClassDecriptor
 173              		.section	.text.USB_Bootloader_FindReportDescriptor,"ax",%progbits
 174              		.align	2
 175              		.global	USB_Bootloader_FindReportDescriptor
 176              		.thumb
 177              		.thumb_func
 178              		.type	USB_Bootloader_FindReportDescriptor, %function
 179              	USB_Bootloader_FindReportDescriptor:
 180              	.LFB4:
 300:.\Generated_Source\PSoC5/USB_Bootloader_hid.c **** }
 301:.\Generated_Source\PSoC5/USB_Bootloader_hid.c **** 
 302:.\Generated_Source\PSoC5/USB_Bootloader_hid.c **** 
 303:.\Generated_Source\PSoC5/USB_Bootloader_hid.c **** /*******************************************************************************
 304:.\Generated_Source\PSoC5/USB_Bootloader_hid.c **** * Function Name: USB_FindReportDescriptor
 305:.\Generated_Source\PSoC5/USB_Bootloader_hid.c **** ********************************************************************************
 306:.\Generated_Source\PSoC5/USB_Bootloader_hid.c **** *
 307:.\Generated_Source\PSoC5/USB_Bootloader_hid.c **** * Summary:
 308:.\Generated_Source\PSoC5/USB_Bootloader_hid.c **** *  This routine find Hid Report Descriptor pointer based on the Interface
 309:.\Generated_Source\PSoC5/USB_Bootloader_hid.c **** *  number, then loads the currentTD structure with the address of the buffer
 310:.\Generated_Source\PSoC5/USB_Bootloader_hid.c **** *  and the size.
 311:.\Generated_Source\PSoC5/USB_Bootloader_hid.c **** *  Hid Report Descriptor is located after IN/OUT/FEATURE reports.
 312:.\Generated_Source\PSoC5/USB_Bootloader_hid.c **** *
 313:.\Generated_Source\PSoC5/USB_Bootloader_hid.c **** * Parameters:
 314:.\Generated_Source\PSoC5/USB_Bootloader_hid.c **** *   void
 315:.\Generated_Source\PSoC5/USB_Bootloader_hid.c **** *
 316:.\Generated_Source\PSoC5/USB_Bootloader_hid.c **** * Return:
 317:.\Generated_Source\PSoC5/USB_Bootloader_hid.c **** *  currentTD
 318:.\Generated_Source\PSoC5/USB_Bootloader_hid.c **** *
 319:.\Generated_Source\PSoC5/USB_Bootloader_hid.c **** * Reentrant:
 320:.\Generated_Source\PSoC5/USB_Bootloader_hid.c **** *  No.
 321:.\Generated_Source\PSoC5/USB_Bootloader_hid.c **** *
 322:.\Generated_Source\PSoC5/USB_Bootloader_hid.c **** *******************************************************************************/
 323:.\Generated_Source\PSoC5/USB_Bootloader_hid.c **** void USB_Bootloader_FindReportDescriptor(void) 
 324:.\Generated_Source\PSoC5/USB_Bootloader_hid.c **** {
 181              		.loc 1 324 0
 182              		.cfi_startproc
 183              		@ args = 0, pretend = 0, frame = 0
 184              		@ frame_needed = 0, uses_anonymous_args = 0
 185 0000 08B5     		push	{r3, lr}
 186              		.cfi_def_cfa_offset 8
 187              		.cfi_offset 3, -8
 188              		.cfi_offset 14, -4
ARM GAS  C:\Users\Robert\AppData\Local\Temp\ccr2TuqX.s 			page 10


 325:.\Generated_Source\PSoC5/USB_Bootloader_hid.c ****     const T_USB_Bootloader_LUT CYCODE *pTmp;
 326:.\Generated_Source\PSoC5/USB_Bootloader_hid.c ****     volatile uint8 *pDescr;
 327:.\Generated_Source\PSoC5/USB_Bootloader_hid.c ****     uint8 interfaceN;
 328:.\Generated_Source\PSoC5/USB_Bootloader_hid.c **** 
 329:.\Generated_Source\PSoC5/USB_Bootloader_hid.c ****     pTmp = USB_Bootloader_GetConfigTablePtr(USB_Bootloader_configuration - 1u);
 189              		.loc 1 329 0
 190 0002 0D4B     		ldr	r3, .L16
 191 0004 1878     		ldrb	r0, [r3]	@ zero_extendqisi2
 192 0006 0138     		subs	r0, r0, #1
 193 0008 C0B2     		uxtb	r0, r0
 194 000a FFF7FEFF 		bl	USB_Bootloader_GetConfigTablePtr
 195              	.LVL19:
 330:.\Generated_Source\PSoC5/USB_Bootloader_hid.c ****     interfaceN = CY_GET_REG8(USB_Bootloader_wIndexLo);
 196              		.loc 1 330 0
 197 000e 0B4B     		ldr	r3, .L16+4
 198 0010 1B78     		ldrb	r3, [r3]	@ zero_extendqisi2
 199 0012 DBB2     		uxtb	r3, r3
 200              	.LVL20:
 331:.\Generated_Source\PSoC5/USB_Bootloader_hid.c ****     /* Third entry in the LUT starts the Interface Table pointers */
 332:.\Generated_Source\PSoC5/USB_Bootloader_hid.c ****     /* Now use the request interface number */
 333:.\Generated_Source\PSoC5/USB_Bootloader_hid.c ****     pTmp = &pTmp[interfaceN + 2u];
 201              		.loc 1 333 0
 202 0014 00EBC300 		add	r0, r0, r3, lsl #3
 203              	.LVL21:
 334:.\Generated_Source\PSoC5/USB_Bootloader_hid.c ****     /* USB_DEVICEx_CONFIGURATIONy_INTERFACEz_TABLE */
 335:.\Generated_Source\PSoC5/USB_Bootloader_hid.c ****     pTmp = (const T_USB_Bootloader_LUT CYCODE *) pTmp->p_list;
 204              		.loc 1 335 0
 205 0018 4269     		ldr	r2, [r0, #20]
 206              	.LVL22:
 336:.\Generated_Source\PSoC5/USB_Bootloader_hid.c ****     /* Now use Alternate setting number */
 337:.\Generated_Source\PSoC5/USB_Bootloader_hid.c ****     pTmp = &pTmp[USB_Bootloader_interfaceSetting[interfaceN]];
 207              		.loc 1 337 0
 208 001a 0949     		ldr	r1, .L16+8
 209 001c CB5C     		ldrb	r3, [r1, r3]	@ zero_extendqisi2
 210              	.LVL23:
 211 001e 02EBC303 		add	r3, r2, r3, lsl #3
 212              	.LVL24:
 338:.\Generated_Source\PSoC5/USB_Bootloader_hid.c ****     /* USB_DEVICEx_CONFIGURATIONy_INTERFACEz_ALTERNATEi_HID_TABLE */
 339:.\Generated_Source\PSoC5/USB_Bootloader_hid.c ****     pTmp = (const T_USB_Bootloader_LUT CYCODE *) pTmp->p_list;
 213              		.loc 1 339 0
 214 0022 5B68     		ldr	r3, [r3, #4]
 215              	.LVL25:
 340:.\Generated_Source\PSoC5/USB_Bootloader_hid.c ****     /* Fourth entry in the LUT starts the Hid Report Descriptor */
 341:.\Generated_Source\PSoC5/USB_Bootloader_hid.c ****     pTmp = &pTmp[3u];
 342:.\Generated_Source\PSoC5/USB_Bootloader_hid.c ****     pDescr = (volatile uint8 *)pTmp->p_list;
 216              		.loc 1 342 0
 217 0024 DB69     		ldr	r3, [r3, #28]
 218              	.LVL26:
 343:.\Generated_Source\PSoC5/USB_Bootloader_hid.c ****     /* The 1st and 2nd bytes of descriptor contain its length. LSB is 1st. */
 344:.\Generated_Source\PSoC5/USB_Bootloader_hid.c ****     USB_Bootloader_currentTD.count =  (((uint16)pDescr[1u] << 8u) | pDescr[0u]);
 219              		.loc 1 344 0
 220 0026 5978     		ldrb	r1, [r3, #1]	@ zero_extendqisi2
 221 0028 13F8022B 		ldrb	r2, [r3], #2	@ zero_extendqisi2
 222              	.LVL27:
 223 002c 42EA0122 		orr	r2, r2, r1, lsl #8
 224 0030 0449     		ldr	r1, .L16+12
 225 0032 0A80     		strh	r2, [r1]	@ movhi
ARM GAS  C:\Users\Robert\AppData\Local\Temp\ccr2TuqX.s 			page 11


 345:.\Generated_Source\PSoC5/USB_Bootloader_hid.c ****     USB_Bootloader_currentTD.pData = &pDescr[2u];
 226              		.loc 1 345 0
 227 0034 4B60     		str	r3, [r1, #4]
 228 0036 08BD     		pop	{r3, pc}
 229              	.LVL28:
 230              	.L17:
 231              		.align	2
 232              	.L16:
 233 0038 00000000 		.word	USB_Bootloader_configuration
 234 003c 04600040 		.word	1073766404
 235 0040 00000000 		.word	USB_Bootloader_interfaceSetting
 236 0044 00000000 		.word	USB_Bootloader_currentTD
 237              		.cfi_endproc
 238              	.LFE4:
 239              		.size	USB_Bootloader_FindReportDescriptor, .-USB_Bootloader_FindReportDescriptor
 240              		.section	.text.USB_Bootloader_FindReport,"ax",%progbits
 241              		.align	2
 242              		.global	USB_Bootloader_FindReport
 243              		.thumb
 244              		.thumb_func
 245              		.type	USB_Bootloader_FindReport, %function
 246              	USB_Bootloader_FindReport:
 247              	.LFB5:
 346:.\Generated_Source\PSoC5/USB_Bootloader_hid.c **** }
 347:.\Generated_Source\PSoC5/USB_Bootloader_hid.c **** 
 348:.\Generated_Source\PSoC5/USB_Bootloader_hid.c **** 
 349:.\Generated_Source\PSoC5/USB_Bootloader_hid.c **** /*******************************************************************************
 350:.\Generated_Source\PSoC5/USB_Bootloader_hid.c **** * Function Name: USB_Bootloader_FindReport
 351:.\Generated_Source\PSoC5/USB_Bootloader_hid.c **** ********************************************************************************
 352:.\Generated_Source\PSoC5/USB_Bootloader_hid.c **** *
 353:.\Generated_Source\PSoC5/USB_Bootloader_hid.c **** * Summary:
 354:.\Generated_Source\PSoC5/USB_Bootloader_hid.c **** *  This routine sets up a transfer based on the Interface number, Report Type
 355:.\Generated_Source\PSoC5/USB_Bootloader_hid.c **** *  and Report ID, then loads the currentTD structure with the address of the
 356:.\Generated_Source\PSoC5/USB_Bootloader_hid.c **** *  buffer and the size.  The caller has to decide if it is a control read or
 357:.\Generated_Source\PSoC5/USB_Bootloader_hid.c **** *  control write.
 358:.\Generated_Source\PSoC5/USB_Bootloader_hid.c **** *
 359:.\Generated_Source\PSoC5/USB_Bootloader_hid.c **** * Parameters:
 360:.\Generated_Source\PSoC5/USB_Bootloader_hid.c **** *  None.
 361:.\Generated_Source\PSoC5/USB_Bootloader_hid.c **** *
 362:.\Generated_Source\PSoC5/USB_Bootloader_hid.c **** * Return:
 363:.\Generated_Source\PSoC5/USB_Bootloader_hid.c **** *  currentTD
 364:.\Generated_Source\PSoC5/USB_Bootloader_hid.c **** *
 365:.\Generated_Source\PSoC5/USB_Bootloader_hid.c **** * Reentrant:
 366:.\Generated_Source\PSoC5/USB_Bootloader_hid.c **** *  No.
 367:.\Generated_Source\PSoC5/USB_Bootloader_hid.c **** *
 368:.\Generated_Source\PSoC5/USB_Bootloader_hid.c **** *******************************************************************************/
 369:.\Generated_Source\PSoC5/USB_Bootloader_hid.c **** void USB_Bootloader_FindReport(void) 
 370:.\Generated_Source\PSoC5/USB_Bootloader_hid.c **** {
 248              		.loc 1 370 0
 249              		.cfi_startproc
 250              		@ args = 0, pretend = 0, frame = 0
 251              		@ frame_needed = 0, uses_anonymous_args = 0
 252 0000 10B5     		push	{r4, lr}
 253              		.cfi_def_cfa_offset 8
 254              		.cfi_offset 4, -8
 255              		.cfi_offset 14, -4
 371:.\Generated_Source\PSoC5/USB_Bootloader_hid.c ****     const T_USB_Bootloader_LUT CYCODE *pTmp;
ARM GAS  C:\Users\Robert\AppData\Local\Temp\ccr2TuqX.s 			page 12


 372:.\Generated_Source\PSoC5/USB_Bootloader_hid.c ****     T_USB_Bootloader_TD *pTD;
 373:.\Generated_Source\PSoC5/USB_Bootloader_hid.c ****     uint8 interfaceN;
 374:.\Generated_Source\PSoC5/USB_Bootloader_hid.c ****     uint8 reportType;
 375:.\Generated_Source\PSoC5/USB_Bootloader_hid.c **** 
 376:.\Generated_Source\PSoC5/USB_Bootloader_hid.c ****     /* `#START HID_FINDREPORT` Place custom handling here */
 377:.\Generated_Source\PSoC5/USB_Bootloader_hid.c **** 
 378:.\Generated_Source\PSoC5/USB_Bootloader_hid.c ****     /* `#END` */
 379:.\Generated_Source\PSoC5/USB_Bootloader_hid.c ****     
 380:.\Generated_Source\PSoC5/USB_Bootloader_hid.c ****     #ifdef USB_Bootloader_FIND_REPORT_CALLBACK
 381:.\Generated_Source\PSoC5/USB_Bootloader_hid.c ****         USB_Bootloader_FindReport_Callback();
 382:.\Generated_Source\PSoC5/USB_Bootloader_hid.c ****     #endif /* USB_Bootloader_FIND_REPORT_CALLBACK */
 383:.\Generated_Source\PSoC5/USB_Bootloader_hid.c ****     
 384:.\Generated_Source\PSoC5/USB_Bootloader_hid.c ****     USB_Bootloader_currentTD.count = 0u;   /* Init not supported condition */
 256              		.loc 1 384 0
 257 0002 0022     		movs	r2, #0
 258 0004 194B     		ldr	r3, .L21
 259 0006 1A80     		strh	r2, [r3]	@ movhi
 385:.\Generated_Source\PSoC5/USB_Bootloader_hid.c ****     pTmp = USB_Bootloader_GetConfigTablePtr(USB_Bootloader_configuration - 1u);
 260              		.loc 1 385 0
 261 0008 194B     		ldr	r3, .L21+4
 262 000a 1878     		ldrb	r0, [r3]	@ zero_extendqisi2
 263 000c 0138     		subs	r0, r0, #1
 264 000e C0B2     		uxtb	r0, r0
 265 0010 FFF7FEFF 		bl	USB_Bootloader_GetConfigTablePtr
 266              	.LVL29:
 386:.\Generated_Source\PSoC5/USB_Bootloader_hid.c ****     reportType = CY_GET_REG8(USB_Bootloader_wValueHi);
 267              		.loc 1 386 0
 268 0014 174B     		ldr	r3, .L21+8
 269 0016 1B78     		ldrb	r3, [r3]	@ zero_extendqisi2
 270 0018 DBB2     		uxtb	r3, r3
 271              	.LVL30:
 387:.\Generated_Source\PSoC5/USB_Bootloader_hid.c ****     interfaceN = CY_GET_REG8(USB_Bootloader_wIndexLo);
 272              		.loc 1 387 0
 273 001a 174A     		ldr	r2, .L21+12
 274 001c 1278     		ldrb	r2, [r2]	@ zero_extendqisi2
 275 001e D2B2     		uxtb	r2, r2
 276              	.LVL31:
 388:.\Generated_Source\PSoC5/USB_Bootloader_hid.c ****     /* Third entry in the LUT COnfiguration Table starts the Interface Table pointers */
 389:.\Generated_Source\PSoC5/USB_Bootloader_hid.c ****     /* Now use the request interface number */
 390:.\Generated_Source\PSoC5/USB_Bootloader_hid.c ****     pTmp = &pTmp[interfaceN + 2u];
 277              		.loc 1 390 0
 278 0020 00EBC200 		add	r0, r0, r2, lsl #3
 279              	.LVL32:
 391:.\Generated_Source\PSoC5/USB_Bootloader_hid.c ****     /* USB_DEVICEx_CONFIGURATIONy_INTERFACEz_TABLE*/
 392:.\Generated_Source\PSoC5/USB_Bootloader_hid.c ****     pTmp = (const T_USB_Bootloader_LUT CYCODE *) pTmp->p_list;
 280              		.loc 1 392 0
 281 0024 4169     		ldr	r1, [r0, #20]
 282              	.LVL33:
 393:.\Generated_Source\PSoC5/USB_Bootloader_hid.c ****     if(interfaceN < USB_Bootloader_MAX_INTERFACES_NUMBER)
 283              		.loc 1 393 0
 284 0026 02BB     		cbnz	r2, .L18
 394:.\Generated_Source\PSoC5/USB_Bootloader_hid.c ****     {
 395:.\Generated_Source\PSoC5/USB_Bootloader_hid.c ****         /* Now use Alternate setting number */
 396:.\Generated_Source\PSoC5/USB_Bootloader_hid.c ****         pTmp = &pTmp[USB_Bootloader_interfaceSetting[interfaceN]];
 285              		.loc 1 396 0
 286 0028 1448     		ldr	r0, .L21+16
 287 002a 825C     		ldrb	r2, [r0, r2]	@ zero_extendqisi2
ARM GAS  C:\Users\Robert\AppData\Local\Temp\ccr2TuqX.s 			page 13


 288              	.LVL34:
 289 002c 01EBC201 		add	r1, r1, r2, lsl #3
 290              	.LVL35:
 397:.\Generated_Source\PSoC5/USB_Bootloader_hid.c ****         /* USB_DEVICEx_CONFIGURATIONy_INTERFACEz_ALTERNATEi_HID_TABLE */
 398:.\Generated_Source\PSoC5/USB_Bootloader_hid.c ****         pTmp = (const T_USB_Bootloader_LUT CYCODE *) pTmp->p_list;
 291              		.loc 1 398 0
 292 0030 4968     		ldr	r1, [r1, #4]
 293              	.LVL36:
 399:.\Generated_Source\PSoC5/USB_Bootloader_hid.c ****         /* Validate reportType to comply with "7.2.1 Get_Report Request" */
 400:.\Generated_Source\PSoC5/USB_Bootloader_hid.c ****         if((reportType >= USB_Bootloader_HID_GET_REPORT_INPUT) &&
 294              		.loc 1 400 0
 295 0032 5A1E     		subs	r2, r3, #1
 296 0034 D2B2     		uxtb	r2, r2
 297 0036 022A     		cmp	r2, #2
 298 0038 17D8     		bhi	.L18
 401:.\Generated_Source\PSoC5/USB_Bootloader_hid.c ****            (reportType <= USB_Bootloader_HID_GET_REPORT_FEATURE))
 402:.\Generated_Source\PSoC5/USB_Bootloader_hid.c ****         {
 403:.\Generated_Source\PSoC5/USB_Bootloader_hid.c ****             /* Get the entry proper TD (IN, OUT or Feature Report Table)*/
 404:.\Generated_Source\PSoC5/USB_Bootloader_hid.c ****             pTmp = &pTmp[reportType - 1u];
 299              		.loc 1 404 0
 300 003a 03F10053 		add	r3, r3, #536870912
 301              	.LVL37:
 302 003e 013B     		subs	r3, r3, #1
 303              	.LVL38:
 304 0040 01EBC300 		add	r0, r1, r3, lsl #3
 305              	.LVL39:
 405:.\Generated_Source\PSoC5/USB_Bootloader_hid.c ****             reportType = CY_GET_REG8(USB_Bootloader_wValueLo);    /* Get reportID */
 306              		.loc 1 405 0
 307 0044 0E4A     		ldr	r2, .L21+20
 308 0046 1278     		ldrb	r2, [r2]	@ zero_extendqisi2
 309 0048 D2B2     		uxtb	r2, r2
 310              	.LVL40:
 406:.\Generated_Source\PSoC5/USB_Bootloader_hid.c ****             /* Validate table support by the HID descriptor, compare table count with reportID */
 407:.\Generated_Source\PSoC5/USB_Bootloader_hid.c ****             if(pTmp->c >= reportType)
 311              		.loc 1 407 0
 312 004a 11F83330 		ldrb	r3, [r1, r3, lsl #3]	@ zero_extendqisi2
 313 004e 9342     		cmp	r3, r2
 314 0050 0BD3     		bcc	.L18
 408:.\Generated_Source\PSoC5/USB_Bootloader_hid.c ****             {
 409:.\Generated_Source\PSoC5/USB_Bootloader_hid.c ****                 pTD = (T_USB_Bootloader_TD *) pTmp->p_list;
 315              		.loc 1 409 0
 316 0052 4068     		ldr	r0, [r0, #4]
 317              	.LVL41:
 410:.\Generated_Source\PSoC5/USB_Bootloader_hid.c ****                 pTD = &pTD[reportType];                          /* select entry depend on report I
 318              		.loc 1 410 0
 319 0054 02EB4202 		add	r2, r2, r2, lsl #1
 320              	.LVL42:
 321 0058 9200     		lsls	r2, r2, #2
 322 005a 8118     		adds	r1, r0, r2
 323              	.LVL43:
 411:.\Generated_Source\PSoC5/USB_Bootloader_hid.c ****                 USB_Bootloader_currentTD.pData = pTD->pData;   /* Buffer pointer */
 324              		.loc 1 411 0
 325 005c 4C68     		ldr	r4, [r1, #4]
 326 005e 034B     		ldr	r3, .L21
 327 0060 5C60     		str	r4, [r3, #4]
 412:.\Generated_Source\PSoC5/USB_Bootloader_hid.c ****                 USB_Bootloader_currentTD.count = pTD->count;   /* Buffer Size */
 328              		.loc 1 412 0
ARM GAS  C:\Users\Robert\AppData\Local\Temp\ccr2TuqX.s 			page 14


 329 0062 825A     		ldrh	r2, [r0, r2]
 330 0064 1A80     		strh	r2, [r3]	@ movhi
 413:.\Generated_Source\PSoC5/USB_Bootloader_hid.c ****                 USB_Bootloader_currentTD.pStatusBlock = pTD->pStatusBlock;
 331              		.loc 1 413 0
 332 0066 8A68     		ldr	r2, [r1, #8]
 333 0068 9A60     		str	r2, [r3, #8]
 334              	.LVL44:
 335              	.L18:
 336 006a 10BD     		pop	{r4, pc}
 337              	.L22:
 338              		.align	2
 339              	.L21:
 340 006c 00000000 		.word	USB_Bootloader_currentTD
 341 0070 00000000 		.word	USB_Bootloader_configuration
 342 0074 03600040 		.word	1073766403
 343 0078 04600040 		.word	1073766404
 344 007c 00000000 		.word	USB_Bootloader_interfaceSetting
 345 0080 02600040 		.word	1073766402
 346              		.cfi_endproc
 347              	.LFE5:
 348              		.size	USB_Bootloader_FindReport, .-USB_Bootloader_FindReport
 349              		.section	.text.USB_Bootloader_DispatchHIDClassRqst,"ax",%progbits
 350              		.align	2
 351              		.global	USB_Bootloader_DispatchHIDClassRqst
 352              		.thumb
 353              		.thumb_func
 354              		.type	USB_Bootloader_DispatchHIDClassRqst, %function
 355              	USB_Bootloader_DispatchHIDClassRqst:
 356              	.LFB2:
 124:.\Generated_Source\PSoC5/USB_Bootloader_hid.c ****     uint8 requestHandled = USB_Bootloader_FALSE;
 357              		.loc 1 124 0
 358              		.cfi_startproc
 359              		@ args = 0, pretend = 0, frame = 0
 360              		@ frame_needed = 0, uses_anonymous_args = 0
 361 0000 08B5     		push	{r3, lr}
 362              		.cfi_def_cfa_offset 8
 363              		.cfi_offset 3, -8
 364              		.cfi_offset 14, -4
 365              	.LVL45:
 128:.\Generated_Source\PSoC5/USB_Bootloader_hid.c ****     if ((CY_GET_REG8(USB_Bootloader_bmRequestType) & USB_Bootloader_RQST_DIR_MASK) == USB_Bootloade
 366              		.loc 1 128 0
 367 0002 5F4B     		ldr	r3, .L54
 368 0004 1B78     		ldrb	r3, [r3]	@ zero_extendqisi2
 369 0006 DAB2     		uxtb	r2, r3
 370              	.LVL46:
 129:.\Generated_Source\PSoC5/USB_Bootloader_hid.c ****     {   /* Control Read */
 371              		.loc 1 129 0
 372 0008 5E4B     		ldr	r3, .L54+4
 373 000a 1B78     		ldrb	r3, [r3]	@ zero_extendqisi2
 374 000c 13F0800F 		tst	r3, #128
 375 0010 4ED0     		beq	.L24
 131:.\Generated_Source\PSoC5/USB_Bootloader_hid.c ****         {
 376              		.loc 1 131 0
 377 0012 5D4B     		ldr	r3, .L54+8
 378 0014 1B78     		ldrb	r3, [r3]	@ zero_extendqisi2
 379 0016 013B     		subs	r3, r3, #1
 380 0018 052B     		cmp	r3, #5
ARM GAS  C:\Users\Robert\AppData\Local\Temp\ccr2TuqX.s 			page 15


 381 001a 00F29280 		bhi	.L37
 382 001e DFE803F0 		tbb	[pc, r3]
 383              	.L27:
 384 0022 22       		.byte	(.L26-.L27)/2
 385 0023 2C       		.byte	(.L28-.L27)/2
 386 0024 3C       		.byte	(.L29-.L27)/2
 387 0025 90       		.byte	(.L37-.L27)/2
 388 0026 90       		.byte	(.L37-.L27)/2
 389 0027 03       		.byte	(.L30-.L27)/2
 390              		.p2align 1
 391              	.L30:
 134:.\Generated_Source\PSoC5/USB_Bootloader_hid.c ****                 {
 392              		.loc 1 134 0
 393 0028 584B     		ldr	r3, .L54+12
 394 002a 1B78     		ldrb	r3, [r3]	@ zero_extendqisi2
 395 002c DBB2     		uxtb	r3, r3
 396 002e 212B     		cmp	r3, #33
 397 0030 0AD1     		bne	.L31
 136:.\Generated_Source\PSoC5/USB_Bootloader_hid.c ****                     if (USB_Bootloader_currentTD.count != 0u)
 398              		.loc 1 136 0
 399 0032 FFF7FEFF 		bl	USB_Bootloader_FindHidClassDecriptor
 400              	.LVL47:
 137:.\Generated_Source\PSoC5/USB_Bootloader_hid.c ****                     {
 401              		.loc 1 137 0
 402 0036 564B     		ldr	r3, .L54+16
 403 0038 1B88     		ldrh	r3, [r3]
 404 003a 9BB2     		uxth	r3, r3
 405 003c 002B     		cmp	r3, #0
 406 003e 00F08280 		beq	.L38
 139:.\Generated_Source\PSoC5/USB_Bootloader_hid.c ****                     }
 407              		.loc 1 139 0
 408 0042 FFF7FEFF 		bl	USB_Bootloader_InitControlRead
 409              	.LVL48:
 410 0046 08BD     		pop	{r3, pc}
 411              	.LVL49:
 412              	.L31:
 142:.\Generated_Source\PSoC5/USB_Bootloader_hid.c ****                 {
 413              		.loc 1 142 0
 414 0048 504B     		ldr	r3, .L54+12
 415 004a 1B78     		ldrb	r3, [r3]	@ zero_extendqisi2
 416 004c DBB2     		uxtb	r3, r3
 417 004e 222B     		cmp	r3, #34
 418 0050 7BD1     		bne	.L39
 144:.\Generated_Source\PSoC5/USB_Bootloader_hid.c ****                     if (USB_Bootloader_currentTD.count != 0u)
 419              		.loc 1 144 0
 420 0052 FFF7FEFF 		bl	USB_Bootloader_FindReportDescriptor
 421              	.LVL50:
 145:.\Generated_Source\PSoC5/USB_Bootloader_hid.c ****                     {
 422              		.loc 1 145 0
 423 0056 4E4B     		ldr	r3, .L54+16
 424 0058 1B88     		ldrh	r3, [r3]
 425 005a 9BB2     		uxth	r3, r3
 426 005c 002B     		cmp	r3, #0
 427 005e 76D0     		beq	.L40
 147:.\Generated_Source\PSoC5/USB_Bootloader_hid.c ****                     }
 428              		.loc 1 147 0
 429 0060 FFF7FEFF 		bl	USB_Bootloader_InitControlRead
ARM GAS  C:\Users\Robert\AppData\Local\Temp\ccr2TuqX.s 			page 16


 430              	.LVL51:
 431 0064 08BD     		pop	{r3, pc}
 432              	.LVL52:
 433              	.L26:
 155:.\Generated_Source\PSoC5/USB_Bootloader_hid.c ****                 if (USB_Bootloader_currentTD.count != 0u)
 434              		.loc 1 155 0
 435 0066 FFF7FEFF 		bl	USB_Bootloader_FindReport
 436              	.LVL53:
 156:.\Generated_Source\PSoC5/USB_Bootloader_hid.c ****                 {
 437              		.loc 1 156 0
 438 006a 494B     		ldr	r3, .L54+16
 439 006c 1B88     		ldrh	r3, [r3]
 440 006e 9BB2     		uxth	r3, r3
 441 0070 002B     		cmp	r3, #0
 442 0072 6ED0     		beq	.L41
 158:.\Generated_Source\PSoC5/USB_Bootloader_hid.c ****                 }
 443              		.loc 1 158 0
 444 0074 FFF7FEFF 		bl	USB_Bootloader_InitControlRead
 445              	.LVL54:
 446 0078 08BD     		pop	{r3, pc}
 447              	.LVL55:
 448              	.L28:
 165:.\Generated_Source\PSoC5/USB_Bootloader_hid.c ****                     (CY_GET_REG8(USB_Bootloader_wValueLo) == 0u ) ) /* Do not support Idle per Repo
 449              		.loc 1 165 0
 450 007a 002A     		cmp	r2, #0
 451 007c 6BD1     		bne	.L42
 166:.\Generated_Source\PSoC5/USB_Bootloader_hid.c ****                 {
 452              		.loc 1 166 0 discriminator 1
 453 007e 454B     		ldr	r3, .L54+20
 454 0080 1B78     		ldrb	r3, [r3]	@ zero_extendqisi2
 165:.\Generated_Source\PSoC5/USB_Bootloader_hid.c ****                     (CY_GET_REG8(USB_Bootloader_wValueLo) == 0u ) ) /* Do not support Idle per Repo
 455              		.loc 1 165 0 discriminator 1
 456 0082 13F0FF0F 		tst	r3, #255
 457 0086 68D1     		bne	.L43
 168:.\Generated_Source\PSoC5/USB_Bootloader_hid.c ****                     USB_Bootloader_currentTD.pData = &USB_Bootloader_hidIdleRate[interfaceNumber];
 458              		.loc 1 168 0
 459 0088 4149     		ldr	r1, .L54+16
 460 008a 0123     		movs	r3, #1
 461 008c 0B80     		strh	r3, [r1]	@ movhi
 169:.\Generated_Source\PSoC5/USB_Bootloader_hid.c ****                     requestHandled  = USB_Bootloader_InitControlRead();
 462              		.loc 1 169 0
 463 008e 424B     		ldr	r3, .L54+24
 464 0090 1344     		add	r3, r3, r2
 465 0092 4B60     		str	r3, [r1, #4]
 170:.\Generated_Source\PSoC5/USB_Bootloader_hid.c ****                 }
 466              		.loc 1 170 0
 467 0094 FFF7FEFF 		bl	USB_Bootloader_InitControlRead
 468              	.LVL56:
 469 0098 08BD     		pop	{r3, pc}
 470              	.LVL57:
 471              	.L29:
 175:.\Generated_Source\PSoC5/USB_Bootloader_hid.c ****                 {
 472              		.loc 1 175 0
 473 009a 002A     		cmp	r2, #0
 474 009c 5FD1     		bne	.L44
 177:.\Generated_Source\PSoC5/USB_Bootloader_hid.c ****                     USB_Bootloader_currentTD.pData = &USB_Bootloader_hidProtocol[interfaceNumber];
 475              		.loc 1 177 0
ARM GAS  C:\Users\Robert\AppData\Local\Temp\ccr2TuqX.s 			page 17


 476 009e 3C49     		ldr	r1, .L54+16
 477 00a0 0123     		movs	r3, #1
 478 00a2 0B80     		strh	r3, [r1]	@ movhi
 178:.\Generated_Source\PSoC5/USB_Bootloader_hid.c ****                     requestHandled  = USB_Bootloader_InitControlRead();
 479              		.loc 1 178 0
 480 00a4 3D4B     		ldr	r3, .L54+28
 481 00a6 1344     		add	r3, r3, r2
 482 00a8 4B60     		str	r3, [r1, #4]
 179:.\Generated_Source\PSoC5/USB_Bootloader_hid.c ****                 }
 483              		.loc 1 179 0
 484 00aa FFF7FEFF 		bl	USB_Bootloader_InitControlRead
 485              	.LVL58:
 486 00ae 08BD     		pop	{r3, pc}
 487              	.LVL59:
 488              	.L24:
 186:.\Generated_Source\PSoC5/USB_Bootloader_hid.c ****                                                                             USB_Bootloader_RQST_DIR
 489              		.loc 1 186 0
 490 00b0 344B     		ldr	r3, .L54+4
 491 00b2 1B78     		ldrb	r3, [r3]	@ zero_extendqisi2
 492 00b4 13F0800F 		tst	r3, #128
 493 00b8 53D1     		bne	.L45
 189:.\Generated_Source\PSoC5/USB_Bootloader_hid.c ****         {
 494              		.loc 1 189 0
 495 00ba 334B     		ldr	r3, .L54+8
 496 00bc 1B78     		ldrb	r3, [r3]	@ zero_extendqisi2
 497 00be DBB2     		uxtb	r3, r3
 498 00c0 0A2B     		cmp	r3, #10
 499 00c2 0DD0     		beq	.L32
 500 00c4 0B2B     		cmp	r3, #11
 501 00c6 2ED0     		beq	.L33
 502 00c8 092B     		cmp	r3, #9
 503 00ca 4CD1     		bne	.L52
 192:.\Generated_Source\PSoC5/USB_Bootloader_hid.c ****                 if (USB_Bootloader_currentTD.count != 0u)
 504              		.loc 1 192 0
 505 00cc FFF7FEFF 		bl	USB_Bootloader_FindReport
 506              	.LVL60:
 193:.\Generated_Source\PSoC5/USB_Bootloader_hid.c ****                 {
 507              		.loc 1 193 0
 508 00d0 2F4B     		ldr	r3, .L54+16
 509 00d2 1B88     		ldrh	r3, [r3]
 510 00d4 9BB2     		uxth	r3, r3
 511 00d6 002B     		cmp	r3, #0
 512 00d8 47D0     		beq	.L47
 195:.\Generated_Source\PSoC5/USB_Bootloader_hid.c ****                 }
 513              		.loc 1 195 0
 514 00da FFF7FEFF 		bl	USB_Bootloader_InitControlWrite
 515              	.LVL61:
 516 00de 08BD     		pop	{r3, pc}
 517              	.LVL62:
 518              	.L32:
 201:.\Generated_Source\PSoC5/USB_Bootloader_hid.c ****                     (CY_GET_REG8(USB_Bootloader_wValueLo) == 0u ) ) /* Do not support Idle per Repo
 519              		.loc 1 201 0
 520 00e0 002A     		cmp	r2, #0
 521 00e2 44D1     		bne	.L48
 202:.\Generated_Source\PSoC5/USB_Bootloader_hid.c ****                 {
 522              		.loc 1 202 0 discriminator 1
 523 00e4 2B4B     		ldr	r3, .L54+20
ARM GAS  C:\Users\Robert\AppData\Local\Temp\ccr2TuqX.s 			page 18


 524 00e6 1B78     		ldrb	r3, [r3]	@ zero_extendqisi2
 201:.\Generated_Source\PSoC5/USB_Bootloader_hid.c ****                     (CY_GET_REG8(USB_Bootloader_wValueLo) == 0u ) ) /* Do not support Idle per Repo
 525              		.loc 1 201 0 discriminator 1
 526 00e8 13F0FF0F 		tst	r3, #255
 527 00ec 41D1     		bne	.L49
 204:.\Generated_Source\PSoC5/USB_Bootloader_hid.c ****                     /* With regards to HID spec: "7.2.4 Set_Idle Request"
 528              		.loc 1 204 0
 529 00ee 274B     		ldr	r3, .L54+12
 530 00f0 1B78     		ldrb	r3, [r3]	@ zero_extendqisi2
 531 00f2 DBB2     		uxtb	r3, r3
 532 00f4 2849     		ldr	r1, .L54+24
 533 00f6 8B54     		strb	r3, [r1, r2]
 210:.\Generated_Source\PSoC5/USB_Bootloader_hid.c ****                        USB_Bootloader_hidIdleTimer[interfaceNumber])
 534              		.loc 1 210 0
 535 00f8 8B5C     		ldrb	r3, [r1, r2]	@ zero_extendqisi2
 211:.\Generated_Source\PSoC5/USB_Bootloader_hid.c ****                     {
 536              		.loc 1 211 0
 537 00fa 2949     		ldr	r1, .L54+32
 538 00fc 895C     		ldrb	r1, [r1, r2]	@ zero_extendqisi2
 539 00fe DBB2     		uxtb	r3, r3
 210:.\Generated_Source\PSoC5/USB_Bootloader_hid.c ****                        USB_Bootloader_hidIdleTimer[interfaceNumber])
 540              		.loc 1 210 0
 541 0100 8B42     		cmp	r3, r1
 542 0102 03D2     		bcs	.L35
 214:.\Generated_Source\PSoC5/USB_Bootloader_hid.c ****                     }
 543              		.loc 1 214 0
 544 0104 0021     		movs	r1, #0
 545 0106 264B     		ldr	r3, .L54+32
 546 0108 9954     		strb	r1, [r3, r2]
 547 010a 09E0     		b	.L36
 548              	.L35:
 220:.\Generated_Source\PSoC5/USB_Bootloader_hid.c ****                     {
 549              		.loc 1 220 0
 550 010c 244B     		ldr	r3, .L54+32
 551 010e 9B5C     		ldrb	r3, [r3, r2]	@ zero_extendqisi2
 552 0110 DBB2     		uxtb	r3, r3
 553 0112 012B     		cmp	r3, #1
 554 0114 04D9     		bls	.L36
 230:.\Generated_Source\PSoC5/USB_Bootloader_hid.c ****                     }
 555              		.loc 1 230 0
 556 0116 204B     		ldr	r3, .L54+24
 557 0118 9B5C     		ldrb	r3, [r3, r2]	@ zero_extendqisi2
 558 011a DBB2     		uxtb	r3, r3
 229:.\Generated_Source\PSoC5/USB_Bootloader_hid.c ****                         USB_Bootloader_hidIdleRate[interfaceNumber];
 559              		.loc 1 229 0
 560 011c 2049     		ldr	r1, .L54+32
 561 011e 8B54     		strb	r3, [r1, r2]
 562              	.L36:
 232:.\Generated_Source\PSoC5/USB_Bootloader_hid.c ****                 }
 563              		.loc 1 232 0
 564 0120 FFF7FEFF 		bl	USB_Bootloader_InitNoDataControlTransfer
 565              	.LVL63:
 566 0124 08BD     		pop	{r3, pc}
 567              	.LVL64:
 568              	.L33:
 238:.\Generated_Source\PSoC5/USB_Bootloader_hid.c ****                     (CY_GET_REG8(USB_Bootloader_wValueLo) <= 1u) )
 569              		.loc 1 238 0
ARM GAS  C:\Users\Robert\AppData\Local\Temp\ccr2TuqX.s 			page 19


 570 0126 32BB     		cbnz	r2, .L50
 239:.\Generated_Source\PSoC5/USB_Bootloader_hid.c ****                 {
 571              		.loc 1 239 0 discriminator 1
 572 0128 1A4B     		ldr	r3, .L54+20
 573 012a 1B78     		ldrb	r3, [r3]	@ zero_extendqisi2
 574 012c DBB2     		uxtb	r3, r3
 238:.\Generated_Source\PSoC5/USB_Bootloader_hid.c ****                     (CY_GET_REG8(USB_Bootloader_wValueLo) <= 1u) )
 575              		.loc 1 238 0 discriminator 1
 576 012e 012B     		cmp	r3, #1
 577 0130 23D8     		bhi	.L51
 241:.\Generated_Source\PSoC5/USB_Bootloader_hid.c ****                     requestHandled = USB_Bootloader_InitNoDataControlTransfer();
 578              		.loc 1 241 0
 579 0132 184B     		ldr	r3, .L54+20
 580 0134 1B78     		ldrb	r3, [r3]	@ zero_extendqisi2
 581 0136 DBB2     		uxtb	r3, r3
 582 0138 1849     		ldr	r1, .L54+28
 583 013a 8B54     		strb	r3, [r1, r2]
 242:.\Generated_Source\PSoC5/USB_Bootloader_hid.c ****                 }
 584              		.loc 1 242 0
 585 013c FFF7FEFF 		bl	USB_Bootloader_InitNoDataControlTransfer
 586              	.LVL65:
 587 0140 08BD     		pop	{r3, pc}
 588              	.LVL66:
 589              	.L37:
 125:.\Generated_Source\PSoC5/USB_Bootloader_hid.c ****     uint8 interfaceNumber;
 590              		.loc 1 125 0
 591 0142 0020     		movs	r0, #0
 592 0144 08BD     		pop	{r3, pc}
 593              	.LVL67:
 594              	.L38:
 595 0146 0020     		movs	r0, #0
 596 0148 08BD     		pop	{r3, pc}
 597              	.LVL68:
 598              	.L39:
 599 014a 0020     		movs	r0, #0
 600 014c 08BD     		pop	{r3, pc}
 601              	.LVL69:
 602              	.L40:
 603 014e 0020     		movs	r0, #0
 604 0150 08BD     		pop	{r3, pc}
 605              	.L41:
 606 0152 0020     		movs	r0, #0
 607 0154 08BD     		pop	{r3, pc}
 608              	.LVL70:
 609              	.L42:
 610 0156 0020     		movs	r0, #0
 611 0158 08BD     		pop	{r3, pc}
 612              	.L43:
 613 015a 0020     		movs	r0, #0
 614 015c 08BD     		pop	{r3, pc}
 615              	.L44:
 616 015e 0020     		movs	r0, #0
 617 0160 08BD     		pop	{r3, pc}
 618              	.L45:
 619 0162 0020     		movs	r0, #0
 620 0164 08BD     		pop	{r3, pc}
 621              	.L52:
ARM GAS  C:\Users\Robert\AppData\Local\Temp\ccr2TuqX.s 			page 20


 622 0166 0020     		movs	r0, #0
 623 0168 08BD     		pop	{r3, pc}
 624              	.LVL71:
 625              	.L47:
 626 016a 0020     		movs	r0, #0
 627 016c 08BD     		pop	{r3, pc}
 628              	.LVL72:
 629              	.L48:
 630 016e 0020     		movs	r0, #0
 631 0170 08BD     		pop	{r3, pc}
 632              	.L49:
 633 0172 0020     		movs	r0, #0
 634 0174 08BD     		pop	{r3, pc}
 635              	.L50:
 636 0176 0020     		movs	r0, #0
 637 0178 08BD     		pop	{r3, pc}
 638              	.L51:
 639 017a 0020     		movs	r0, #0
 640              	.LVL73:
 254:.\Generated_Source\PSoC5/USB_Bootloader_hid.c **** 
 641              		.loc 1 254 0
 642 017c 08BD     		pop	{r3, pc}
 643              	.L55:
 644 017e 00BF     		.align	2
 645              	.L54:
 646 0180 04600040 		.word	1073766404
 647 0184 00600040 		.word	1073766400
 648 0188 01600040 		.word	1073766401
 649 018c 03600040 		.word	1073766403
 650 0190 00000000 		.word	USB_Bootloader_currentTD
 651 0194 02600040 		.word	1073766402
 652 0198 00000000 		.word	USB_Bootloader_hidIdleRate
 653 019c 00000000 		.word	USB_Bootloader_hidProtocol
 654 01a0 00000000 		.word	USB_Bootloader_hidIdleTimer
 655              		.cfi_endproc
 656              	.LFE2:
 657              		.size	USB_Bootloader_DispatchHIDClassRqst, .-USB_Bootloader_DispatchHIDClassRqst
 658              		.comm	USB_Bootloader_hidIdleTimer,1,4
 659              		.comm	USB_Bootloader_hidIdleRate,1,4
 660              		.comm	USB_Bootloader_hidProtocol,1,4
 661              		.text
 662              	.Letext0:
 663              		.file 2 ".\\Generated_Source\\PSoC5\\cytypes.h"
 664              		.file 3 ".\\Generated_Source\\PSoC5\\USB_Bootloader.h"
 665              		.file 4 ".\\Generated_Source\\PSoC5\\USB_Bootloader_pvt.h"