ARM GAS  C:\Users\Robert\AppData\Local\Temp\ccgj8kBb.s 			page 1


   1              		.syntax unified
   2              		.cpu cortex-m3
   3              		.fpu softvfp
   4              		.eabi_attribute 20, 1
   5              		.eabi_attribute 21, 1
   6              		.eabi_attribute 23, 3
   7              		.eabi_attribute 24, 1
   8              		.eabi_attribute 25, 1
   9              		.eabi_attribute 26, 1
  10              		.eabi_attribute 30, 6
  11              		.eabi_attribute 34, 1
  12              		.eabi_attribute 18, 4
  13              		.thumb
  14              		.file	"Bootloader_1.c"
  15              		.text
  16              	.Ltext0:
  17              		.cfi_sections	.debug_frame
  18              		.global	Bootloader_1_Checksum
  19              		.section	.bootloader,"a",%progbits
  20              		.type	Bootloader_1_Checksum, %object
  21              		.size	Bootloader_1_Checksum, 1
  22              	Bootloader_1_Checksum:
  23 0000 00       		.space	1
  24              		.global	Bootloader_1_ChecksumAccess
  25              		.data
  26              		.align	2
  27              		.type	Bootloader_1_ChecksumAccess, %object
  28              		.size	Bootloader_1_ChecksumAccess, 4
  29              	Bootloader_1_ChecksumAccess:
  30 0000 00000000 		.word	Bootloader_1_Checksum
  31              		.global	Bootloader_1_SizeBytes
  32              		.section	.bootloader
  33 0001 000000   		.align	2
  34              		.type	Bootloader_1_SizeBytes, %object
  35              		.size	Bootloader_1_SizeBytes, 4
  36              	Bootloader_1_SizeBytes:
  37 0004 FFFFFFFF 		.word	-1
  38              		.global	Bootloader_1_SizeBytesAccess
  39              		.data
  40              		.align	2
  41              		.type	Bootloader_1_SizeBytesAccess, %object
  42              		.size	Bootloader_1_SizeBytesAccess, 4
  43              	Bootloader_1_SizeBytesAccess:
  44 0004 00000000 		.word	Bootloader_1_SizeBytes
  45              		.section	.text.Bootloader_1_CalcPacketChecksum,"ax",%progbits
  46              		.align	2
  47              		.thumb
  48              		.thumb_func
  49              		.type	Bootloader_1_CalcPacketChecksum, %function
  50              	Bootloader_1_CalcPacketChecksum:
  51              	.LFB56:
  52              		.file 1 ".\\Generated_Source\\PSoC5\\Bootloader_1.c"
   1:.\Generated_Source\PSoC5/Bootloader_1.c **** /*******************************************************************************
   2:.\Generated_Source\PSoC5/Bootloader_1.c **** * File Name: Bootloader_1.c
   3:.\Generated_Source\PSoC5/Bootloader_1.c **** * Version 1.20
   4:.\Generated_Source\PSoC5/Bootloader_1.c **** *
   5:.\Generated_Source\PSoC5/Bootloader_1.c **** *  Description:
ARM GAS  C:\Users\Robert\AppData\Local\Temp\ccgj8kBb.s 			page 2


   6:.\Generated_Source\PSoC5/Bootloader_1.c **** *   Provides an API for the Bootloader component. The API includes functions
   7:.\Generated_Source\PSoC5/Bootloader_1.c **** *   for starting boot loading operations, validating the application and
   8:.\Generated_Source\PSoC5/Bootloader_1.c **** *   jumping to the application.
   9:.\Generated_Source\PSoC5/Bootloader_1.c **** *
  10:.\Generated_Source\PSoC5/Bootloader_1.c **** ********************************************************************************
  11:.\Generated_Source\PSoC5/Bootloader_1.c **** * Copyright 2008-2013, Cypress Semiconductor Corporation.  All rights reserved.
  12:.\Generated_Source\PSoC5/Bootloader_1.c **** * You may use this file only in accordance with the license, terms, conditions,
  13:.\Generated_Source\PSoC5/Bootloader_1.c **** * disclaimers, and limitations in the end user license agreement accompanying
  14:.\Generated_Source\PSoC5/Bootloader_1.c **** * the software package with which this file was provided.
  15:.\Generated_Source\PSoC5/Bootloader_1.c **** *******************************************************************************/
  16:.\Generated_Source\PSoC5/Bootloader_1.c **** 
  17:.\Generated_Source\PSoC5/Bootloader_1.c **** #include "Bootloader_1_PVT.h"
  18:.\Generated_Source\PSoC5/Bootloader_1.c **** 
  19:.\Generated_Source\PSoC5/Bootloader_1.c **** #include "project.h"
  20:.\Generated_Source\PSoC5/Bootloader_1.c **** #include <string.h>
  21:.\Generated_Source\PSoC5/Bootloader_1.c **** 
  22:.\Generated_Source\PSoC5/Bootloader_1.c **** 
  23:.\Generated_Source\PSoC5/Bootloader_1.c **** /*******************************************************************************
  24:.\Generated_Source\PSoC5/Bootloader_1.c **** * The Checksum and SizeBytes are forcefully set in code. We then post process
  25:.\Generated_Source\PSoC5/Bootloader_1.c **** * the hex file from the linker and inject their values then. When the hex file
  26:.\Generated_Source\PSoC5/Bootloader_1.c **** * is loaded onto the device these two variables should have valid values.
  27:.\Generated_Source\PSoC5/Bootloader_1.c **** * Because the compiler can do optimizations remove the constant
  28:.\Generated_Source\PSoC5/Bootloader_1.c **** * accesses, these should not be accessed directly. Instead, the variables
  29:.\Generated_Source\PSoC5/Bootloader_1.c **** * CyBtldr_ChecksumAccess & CyBtldr_SizeBytesAccess should be used to get the
  30:.\Generated_Source\PSoC5/Bootloader_1.c **** * proper values at runtime.
  31:.\Generated_Source\PSoC5/Bootloader_1.c **** *******************************************************************************/
  32:.\Generated_Source\PSoC5/Bootloader_1.c **** #if defined(__ARMCC_VERSION) || defined (__GNUC__)
  33:.\Generated_Source\PSoC5/Bootloader_1.c ****     __attribute__((section (".bootloader")))
  34:.\Generated_Source\PSoC5/Bootloader_1.c **** #elif defined (__ICCARM__)
  35:.\Generated_Source\PSoC5/Bootloader_1.c ****     #pragma location=".bootloader"
  36:.\Generated_Source\PSoC5/Bootloader_1.c **** #endif  /* defined(__ARMCC_VERSION) || defined (__GNUC__) */
  37:.\Generated_Source\PSoC5/Bootloader_1.c **** 
  38:.\Generated_Source\PSoC5/Bootloader_1.c **** const uint8  CYCODE Bootloader_1_Checksum = 0u;
  39:.\Generated_Source\PSoC5/Bootloader_1.c **** const uint8  CYCODE *Bootloader_1_ChecksumAccess  = (const uint8  CYCODE *)(&Bootloader_1_Checksum)
  40:.\Generated_Source\PSoC5/Bootloader_1.c **** 
  41:.\Generated_Source\PSoC5/Bootloader_1.c **** #if defined(__ARMCC_VERSION) || defined (__GNUC__)
  42:.\Generated_Source\PSoC5/Bootloader_1.c ****     __attribute__((section (".bootloader")))
  43:.\Generated_Source\PSoC5/Bootloader_1.c **** #elif defined (__ICCARM__)
  44:.\Generated_Source\PSoC5/Bootloader_1.c ****     #pragma location=".bootloader"
  45:.\Generated_Source\PSoC5/Bootloader_1.c **** #endif  /* defined(__ARMCC_VERSION) || defined (__GNUC__) */
  46:.\Generated_Source\PSoC5/Bootloader_1.c **** 
  47:.\Generated_Source\PSoC5/Bootloader_1.c **** const uint32 CYCODE Bootloader_1_SizeBytes = 0xFFFFFFFFu;
  48:.\Generated_Source\PSoC5/Bootloader_1.c **** const uint32 CYCODE *Bootloader_1_SizeBytesAccess = (const uint32 CYCODE *)(&Bootloader_1_SizeBytes
  49:.\Generated_Source\PSoC5/Bootloader_1.c **** 
  50:.\Generated_Source\PSoC5/Bootloader_1.c **** 
  51:.\Generated_Source\PSoC5/Bootloader_1.c **** #if(0u != Bootloader_1_DUAL_APP_BOOTLOADER)
  52:.\Generated_Source\PSoC5/Bootloader_1.c ****     uint8 Bootloader_1_activeApp = Bootloader_1_MD_BTLDB_ACTIVE_NONE;
  53:.\Generated_Source\PSoC5/Bootloader_1.c **** #else
  54:.\Generated_Source\PSoC5/Bootloader_1.c ****     #define Bootloader_1_activeApp      (Bootloader_1_MD_BTLDB_ACTIVE_0)
  55:.\Generated_Source\PSoC5/Bootloader_1.c **** #endif  /* (0u != Bootloader_1_DUAL_APP_BOOTLOADER) */
  56:.\Generated_Source\PSoC5/Bootloader_1.c **** 
  57:.\Generated_Source\PSoC5/Bootloader_1.c **** 
  58:.\Generated_Source\PSoC5/Bootloader_1.c **** /***************************************
  59:.\Generated_Source\PSoC5/Bootloader_1.c **** *     Function Prototypes
  60:.\Generated_Source\PSoC5/Bootloader_1.c **** ***************************************/
  61:.\Generated_Source\PSoC5/Bootloader_1.c **** static cystatus Bootloader_1_WritePacket(uint8 status, uint8 buffer[], uint16 size) CYSMALL \
  62:.\Generated_Source\PSoC5/Bootloader_1.c ****                                     ;
ARM GAS  C:\Users\Robert\AppData\Local\Temp\ccgj8kBb.s 			page 3


  63:.\Generated_Source\PSoC5/Bootloader_1.c **** 
  64:.\Generated_Source\PSoC5/Bootloader_1.c **** static uint16   Bootloader_1_CalcPacketChecksum(const uint8 buffer[], uint16 size) CYSMALL \
  65:.\Generated_Source\PSoC5/Bootloader_1.c ****                                     ;
  66:.\Generated_Source\PSoC5/Bootloader_1.c **** 
  67:.\Generated_Source\PSoC5/Bootloader_1.c **** static uint8    Bootloader_1_Calc8BitFlashSum(uint32 start, uint32 size) CYSMALL \
  68:.\Generated_Source\PSoC5/Bootloader_1.c ****                                     ;
  69:.\Generated_Source\PSoC5/Bootloader_1.c **** #if(!CY_PSOC4)
  70:.\Generated_Source\PSoC5/Bootloader_1.c **** static uint8    Bootloader_1_Calc8BitEepromSum(uint32 start, uint32 size) CYSMALL \
  71:.\Generated_Source\PSoC5/Bootloader_1.c ****                                     ;
  72:.\Generated_Source\PSoC5/Bootloader_1.c **** #endif /* (!CY_PSOC4) */
  73:.\Generated_Source\PSoC5/Bootloader_1.c **** 
  74:.\Generated_Source\PSoC5/Bootloader_1.c **** static void     Bootloader_1_HostLink(uint8 timeOut) \
  75:.\Generated_Source\PSoC5/Bootloader_1.c ****                                     ;
  76:.\Generated_Source\PSoC5/Bootloader_1.c **** 
  77:.\Generated_Source\PSoC5/Bootloader_1.c **** static void     Bootloader_1_LaunchApplication(void) CYSMALL \
  78:.\Generated_Source\PSoC5/Bootloader_1.c ****                                     ;
  79:.\Generated_Source\PSoC5/Bootloader_1.c **** 
  80:.\Generated_Source\PSoC5/Bootloader_1.c **** static cystatus Bootloader_1_ValidateBootloadable(uint8 appId) CYSMALL \
  81:.\Generated_Source\PSoC5/Bootloader_1.c ****                                     ;
  82:.\Generated_Source\PSoC5/Bootloader_1.c **** 
  83:.\Generated_Source\PSoC5/Bootloader_1.c **** static uint32   Bootloader_1_GetMetadata(uint8 fieldName, uint8 appId)\
  84:.\Generated_Source\PSoC5/Bootloader_1.c ****                                     ;
  85:.\Generated_Source\PSoC5/Bootloader_1.c **** 
  86:.\Generated_Source\PSoC5/Bootloader_1.c **** #if(!CY_PSOC3)
  87:.\Generated_Source\PSoC5/Bootloader_1.c ****     /* Implementation for the PSoC 3 resides in a Bootloader_1_psoc3.a51 file.  */
  88:.\Generated_Source\PSoC5/Bootloader_1.c ****     static void     Bootloader_1_LaunchBootloadable(uint32 appAddr);
  89:.\Generated_Source\PSoC5/Bootloader_1.c **** #endif  /* (!CY_PSOC3) */
  90:.\Generated_Source\PSoC5/Bootloader_1.c **** 
  91:.\Generated_Source\PSoC5/Bootloader_1.c **** 
  92:.\Generated_Source\PSoC5/Bootloader_1.c **** /*******************************************************************************
  93:.\Generated_Source\PSoC5/Bootloader_1.c **** * Function Name: Bootloader_1_CalcPacketChecksum
  94:.\Generated_Source\PSoC5/Bootloader_1.c **** ********************************************************************************
  95:.\Generated_Source\PSoC5/Bootloader_1.c **** *
  96:.\Generated_Source\PSoC5/Bootloader_1.c **** * Summary:
  97:.\Generated_Source\PSoC5/Bootloader_1.c **** *  This computes the 16 bit checksum for the provided number of bytes contained
  98:.\Generated_Source\PSoC5/Bootloader_1.c **** *  in the provided buffer
  99:.\Generated_Source\PSoC5/Bootloader_1.c **** *
 100:.\Generated_Source\PSoC5/Bootloader_1.c **** * Parameters:
 101:.\Generated_Source\PSoC5/Bootloader_1.c **** *  buffer:
 102:.\Generated_Source\PSoC5/Bootloader_1.c **** *     The buffer containing the data to compute the checksum for
 103:.\Generated_Source\PSoC5/Bootloader_1.c **** *  size:
 104:.\Generated_Source\PSoC5/Bootloader_1.c **** *     The number of bytes in buffer to compute the checksum for
 105:.\Generated_Source\PSoC5/Bootloader_1.c **** *
 106:.\Generated_Source\PSoC5/Bootloader_1.c **** * Returns:
 107:.\Generated_Source\PSoC5/Bootloader_1.c **** *  16 bit checksum for the provided data
 108:.\Generated_Source\PSoC5/Bootloader_1.c **** *
 109:.\Generated_Source\PSoC5/Bootloader_1.c **** *******************************************************************************/
 110:.\Generated_Source\PSoC5/Bootloader_1.c **** static uint16 Bootloader_1_CalcPacketChecksum(const uint8 buffer[], uint16 size) \
 111:.\Generated_Source\PSoC5/Bootloader_1.c ****                     CYSMALL 
 112:.\Generated_Source\PSoC5/Bootloader_1.c **** {
  53              		.loc 1 112 0
  54              		.cfi_startproc
  55              		@ args = 0, pretend = 0, frame = 16
  56              		@ frame_needed = 1, uses_anonymous_args = 0
  57              		@ link register save eliminated.
  58 0000 80B4     		push	{r7}
  59              	.LCFI0:
ARM GAS  C:\Users\Robert\AppData\Local\Temp\ccgj8kBb.s 			page 4


  60              		.cfi_def_cfa_offset 4
  61              		.cfi_offset 7, -4
  62 0002 85B0     		sub	sp, sp, #20
  63              	.LCFI1:
  64              		.cfi_def_cfa_offset 24
  65 0004 00AF     		add	r7, sp, #0
  66              	.LCFI2:
  67              		.cfi_def_cfa_register 7
  68 0006 7860     		str	r0, [r7, #4]
  69 0008 0B46     		mov	r3, r1
  70 000a 7B80     		strh	r3, [r7, #2]	@ movhi
 113:.\Generated_Source\PSoC5/Bootloader_1.c ****     #if(0u != Bootloader_1_PACKET_CHECKSUM_CRC)
 114:.\Generated_Source\PSoC5/Bootloader_1.c **** 
 115:.\Generated_Source\PSoC5/Bootloader_1.c ****         uint16 CYDATA crc = Bootloader_1_CRC_CCITT_INITIAL_VALUE;
  71              		.loc 1 115 0
  72 000c 4FF6FF73 		movw	r3, #65535
  73 0010 FB81     		strh	r3, [r7, #14]	@ movhi
 116:.\Generated_Source\PSoC5/Bootloader_1.c ****         uint16 CYDATA tmp;
 117:.\Generated_Source\PSoC5/Bootloader_1.c ****         uint8  CYDATA i;
 118:.\Generated_Source\PSoC5/Bootloader_1.c ****         uint16 CYDATA tmpIndex = size;
  74              		.loc 1 118 0
  75 0012 7B88     		ldrh	r3, [r7, #2]	@ movhi
  76 0014 3B81     		strh	r3, [r7, #8]	@ movhi
 119:.\Generated_Source\PSoC5/Bootloader_1.c **** 
 120:.\Generated_Source\PSoC5/Bootloader_1.c ****         if(0u == size)
  77              		.loc 1 120 0
  78 0016 7B88     		ldrh	r3, [r7, #2]
  79 0018 002B     		cmp	r3, #0
  80 001a 04D1     		bne	.L2
 121:.\Generated_Source\PSoC5/Bootloader_1.c ****         {
 122:.\Generated_Source\PSoC5/Bootloader_1.c ****             crc = ~crc;
  81              		.loc 1 122 0
  82 001c FB89     		ldrh	r3, [r7, #14]	@ movhi
  83 001e 6FEA0303 		mvn	r3, r3
  84 0022 FB81     		strh	r3, [r7, #14]	@ movhi
  85 0024 42E0     		b	.L3
  86              	.L2:
 123:.\Generated_Source\PSoC5/Bootloader_1.c ****         }
 124:.\Generated_Source\PSoC5/Bootloader_1.c ****         else
 125:.\Generated_Source\PSoC5/Bootloader_1.c ****         {
 126:.\Generated_Source\PSoC5/Bootloader_1.c ****             do
 127:.\Generated_Source\PSoC5/Bootloader_1.c ****             {
 128:.\Generated_Source\PSoC5/Bootloader_1.c ****                 tmp = buffer[tmpIndex - size];
  87              		.loc 1 128 0
  88 0026 3A89     		ldrh	r2, [r7, #8]
  89 0028 7B88     		ldrh	r3, [r7, #2]
  90 002a D31A     		subs	r3, r2, r3
  91 002c 7A68     		ldr	r2, [r7, #4]
  92 002e D318     		adds	r3, r2, r3
  93 0030 1B78     		ldrb	r3, [r3, #0]	@ zero_extendqisi2
  94 0032 BB81     		strh	r3, [r7, #12]	@ movhi
 129:.\Generated_Source\PSoC5/Bootloader_1.c **** 
 130:.\Generated_Source\PSoC5/Bootloader_1.c ****                 for (i = 0u; i < 8u; i++)
  95              		.loc 1 130 0
  96 0034 4FF00003 		mov	r3, #0
  97 0038 FB72     		strb	r3, [r7, #11]
  98 003a 1DE0     		b	.L4
ARM GAS  C:\Users\Robert\AppData\Local\Temp\ccgj8kBb.s 			page 5


  99              	.L7:
 131:.\Generated_Source\PSoC5/Bootloader_1.c ****                 {
 132:.\Generated_Source\PSoC5/Bootloader_1.c ****                     if (0u != ((crc & 0x0001u) ^ (tmp & 0x0001u)))
 100              		.loc 1 132 0
 101 003c FA89     		ldrh	r2, [r7, #14]
 102 003e BB89     		ldrh	r3, [r7, #12]
 103 0040 5340     		eors	r3, r3, r2
 104 0042 03F00103 		and	r3, r3, #1
 105 0046 002B     		cmp	r3, #0
 106 0048 0AD0     		beq	.L5
 133:.\Generated_Source\PSoC5/Bootloader_1.c ****                     {
 134:.\Generated_Source\PSoC5/Bootloader_1.c ****                         crc = (crc >> 1u) ^ Bootloader_1_CRC_CCITT_POLYNOMIAL;
 107              		.loc 1 134 0
 108 004a FB89     		ldrh	r3, [r7, #14]
 109 004c 4FEA5303 		lsr	r3, r3, #1
 110 0050 9AB2     		uxth	r2, r3
 111 0052 48F20843 		movw	r3, #33800
 112 0056 CFF6FF73 		movt	r3, 65535
 113 005a 5340     		eors	r3, r3, r2
 114 005c FB81     		strh	r3, [r7, #14]	@ movhi
 115 005e 03E0     		b	.L6
 116              	.L5:
 135:.\Generated_Source\PSoC5/Bootloader_1.c ****                     }
 136:.\Generated_Source\PSoC5/Bootloader_1.c ****                     else
 137:.\Generated_Source\PSoC5/Bootloader_1.c ****                     {
 138:.\Generated_Source\PSoC5/Bootloader_1.c ****                         crc >>= 1u;
 117              		.loc 1 138 0
 118 0060 FB89     		ldrh	r3, [r7, #14]
 119 0062 4FEA5303 		lsr	r3, r3, #1
 120 0066 FB81     		strh	r3, [r7, #14]	@ movhi
 121              	.L6:
 139:.\Generated_Source\PSoC5/Bootloader_1.c ****                     }
 140:.\Generated_Source\PSoC5/Bootloader_1.c **** 
 141:.\Generated_Source\PSoC5/Bootloader_1.c ****                     tmp >>= 1u;
 122              		.loc 1 141 0
 123 0068 BB89     		ldrh	r3, [r7, #12]
 124 006a 4FEA5303 		lsr	r3, r3, #1
 125 006e BB81     		strh	r3, [r7, #12]	@ movhi
 130:.\Generated_Source\PSoC5/Bootloader_1.c ****                 for (i = 0u; i < 8u; i++)
 126              		.loc 1 130 0
 127 0070 FB7A     		ldrb	r3, [r7, #11]
 128 0072 03F10103 		add	r3, r3, #1
 129 0076 FB72     		strb	r3, [r7, #11]
 130              	.L4:
 130:.\Generated_Source\PSoC5/Bootloader_1.c ****                 for (i = 0u; i < 8u; i++)
 131              		.loc 1 130 0 is_stmt 0 discriminator 1
 132 0078 FB7A     		ldrb	r3, [r7, #11]	@ zero_extendqisi2
 133 007a 072B     		cmp	r3, #7
 134 007c DED9     		bls	.L7
 142:.\Generated_Source\PSoC5/Bootloader_1.c ****                 }
 143:.\Generated_Source\PSoC5/Bootloader_1.c **** 
 144:.\Generated_Source\PSoC5/Bootloader_1.c ****                 size--;
 135              		.loc 1 144 0 is_stmt 1
 136 007e 7B88     		ldrh	r3, [r7, #2]	@ movhi
 137 0080 03F1FF33 		add	r3, r3, #-1
 138 0084 7B80     		strh	r3, [r7, #2]	@ movhi
 145:.\Generated_Source\PSoC5/Bootloader_1.c ****             }
ARM GAS  C:\Users\Robert\AppData\Local\Temp\ccgj8kBb.s 			page 6


 146:.\Generated_Source\PSoC5/Bootloader_1.c ****             while(0u != size);
 139              		.loc 1 146 0
 140 0086 7B88     		ldrh	r3, [r7, #2]
 141 0088 002B     		cmp	r3, #0
 142 008a CCD1     		bne	.L2
 147:.\Generated_Source\PSoC5/Bootloader_1.c **** 
 148:.\Generated_Source\PSoC5/Bootloader_1.c ****             crc = ~crc;
 143              		.loc 1 148 0
 144 008c FB89     		ldrh	r3, [r7, #14]	@ movhi
 145 008e 6FEA0303 		mvn	r3, r3
 146 0092 FB81     		strh	r3, [r7, #14]	@ movhi
 149:.\Generated_Source\PSoC5/Bootloader_1.c ****             tmp = crc;
 147              		.loc 1 149 0
 148 0094 FB89     		ldrh	r3, [r7, #14]	@ movhi
 149 0096 BB81     		strh	r3, [r7, #12]	@ movhi
 150:.\Generated_Source\PSoC5/Bootloader_1.c ****             crc = ( uint16 )(crc << 8u) | (tmp >> 8u);
 150              		.loc 1 150 0
 151 0098 FB89     		ldrh	r3, [r7, #14]	@ movhi
 152 009a 4FEA0323 		lsl	r3, r3, #8
 153 009e 9AB2     		uxth	r2, r3
 154 00a0 BB89     		ldrh	r3, [r7, #12]
 155 00a2 4FEA1323 		lsr	r3, r3, #8
 156 00a6 9BB2     		uxth	r3, r3
 157 00a8 1343     		orrs	r3, r3, r2
 158 00aa FB81     		strh	r3, [r7, #14]	@ movhi
 159              	.L3:
 151:.\Generated_Source\PSoC5/Bootloader_1.c ****         }
 152:.\Generated_Source\PSoC5/Bootloader_1.c **** 
 153:.\Generated_Source\PSoC5/Bootloader_1.c ****         return(crc);
 160              		.loc 1 153 0
 161 00ac FB89     		ldrh	r3, [r7, #14]
 154:.\Generated_Source\PSoC5/Bootloader_1.c **** 
 155:.\Generated_Source\PSoC5/Bootloader_1.c ****     #else
 156:.\Generated_Source\PSoC5/Bootloader_1.c **** 
 157:.\Generated_Source\PSoC5/Bootloader_1.c ****         uint16 CYDATA sum = 0u;
 158:.\Generated_Source\PSoC5/Bootloader_1.c **** 
 159:.\Generated_Source\PSoC5/Bootloader_1.c ****         while (size > 0u)
 160:.\Generated_Source\PSoC5/Bootloader_1.c ****         {
 161:.\Generated_Source\PSoC5/Bootloader_1.c ****             sum += buffer[size - 1u];
 162:.\Generated_Source\PSoC5/Bootloader_1.c ****             size--;
 163:.\Generated_Source\PSoC5/Bootloader_1.c ****         }
 164:.\Generated_Source\PSoC5/Bootloader_1.c **** 
 165:.\Generated_Source\PSoC5/Bootloader_1.c ****         return(( uint16 )1u + ( uint16 )(~sum));
 166:.\Generated_Source\PSoC5/Bootloader_1.c **** 
 167:.\Generated_Source\PSoC5/Bootloader_1.c ****     #endif /* (0u != Bootloader_1_PACKET_CHECKSUM_CRC) */
 168:.\Generated_Source\PSoC5/Bootloader_1.c **** }
 162              		.loc 1 168 0
 163 00ae 1846     		mov	r0, r3
 164 00b0 07F11407 		add	r7, r7, #20
 165 00b4 BD46     		mov	sp, r7
 166 00b6 80BC     		pop	{r7}
 167 00b8 7047     		bx	lr
 168              		.cfi_endproc
 169              	.LFE56:
 170              		.size	Bootloader_1_CalcPacketChecksum, .-Bootloader_1_CalcPacketChecksum
 171 00ba 00BF     		.section	.text.Bootloader_1_Calc8BitFlashSum,"ax",%progbits
 172              		.align	2
ARM GAS  C:\Users\Robert\AppData\Local\Temp\ccgj8kBb.s 			page 7


 173              		.thumb
 174              		.thumb_func
 175              		.type	Bootloader_1_Calc8BitFlashSum, %function
 176              	Bootloader_1_Calc8BitFlashSum:
 177              	.LFB57:
 169:.\Generated_Source\PSoC5/Bootloader_1.c **** 
 170:.\Generated_Source\PSoC5/Bootloader_1.c **** 
 171:.\Generated_Source\PSoC5/Bootloader_1.c **** /*******************************************************************************
 172:.\Generated_Source\PSoC5/Bootloader_1.c **** * Function Name: Bootloader_1_Calc8BitFlashSum
 173:.\Generated_Source\PSoC5/Bootloader_1.c **** ********************************************************************************
 174:.\Generated_Source\PSoC5/Bootloader_1.c **** *
 175:.\Generated_Source\PSoC5/Bootloader_1.c **** * Summary:
 176:.\Generated_Source\PSoC5/Bootloader_1.c **** *  This computes the 8 bit sum for the provided number of bytes contained in
 177:.\Generated_Source\PSoC5/Bootloader_1.c **** *  flash.
 178:.\Generated_Source\PSoC5/Bootloader_1.c **** *
 179:.\Generated_Source\PSoC5/Bootloader_1.c **** * Parameters:
 180:.\Generated_Source\PSoC5/Bootloader_1.c **** *  start:
 181:.\Generated_Source\PSoC5/Bootloader_1.c **** *     The starting address to start summing data for
 182:.\Generated_Source\PSoC5/Bootloader_1.c **** *  size:
 183:.\Generated_Source\PSoC5/Bootloader_1.c **** *     The number of bytes to read and compute the sum for
 184:.\Generated_Source\PSoC5/Bootloader_1.c **** *
 185:.\Generated_Source\PSoC5/Bootloader_1.c **** * Returns:
 186:.\Generated_Source\PSoC5/Bootloader_1.c **** *   8 bit sum for the provided data
 187:.\Generated_Source\PSoC5/Bootloader_1.c **** *
 188:.\Generated_Source\PSoC5/Bootloader_1.c **** *******************************************************************************/
 189:.\Generated_Source\PSoC5/Bootloader_1.c **** static uint8 Bootloader_1_Calc8BitFlashSum(uint32 start, uint32 size) \
 190:.\Generated_Source\PSoC5/Bootloader_1.c ****                 CYSMALL 
 191:.\Generated_Source\PSoC5/Bootloader_1.c **** {
 178              		.loc 1 191 0
 179              		.cfi_startproc
 180              		@ args = 0, pretend = 0, frame = 16
 181              		@ frame_needed = 1, uses_anonymous_args = 0
 182              		@ link register save eliminated.
 183 0000 80B4     		push	{r7}
 184              	.LCFI3:
 185              		.cfi_def_cfa_offset 4
 186              		.cfi_offset 7, -4
 187 0002 85B0     		sub	sp, sp, #20
 188              	.LCFI4:
 189              		.cfi_def_cfa_offset 24
 190 0004 00AF     		add	r7, sp, #0
 191              	.LCFI5:
 192              		.cfi_def_cfa_register 7
 193 0006 7860     		str	r0, [r7, #4]
 194 0008 3960     		str	r1, [r7, #0]
 192:.\Generated_Source\PSoC5/Bootloader_1.c ****     uint8 CYDATA sum = 0u;
 195              		.loc 1 192 0
 196 000a 4FF00003 		mov	r3, #0
 197 000e FB73     		strb	r3, [r7, #15]
 193:.\Generated_Source\PSoC5/Bootloader_1.c **** 
 194:.\Generated_Source\PSoC5/Bootloader_1.c ****     while (size > 0u)
 198              		.loc 1 194 0
 199 0010 0AE0     		b	.L10
 200              	.L11:
 195:.\Generated_Source\PSoC5/Bootloader_1.c ****     {
 196:.\Generated_Source\PSoC5/Bootloader_1.c ****         size--;
 201              		.loc 1 196 0
ARM GAS  C:\Users\Robert\AppData\Local\Temp\ccgj8kBb.s 			page 8


 202 0012 3B68     		ldr	r3, [r7, #0]
 203 0014 03F1FF33 		add	r3, r3, #-1
 204 0018 3B60     		str	r3, [r7, #0]
 197:.\Generated_Source\PSoC5/Bootloader_1.c ****         sum += Bootloader_1_GET_CODE_BYTE(start + size);
 205              		.loc 1 197 0
 206 001a 7A68     		ldr	r2, [r7, #4]
 207 001c 3B68     		ldr	r3, [r7, #0]
 208 001e D318     		adds	r3, r2, r3
 209 0020 1A78     		ldrb	r2, [r3, #0]	@ zero_extendqisi2
 210 0022 FB7B     		ldrb	r3, [r7, #15]
 211 0024 D318     		adds	r3, r2, r3
 212 0026 FB73     		strb	r3, [r7, #15]
 213              	.L10:
 194:.\Generated_Source\PSoC5/Bootloader_1.c ****     while (size > 0u)
 214              		.loc 1 194 0 discriminator 1
 215 0028 3B68     		ldr	r3, [r7, #0]
 216 002a 002B     		cmp	r3, #0
 217 002c F1D1     		bne	.L11
 198:.\Generated_Source\PSoC5/Bootloader_1.c ****     }
 199:.\Generated_Source\PSoC5/Bootloader_1.c **** 
 200:.\Generated_Source\PSoC5/Bootloader_1.c ****     return(sum);
 218              		.loc 1 200 0
 219 002e FB7B     		ldrb	r3, [r7, #15]	@ zero_extendqisi2
 201:.\Generated_Source\PSoC5/Bootloader_1.c **** }
 220              		.loc 1 201 0
 221 0030 1846     		mov	r0, r3
 222 0032 07F11407 		add	r7, r7, #20
 223 0036 BD46     		mov	sp, r7
 224 0038 80BC     		pop	{r7}
 225 003a 7047     		bx	lr
 226              		.cfi_endproc
 227              	.LFE57:
 228              		.size	Bootloader_1_Calc8BitFlashSum, .-Bootloader_1_Calc8BitFlashSum
 229              		.section	.text.Bootloader_1_Calc8BitEepromSum,"ax",%progbits
 230              		.align	2
 231              		.thumb
 232              		.thumb_func
 233              		.type	Bootloader_1_Calc8BitEepromSum, %function
 234              	Bootloader_1_Calc8BitEepromSum:
 235              	.LFB58:
 202:.\Generated_Source\PSoC5/Bootloader_1.c **** 
 203:.\Generated_Source\PSoC5/Bootloader_1.c **** 
 204:.\Generated_Source\PSoC5/Bootloader_1.c **** #if(!CY_PSOC4)
 205:.\Generated_Source\PSoC5/Bootloader_1.c **** 
 206:.\Generated_Source\PSoC5/Bootloader_1.c ****     /*******************************************************************************
 207:.\Generated_Source\PSoC5/Bootloader_1.c ****     * Function Name: Bootloader_1_Calc8BitEepromSum
 208:.\Generated_Source\PSoC5/Bootloader_1.c ****     ********************************************************************************
 209:.\Generated_Source\PSoC5/Bootloader_1.c ****     *
 210:.\Generated_Source\PSoC5/Bootloader_1.c ****     * Summary:
 211:.\Generated_Source\PSoC5/Bootloader_1.c ****     *  This computes the 8 bit sum for the provided number of bytes contained in
 212:.\Generated_Source\PSoC5/Bootloader_1.c ****     *  EEPROM.
 213:.\Generated_Source\PSoC5/Bootloader_1.c ****     *
 214:.\Generated_Source\PSoC5/Bootloader_1.c ****     * Parameters:
 215:.\Generated_Source\PSoC5/Bootloader_1.c ****     *  start:
 216:.\Generated_Source\PSoC5/Bootloader_1.c ****     *     The starting address to start summing data for
 217:.\Generated_Source\PSoC5/Bootloader_1.c ****     *  size:
 218:.\Generated_Source\PSoC5/Bootloader_1.c ****     *     The number of bytes to read and compute the sum for
ARM GAS  C:\Users\Robert\AppData\Local\Temp\ccgj8kBb.s 			page 9


 219:.\Generated_Source\PSoC5/Bootloader_1.c ****     *
 220:.\Generated_Source\PSoC5/Bootloader_1.c ****     * Returns:
 221:.\Generated_Source\PSoC5/Bootloader_1.c ****     *   8 bit sum for the provided data
 222:.\Generated_Source\PSoC5/Bootloader_1.c ****     *
 223:.\Generated_Source\PSoC5/Bootloader_1.c ****     *******************************************************************************/
 224:.\Generated_Source\PSoC5/Bootloader_1.c ****     static uint8 Bootloader_1_Calc8BitEepromSum(uint32 start, uint32 size) \
 225:.\Generated_Source\PSoC5/Bootloader_1.c ****                     CYSMALL 
 226:.\Generated_Source\PSoC5/Bootloader_1.c ****     {
 236              		.loc 1 226 0
 237              		.cfi_startproc
 238              		@ args = 0, pretend = 0, frame = 16
 239              		@ frame_needed = 1, uses_anonymous_args = 0
 240              		@ link register save eliminated.
 241 0000 80B4     		push	{r7}
 242              	.LCFI6:
 243              		.cfi_def_cfa_offset 4
 244              		.cfi_offset 7, -4
 245 0002 85B0     		sub	sp, sp, #20
 246              	.LCFI7:
 247              		.cfi_def_cfa_offset 24
 248 0004 00AF     		add	r7, sp, #0
 249              	.LCFI8:
 250              		.cfi_def_cfa_register 7
 251 0006 7860     		str	r0, [r7, #4]
 252 0008 3960     		str	r1, [r7, #0]
 227:.\Generated_Source\PSoC5/Bootloader_1.c ****         uint8 CYDATA sum = 0u;
 253              		.loc 1 227 0
 254 000a 4FF00003 		mov	r3, #0
 255 000e FB73     		strb	r3, [r7, #15]
 228:.\Generated_Source\PSoC5/Bootloader_1.c **** 
 229:.\Generated_Source\PSoC5/Bootloader_1.c ****         while (size > 0u)
 256              		.loc 1 229 0
 257 0010 0EE0     		b	.L14
 258              	.L15:
 230:.\Generated_Source\PSoC5/Bootloader_1.c ****         {
 231:.\Generated_Source\PSoC5/Bootloader_1.c ****             size--;
 259              		.loc 1 231 0
 260 0012 3B68     		ldr	r3, [r7, #0]
 261 0014 03F1FF33 		add	r3, r3, #-1
 262 0018 3B60     		str	r3, [r7, #0]
 232:.\Generated_Source\PSoC5/Bootloader_1.c ****             sum += Bootloader_1_GET_EEPROM_BYTE(start + size);
 263              		.loc 1 232 0
 264 001a 7A68     		ldr	r2, [r7, #4]
 265 001c 3B68     		ldr	r3, [r7, #0]
 266 001e D318     		adds	r3, r2, r3
 267 0020 03F18043 		add	r3, r3, #1073741824
 268 0024 03F50043 		add	r3, r3, #32768
 269 0028 1A78     		ldrb	r2, [r3, #0]	@ zero_extendqisi2
 270 002a FB7B     		ldrb	r3, [r7, #15]
 271 002c D318     		adds	r3, r2, r3
 272 002e FB73     		strb	r3, [r7, #15]
 273              	.L14:
 229:.\Generated_Source\PSoC5/Bootloader_1.c ****         while (size > 0u)
 274              		.loc 1 229 0 discriminator 1
 275 0030 3B68     		ldr	r3, [r7, #0]
 276 0032 002B     		cmp	r3, #0
 277 0034 EDD1     		bne	.L15
ARM GAS  C:\Users\Robert\AppData\Local\Temp\ccgj8kBb.s 			page 10


 233:.\Generated_Source\PSoC5/Bootloader_1.c ****         }
 234:.\Generated_Source\PSoC5/Bootloader_1.c **** 
 235:.\Generated_Source\PSoC5/Bootloader_1.c ****         return(sum);
 278              		.loc 1 235 0
 279 0036 FB7B     		ldrb	r3, [r7, #15]	@ zero_extendqisi2
 236:.\Generated_Source\PSoC5/Bootloader_1.c ****     }
 280              		.loc 1 236 0
 281 0038 1846     		mov	r0, r3
 282 003a 07F11407 		add	r7, r7, #20
 283 003e BD46     		mov	sp, r7
 284 0040 80BC     		pop	{r7}
 285 0042 7047     		bx	lr
 286              		.cfi_endproc
 287              	.LFE58:
 288              		.size	Bootloader_1_Calc8BitEepromSum, .-Bootloader_1_Calc8BitEepromSum
 289              		.section	.text.Bootloader_1_Start,"ax",%progbits
 290              		.align	2
 291              		.global	Bootloader_1_Start
 292              		.thumb
 293              		.thumb_func
 294              		.type	Bootloader_1_Start, %function
 295              	Bootloader_1_Start:
 296              	.LFB59:
 237:.\Generated_Source\PSoC5/Bootloader_1.c **** 
 238:.\Generated_Source\PSoC5/Bootloader_1.c **** #endif  /* (!CY_PSOC4) */
 239:.\Generated_Source\PSoC5/Bootloader_1.c **** 
 240:.\Generated_Source\PSoC5/Bootloader_1.c **** 
 241:.\Generated_Source\PSoC5/Bootloader_1.c **** /*******************************************************************************
 242:.\Generated_Source\PSoC5/Bootloader_1.c **** * Function Name: Bootloader_1_Start
 243:.\Generated_Source\PSoC5/Bootloader_1.c **** ********************************************************************************
 244:.\Generated_Source\PSoC5/Bootloader_1.c **** * Summary:
 245:.\Generated_Source\PSoC5/Bootloader_1.c **** *  This function is called in order executing following algorithm:
 246:.\Generated_Source\PSoC5/Bootloader_1.c **** *
 247:.\Generated_Source\PSoC5/Bootloader_1.c **** *  - Identify active bootloadable application (applicable only to
 248:.\Generated_Source\PSoC5/Bootloader_1.c **** *    Multi-application bootloader)
 249:.\Generated_Source\PSoC5/Bootloader_1.c **** *
 250:.\Generated_Source\PSoC5/Bootloader_1.c **** *  - Validate bootloader application (desing-time configurable, Bootloader
 251:.\Generated_Source\PSoC5/Bootloader_1.c **** *    application validation option of the component customizer)
 252:.\Generated_Source\PSoC5/Bootloader_1.c **** *
 253:.\Generated_Source\PSoC5/Bootloader_1.c **** *  - Validate active bootloadable application
 254:.\Generated_Source\PSoC5/Bootloader_1.c **** *
 255:.\Generated_Source\PSoC5/Bootloader_1.c **** *  - Run communication subroutine (desing-time configurable, Wait for command
 256:.\Generated_Source\PSoC5/Bootloader_1.c **** *    option of the component customizer)
 257:.\Generated_Source\PSoC5/Bootloader_1.c **** *
 258:.\Generated_Source\PSoC5/Bootloader_1.c **** *  - Schedule bootloadable and reset device
 259:.\Generated_Source\PSoC5/Bootloader_1.c **** *
 260:.\Generated_Source\PSoC5/Bootloader_1.c **** * Parameters:
 261:.\Generated_Source\PSoC5/Bootloader_1.c **** *  None
 262:.\Generated_Source\PSoC5/Bootloader_1.c **** *
 263:.\Generated_Source\PSoC5/Bootloader_1.c **** * Return:
 264:.\Generated_Source\PSoC5/Bootloader_1.c **** *  This method will never return. It will either load a new application and
 265:.\Generated_Source\PSoC5/Bootloader_1.c **** *  reset the device or it will jump directly to the existing application.
 266:.\Generated_Source\PSoC5/Bootloader_1.c **** *
 267:.\Generated_Source\PSoC5/Bootloader_1.c **** * Side Effects:
 268:.\Generated_Source\PSoC5/Bootloader_1.c **** *  If this method determines that the bootloader appliation itself is corrupt,
 269:.\Generated_Source\PSoC5/Bootloader_1.c **** *  this method will not return, instead it will simply hang the application.
 270:.\Generated_Source\PSoC5/Bootloader_1.c **** *
ARM GAS  C:\Users\Robert\AppData\Local\Temp\ccgj8kBb.s 			page 11


 271:.\Generated_Source\PSoC5/Bootloader_1.c **** *******************************************************************************/
 272:.\Generated_Source\PSoC5/Bootloader_1.c **** void Bootloader_1_Start(void) CYSMALL 
 273:.\Generated_Source\PSoC5/Bootloader_1.c **** {
 297              		.loc 1 273 0
 298              		.cfi_startproc
 299              		@ args = 0, pretend = 0, frame = 296
 300              		@ frame_needed = 1, uses_anonymous_args = 0
 301 0000 80B5     		push	{r7, lr}
 302              	.LCFI9:
 303              		.cfi_def_cfa_offset 8
 304              		.cfi_offset 7, -8
 305              		.cfi_offset 14, -4
 306 0002 CAB0     		sub	sp, sp, #296
 307              	.LCFI10:
 308              		.cfi_def_cfa_offset 304
 309 0004 00AF     		add	r7, sp, #0
 310              	.LCFI11:
 311              		.cfi_def_cfa_register 7
 274:.\Generated_Source\PSoC5/Bootloader_1.c ****     #if(0u != Bootloader_1_BOOTLOADER_APP_VALIDATION)
 275:.\Generated_Source\PSoC5/Bootloader_1.c ****         uint8 CYDATA calcedChecksum;
 276:.\Generated_Source\PSoC5/Bootloader_1.c ****     #endif    /* (0u != Bootloader_1_BOOTLOADER_APP_VALIDATION) */
 277:.\Generated_Source\PSoC5/Bootloader_1.c **** 
 278:.\Generated_Source\PSoC5/Bootloader_1.c ****     #if(!CY_PSOC4)
 279:.\Generated_Source\PSoC5/Bootloader_1.c ****         uint8 CYXDATA Bootloader_1_flashBuffer[Bootloader_1_FROW_SIZE];
 280:.\Generated_Source\PSoC5/Bootloader_1.c ****     #endif  /* (!CY_PSOC4) */
 281:.\Generated_Source\PSoC5/Bootloader_1.c **** 
 282:.\Generated_Source\PSoC5/Bootloader_1.c ****     cystatus tmpStatus;
 283:.\Generated_Source\PSoC5/Bootloader_1.c **** 
 284:.\Generated_Source\PSoC5/Bootloader_1.c **** 
 285:.\Generated_Source\PSoC5/Bootloader_1.c ****     /* Identify active bootloadable application */
 286:.\Generated_Source\PSoC5/Bootloader_1.c ****     #if(0u != Bootloader_1_DUAL_APP_BOOTLOADER)
 287:.\Generated_Source\PSoC5/Bootloader_1.c **** 
 288:.\Generated_Source\PSoC5/Bootloader_1.c ****         if(Bootloader_1_MD_BTLDB_ACTIVE_VALUE(0u) == Bootloader_1_MD_BTLDB_IS_ACTIVE)
 289:.\Generated_Source\PSoC5/Bootloader_1.c ****         {
 290:.\Generated_Source\PSoC5/Bootloader_1.c ****             Bootloader_1_activeApp = Bootloader_1_MD_BTLDB_ACTIVE_0;
 291:.\Generated_Source\PSoC5/Bootloader_1.c ****         }
 292:.\Generated_Source\PSoC5/Bootloader_1.c ****         else if (Bootloader_1_MD_BTLDB_ACTIVE_VALUE(1u) == Bootloader_1_MD_BTLDB_IS_ACTIVE)
 293:.\Generated_Source\PSoC5/Bootloader_1.c ****         {
 294:.\Generated_Source\PSoC5/Bootloader_1.c ****             Bootloader_1_activeApp = Bootloader_1_MD_BTLDB_ACTIVE_1;
 295:.\Generated_Source\PSoC5/Bootloader_1.c ****         }
 296:.\Generated_Source\PSoC5/Bootloader_1.c ****         else
 297:.\Generated_Source\PSoC5/Bootloader_1.c ****         {
 298:.\Generated_Source\PSoC5/Bootloader_1.c ****             Bootloader_1_activeApp = Bootloader_1_MD_BTLDB_ACTIVE_NONE;
 299:.\Generated_Source\PSoC5/Bootloader_1.c ****         }
 300:.\Generated_Source\PSoC5/Bootloader_1.c **** 
 301:.\Generated_Source\PSoC5/Bootloader_1.c ****     #endif  /* (0u != Bootloader_1_DUAL_APP_BOOTLOADER) */
 302:.\Generated_Source\PSoC5/Bootloader_1.c **** 
 303:.\Generated_Source\PSoC5/Bootloader_1.c **** 
 304:.\Generated_Source\PSoC5/Bootloader_1.c ****     /* Initialize Flash subsystem for non-PSoC 4 devices */
 305:.\Generated_Source\PSoC5/Bootloader_1.c ****     #if(!CY_PSOC4)
 306:.\Generated_Source\PSoC5/Bootloader_1.c ****         if (CYRET_SUCCESS != CySetTemp())
 312              		.loc 1 306 0
 313 0006 FFF7FEFF 		bl	CySetTemp
 314 000a 0346     		mov	r3, r0
 315 000c 002B     		cmp	r3, #0
 316 000e 03D0     		beq	.L18
 307:.\Generated_Source\PSoC5/Bootloader_1.c ****         {
ARM GAS  C:\Users\Robert\AppData\Local\Temp\ccgj8kBb.s 			page 12


 308:.\Generated_Source\PSoC5/Bootloader_1.c ****             CyHalt(0x00u);
 317              		.loc 1 308 0
 318 0010 4FF00000 		mov	r0, #0
 319 0014 FFF7FEFF 		bl	CyHalt
 320              	.L18:
 309:.\Generated_Source\PSoC5/Bootloader_1.c ****         }
 310:.\Generated_Source\PSoC5/Bootloader_1.c **** 
 311:.\Generated_Source\PSoC5/Bootloader_1.c ****         if (CYRET_SUCCESS != CySetFlashEEBuffer(Bootloader_1_flashBuffer))
 321              		.loc 1 311 0
 322 0018 3B46     		mov	r3, r7
 323 001a 1846     		mov	r0, r3
 324 001c FFF7FEFF 		bl	CySetFlashEEBuffer
 325 0020 0346     		mov	r3, r0
 326 0022 002B     		cmp	r3, #0
 327 0024 03D0     		beq	.L19
 312:.\Generated_Source\PSoC5/Bootloader_1.c ****         {
 313:.\Generated_Source\PSoC5/Bootloader_1.c ****             CyHalt(0x00u);
 328              		.loc 1 313 0
 329 0026 4FF00000 		mov	r0, #0
 330 002a FFF7FEFF 		bl	CyHalt
 331              	.L19:
 314:.\Generated_Source\PSoC5/Bootloader_1.c ****         }
 315:.\Generated_Source\PSoC5/Bootloader_1.c ****     #endif  /* (CY_PSOC4) */
 316:.\Generated_Source\PSoC5/Bootloader_1.c **** 
 317:.\Generated_Source\PSoC5/Bootloader_1.c **** 
 318:.\Generated_Source\PSoC5/Bootloader_1.c ****     /***********************************************************************
 319:.\Generated_Source\PSoC5/Bootloader_1.c ****     * Bootloader Application Validation
 320:.\Generated_Source\PSoC5/Bootloader_1.c ****     *
 321:.\Generated_Source\PSoC5/Bootloader_1.c ****     * Halt device if:
 322:.\Generated_Source\PSoC5/Bootloader_1.c ****     *  - Calculated checksum does not much one stored in metadata section
 323:.\Generated_Source\PSoC5/Bootloader_1.c ****     *  - Invalid pointer to the place where bootloader application ends
 324:.\Generated_Source\PSoC5/Bootloader_1.c ****     *  - Flash subsystem where not initialized correctly
 325:.\Generated_Source\PSoC5/Bootloader_1.c ****     ***********************************************************************/
 326:.\Generated_Source\PSoC5/Bootloader_1.c ****     #if(0u != Bootloader_1_BOOTLOADER_APP_VALIDATION)
 327:.\Generated_Source\PSoC5/Bootloader_1.c **** 
 328:.\Generated_Source\PSoC5/Bootloader_1.c ****         /* Calculate Bootloader application checksum */
 329:.\Generated_Source\PSoC5/Bootloader_1.c ****         calcedChecksum = Bootloader_1_Calc8BitFlashSum(Bootloader_1_MD_BTLDR_ADDR_PTR,
 332              		.loc 1 329 0
 333 002e 40F20003 		movw	r3, #:lower16:Bootloader_1_SizeBytesAccess
 334 0032 C0F20003 		movt	r3, #:upper16:Bootloader_1_SizeBytesAccess
 335 0036 1B68     		ldr	r3, [r3, #0]
 336 0038 1B68     		ldr	r3, [r3, #0]
 337 003a 4FF00000 		mov	r0, #0
 338 003e 1946     		mov	r1, r3
 339 0040 FFF7FEFF 		bl	Bootloader_1_Calc8BitFlashSum
 340 0044 0346     		mov	r3, r0
 341 0046 87F82731 		strb	r3, [r7, #295]
 330:.\Generated_Source\PSoC5/Bootloader_1.c ****                 *Bootloader_1_SizeBytesAccess - Bootloader_1_MD_BTLDR_ADDR_PTR);
 331:.\Generated_Source\PSoC5/Bootloader_1.c **** 
 332:.\Generated_Source\PSoC5/Bootloader_1.c ****         /* we actually included the checksum, so remove it */
 333:.\Generated_Source\PSoC5/Bootloader_1.c ****         calcedChecksum -= *Bootloader_1_ChecksumAccess;
 342              		.loc 1 333 0
 343 004a 40F20003 		movw	r3, #:lower16:Bootloader_1_ChecksumAccess
 344 004e C0F20003 		movt	r3, #:upper16:Bootloader_1_ChecksumAccess
 345 0052 1B68     		ldr	r3, [r3, #0]
 346 0054 1B78     		ldrb	r3, [r3, #0]	@ zero_extendqisi2
 347 0056 97F82721 		ldrb	r2, [r7, #295]
ARM GAS  C:\Users\Robert\AppData\Local\Temp\ccgj8kBb.s 			page 13


 348 005a D31A     		subs	r3, r2, r3
 349 005c 87F82731 		strb	r3, [r7, #295]
 334:.\Generated_Source\PSoC5/Bootloader_1.c ****         calcedChecksum = ( uint8 )1u + ( uint8 )(~calcedChecksum);
 350              		.loc 1 334 0
 351 0060 97F82731 		ldrb	r3, [r7, #295]
 352 0064 C3F10003 		rsb	r3, r3, #0
 353 0068 87F82731 		strb	r3, [r7, #295]
 335:.\Generated_Source\PSoC5/Bootloader_1.c **** 
 336:.\Generated_Source\PSoC5/Bootloader_1.c ****         /* Checksum and pointer to bootloader verification */
 337:.\Generated_Source\PSoC5/Bootloader_1.c ****         if((calcedChecksum != *Bootloader_1_ChecksumAccess) ||
 354              		.loc 1 337 0
 355 006c 40F20003 		movw	r3, #:lower16:Bootloader_1_ChecksumAccess
 356 0070 C0F20003 		movt	r3, #:upper16:Bootloader_1_ChecksumAccess
 357 0074 1B68     		ldr	r3, [r3, #0]
 358 0076 1B78     		ldrb	r3, [r3, #0]	@ zero_extendqisi2
 359 0078 97F82721 		ldrb	r2, [r7, #295]	@ zero_extendqisi2
 360 007c 9A42     		cmp	r2, r3
 361 007e 07D1     		bne	.L20
 338:.\Generated_Source\PSoC5/Bootloader_1.c ****            (0u == *Bootloader_1_SizeBytesAccess))
 362              		.loc 1 338 0 discriminator 1
 363 0080 40F20003 		movw	r3, #:lower16:Bootloader_1_SizeBytesAccess
 364 0084 C0F20003 		movt	r3, #:upper16:Bootloader_1_SizeBytesAccess
 365 0088 1B68     		ldr	r3, [r3, #0]
 366 008a 1B68     		ldr	r3, [r3, #0]
 337:.\Generated_Source\PSoC5/Bootloader_1.c ****         if((calcedChecksum != *Bootloader_1_ChecksumAccess) ||
 367              		.loc 1 337 0 discriminator 1
 368 008c 002B     		cmp	r3, #0
 369 008e 03D1     		bne	.L21
 370              	.L20:
 339:.\Generated_Source\PSoC5/Bootloader_1.c ****         {
 340:.\Generated_Source\PSoC5/Bootloader_1.c ****             CyHalt(0x00u);
 371              		.loc 1 340 0
 372 0090 4FF00000 		mov	r0, #0
 373 0094 FFF7FEFF 		bl	CyHalt
 374              	.L21:
 341:.\Generated_Source\PSoC5/Bootloader_1.c ****         }
 342:.\Generated_Source\PSoC5/Bootloader_1.c **** 
 343:.\Generated_Source\PSoC5/Bootloader_1.c ****     #endif  /* (0u != Bootloader_1_BOOTLOADER_APP_VALIDATION) */
 344:.\Generated_Source\PSoC5/Bootloader_1.c **** 
 345:.\Generated_Source\PSoC5/Bootloader_1.c **** 
 346:.\Generated_Source\PSoC5/Bootloader_1.c ****     /***********************************************************************
 347:.\Generated_Source\PSoC5/Bootloader_1.c ****     * Active Bootloadable Application Validation
 348:.\Generated_Source\PSoC5/Bootloader_1.c ****     *
 349:.\Generated_Source\PSoC5/Bootloader_1.c ****     * If active bootloadable application is invalid or bootloader
 350:.\Generated_Source\PSoC5/Bootloader_1.c ****     * application is scheduled - do the following:
 351:.\Generated_Source\PSoC5/Bootloader_1.c ****     *  - schedule bootloader application to be run after software reset
 352:.\Generated_Source\PSoC5/Bootloader_1.c ****     *  - Go to the communication subroutine. Will wait for commands forever
 353:.\Generated_Source\PSoC5/Bootloader_1.c ****     ***********************************************************************/
 354:.\Generated_Source\PSoC5/Bootloader_1.c ****     tmpStatus = Bootloader_1_ValidateBootloadable(Bootloader_1_activeApp);
 375              		.loc 1 354 0
 376 0098 4FF00000 		mov	r0, #0
 377 009c FFF7FEFF 		bl	Bootloader_1_ValidateBootloadable
 378 00a0 C7F82001 		str	r0, [r7, #288]
 355:.\Generated_Source\PSoC5/Bootloader_1.c **** 
 356:.\Generated_Source\PSoC5/Bootloader_1.c ****     if ((Bootloader_1_GET_RUN_TYPE == Bootloader_1_START_BTLDR) ||
 379              		.loc 1 356 0
 380 00a4 44F2FA63 		movw	r3, #18170
ARM GAS  C:\Users\Robert\AppData\Local\Temp\ccgj8kBb.s 			page 14


 381 00a8 C4F20003 		movt	r3, 16384
 382 00ac 1B78     		ldrb	r3, [r3, #0]
 383 00ae DBB2     		uxtb	r3, r3
 384 00b0 03F0C003 		and	r3, r3, #192
 385 00b4 402B     		cmp	r3, #64
 386 00b6 03D0     		beq	.L22
 387              		.loc 1 356 0 is_stmt 0 discriminator 1
 388 00b8 D7F82031 		ldr	r3, [r7, #288]
 389 00bc 002B     		cmp	r3, #0
 390 00be 0AD0     		beq	.L23
 391              	.L22:
 357:.\Generated_Source\PSoC5/Bootloader_1.c ****         (CYRET_SUCCESS != tmpStatus))
 358:.\Generated_Source\PSoC5/Bootloader_1.c ****     {
 359:.\Generated_Source\PSoC5/Bootloader_1.c ****         Bootloader_1_SET_RUN_TYPE(0u);
 392              		.loc 1 359 0 is_stmt 1
 393 00c0 44F2FA63 		movw	r3, #18170
 394 00c4 C4F20003 		movt	r3, 16384
 395 00c8 4FF00002 		mov	r2, #0
 396 00cc 1A70     		strb	r2, [r3, #0]
 360:.\Generated_Source\PSoC5/Bootloader_1.c **** 
 361:.\Generated_Source\PSoC5/Bootloader_1.c ****         Bootloader_1_HostLink(Bootloader_1_WAIT_FOR_COMMAND_FOREVER);
 397              		.loc 1 361 0
 398 00ce 4FF00000 		mov	r0, #0
 399 00d2 FFF7FEFF 		bl	Bootloader_1_HostLink
 400              	.L23:
 362:.\Generated_Source\PSoC5/Bootloader_1.c ****     }
 363:.\Generated_Source\PSoC5/Bootloader_1.c **** 
 364:.\Generated_Source\PSoC5/Bootloader_1.c **** 
 365:.\Generated_Source\PSoC5/Bootloader_1.c ****     /* Go to the communication subroutine. Will wait for commands specifed time */
 366:.\Generated_Source\PSoC5/Bootloader_1.c ****     #if(0u != Bootloader_1_WAIT_FOR_COMMAND)
 367:.\Generated_Source\PSoC5/Bootloader_1.c **** 
 368:.\Generated_Source\PSoC5/Bootloader_1.c ****         /* Timeout is in 100s of miliseconds */
 369:.\Generated_Source\PSoC5/Bootloader_1.c ****         Bootloader_1_HostLink(Bootloader_1_WAIT_FOR_COMMAND_TIME);
 401              		.loc 1 369 0
 402 00d6 4FF01400 		mov	r0, #20
 403 00da FFF7FEFF 		bl	Bootloader_1_HostLink
 370:.\Generated_Source\PSoC5/Bootloader_1.c **** 
 371:.\Generated_Source\PSoC5/Bootloader_1.c ****     #endif  /* (0u != Bootloader_1_WAIT_FOR_COMMAND) */
 372:.\Generated_Source\PSoC5/Bootloader_1.c **** 
 373:.\Generated_Source\PSoC5/Bootloader_1.c **** 
 374:.\Generated_Source\PSoC5/Bootloader_1.c ****     /* Schedule bootloadable application and perform software reset */
 375:.\Generated_Source\PSoC5/Bootloader_1.c ****     Bootloader_1_LaunchApplication();
 404              		.loc 1 375 0
 405 00de FFF7FEFF 		bl	Bootloader_1_LaunchApplication
 376:.\Generated_Source\PSoC5/Bootloader_1.c **** }
 406              		.loc 1 376 0
 407 00e2 07F59477 		add	r7, r7, #296
 408 00e6 BD46     		mov	sp, r7
 409 00e8 80BD     		pop	{r7, pc}
 410              		.cfi_endproc
 411              	.LFE59:
 412              		.size	Bootloader_1_Start, .-Bootloader_1_Start
 413 00ea 00BF     		.section	.text.Bootloader_1_LaunchApplication,"ax",%progbits
 414              		.align	2
 415              		.thumb
 416              		.thumb_func
 417              		.type	Bootloader_1_LaunchApplication, %function
ARM GAS  C:\Users\Robert\AppData\Local\Temp\ccgj8kBb.s 			page 15


 418              	Bootloader_1_LaunchApplication:
 419              	.LFB60:
 377:.\Generated_Source\PSoC5/Bootloader_1.c **** 
 378:.\Generated_Source\PSoC5/Bootloader_1.c **** 
 379:.\Generated_Source\PSoC5/Bootloader_1.c **** /*******************************************************************************
 380:.\Generated_Source\PSoC5/Bootloader_1.c **** * Function Name: Bootloader_1_LaunchApplication
 381:.\Generated_Source\PSoC5/Bootloader_1.c **** ********************************************************************************
 382:.\Generated_Source\PSoC5/Bootloader_1.c **** *
 383:.\Generated_Source\PSoC5/Bootloader_1.c **** * Summary:
 384:.\Generated_Source\PSoC5/Bootloader_1.c **** *  Jumps the PC to the start address of the user application in flash.
 385:.\Generated_Source\PSoC5/Bootloader_1.c **** *
 386:.\Generated_Source\PSoC5/Bootloader_1.c **** * Parameters:
 387:.\Generated_Source\PSoC5/Bootloader_1.c **** *  None
 388:.\Generated_Source\PSoC5/Bootloader_1.c **** *
 389:.\Generated_Source\PSoC5/Bootloader_1.c **** * Returns:
 390:.\Generated_Source\PSoC5/Bootloader_1.c **** *  This method will never return if it succesfully goes to the user application.
 391:.\Generated_Source\PSoC5/Bootloader_1.c **** *
 392:.\Generated_Source\PSoC5/Bootloader_1.c **** *******************************************************************************/
 393:.\Generated_Source\PSoC5/Bootloader_1.c **** static void Bootloader_1_LaunchApplication(void) CYSMALL 
 394:.\Generated_Source\PSoC5/Bootloader_1.c **** {
 420              		.loc 1 394 0
 421              		.cfi_startproc
 422              		@ args = 0, pretend = 0, frame = 0
 423              		@ frame_needed = 1, uses_anonymous_args = 0
 424 0000 80B5     		push	{r7, lr}
 425              	.LCFI12:
 426              		.cfi_def_cfa_offset 8
 427              		.cfi_offset 7, -8
 428              		.cfi_offset 14, -4
 429 0002 00AF     		add	r7, sp, #0
 430              	.LCFI13:
 431              		.cfi_def_cfa_register 7
 395:.\Generated_Source\PSoC5/Bootloader_1.c ****     /* Schedule Bootloadable to start after reset */
 396:.\Generated_Source\PSoC5/Bootloader_1.c ****     Bootloader_1_SET_RUN_TYPE(Bootloader_1_START_APP);
 432              		.loc 1 396 0
 433 0004 44F2FA63 		movw	r3, #18170
 434 0008 C4F20003 		movt	r3, 16384
 435 000c 4FF08002 		mov	r2, #128
 436 0010 1A70     		strb	r2, [r3, #0]
 397:.\Generated_Source\PSoC5/Bootloader_1.c **** 
 398:.\Generated_Source\PSoC5/Bootloader_1.c ****     CySoftwareReset();
 437              		.loc 1 398 0
 438 0012 FFF7FEFF 		bl	CySoftwareReset
 399:.\Generated_Source\PSoC5/Bootloader_1.c **** }
 439              		.loc 1 399 0
 440 0016 80BD     		pop	{r7, pc}
 441              		.cfi_endproc
 442              	.LFE60:
 443              		.size	Bootloader_1_LaunchApplication, .-Bootloader_1_LaunchApplication
 444              		.section	.text.CyBtldr_CheckLaunch,"ax",%progbits
 445              		.align	2
 446              		.global	CyBtldr_CheckLaunch
 447              		.thumb
 448              		.thumb_func
 449              		.type	CyBtldr_CheckLaunch, %function
 450              	CyBtldr_CheckLaunch:
 451              	.LFB61:
ARM GAS  C:\Users\Robert\AppData\Local\Temp\ccgj8kBb.s 			page 16


 400:.\Generated_Source\PSoC5/Bootloader_1.c **** 
 401:.\Generated_Source\PSoC5/Bootloader_1.c **** 
 402:.\Generated_Source\PSoC5/Bootloader_1.c **** /*******************************************************************************
 403:.\Generated_Source\PSoC5/Bootloader_1.c **** * Function Name: CyBtldr_CheckLaunch
 404:.\Generated_Source\PSoC5/Bootloader_1.c **** ********************************************************************************
 405:.\Generated_Source\PSoC5/Bootloader_1.c **** *
 406:.\Generated_Source\PSoC5/Bootloader_1.c **** * Summary:
 407:.\Generated_Source\PSoC5/Bootloader_1.c **** *  This routine checks to see if the bootloader or the bootloadable application
 408:.\Generated_Source\PSoC5/Bootloader_1.c **** *  should be run.  If the application is to be run, it will start executing.
 409:.\Generated_Source\PSoC5/Bootloader_1.c **** *  If the bootloader is to be run, it will return so the bootloader can
 410:.\Generated_Source\PSoC5/Bootloader_1.c **** *  continue starting up.
 411:.\Generated_Source\PSoC5/Bootloader_1.c **** *
 412:.\Generated_Source\PSoC5/Bootloader_1.c **** * Parameters:
 413:.\Generated_Source\PSoC5/Bootloader_1.c **** *  None
 414:.\Generated_Source\PSoC5/Bootloader_1.c **** *
 415:.\Generated_Source\PSoC5/Bootloader_1.c **** * Returns:
 416:.\Generated_Source\PSoC5/Bootloader_1.c **** *  None
 417:.\Generated_Source\PSoC5/Bootloader_1.c **** *
 418:.\Generated_Source\PSoC5/Bootloader_1.c **** *******************************************************************************/
 419:.\Generated_Source\PSoC5/Bootloader_1.c **** void CyBtldr_CheckLaunch(void) CYSMALL 
 420:.\Generated_Source\PSoC5/Bootloader_1.c **** {
 452              		.loc 1 420 0
 453              		.cfi_startproc
 454              		@ args = 0, pretend = 0, frame = 0
 455              		@ frame_needed = 1, uses_anonymous_args = 0
 456 0000 80B5     		push	{r7, lr}
 457              	.LCFI14:
 458              		.cfi_def_cfa_offset 8
 459              		.cfi_offset 7, -8
 460              		.cfi_offset 14, -4
 461 0002 00AF     		add	r7, sp, #0
 462              	.LCFI15:
 463              		.cfi_def_cfa_register 7
 421:.\Generated_Source\PSoC5/Bootloader_1.c **** 
 422:.\Generated_Source\PSoC5/Bootloader_1.c **** #if(CY_PSOC4)
 423:.\Generated_Source\PSoC5/Bootloader_1.c **** 
 424:.\Generated_Source\PSoC5/Bootloader_1.c ****     /*******************************************************************************
 425:.\Generated_Source\PSoC5/Bootloader_1.c ****     * Set cyBtldrRunType to zero in case of non-software reset occured. This means
 426:.\Generated_Source\PSoC5/Bootloader_1.c ****     * that bootloader application is scheduled - that is initial clean state. The
 427:.\Generated_Source\PSoC5/Bootloader_1.c ****     * value of cyBtldrRunType is valid only in case of software reset.
 428:.\Generated_Source\PSoC5/Bootloader_1.c ****     *******************************************************************************/
 429:.\Generated_Source\PSoC5/Bootloader_1.c ****     if (0u == (Bootloader_1_RES_CAUSE_REG & Bootloader_1_RES_CAUSE_RESET_SOFT))
 430:.\Generated_Source\PSoC5/Bootloader_1.c ****     {
 431:.\Generated_Source\PSoC5/Bootloader_1.c ****         cyBtldrRunType = 0u;
 432:.\Generated_Source\PSoC5/Bootloader_1.c ****     }
 433:.\Generated_Source\PSoC5/Bootloader_1.c **** 
 434:.\Generated_Source\PSoC5/Bootloader_1.c **** #endif /* (CY_PSOC4) */
 435:.\Generated_Source\PSoC5/Bootloader_1.c **** 
 436:.\Generated_Source\PSoC5/Bootloader_1.c **** 
 437:.\Generated_Source\PSoC5/Bootloader_1.c ****     if (Bootloader_1_GET_RUN_TYPE == Bootloader_1_START_APP)
 464              		.loc 1 437 0
 465 0004 44F2FA63 		movw	r3, #18170
 466 0008 C4F20003 		movt	r3, 16384
 467 000c 1B78     		ldrb	r3, [r3, #0]
 468 000e DBB2     		uxtb	r3, r3
 469 0010 03F0C003 		and	r3, r3, #192
 470 0014 802B     		cmp	r3, #128
ARM GAS  C:\Users\Robert\AppData\Local\Temp\ccgj8kBb.s 			page 17


 471 0016 19D1     		bne	.L25
 438:.\Generated_Source\PSoC5/Bootloader_1.c ****     {
 439:.\Generated_Source\PSoC5/Bootloader_1.c ****         Bootloader_1_SET_RUN_TYPE(0u);
 472              		.loc 1 439 0
 473 0018 44F2FA63 		movw	r3, #18170
 474 001c C4F20003 		movt	r3, 16384
 475 0020 4FF00002 		mov	r2, #0
 476 0024 1A70     		strb	r2, [r3, #0]
 440:.\Generated_Source\PSoC5/Bootloader_1.c **** 
 441:.\Generated_Source\PSoC5/Bootloader_1.c ****         /*******************************************************************************
 442:.\Generated_Source\PSoC5/Bootloader_1.c ****         * Indicates that we have told ourselves to jump to the application since we have
 443:.\Generated_Source\PSoC5/Bootloader_1.c ****         * already told ourselves to jump, we do not do any expensive verification of the
 444:.\Generated_Source\PSoC5/Bootloader_1.c ****         * application. We just check to make sure that the value at CY_APP_ADDR_ADDRESS
 445:.\Generated_Source\PSoC5/Bootloader_1.c ****         * is something other than 0.
 446:.\Generated_Source\PSoC5/Bootloader_1.c ****         *******************************************************************************/
 447:.\Generated_Source\PSoC5/Bootloader_1.c ****         if(0u != Bootloader_1_GetMetadata(Bootloader_1_GET_METADATA_BTLDB_ADDR, Bootloader_1_active
 477              		.loc 1 447 0
 478 0026 4FF00100 		mov	r0, #1
 479 002a 4FF00001 		mov	r1, #0
 480 002e FFF7FEFF 		bl	Bootloader_1_GetMetadata
 481 0032 0346     		mov	r3, r0
 482 0034 002B     		cmp	r3, #0
 483 0036 09D0     		beq	.L25
 448:.\Generated_Source\PSoC5/Bootloader_1.c ****         {
 449:.\Generated_Source\PSoC5/Bootloader_1.c ****             /* Never return from this method */
 450:.\Generated_Source\PSoC5/Bootloader_1.c ****             Bootloader_1_LaunchBootloadable(Bootloader_1_GetMetadata(Bootloader_1_GET_METADATA_BTLD
 484              		.loc 1 450 0
 485 0038 4FF00100 		mov	r0, #1
 486 003c 4FF00001 		mov	r1, #0
 487 0040 FFF7FEFF 		bl	Bootloader_1_GetMetadata
 488 0044 0346     		mov	r3, r0
 489 0046 1846     		mov	r0, r3
 490 0048 FFF7FEFF 		bl	Bootloader_1_LaunchBootloadable
 491              	.L25:
 451:.\Generated_Source\PSoC5/Bootloader_1.c ****                                                                              Bootloader_1_activeApp
 452:.\Generated_Source\PSoC5/Bootloader_1.c ****         }
 453:.\Generated_Source\PSoC5/Bootloader_1.c ****     }
 454:.\Generated_Source\PSoC5/Bootloader_1.c **** }
 492              		.loc 1 454 0
 493 004c 80BD     		pop	{r7, pc}
 494              		.cfi_endproc
 495              	.LFE61:
 496              		.size	CyBtldr_CheckLaunch, .-CyBtldr_CheckLaunch
 497 004e 00BF     		.section	.text.Bootloader_1_LaunchBootloadable,"ax",%progbits
 498              		.align	2
 499              		.thumb
 500              		.thumb_func
 501              		.type	Bootloader_1_LaunchBootloadable, %function
 502              	Bootloader_1_LaunchBootloadable:
 503              	.LFB62:
 455:.\Generated_Source\PSoC5/Bootloader_1.c **** 
 456:.\Generated_Source\PSoC5/Bootloader_1.c **** 
 457:.\Generated_Source\PSoC5/Bootloader_1.c **** /* Moves the arguement appAddr (RO) into PC, moving execution to the appAddr */
 458:.\Generated_Source\PSoC5/Bootloader_1.c **** #if defined (__ARMCC_VERSION)
 459:.\Generated_Source\PSoC5/Bootloader_1.c **** 
 460:.\Generated_Source\PSoC5/Bootloader_1.c ****     __asm static void Bootloader_1_LaunchBootloadable(uint32 appAddr)
 461:.\Generated_Source\PSoC5/Bootloader_1.c ****     {
ARM GAS  C:\Users\Robert\AppData\Local\Temp\ccgj8kBb.s 			page 18


 462:.\Generated_Source\PSoC5/Bootloader_1.c ****         BX  R0
 463:.\Generated_Source\PSoC5/Bootloader_1.c ****         ALIGN
 464:.\Generated_Source\PSoC5/Bootloader_1.c ****     }
 465:.\Generated_Source\PSoC5/Bootloader_1.c **** 
 466:.\Generated_Source\PSoC5/Bootloader_1.c **** #elif defined(__GNUC__)
 467:.\Generated_Source\PSoC5/Bootloader_1.c **** 
 468:.\Generated_Source\PSoC5/Bootloader_1.c ****     __attribute__((noinline)) /* Workaround for GCC toolchain bug with inlining */
 469:.\Generated_Source\PSoC5/Bootloader_1.c ****     __attribute__((naked))
 470:.\Generated_Source\PSoC5/Bootloader_1.c ****     static void Bootloader_1_LaunchBootloadable(uint32 appAddr)
 471:.\Generated_Source\PSoC5/Bootloader_1.c ****     {
 504              		.loc 1 471 0
 505              		.cfi_startproc
 506              		@ Naked Function: prologue and epilogue provided by programmer.
 507              		@ args = 0, pretend = 0, frame = 0
 508              		@ frame_needed = 1, uses_anonymous_args = 0
 472:.\Generated_Source\PSoC5/Bootloader_1.c ****         __asm volatile("    BX  R0\n");
 509              		.loc 1 472 0
 510              	@ 472 ".\Generated_Source\PSoC5\Bootloader_1.c" 1
 511 0000 0047     		    BX  R0
 512              	
 513              	@ 0 "" 2
 473:.\Generated_Source\PSoC5/Bootloader_1.c ****     }
 514              		.loc 1 473 0
 515              		.thumb
 516              		.cfi_endproc
 517              	.LFE62:
 518              		.size	Bootloader_1_LaunchBootloadable, .-Bootloader_1_LaunchBootloadable
 519 0002 00BF     		.section	.text.Bootloader_1_ValidateBootloadable,"ax",%progbits
 520              		.align	2
 521              		.thumb
 522              		.thumb_func
 523              		.type	Bootloader_1_ValidateBootloadable, %function
 524              	Bootloader_1_ValidateBootloadable:
 525              	.LFB63:
 474:.\Generated_Source\PSoC5/Bootloader_1.c **** 
 475:.\Generated_Source\PSoC5/Bootloader_1.c **** #elif defined (__ICCARM__)
 476:.\Generated_Source\PSoC5/Bootloader_1.c **** 
 477:.\Generated_Source\PSoC5/Bootloader_1.c ****     static void Bootloader_1_LaunchBootloadable(uint32 appAddr)
 478:.\Generated_Source\PSoC5/Bootloader_1.c ****     {
 479:.\Generated_Source\PSoC5/Bootloader_1.c ****         __asm volatile("    BX  R0\n");
 480:.\Generated_Source\PSoC5/Bootloader_1.c ****     }
 481:.\Generated_Source\PSoC5/Bootloader_1.c **** 
 482:.\Generated_Source\PSoC5/Bootloader_1.c **** #endif  /* (__ARMCC_VERSION) */
 483:.\Generated_Source\PSoC5/Bootloader_1.c **** 
 484:.\Generated_Source\PSoC5/Bootloader_1.c **** 
 485:.\Generated_Source\PSoC5/Bootloader_1.c **** /*******************************************************************************
 486:.\Generated_Source\PSoC5/Bootloader_1.c **** * Function Name: Bootloader_1_ValidateBootloadable
 487:.\Generated_Source\PSoC5/Bootloader_1.c **** ********************************************************************************
 488:.\Generated_Source\PSoC5/Bootloader_1.c **** * Summary:
 489:.\Generated_Source\PSoC5/Bootloader_1.c **** *  This routine computes the checksum, zero check, 0xFF check of the
 490:.\Generated_Source\PSoC5/Bootloader_1.c **** *  application area to determine whether a valid application is loaded.
 491:.\Generated_Source\PSoC5/Bootloader_1.c **** *
 492:.\Generated_Source\PSoC5/Bootloader_1.c **** * Parameters:
 493:.\Generated_Source\PSoC5/Bootloader_1.c **** *  appId:
 494:.\Generated_Source\PSoC5/Bootloader_1.c **** *      The application number to verify
 495:.\Generated_Source\PSoC5/Bootloader_1.c **** *
 496:.\Generated_Source\PSoC5/Bootloader_1.c **** * Returns:
ARM GAS  C:\Users\Robert\AppData\Local\Temp\ccgj8kBb.s 			page 19


 497:.\Generated_Source\PSoC5/Bootloader_1.c **** *  CYRET_SUCCESS  - if successful
 498:.\Generated_Source\PSoC5/Bootloader_1.c **** *  CYRET_BAD_DATA - if the bootloadable is corrupt
 499:.\Generated_Source\PSoC5/Bootloader_1.c **** *
 500:.\Generated_Source\PSoC5/Bootloader_1.c **** *******************************************************************************/
 501:.\Generated_Source\PSoC5/Bootloader_1.c **** static cystatus Bootloader_1_ValidateBootloadable(uint8 appId) CYSMALL \
 502:.\Generated_Source\PSoC5/Bootloader_1.c **** 
 503:.\Generated_Source\PSoC5/Bootloader_1.c ****     {
 526              		.loc 1 503 0
 527              		.cfi_startproc
 528              		@ args = 0, pretend = 0, frame = 24
 529              		@ frame_needed = 1, uses_anonymous_args = 0
 530 0000 90B5     		push	{r4, r7, lr}
 531              	.LCFI16:
 532              		.cfi_def_cfa_offset 12
 533              		.cfi_offset 4, -12
 534              		.cfi_offset 7, -8
 535              		.cfi_offset 14, -4
 536 0002 87B0     		sub	sp, sp, #28
 537              	.LCFI17:
 538              		.cfi_def_cfa_offset 40
 539 0004 00AF     		add	r7, sp, #0
 540              	.LCFI18:
 541              		.cfi_def_cfa_register 7
 542 0006 0346     		mov	r3, r0
 543 0008 FB71     		strb	r3, [r7, #7]
 504:.\Generated_Source\PSoC5/Bootloader_1.c ****         uint32 CYDATA idx;
 505:.\Generated_Source\PSoC5/Bootloader_1.c **** 
 506:.\Generated_Source\PSoC5/Bootloader_1.c ****         uint32 CYDATA end   = Bootloader_1_FIRST_APP_BYTE(appId) +
 544              		.loc 1 506 0
 545 000a FB79     		ldrb	r3, [r7, #7]	@ zero_extendqisi2
 546 000c 4FF00200 		mov	r0, #2
 547 0010 1946     		mov	r1, r3
 548 0012 FFF7FEFF 		bl	Bootloader_1_GetMetadata
 549 0016 0346     		mov	r3, r0
 550 0018 03F10103 		add	r3, r3, #1
 551 001c 4FEA0324 		lsl	r4, r3, #8
 507:.\Generated_Source\PSoC5/Bootloader_1.c ****                                 Bootloader_1_GetMetadata(Bootloader_1_GET_METADATA_BTLDB_LENGTH,
 552              		.loc 1 507 0
 553 0020 FB79     		ldrb	r3, [r7, #7]	@ zero_extendqisi2
 554 0022 4FF00300 		mov	r0, #3
 555 0026 1946     		mov	r1, r3
 556 0028 FFF7FEFF 		bl	Bootloader_1_GetMetadata
 557 002c 0346     		mov	r3, r0
 506:.\Generated_Source\PSoC5/Bootloader_1.c ****         uint32 CYDATA end   = Bootloader_1_FIRST_APP_BYTE(appId) +
 558              		.loc 1 506 0
 559 002e E318     		adds	r3, r4, r3
 560 0030 FB60     		str	r3, [r7, #12]
 508:.\Generated_Source\PSoC5/Bootloader_1.c ****                                                        appId);
 509:.\Generated_Source\PSoC5/Bootloader_1.c **** 
 510:.\Generated_Source\PSoC5/Bootloader_1.c ****         CYBIT         valid = 0u; /* Assume bad flash image */
 561              		.loc 1 510 0
 562 0032 4FF00003 		mov	r3, #0
 563 0036 FB74     		strb	r3, [r7, #19]
 511:.\Generated_Source\PSoC5/Bootloader_1.c ****         uint8  CYDATA calcedChecksum = 0u;
 564              		.loc 1 511 0
 565 0038 4FF00003 		mov	r3, #0
 566 003c BB74     		strb	r3, [r7, #18]
ARM GAS  C:\Users\Robert\AppData\Local\Temp\ccgj8kBb.s 			page 20


 512:.\Generated_Source\PSoC5/Bootloader_1.c **** 
 513:.\Generated_Source\PSoC5/Bootloader_1.c **** 
 514:.\Generated_Source\PSoC5/Bootloader_1.c ****         #if(0u != Bootloader_1_DUAL_APP_BOOTLOADER)
 515:.\Generated_Source\PSoC5/Bootloader_1.c **** 
 516:.\Generated_Source\PSoC5/Bootloader_1.c ****             if(appId > 1u)
 517:.\Generated_Source\PSoC5/Bootloader_1.c ****             {
 518:.\Generated_Source\PSoC5/Bootloader_1.c ****                 return(CYRET_BAD_DATA);
 519:.\Generated_Source\PSoC5/Bootloader_1.c ****             }
 520:.\Generated_Source\PSoC5/Bootloader_1.c **** 
 521:.\Generated_Source\PSoC5/Bootloader_1.c ****         #endif  /* (0u != Bootloader_1_DUAL_APP_BOOTLOADER) */
 522:.\Generated_Source\PSoC5/Bootloader_1.c **** 
 523:.\Generated_Source\PSoC5/Bootloader_1.c **** 
 524:.\Generated_Source\PSoC5/Bootloader_1.c ****         #if(0u != Bootloader_1_FAST_APP_VALIDATION)
 525:.\Generated_Source\PSoC5/Bootloader_1.c **** 
 526:.\Generated_Source\PSoC5/Bootloader_1.c ****             if(Bootloader_1_MD_BTLDB_VERIFIED_VALUE(appId) == Bootloader_1_MD_BTLDB_IS_VERIFIED)
 527:.\Generated_Source\PSoC5/Bootloader_1.c ****             {
 528:.\Generated_Source\PSoC5/Bootloader_1.c ****                 return(CYRET_SUCCESS);
 529:.\Generated_Source\PSoC5/Bootloader_1.c ****             }
 530:.\Generated_Source\PSoC5/Bootloader_1.c **** 
 531:.\Generated_Source\PSoC5/Bootloader_1.c ****         #endif  /* (0u != Bootloader_1_FAST_APP_VALIDATION) */
 532:.\Generated_Source\PSoC5/Bootloader_1.c **** 
 533:.\Generated_Source\PSoC5/Bootloader_1.c **** 
 534:.\Generated_Source\PSoC5/Bootloader_1.c ****         /* Calculate checksum of bootloadable image */
 535:.\Generated_Source\PSoC5/Bootloader_1.c ****         for(idx = Bootloader_1_FIRST_APP_BYTE(appId); idx < end; ++idx)
 567              		.loc 1 535 0
 568 003e FB79     		ldrb	r3, [r7, #7]	@ zero_extendqisi2
 569 0040 4FF00200 		mov	r0, #2
 570 0044 1946     		mov	r1, r3
 571 0046 FFF7FEFF 		bl	Bootloader_1_GetMetadata
 572 004a 0346     		mov	r3, r0
 573 004c 03F10103 		add	r3, r3, #1
 574 0050 4FEA0323 		lsl	r3, r3, #8
 575 0054 7B61     		str	r3, [r7, #20]
 576 0056 13E0     		b	.L29
 577              	.L31:
 578              	.LBB2:
 536:.\Generated_Source\PSoC5/Bootloader_1.c ****         {
 537:.\Generated_Source\PSoC5/Bootloader_1.c ****             uint8 CYDATA curByte = Bootloader_1_GET_CODE_BYTE(idx);
 579              		.loc 1 537 0
 580 0058 7B69     		ldr	r3, [r7, #20]
 581 005a 1B78     		ldrb	r3, [r3, #0]
 582 005c FB72     		strb	r3, [r7, #11]
 538:.\Generated_Source\PSoC5/Bootloader_1.c **** 
 539:.\Generated_Source\PSoC5/Bootloader_1.c ****             if((curByte != 0u) && (curByte != 0xFFu))
 583              		.loc 1 539 0
 584 005e FB7A     		ldrb	r3, [r7, #11]	@ zero_extendqisi2
 585 0060 002B     		cmp	r3, #0
 586 0062 05D0     		beq	.L30
 587              		.loc 1 539 0 is_stmt 0 discriminator 1
 588 0064 FB7A     		ldrb	r3, [r7, #11]	@ zero_extendqisi2
 589 0066 FF2B     		cmp	r3, #255
 590 0068 02D0     		beq	.L30
 540:.\Generated_Source\PSoC5/Bootloader_1.c ****             {
 541:.\Generated_Source\PSoC5/Bootloader_1.c ****                 valid = 1u;
 591              		.loc 1 541 0 is_stmt 1
 592 006a 4FF00103 		mov	r3, #1
 593 006e FB74     		strb	r3, [r7, #19]
ARM GAS  C:\Users\Robert\AppData\Local\Temp\ccgj8kBb.s 			page 21


 594              	.L30:
 542:.\Generated_Source\PSoC5/Bootloader_1.c ****             }
 543:.\Generated_Source\PSoC5/Bootloader_1.c **** 
 544:.\Generated_Source\PSoC5/Bootloader_1.c ****             calcedChecksum += curByte;
 595              		.loc 1 544 0
 596 0070 BA7C     		ldrb	r2, [r7, #18]
 597 0072 FB7A     		ldrb	r3, [r7, #11]
 598 0074 D318     		adds	r3, r2, r3
 599 0076 BB74     		strb	r3, [r7, #18]
 600              	.LBE2:
 535:.\Generated_Source\PSoC5/Bootloader_1.c ****         for(idx = Bootloader_1_FIRST_APP_BYTE(appId); idx < end; ++idx)
 601              		.loc 1 535 0
 602 0078 7B69     		ldr	r3, [r7, #20]
 603 007a 03F10103 		add	r3, r3, #1
 604 007e 7B61     		str	r3, [r7, #20]
 605              	.L29:
 535:.\Generated_Source\PSoC5/Bootloader_1.c ****         for(idx = Bootloader_1_FIRST_APP_BYTE(appId); idx < end; ++idx)
 606              		.loc 1 535 0 is_stmt 0 discriminator 1
 607 0080 7A69     		ldr	r2, [r7, #20]
 608 0082 FB68     		ldr	r3, [r7, #12]
 609 0084 9A42     		cmp	r2, r3
 610 0086 E7D3     		bcc	.L31
 545:.\Generated_Source\PSoC5/Bootloader_1.c ****         }
 546:.\Generated_Source\PSoC5/Bootloader_1.c **** 
 547:.\Generated_Source\PSoC5/Bootloader_1.c **** 
 548:.\Generated_Source\PSoC5/Bootloader_1.c ****         /***************************************************************************
 549:.\Generated_Source\PSoC5/Bootloader_1.c ****         * We do not compute checksum over the meta data section, so no need to
 550:.\Generated_Source\PSoC5/Bootloader_1.c ****         * subtract off App Verified or App Active information here like we do when
 551:.\Generated_Source\PSoC5/Bootloader_1.c ****         * verifying a row.
 552:.\Generated_Source\PSoC5/Bootloader_1.c ****         ***************************************************************************/
 553:.\Generated_Source\PSoC5/Bootloader_1.c **** 
 554:.\Generated_Source\PSoC5/Bootloader_1.c **** 
 555:.\Generated_Source\PSoC5/Bootloader_1.c ****         #if((!CY_PSOC4) && (CYDEV_ECC_ENABLE == 0u))
 556:.\Generated_Source\PSoC5/Bootloader_1.c **** 
 557:.\Generated_Source\PSoC5/Bootloader_1.c ****             /* Add ECC data to checksum */
 558:.\Generated_Source\PSoC5/Bootloader_1.c ****             idx = ((Bootloader_1_FIRST_APP_BYTE(appId)) >> 3u);
 611              		.loc 1 558 0 is_stmt 1
 612 0088 FB79     		ldrb	r3, [r7, #7]	@ zero_extendqisi2
 613 008a 4FF00200 		mov	r0, #2
 614 008e 1946     		mov	r1, r3
 615 0090 FFF7FEFF 		bl	Bootloader_1_GetMetadata
 616 0094 0346     		mov	r3, r0
 617 0096 03F10103 		add	r3, r3, #1
 618 009a 4FEA0323 		lsl	r3, r3, #8
 619 009e 4FEAD303 		lsr	r3, r3, #3
 620 00a2 7B61     		str	r3, [r7, #20]
 559:.\Generated_Source\PSoC5/Bootloader_1.c **** 
 560:.\Generated_Source\PSoC5/Bootloader_1.c ****             /* Flash may run into meta data, ECC does not so use full row */
 561:.\Generated_Source\PSoC5/Bootloader_1.c ****             end = (end == (CY_FLASH_SIZE - Bootloader_1_MD_SIZEOF))
 562:.\Generated_Source\PSoC5/Bootloader_1.c ****                 ? (CY_FLASH_SIZE >> 3u)
 563:.\Generated_Source\PSoC5/Bootloader_1.c ****                 : (end >> 3u);
 621              		.loc 1 563 0
 622 00a4 FA68     		ldr	r2, [r7, #12]
 623 00a6 4FF6C073 		movw	r3, #65472
 624 00aa C0F20303 		movt	r3, 3
 625 00ae 9A42     		cmp	r2, r3
 626 00b0 03D0     		beq	.L32
ARM GAS  C:\Users\Robert\AppData\Local\Temp\ccgj8kBb.s 			page 22


 627              		.loc 1 563 0 is_stmt 0 discriminator 1
 628 00b2 FB68     		ldr	r3, [r7, #12]
 629 00b4 4FEAD303 		lsr	r3, r3, #3
 630 00b8 01E0     		b	.L33
 631              	.L32:
 632              		.loc 1 563 0 discriminator 2
 633 00ba 4FF40043 		mov	r3, #32768
 634              	.L33:
 561:.\Generated_Source\PSoC5/Bootloader_1.c ****             end = (end == (CY_FLASH_SIZE - Bootloader_1_MD_SIZEOF))
 635              		.loc 1 561 0 is_stmt 1
 636 00be FB60     		str	r3, [r7, #12]
 564:.\Generated_Source\PSoC5/Bootloader_1.c **** 
 565:.\Generated_Source\PSoC5/Bootloader_1.c ****             for (; idx < end; ++idx)
 637              		.loc 1 565 0
 638 00c0 0BE0     		b	.L34
 639              	.L35:
 566:.\Generated_Source\PSoC5/Bootloader_1.c ****             {
 567:.\Generated_Source\PSoC5/Bootloader_1.c ****                 calcedChecksum += CY_GET_XTND_REG8((volatile uint8 *)(CYDEV_ECC_BASE + idx));
 640              		.loc 1 567 0 discriminator 2
 641 00c2 7B69     		ldr	r3, [r7, #20]
 642 00c4 03F19043 		add	r3, r3, #1207959552
 643 00c8 1B78     		ldrb	r3, [r3, #0]
 644 00ca DAB2     		uxtb	r2, r3
 645 00cc BB7C     		ldrb	r3, [r7, #18]
 646 00ce D318     		adds	r3, r2, r3
 647 00d0 BB74     		strb	r3, [r7, #18]
 565:.\Generated_Source\PSoC5/Bootloader_1.c ****             for (; idx < end; ++idx)
 648              		.loc 1 565 0 discriminator 2
 649 00d2 7B69     		ldr	r3, [r7, #20]
 650 00d4 03F10103 		add	r3, r3, #1
 651 00d8 7B61     		str	r3, [r7, #20]
 652              	.L34:
 565:.\Generated_Source\PSoC5/Bootloader_1.c ****             for (; idx < end; ++idx)
 653              		.loc 1 565 0 is_stmt 0 discriminator 1
 654 00da 7A69     		ldr	r2, [r7, #20]
 655 00dc FB68     		ldr	r3, [r7, #12]
 656 00de 9A42     		cmp	r2, r3
 657 00e0 EFD3     		bcc	.L35
 568:.\Generated_Source\PSoC5/Bootloader_1.c ****             }
 569:.\Generated_Source\PSoC5/Bootloader_1.c **** 
 570:.\Generated_Source\PSoC5/Bootloader_1.c ****         #endif  /* ((!CY_PSOC4) && (CYDEV_ECC_ENABLE == 0u)) */
 571:.\Generated_Source\PSoC5/Bootloader_1.c **** 
 572:.\Generated_Source\PSoC5/Bootloader_1.c **** 
 573:.\Generated_Source\PSoC5/Bootloader_1.c ****         calcedChecksum = ( uint8 )1u + ( uint8 )(~calcedChecksum);
 658              		.loc 1 573 0 is_stmt 1
 659 00e2 BB7C     		ldrb	r3, [r7, #18]
 660 00e4 C3F10003 		rsb	r3, r3, #0
 661 00e8 BB74     		strb	r3, [r7, #18]
 574:.\Generated_Source\PSoC5/Bootloader_1.c **** 
 575:.\Generated_Source\PSoC5/Bootloader_1.c ****         if((calcedChecksum != Bootloader_1_MD_BTLDB_CHECKSUM_VALUE(appId)) ||
 662              		.loc 1 575 0
 663 00ea FA79     		ldrb	r2, [r7, #7]	@ zero_extendqisi2
 664 00ec 1346     		mov	r3, r2
 665 00ee 4FEA0363 		lsl	r3, r3, #24
 666 00f2 9B1A     		subs	r3, r3, r2
 667 00f4 4FEA0323 		lsl	r3, r3, #8
 668 00f8 03F57F33 		add	r3, r3, #261120
ARM GAS  C:\Users\Robert\AppData\Local\Temp\ccgj8kBb.s 			page 23


 669 00fc 03F57073 		add	r3, r3, #960
 670 0100 1B78     		ldrb	r3, [r3, #0]
 671 0102 DBB2     		uxtb	r3, r3
 672 0104 BA7C     		ldrb	r2, [r7, #18]	@ zero_extendqisi2
 673 0106 9A42     		cmp	r2, r3
 674 0108 02D1     		bne	.L36
 675              		.loc 1 575 0 is_stmt 0 discriminator 1
 676 010a FB7C     		ldrb	r3, [r7, #19]	@ zero_extendqisi2
 677 010c 002B     		cmp	r3, #0
 678 010e 02D1     		bne	.L37
 679              	.L36:
 576:.\Generated_Source\PSoC5/Bootloader_1.c ****            (0u == valid))
 577:.\Generated_Source\PSoC5/Bootloader_1.c ****         {
 578:.\Generated_Source\PSoC5/Bootloader_1.c ****             return(CYRET_BAD_DATA);
 680              		.loc 1 578 0 is_stmt 1
 681 0110 4FF00603 		mov	r3, #6
 682 0114 01E0     		b	.L38
 683              	.L37:
 579:.\Generated_Source\PSoC5/Bootloader_1.c ****         }
 580:.\Generated_Source\PSoC5/Bootloader_1.c **** 
 581:.\Generated_Source\PSoC5/Bootloader_1.c **** 
 582:.\Generated_Source\PSoC5/Bootloader_1.c ****         #if(0u != Bootloader_1_FAST_APP_VALIDATION)
 583:.\Generated_Source\PSoC5/Bootloader_1.c ****             Bootloader_1_SetFlashByte((uint32) Bootloader_1_MD_BTLDB_VERIFIED_OFFSET(appId),
 584:.\Generated_Source\PSoC5/Bootloader_1.c ****                                           Bootloader_1_MD_BTLDB_IS_VERIFIED);
 585:.\Generated_Source\PSoC5/Bootloader_1.c ****         #endif  /* (0u != Bootloader_1_FAST_APP_VALIDATION) */
 586:.\Generated_Source\PSoC5/Bootloader_1.c **** 
 587:.\Generated_Source\PSoC5/Bootloader_1.c **** 
 588:.\Generated_Source\PSoC5/Bootloader_1.c ****         return(CYRET_SUCCESS);
 684              		.loc 1 588 0
 685 0116 4FF00003 		mov	r3, #0
 686              	.L38:
 589:.\Generated_Source\PSoC5/Bootloader_1.c **** }
 687              		.loc 1 589 0
 688 011a 1846     		mov	r0, r3
 689 011c 07F11C07 		add	r7, r7, #28
 690 0120 BD46     		mov	sp, r7
 691 0122 90BD     		pop	{r4, r7, pc}
 692              		.cfi_endproc
 693              	.LFE63:
 694              		.size	Bootloader_1_ValidateBootloadable, .-Bootloader_1_ValidateBootloadable
 695              		.section	.rodata
 696              		.align	2
 697              	.LC0:
 698 0000 6930122E 		.word	772943977
 699 0004 00       		.byte	0
 700 0005 14       		.byte	20
 701 0006 01       		.byte	1
 702 0007 01       		.byte	1
 703              		.section	.text.Bootloader_1_HostLink,"ax",%progbits
 704              		.align	2
 705              		.thumb
 706              		.thumb_func
 707              		.type	Bootloader_1_HostLink, %function
 708              	Bootloader_1_HostLink:
 709              	.LFB64:
 590:.\Generated_Source\PSoC5/Bootloader_1.c **** 
 591:.\Generated_Source\PSoC5/Bootloader_1.c **** 
ARM GAS  C:\Users\Robert\AppData\Local\Temp\ccgj8kBb.s 			page 24


 592:.\Generated_Source\PSoC5/Bootloader_1.c **** /*******************************************************************************
 593:.\Generated_Source\PSoC5/Bootloader_1.c **** * Function Name: Bootloader_1_HostLink
 594:.\Generated_Source\PSoC5/Bootloader_1.c **** ********************************************************************************
 595:.\Generated_Source\PSoC5/Bootloader_1.c **** *
 596:.\Generated_Source\PSoC5/Bootloader_1.c **** * Summary:
 597:.\Generated_Source\PSoC5/Bootloader_1.c **** *  Causes the bootloader to attempt to read data being transmitted by the
 598:.\Generated_Source\PSoC5/Bootloader_1.c **** *  host application.  If data is sent from the host, this establishes the
 599:.\Generated_Source\PSoC5/Bootloader_1.c **** *  communication interface to process all requests.
 600:.\Generated_Source\PSoC5/Bootloader_1.c **** *
 601:.\Generated_Source\PSoC5/Bootloader_1.c **** * Parameters:
 602:.\Generated_Source\PSoC5/Bootloader_1.c **** *  timeOut:
 603:.\Generated_Source\PSoC5/Bootloader_1.c **** *   The amount of time to listen for data before giving up. Timeout is
 604:.\Generated_Source\PSoC5/Bootloader_1.c **** *   measured in 10s of ms.  Use 0 for infinite wait.
 605:.\Generated_Source\PSoC5/Bootloader_1.c **** *
 606:.\Generated_Source\PSoC5/Bootloader_1.c **** * Return:
 607:.\Generated_Source\PSoC5/Bootloader_1.c **** *   None
 608:.\Generated_Source\PSoC5/Bootloader_1.c **** *
 609:.\Generated_Source\PSoC5/Bootloader_1.c **** *******************************************************************************/
 610:.\Generated_Source\PSoC5/Bootloader_1.c **** static void Bootloader_1_HostLink(uint8 timeOut) 
 611:.\Generated_Source\PSoC5/Bootloader_1.c **** {
 710              		.loc 1 611 0
 711              		.cfi_startproc
 712              		@ args = 0, pretend = 0, frame = 944
 713              		@ frame_needed = 1, uses_anonymous_args = 0
 714 0000 80B5     		push	{r7, lr}
 715              	.LCFI19:
 716              		.cfi_def_cfa_offset 8
 717              		.cfi_offset 7, -8
 718              		.cfi_offset 14, -4
 719 0002 ADF56C7D 		sub	sp, sp, #944
 720              	.LCFI20:
 721              		.cfi_def_cfa_offset 952
 722 0006 00AF     		add	r7, sp, #0
 723              	.LCFI21:
 724              		.cfi_def_cfa_register 7
 725 0008 0246     		mov	r2, r0
 726 000a 07F10703 		add	r3, r7, #7
 727 000e 1A70     		strb	r2, [r3, #0]
 612:.\Generated_Source\PSoC5/Bootloader_1.c ****     uint16    CYDATA numberRead;
 613:.\Generated_Source\PSoC5/Bootloader_1.c ****     uint16    CYDATA rspSize;
 614:.\Generated_Source\PSoC5/Bootloader_1.c ****     uint8     CYDATA ackCode;
 615:.\Generated_Source\PSoC5/Bootloader_1.c ****     uint16    CYDATA pktChecksum;
 616:.\Generated_Source\PSoC5/Bootloader_1.c ****     cystatus  CYDATA readStat;
 617:.\Generated_Source\PSoC5/Bootloader_1.c ****     uint16    CYDATA pktSize    = 0u;
 728              		.loc 1 617 0
 729 0010 4FF00003 		mov	r3, #0
 730 0014 A7F8AA33 		strh	r3, [r7, #938]	@ movhi
 618:.\Generated_Source\PSoC5/Bootloader_1.c ****     uint16    CYDATA dataOffset = 0u;
 731              		.loc 1 618 0
 732 0018 4FF00003 		mov	r3, #0
 733 001c A7F8A833 		strh	r3, [r7, #936]	@ movhi
 619:.\Generated_Source\PSoC5/Bootloader_1.c ****     uint8     CYDATA timeOutCnt = 10u;
 734              		.loc 1 619 0
 735 0020 4FF00A03 		mov	r3, #10
 736 0024 87F8A733 		strb	r3, [r7, #935]
 620:.\Generated_Source\PSoC5/Bootloader_1.c **** 
 621:.\Generated_Source\PSoC5/Bootloader_1.c ****     #if(0u == Bootloader_1_DUAL_APP_BOOTLOADER)
ARM GAS  C:\Users\Robert\AppData\Local\Temp\ccgj8kBb.s 			page 25


 622:.\Generated_Source\PSoC5/Bootloader_1.c ****         uint8 CYDATA clearedMetaData = 0u;
 737              		.loc 1 622 0
 738 0028 4FF00003 		mov	r3, #0
 739 002c 87F8A633 		strb	r3, [r7, #934]
 623:.\Generated_Source\PSoC5/Bootloader_1.c ****     #endif  /* (0u == Bootloader_1_DUAL_APP_BOOTLOADER) */
 624:.\Generated_Source\PSoC5/Bootloader_1.c **** 
 625:.\Generated_Source\PSoC5/Bootloader_1.c ****     CYBIT     communicationState = Bootloader_1_COMMUNICATION_STATE_IDLE;
 740              		.loc 1 625 0
 741 0030 4FF00003 		mov	r3, #0
 742 0034 87F8A533 		strb	r3, [r7, #933]
 626:.\Generated_Source\PSoC5/Bootloader_1.c **** 
 627:.\Generated_Source\PSoC5/Bootloader_1.c ****     uint8     packetBuffer[Bootloader_1_SIZEOF_COMMAND_BUFFER];
 628:.\Generated_Source\PSoC5/Bootloader_1.c ****     uint8     dataBuffer  [Bootloader_1_SIZEOF_COMMAND_BUFFER];
 629:.\Generated_Source\PSoC5/Bootloader_1.c **** 
 630:.\Generated_Source\PSoC5/Bootloader_1.c **** 
 631:.\Generated_Source\PSoC5/Bootloader_1.c ****     /* Initialize communications channel. */
 632:.\Generated_Source\PSoC5/Bootloader_1.c ****     CyBtldrCommStart();
 743              		.loc 1 632 0
 744 0038 FFF7FEFF 		bl	USBFS_CyBtldrCommStart
 633:.\Generated_Source\PSoC5/Bootloader_1.c **** 
 634:.\Generated_Source\PSoC5/Bootloader_1.c ****     /* Enable global interrupts */
 635:.\Generated_Source\PSoC5/Bootloader_1.c ****     CyGlobalIntEnable;
 745              		.loc 1 635 0
 746              	@ 635 ".\Generated_Source\PSoC5\Bootloader_1.c" 1
 747 003c 62B6     		CPSIE   i
 748              	@ 0 "" 2
 749              		.thumb
 750              	.L88:
 636:.\Generated_Source\PSoC5/Bootloader_1.c **** 
 637:.\Generated_Source\PSoC5/Bootloader_1.c ****     do
 638:.\Generated_Source\PSoC5/Bootloader_1.c ****     {
 639:.\Generated_Source\PSoC5/Bootloader_1.c ****         ackCode = CYRET_SUCCESS;
 751              		.loc 1 639 0
 752 003e 4FF00003 		mov	r3, #0
 753 0042 87F8AD33 		strb	r3, [r7, #941]
 754              	.L44:
 640:.\Generated_Source\PSoC5/Bootloader_1.c **** 
 641:.\Generated_Source\PSoC5/Bootloader_1.c ****         do
 642:.\Generated_Source\PSoC5/Bootloader_1.c ****         {
 643:.\Generated_Source\PSoC5/Bootloader_1.c ****             readStat = CyBtldrCommRead(packetBuffer,
 755              		.loc 1 643 0
 756 0046 07F10703 		add	r3, r7, #7
 757 004a 1B78     		ldrb	r3, [r3, #0]	@ zero_extendqisi2
 758 004c 002B     		cmp	r3, #0
 759 004e 03D0     		beq	.L40
 760              		.loc 1 643 0 is_stmt 0 discriminator 1
 761 0050 07F10703 		add	r3, r7, #7
 762 0054 1B78     		ldrb	r3, [r3, #0]	@ zero_extendqisi2
 763 0056 01E0     		b	.L41
 764              	.L40:
 765              		.loc 1 643 0 discriminator 2
 766 0058 4FF0FF03 		mov	r3, #255
 767              	.L41:
 768              		.loc 1 643 0 discriminator 3
 769 005c 07F51871 		add	r1, r7, #608
 770 0060 07F28E32 		addw	r2, r7, #910
 771 0064 0846     		mov	r0, r1
ARM GAS  C:\Users\Robert\AppData\Local\Temp\ccgj8kBb.s 			page 26


 772 0066 4FF49671 		mov	r1, #300
 773 006a FFF7FEFF 		bl	USBFS_CyBtldrCommRead
 774 006e C7F89C03 		str	r0, [r7, #924]
 644:.\Generated_Source\PSoC5/Bootloader_1.c ****                                         Bootloader_1_SIZEOF_COMMAND_BUFFER,
 645:.\Generated_Source\PSoC5/Bootloader_1.c ****                                         &numberRead,
 646:.\Generated_Source\PSoC5/Bootloader_1.c ****                                         (0u == timeOut) ? 0xFFu : timeOut);
 647:.\Generated_Source\PSoC5/Bootloader_1.c ****             if (0u != timeOut)
 775              		.loc 1 647 0 is_stmt 1 discriminator 3
 776 0072 07F10703 		add	r3, r7, #7
 777 0076 1B78     		ldrb	r3, [r3, #0]	@ zero_extendqisi2
 778 0078 002B     		cmp	r3, #0
 779 007a 05D0     		beq	.L42
 648:.\Generated_Source\PSoC5/Bootloader_1.c ****             {
 649:.\Generated_Source\PSoC5/Bootloader_1.c ****                 timeOutCnt--;
 780              		.loc 1 649 0
 781 007c 97F8A733 		ldrb	r3, [r7, #935]
 782 0080 03F1FF33 		add	r3, r3, #-1
 783 0084 87F8A733 		strb	r3, [r7, #935]
 784              	.L42:
 650:.\Generated_Source\PSoC5/Bootloader_1.c ****             }
 651:.\Generated_Source\PSoC5/Bootloader_1.c **** 
 652:.\Generated_Source\PSoC5/Bootloader_1.c ****         } while ( (0u != timeOutCnt) && (readStat != CYRET_SUCCESS) );
 785              		.loc 1 652 0
 786 0088 97F8A733 		ldrb	r3, [r7, #935]	@ zero_extendqisi2
 787 008c 002B     		cmp	r3, #0
 788 008e 03D0     		beq	.L43
 789              		.loc 1 652 0 is_stmt 0 discriminator 1
 790 0090 D7F89C33 		ldr	r3, [r7, #924]
 791 0094 002B     		cmp	r3, #0
 792 0096 D6D1     		bne	.L44
 793              	.L43:
 653:.\Generated_Source\PSoC5/Bootloader_1.c **** 
 654:.\Generated_Source\PSoC5/Bootloader_1.c **** 
 655:.\Generated_Source\PSoC5/Bootloader_1.c ****         if( readStat != CYRET_SUCCESS )
 794              		.loc 1 655 0 is_stmt 1
 795 0098 D7F89C33 		ldr	r3, [r7, #924]
 796 009c 002B     		cmp	r3, #0
 797 009e 40F0CA82 		bne	.L89
 798              	.L45:
 656:.\Generated_Source\PSoC5/Bootloader_1.c ****         {
 657:.\Generated_Source\PSoC5/Bootloader_1.c ****             continue;
 658:.\Generated_Source\PSoC5/Bootloader_1.c ****         }
 659:.\Generated_Source\PSoC5/Bootloader_1.c **** 
 660:.\Generated_Source\PSoC5/Bootloader_1.c ****         if((numberRead < Bootloader_1_MIN_PKT_SIZE) ||
 799              		.loc 1 660 0
 800 00a2 B7F88E33 		ldrh	r3, [r7, #910]
 801 00a6 062B     		cmp	r3, #6
 802 00a8 04D9     		bls	.L47
 661:.\Generated_Source\PSoC5/Bootloader_1.c ****            (packetBuffer[Bootloader_1_SOP_ADDR] != Bootloader_1_SOP))
 803              		.loc 1 661 0 discriminator 1
 804 00aa 07F51873 		add	r3, r7, #608
 805 00ae 1B78     		ldrb	r3, [r3, #0]	@ zero_extendqisi2
 660:.\Generated_Source\PSoC5/Bootloader_1.c ****         if((numberRead < Bootloader_1_MIN_PKT_SIZE) ||
 806              		.loc 1 660 0 discriminator 1
 807 00b0 012B     		cmp	r3, #1
 808 00b2 04D0     		beq	.L48
 809              	.L47:
ARM GAS  C:\Users\Robert\AppData\Local\Temp\ccgj8kBb.s 			page 27


 662:.\Generated_Source\PSoC5/Bootloader_1.c ****         {
 663:.\Generated_Source\PSoC5/Bootloader_1.c ****             ackCode = Bootloader_1_ERR_DATA;
 810              		.loc 1 663 0
 811 00b4 4FF00403 		mov	r3, #4
 812 00b8 87F8AD33 		strb	r3, [r7, #941]
 813 00bc 4EE0     		b	.L49
 814              	.L48:
 664:.\Generated_Source\PSoC5/Bootloader_1.c ****         }
 665:.\Generated_Source\PSoC5/Bootloader_1.c ****         else
 666:.\Generated_Source\PSoC5/Bootloader_1.c ****         {
 667:.\Generated_Source\PSoC5/Bootloader_1.c ****             pktSize = ((uint16)((uint16)packetBuffer[Bootloader_1_SIZE_ADDR + 1u] << 8u)) |
 815              		.loc 1 667 0
 816 00be 07F51873 		add	r3, r7, #608
 817 00c2 DB78     		ldrb	r3, [r3, #3]	@ zero_extendqisi2
 818 00c4 4FEA0323 		lsl	r3, r3, #8
 819 00c8 9AB2     		uxth	r2, r3
 668:.\Generated_Source\PSoC5/Bootloader_1.c ****                                packetBuffer[Bootloader_1_SIZE_ADDR];
 820              		.loc 1 668 0
 821 00ca 07F51873 		add	r3, r7, #608
 822 00ce 9B78     		ldrb	r3, [r3, #2]	@ zero_extendqisi2
 667:.\Generated_Source\PSoC5/Bootloader_1.c ****             pktSize = ((uint16)((uint16)packetBuffer[Bootloader_1_SIZE_ADDR + 1u] << 8u)) |
 823              		.loc 1 667 0
 824 00d0 1343     		orrs	r3, r3, r2
 825 00d2 A7F8AA33 		strh	r3, [r7, #938]	@ movhi
 669:.\Generated_Source\PSoC5/Bootloader_1.c **** 
 670:.\Generated_Source\PSoC5/Bootloader_1.c ****             pktChecksum = ((uint16)((uint16)packetBuffer[Bootloader_1_CHK_ADDR(pktSize) + 1u] << 8u
 826              		.loc 1 670 0
 827 00d6 B7F8AA33 		ldrh	r3, [r7, #938]
 828 00da 03F10503 		add	r3, r3, #5
 829 00de 07F51872 		add	r2, r7, #608
 830 00e2 D35C     		ldrb	r3, [r2, r3]	@ zero_extendqisi2
 831 00e4 4FEA0323 		lsl	r3, r3, #8
 832 00e8 9AB2     		uxth	r2, r3
 671:.\Generated_Source\PSoC5/Bootloader_1.c ****                                    packetBuffer[Bootloader_1_CHK_ADDR(pktSize)];
 833              		.loc 1 671 0
 834 00ea B7F8AA33 		ldrh	r3, [r7, #938]
 835 00ee 03F10403 		add	r3, r3, #4
 836 00f2 07F51871 		add	r1, r7, #608
 837 00f6 CB5C     		ldrb	r3, [r1, r3]	@ zero_extendqisi2
 670:.\Generated_Source\PSoC5/Bootloader_1.c ****             pktChecksum = ((uint16)((uint16)packetBuffer[Bootloader_1_CHK_ADDR(pktSize) + 1u] << 8u
 838              		.loc 1 670 0
 839 00f8 1343     		orrs	r3, r3, r2
 840 00fa A7F89A33 		strh	r3, [r7, #922]	@ movhi
 672:.\Generated_Source\PSoC5/Bootloader_1.c **** 
 673:.\Generated_Source\PSoC5/Bootloader_1.c ****             if((pktSize + Bootloader_1_MIN_PKT_SIZE) > numberRead)
 841              		.loc 1 673 0
 842 00fe B7F8AA33 		ldrh	r3, [r7, #938]
 843 0102 03F10702 		add	r2, r3, #7
 844 0106 B7F88E33 		ldrh	r3, [r7, #910]
 845 010a 9A42     		cmp	r2, r3
 846 010c 04D9     		bls	.L50
 674:.\Generated_Source\PSoC5/Bootloader_1.c ****             {
 675:.\Generated_Source\PSoC5/Bootloader_1.c ****                 ackCode = Bootloader_1_ERR_LENGTH;
 847              		.loc 1 675 0
 848 010e 4FF00303 		mov	r3, #3
 849 0112 87F8AD33 		strb	r3, [r7, #941]
 850 0116 21E0     		b	.L49
ARM GAS  C:\Users\Robert\AppData\Local\Temp\ccgj8kBb.s 			page 28


 851              	.L50:
 676:.\Generated_Source\PSoC5/Bootloader_1.c ****             }
 677:.\Generated_Source\PSoC5/Bootloader_1.c ****             else if(packetBuffer[Bootloader_1_EOP_ADDR(pktSize)] != Bootloader_1_EOP)
 852              		.loc 1 677 0
 853 0118 B7F8AA33 		ldrh	r3, [r7, #938]
 854 011c 03F10603 		add	r3, r3, #6
 855 0120 07F51872 		add	r2, r7, #608
 856 0124 D35C     		ldrb	r3, [r2, r3]	@ zero_extendqisi2
 857 0126 172B     		cmp	r3, #23
 858 0128 04D0     		beq	.L51
 678:.\Generated_Source\PSoC5/Bootloader_1.c ****             {
 679:.\Generated_Source\PSoC5/Bootloader_1.c ****                 ackCode = Bootloader_1_ERR_DATA;
 859              		.loc 1 679 0
 860 012a 4FF00403 		mov	r3, #4
 861 012e 87F8AD33 		strb	r3, [r7, #941]
 862 0132 13E0     		b	.L49
 863              	.L51:
 680:.\Generated_Source\PSoC5/Bootloader_1.c ****             }
 681:.\Generated_Source\PSoC5/Bootloader_1.c ****             else if(pktChecksum != Bootloader_1_CalcPacketChecksum(packetBuffer,
 864              		.loc 1 681 0
 865 0134 B7F8AA33 		ldrh	r3, [r7, #938]	@ movhi
 866 0138 03F10403 		add	r3, r3, #4
 867 013c 9BB2     		uxth	r3, r3
 868 013e 07F51872 		add	r2, r7, #608
 869 0142 1046     		mov	r0, r2
 870 0144 1946     		mov	r1, r3
 871 0146 FFF7FEFF 		bl	Bootloader_1_CalcPacketChecksum
 872 014a 0346     		mov	r3, r0
 873 014c B7F89A23 		ldrh	r2, [r7, #922]
 874 0150 9A42     		cmp	r2, r3
 875 0152 03D0     		beq	.L49
 682:.\Generated_Source\PSoC5/Bootloader_1.c ****                                                                         pktSize + Bootloader_1_DATA
 683:.\Generated_Source\PSoC5/Bootloader_1.c ****             {
 684:.\Generated_Source\PSoC5/Bootloader_1.c ****                 ackCode = Bootloader_1_ERR_CHECKSUM;
 876              		.loc 1 684 0
 877 0154 4FF00803 		mov	r3, #8
 878 0158 87F8AD33 		strb	r3, [r7, #941]
 879              	.L49:
 685:.\Generated_Source\PSoC5/Bootloader_1.c ****             }
 686:.\Generated_Source\PSoC5/Bootloader_1.c ****             else
 687:.\Generated_Source\PSoC5/Bootloader_1.c ****             {
 688:.\Generated_Source\PSoC5/Bootloader_1.c ****                 /* Empty section */
 689:.\Generated_Source\PSoC5/Bootloader_1.c ****             }
 690:.\Generated_Source\PSoC5/Bootloader_1.c ****         }
 691:.\Generated_Source\PSoC5/Bootloader_1.c **** 
 692:.\Generated_Source\PSoC5/Bootloader_1.c ****         rspSize = 0u;
 880              		.loc 1 692 0
 881 015c 4FF00003 		mov	r3, #0
 882 0160 A7F8AE33 		strh	r3, [r7, #942]	@ movhi
 693:.\Generated_Source\PSoC5/Bootloader_1.c ****         if(ackCode == CYRET_SUCCESS)
 883              		.loc 1 693 0
 884 0164 97F8AD33 		ldrb	r3, [r7, #941]	@ zero_extendqisi2
 885 0168 002B     		cmp	r3, #0
 886 016a 40F05882 		bne	.L52
 887              	.LBB3:
 694:.\Generated_Source\PSoC5/Bootloader_1.c ****         {
 695:.\Generated_Source\PSoC5/Bootloader_1.c ****             uint8 CYDATA btldrData = packetBuffer[Bootloader_1_DATA_ADDR];
ARM GAS  C:\Users\Robert\AppData\Local\Temp\ccgj8kBb.s 			page 29


 888              		.loc 1 695 0
 889 016e 07F51873 		add	r3, r7, #608
 890 0172 1B79     		ldrb	r3, [r3, #4]
 891 0174 87F89933 		strb	r3, [r7, #921]
 696:.\Generated_Source\PSoC5/Bootloader_1.c **** 
 697:.\Generated_Source\PSoC5/Bootloader_1.c ****             ackCode = Bootloader_1_ERR_DATA;
 892              		.loc 1 697 0
 893 0178 4FF00403 		mov	r3, #4
 894 017c 87F8AD33 		strb	r3, [r7, #941]
 698:.\Generated_Source\PSoC5/Bootloader_1.c ****             switch(packetBuffer[Bootloader_1_CMD_ADDR])
 895              		.loc 1 698 0
 896 0180 07F51873 		add	r3, r7, #608
 897 0184 5B78     		ldrb	r3, [r3, #1]	@ zero_extendqisi2
 898 0186 A3F13103 		sub	r3, r3, #49
 899 018a 0A2B     		cmp	r3, #10
 900 018c 00F23582 		bhi	.L53
 901 0190 01A2     		adr	r2, .L62
 902 0192 52F823F0 		ldr	pc, [r2, r3, lsl #2]
 903 0196 00BF     		.align	2
 904              	.L62:
 905 0198 C5010000 		.word	.L54+1
 906 019c 07020000 		.word	.L55+1
 907 01a0 FB050000 		.word	.L53+1
 908 01a4 71020000 		.word	.L56+1
 909 01a8 DB030000 		.word	.L57+1
 910 01ac FB050000 		.word	.L53+1
 911 01b0 EF030000 		.word	.L58+1
 912 01b4 4B040000 		.word	.L59+1
 913 01b8 71020000 		.word	.L56+1
 914 01bc 9D040000 		.word	.L60+1
 915 01c0 D9050000 		.word	.L61+1
 916              	.L54:
 699:.\Generated_Source\PSoC5/Bootloader_1.c ****             {
 700:.\Generated_Source\PSoC5/Bootloader_1.c **** 
 701:.\Generated_Source\PSoC5/Bootloader_1.c **** 
 702:.\Generated_Source\PSoC5/Bootloader_1.c ****             /***************************************************************************
 703:.\Generated_Source\PSoC5/Bootloader_1.c ****             *   Get metadata
 704:.\Generated_Source\PSoC5/Bootloader_1.c ****             ***************************************************************************/
 705:.\Generated_Source\PSoC5/Bootloader_1.c ****             #if(0u != Bootloader_1_CMD_GET_METADATA)
 706:.\Generated_Source\PSoC5/Bootloader_1.c **** 
 707:.\Generated_Source\PSoC5/Bootloader_1.c ****                 case Bootloader_1_COMMAND_GET_METADATA:
 708:.\Generated_Source\PSoC5/Bootloader_1.c **** 
 709:.\Generated_Source\PSoC5/Bootloader_1.c ****                     if((Bootloader_1_COMMUNICATION_STATE_ACTIVE == communicationState) && (pktSize 
 710:.\Generated_Source\PSoC5/Bootloader_1.c ****                     {
 711:.\Generated_Source\PSoC5/Bootloader_1.c ****                         if (btldrData >= Bootloader_1_MAX_NUM_OF_BTLDB)
 712:.\Generated_Source\PSoC5/Bootloader_1.c ****                         {
 713:.\Generated_Source\PSoC5/Bootloader_1.c ****                             ackCode = Bootloader_1_ERR_APP;
 714:.\Generated_Source\PSoC5/Bootloader_1.c ****                         }
 715:.\Generated_Source\PSoC5/Bootloader_1.c ****                         else if(CYRET_SUCCESS == Bootloader_1_ValidateBootloadable(btldrData))
 716:.\Generated_Source\PSoC5/Bootloader_1.c ****                         {
 717:.\Generated_Source\PSoC5/Bootloader_1.c ****                             #if(CY_PSOC3)
 718:.\Generated_Source\PSoC5/Bootloader_1.c ****                                 (void) memcpy(&packetBuffer[Bootloader_1_DATA_ADDR],
 719:.\Generated_Source\PSoC5/Bootloader_1.c ****                                             ((uint8  CYCODE *) (Bootloader_1_META_BASE(btldrData)))
 720:.\Generated_Source\PSoC5/Bootloader_1.c ****                             #else
 721:.\Generated_Source\PSoC5/Bootloader_1.c ****                                 (void) memcpy(&packetBuffer[Bootloader_1_DATA_ADDR],
 722:.\Generated_Source\PSoC5/Bootloader_1.c ****                                             (uint8 *) Bootloader_1_META_BASE(btldrData), 56u);
 723:.\Generated_Source\PSoC5/Bootloader_1.c ****                             #endif  /* (CY_PSOC3) */
ARM GAS  C:\Users\Robert\AppData\Local\Temp\ccgj8kBb.s 			page 30


 724:.\Generated_Source\PSoC5/Bootloader_1.c **** 
 725:.\Generated_Source\PSoC5/Bootloader_1.c ****                             rspSize = 56u;
 726:.\Generated_Source\PSoC5/Bootloader_1.c ****                             ackCode = CYRET_SUCCESS;
 727:.\Generated_Source\PSoC5/Bootloader_1.c ****                         }
 728:.\Generated_Source\PSoC5/Bootloader_1.c ****                         else
 729:.\Generated_Source\PSoC5/Bootloader_1.c ****                         {
 730:.\Generated_Source\PSoC5/Bootloader_1.c ****                             ackCode = Bootloader_1_ERR_APP;
 731:.\Generated_Source\PSoC5/Bootloader_1.c ****                         }
 732:.\Generated_Source\PSoC5/Bootloader_1.c ****                     }
 733:.\Generated_Source\PSoC5/Bootloader_1.c ****                     break;
 734:.\Generated_Source\PSoC5/Bootloader_1.c **** 
 735:.\Generated_Source\PSoC5/Bootloader_1.c ****             #endif  /* (0u != Bootloader_1_CMD_GET_METADATA) */
 736:.\Generated_Source\PSoC5/Bootloader_1.c **** 
 737:.\Generated_Source\PSoC5/Bootloader_1.c **** 
 738:.\Generated_Source\PSoC5/Bootloader_1.c ****             /***************************************************************************
 739:.\Generated_Source\PSoC5/Bootloader_1.c ****             *   Verify checksum
 740:.\Generated_Source\PSoC5/Bootloader_1.c ****             ***************************************************************************/
 741:.\Generated_Source\PSoC5/Bootloader_1.c ****             case Bootloader_1_COMMAND_CHECKSUM:
 742:.\Generated_Source\PSoC5/Bootloader_1.c **** 
 743:.\Generated_Source\PSoC5/Bootloader_1.c ****                 if((Bootloader_1_COMMUNICATION_STATE_ACTIVE == communicationState) && (pktSize == 0
 917              		.loc 1 743 0
 918 01c4 97F8A533 		ldrb	r3, [r7, #933]	@ zero_extendqisi2
 919 01c8 012B     		cmp	r3, #1
 920 01ca 40F01B82 		bne	.L90
 921              		.loc 1 743 0 is_stmt 0 discriminator 1
 922 01ce B7F8AA33 		ldrh	r3, [r7, #938]
 923 01d2 002B     		cmp	r3, #0
 924 01d4 40F01682 		bne	.L90
 744:.\Generated_Source\PSoC5/Bootloader_1.c ****                 {
 745:.\Generated_Source\PSoC5/Bootloader_1.c ****                     packetBuffer[Bootloader_1_DATA_ADDR] =
 746:.\Generated_Source\PSoC5/Bootloader_1.c ****                             (uint8)(Bootloader_1_ValidateBootloadable(Bootloader_1_activeApp) == CY
 925              		.loc 1 746 0 is_stmt 1
 926 01d8 4FF00000 		mov	r0, #0
 927 01dc FFF7FEFF 		bl	Bootloader_1_ValidateBootloadable
 928 01e0 0346     		mov	r3, r0
 929 01e2 002B     		cmp	r3, #0
 930 01e4 14BF     		ite	ne
 931 01e6 0023     		movne	r3, #0
 932 01e8 0123     		moveq	r3, #1
 933 01ea DBB2     		uxtb	r3, r3
 934 01ec 1A46     		mov	r2, r3
 745:.\Generated_Source\PSoC5/Bootloader_1.c ****                     packetBuffer[Bootloader_1_DATA_ADDR] =
 935              		.loc 1 745 0
 936 01ee 07F51873 		add	r3, r7, #608
 937 01f2 1A71     		strb	r2, [r3, #4]
 747:.\Generated_Source\PSoC5/Bootloader_1.c **** 
 748:.\Generated_Source\PSoC5/Bootloader_1.c ****                     rspSize = 1u;
 938              		.loc 1 748 0
 939 01f4 4FF00103 		mov	r3, #1
 940 01f8 A7F8AE33 		strh	r3, [r7, #942]	@ movhi
 749:.\Generated_Source\PSoC5/Bootloader_1.c ****                     ackCode = CYRET_SUCCESS;
 941              		.loc 1 749 0
 942 01fc 4FF00003 		mov	r3, #0
 943 0200 87F8AD33 		strb	r3, [r7, #941]
 750:.\Generated_Source\PSoC5/Bootloader_1.c ****                 }
 751:.\Generated_Source\PSoC5/Bootloader_1.c ****                 break;
 944              		.loc 1 751 0
ARM GAS  C:\Users\Robert\AppData\Local\Temp\ccgj8kBb.s 			page 31


 945 0204 FEE1     		b	.L90
 946              	.L55:
 752:.\Generated_Source\PSoC5/Bootloader_1.c **** 
 753:.\Generated_Source\PSoC5/Bootloader_1.c **** 
 754:.\Generated_Source\PSoC5/Bootloader_1.c ****             /***************************************************************************
 755:.\Generated_Source\PSoC5/Bootloader_1.c ****             *   Get flash size
 756:.\Generated_Source\PSoC5/Bootloader_1.c ****             ***************************************************************************/
 757:.\Generated_Source\PSoC5/Bootloader_1.c ****             #if(0u != Bootloader_1_CMD_GET_FLASH_SIZE_AVAIL)
 758:.\Generated_Source\PSoC5/Bootloader_1.c **** 
 759:.\Generated_Source\PSoC5/Bootloader_1.c ****                 case Bootloader_1_COMMAND_REPORT_SIZE:
 760:.\Generated_Source\PSoC5/Bootloader_1.c **** 
 761:.\Generated_Source\PSoC5/Bootloader_1.c ****                     if((Bootloader_1_COMMUNICATION_STATE_ACTIVE == communicationState) && (pktSize 
 947              		.loc 1 761 0
 948 0206 97F8A533 		ldrb	r3, [r7, #933]	@ zero_extendqisi2
 949 020a 012B     		cmp	r3, #1
 950 020c 40F0FC81 		bne	.L91
 951              		.loc 1 761 0 is_stmt 0 discriminator 1
 952 0210 B7F8AA33 		ldrh	r3, [r7, #938]
 953 0214 012B     		cmp	r3, #1
 954 0216 40F0F781 		bne	.L91
 762:.\Generated_Source\PSoC5/Bootloader_1.c ****                     {
 763:.\Generated_Source\PSoC5/Bootloader_1.c ****                         /* btldrData holds flash array ID sent by host */
 764:.\Generated_Source\PSoC5/Bootloader_1.c ****                         if(btldrData < Bootloader_1_NUM_OF_FLASH_ARRAYS)
 955              		.loc 1 764 0 is_stmt 1
 956 021a 97F89933 		ldrb	r3, [r7, #921]	@ zero_extendqisi2
 957 021e 032B     		cmp	r3, #3
 958 0220 00F2F281 		bhi	.L91
 959              	.LBB4:
 765:.\Generated_Source\PSoC5/Bootloader_1.c ****                         {
 766:.\Generated_Source\PSoC5/Bootloader_1.c ****                             #if (1u == Bootloader_1_NUM_OF_FLASH_ARRAYS)
 767:.\Generated_Source\PSoC5/Bootloader_1.c ****                                 uint16 CYDATA startRow = (uint16)*Bootloader_1_SizeBytesAccess / CY
 768:.\Generated_Source\PSoC5/Bootloader_1.c ****                             #else
 769:.\Generated_Source\PSoC5/Bootloader_1.c ****                                 uint16 CYDATA startRow = 0u;
 960              		.loc 1 769 0
 961 0224 4FF00003 		mov	r3, #0
 962 0228 A7F89633 		strh	r3, [r7, #918]	@ movhi
 770:.\Generated_Source\PSoC5/Bootloader_1.c ****                             #endif  /* (1u == Bootloader_1_NUM_OF_FLASH_ARRAYS) */
 771:.\Generated_Source\PSoC5/Bootloader_1.c **** 
 772:.\Generated_Source\PSoC5/Bootloader_1.c ****                             packetBuffer[Bootloader_1_DATA_ADDR]      = LO8(startRow);
 963              		.loc 1 772 0
 964 022c B7F89633 		ldrh	r3, [r7, #918]	@ movhi
 965 0230 DAB2     		uxtb	r2, r3
 966 0232 07F51873 		add	r3, r7, #608
 967 0236 1A71     		strb	r2, [r3, #4]
 773:.\Generated_Source\PSoC5/Bootloader_1.c ****                             packetBuffer[Bootloader_1_DATA_ADDR + 1u] = HI8(startRow);
 968              		.loc 1 773 0
 969 0238 B7F89633 		ldrh	r3, [r7, #918]
 970 023c 4FEA1323 		lsr	r3, r3, #8
 971 0240 9BB2     		uxth	r3, r3
 972 0242 DAB2     		uxtb	r2, r3
 973 0244 07F51873 		add	r3, r7, #608
 974 0248 5A71     		strb	r2, [r3, #5]
 774:.\Generated_Source\PSoC5/Bootloader_1.c ****                             packetBuffer[Bootloader_1_DATA_ADDR + 2u] = LO8(CY_FLASH_NUMBER_ROWS - 
 975              		.loc 1 774 0
 976 024a 07F51873 		add	r3, r7, #608
 977 024e 4FF0FF02 		mov	r2, #255
 978 0252 9A71     		strb	r2, [r3, #6]
ARM GAS  C:\Users\Robert\AppData\Local\Temp\ccgj8kBb.s 			page 32


 775:.\Generated_Source\PSoC5/Bootloader_1.c ****                             packetBuffer[Bootloader_1_DATA_ADDR + 3u] = HI8(CY_FLASH_NUMBER_ROWS - 
 979              		.loc 1 775 0
 980 0254 07F51873 		add	r3, r7, #608
 981 0258 4FF00302 		mov	r2, #3
 982 025c DA71     		strb	r2, [r3, #7]
 776:.\Generated_Source\PSoC5/Bootloader_1.c **** 
 777:.\Generated_Source\PSoC5/Bootloader_1.c ****                             rspSize = 4u;
 983              		.loc 1 777 0
 984 025e 4FF00403 		mov	r3, #4
 985 0262 A7F8AE33 		strh	r3, [r7, #942]	@ movhi
 778:.\Generated_Source\PSoC5/Bootloader_1.c ****                             ackCode = CYRET_SUCCESS;
 986              		.loc 1 778 0
 987 0266 4FF00003 		mov	r3, #0
 988 026a 87F8AD33 		strb	r3, [r7, #941]
 989              	.LBE4:
 779:.\Generated_Source\PSoC5/Bootloader_1.c ****                         }
 780:.\Generated_Source\PSoC5/Bootloader_1.c **** 
 781:.\Generated_Source\PSoC5/Bootloader_1.c ****                     }
 782:.\Generated_Source\PSoC5/Bootloader_1.c ****                     break;
 990              		.loc 1 782 0
 991 026e CBE1     		b	.L91
 992              	.L56:
 783:.\Generated_Source\PSoC5/Bootloader_1.c **** 
 784:.\Generated_Source\PSoC5/Bootloader_1.c ****             #endif  /* (0u != Bootloader_1_CMD_GET_FLASH_SIZE_AVAIL) */
 785:.\Generated_Source\PSoC5/Bootloader_1.c **** 
 786:.\Generated_Source\PSoC5/Bootloader_1.c **** 
 787:.\Generated_Source\PSoC5/Bootloader_1.c ****             /***************************************************************************
 788:.\Generated_Source\PSoC5/Bootloader_1.c ****             *   Get application status
 789:.\Generated_Source\PSoC5/Bootloader_1.c ****             ***************************************************************************/
 790:.\Generated_Source\PSoC5/Bootloader_1.c ****             #if(0u != Bootloader_1_DUAL_APP_BOOTLOADER)
 791:.\Generated_Source\PSoC5/Bootloader_1.c **** 
 792:.\Generated_Source\PSoC5/Bootloader_1.c ****                 #if(0u != Bootloader_1_CMD_GET_APP_STATUS_AVAIL)
 793:.\Generated_Source\PSoC5/Bootloader_1.c **** 
 794:.\Generated_Source\PSoC5/Bootloader_1.c ****                     case Bootloader_1_COMMAND_APP_STATUS:
 795:.\Generated_Source\PSoC5/Bootloader_1.c **** 
 796:.\Generated_Source\PSoC5/Bootloader_1.c ****                         if((Bootloader_1_COMMUNICATION_STATE_ACTIVE == communicationState) && (pktS
 797:.\Generated_Source\PSoC5/Bootloader_1.c ****                         {
 798:.\Generated_Source\PSoC5/Bootloader_1.c **** 
 799:.\Generated_Source\PSoC5/Bootloader_1.c ****                             packetBuffer[Bootloader_1_DATA_ADDR] =
 800:.\Generated_Source\PSoC5/Bootloader_1.c ****                                 (uint8)Bootloader_1_ValidateBootloadable(btldrData);
 801:.\Generated_Source\PSoC5/Bootloader_1.c **** 
 802:.\Generated_Source\PSoC5/Bootloader_1.c ****                             packetBuffer[Bootloader_1_DATA_ADDR + 1u] =
 803:.\Generated_Source\PSoC5/Bootloader_1.c ****                                 (uint8)Bootloader_1_MD_BTLDB_ACTIVE_VALUE(btldrData);
 804:.\Generated_Source\PSoC5/Bootloader_1.c **** 
 805:.\Generated_Source\PSoC5/Bootloader_1.c ****                             rspSize = 2u;
 806:.\Generated_Source\PSoC5/Bootloader_1.c ****                             ackCode = CYRET_SUCCESS;
 807:.\Generated_Source\PSoC5/Bootloader_1.c ****                         }
 808:.\Generated_Source\PSoC5/Bootloader_1.c ****                         break;
 809:.\Generated_Source\PSoC5/Bootloader_1.c **** 
 810:.\Generated_Source\PSoC5/Bootloader_1.c ****                 #endif  /* (0u != Bootloader_1_CMD_GET_APP_STATUS_AVAIL) */
 811:.\Generated_Source\PSoC5/Bootloader_1.c **** 
 812:.\Generated_Source\PSoC5/Bootloader_1.c ****             #endif  /* (0u != Bootloader_1_DUAL_APP_BOOTLOADER) */
 813:.\Generated_Source\PSoC5/Bootloader_1.c **** 
 814:.\Generated_Source\PSoC5/Bootloader_1.c **** 
 815:.\Generated_Source\PSoC5/Bootloader_1.c ****             /***************************************************************************
 816:.\Generated_Source\PSoC5/Bootloader_1.c ****             *   Program / Erase row
 817:.\Generated_Source\PSoC5/Bootloader_1.c ****             ***************************************************************************/
ARM GAS  C:\Users\Robert\AppData\Local\Temp\ccgj8kBb.s 			page 33


 818:.\Generated_Source\PSoC5/Bootloader_1.c ****             case Bootloader_1_COMMAND_PROGRAM:
 819:.\Generated_Source\PSoC5/Bootloader_1.c **** 
 820:.\Generated_Source\PSoC5/Bootloader_1.c ****             /* The btldrData variable holds Flash Array ID */
 821:.\Generated_Source\PSoC5/Bootloader_1.c **** 
 822:.\Generated_Source\PSoC5/Bootloader_1.c ****         #if (0u != Bootloader_1_CMD_ERASE_ROW_AVAIL)
 823:.\Generated_Source\PSoC5/Bootloader_1.c **** 
 824:.\Generated_Source\PSoC5/Bootloader_1.c ****             case Bootloader_1_COMMAND_ERASE:
 825:.\Generated_Source\PSoC5/Bootloader_1.c ****                 if (Bootloader_1_COMMAND_ERASE == packetBuffer[Bootloader_1_CMD_ADDR])
 993              		.loc 1 825 0
 994 0270 07F51873 		add	r3, r7, #608
 995 0274 5B78     		ldrb	r3, [r3, #1]	@ zero_extendqisi2
 996 0276 342B     		cmp	r3, #52
 997 0278 25D1     		bne	.L65
 826:.\Generated_Source\PSoC5/Bootloader_1.c ****                 {
 827:.\Generated_Source\PSoC5/Bootloader_1.c ****                     if ((Bootloader_1_COMMUNICATION_STATE_ACTIVE == communicationState) && (pktSize
 998              		.loc 1 827 0
 999 027a 97F8A533 		ldrb	r3, [r7, #933]	@ zero_extendqisi2
 1000 027e 012B     		cmp	r3, #1
 1001 0280 40F0CD81 		bne	.L52
 1002              		.loc 1 827 0 is_stmt 0 discriminator 1
 1003 0284 B7F8AA33 		ldrh	r3, [r7, #938]
 1004 0288 032B     		cmp	r3, #3
 1005 028a 40F0C881 		bne	.L52
 828:.\Generated_Source\PSoC5/Bootloader_1.c ****                     {
 829:.\Generated_Source\PSoC5/Bootloader_1.c ****                         #if(!CY_PSOC4)
 830:.\Generated_Source\PSoC5/Bootloader_1.c ****                             if((btldrData >= Bootloader_1_FIRST_EE_ARRAYID) &&
 1006              		.loc 1 830 0 is_stmt 1
 1007 028e 97F89933 		ldrb	r3, [r7, #921]	@ zero_extendqisi2
 1008 0292 3F2B     		cmp	r3, #63
 1009 0294 09D9     		bls	.L66
 831:.\Generated_Source\PSoC5/Bootloader_1.c ****                                (btldrData <= Bootloader_1_LAST_EE_ARRAYID))
 1010              		.loc 1 831 0 discriminator 1
 1011 0296 97F89933 		ldrb	r3, [r7, #921]	@ zero_extendqisi2
 830:.\Generated_Source\PSoC5/Bootloader_1.c ****                             if((btldrData >= Bootloader_1_FIRST_EE_ARRAYID) &&
 1012              		.loc 1 830 0 discriminator 1
 1013 029a 5BB2     		sxtb	r3, r3
 1014 029c 002B     		cmp	r3, #0
 1015 029e 04DB     		blt	.L66
 832:.\Generated_Source\PSoC5/Bootloader_1.c ****                             {
 833:.\Generated_Source\PSoC5/Bootloader_1.c ****                                 /* Size of EEPROM row */
 834:.\Generated_Source\PSoC5/Bootloader_1.c ****                                 dataOffset = CY_EEPROM_SIZEOF_ROW;
 1016              		.loc 1 834 0
 1017 02a0 4FF01003 		mov	r3, #16
 1018 02a4 A7F8A833 		strh	r3, [r7, #936]	@ movhi
 1019 02a8 03E0     		b	.L67
 1020              	.L66:
 835:.\Generated_Source\PSoC5/Bootloader_1.c ****                             }
 836:.\Generated_Source\PSoC5/Bootloader_1.c ****                             else
 837:.\Generated_Source\PSoC5/Bootloader_1.c ****                             {
 838:.\Generated_Source\PSoC5/Bootloader_1.c ****                                 /* Size of FLASH row (depends on ECC configuration) */
 839:.\Generated_Source\PSoC5/Bootloader_1.c ****                                 dataOffset = Bootloader_1_FROW_SIZE;
 1021              		.loc 1 839 0
 1022 02aa 4FF49073 		mov	r3, #288
 1023 02ae A7F8A833 		strh	r3, [r7, #936]	@ movhi
 1024              	.L67:
 840:.\Generated_Source\PSoC5/Bootloader_1.c ****                             }
 841:.\Generated_Source\PSoC5/Bootloader_1.c ****                         #else
ARM GAS  C:\Users\Robert\AppData\Local\Temp\ccgj8kBb.s 			page 34


 842:.\Generated_Source\PSoC5/Bootloader_1.c ****                             /* Size of FLASH row (no ECC available) */
 843:.\Generated_Source\PSoC5/Bootloader_1.c ****                             dataOffset = Bootloader_1_FROW_SIZE;
 844:.\Generated_Source\PSoC5/Bootloader_1.c ****                         #endif  /* (!CY_PSOC4) */
 845:.\Generated_Source\PSoC5/Bootloader_1.c **** 
 846:.\Generated_Source\PSoC5/Bootloader_1.c ****                         #if(CY_PSOC3)
 847:.\Generated_Source\PSoC5/Bootloader_1.c ****                             (void) memset(dataBuffer, (char8) 0, (int16) dataOffset);
 848:.\Generated_Source\PSoC5/Bootloader_1.c ****                         #else
 849:.\Generated_Source\PSoC5/Bootloader_1.c ****                             (void) memset(dataBuffer, 0, dataOffset);
 1025              		.loc 1 849 0
 1026 02b2 B7F8A833 		ldrh	r3, [r7, #936]
 1027 02b6 07F59A72 		add	r2, r7, #308
 1028 02ba 1046     		mov	r0, r2
 1029 02bc 4FF00001 		mov	r1, #0
 1030 02c0 1A46     		mov	r2, r3
 1031 02c2 FFF7FEFF 		bl	memset
 1032              	.L65:
 850:.\Generated_Source\PSoC5/Bootloader_1.c ****                         #endif  /* (CY_PSOC3) */
 851:.\Generated_Source\PSoC5/Bootloader_1.c ****                     }
 852:.\Generated_Source\PSoC5/Bootloader_1.c ****                     else
 853:.\Generated_Source\PSoC5/Bootloader_1.c ****                     {
 854:.\Generated_Source\PSoC5/Bootloader_1.c ****                         break;
 855:.\Generated_Source\PSoC5/Bootloader_1.c ****                     }
 856:.\Generated_Source\PSoC5/Bootloader_1.c ****                 }
 857:.\Generated_Source\PSoC5/Bootloader_1.c **** 
 858:.\Generated_Source\PSoC5/Bootloader_1.c ****         #endif  /* (0u != Bootloader_1_CMD_ERASE_ROW_AVAIL) */
 859:.\Generated_Source\PSoC5/Bootloader_1.c **** 
 860:.\Generated_Source\PSoC5/Bootloader_1.c **** 
 861:.\Generated_Source\PSoC5/Bootloader_1.c ****                 if((Bootloader_1_COMMUNICATION_STATE_ACTIVE == communicationState) && (pktSize >= 3
 1033              		.loc 1 861 0
 1034 02c6 97F8A533 		ldrb	r3, [r7, #933]	@ zero_extendqisi2
 1035 02ca 012B     		cmp	r3, #1
 1036 02cc 40F09E81 		bne	.L92
 1037              		.loc 1 861 0 is_stmt 0 discriminator 1
 1038 02d0 B7F8AA33 		ldrh	r3, [r7, #938]
 1039 02d4 022B     		cmp	r3, #2
 1040 02d6 40F29981 		bls	.L92
 862:.\Generated_Source\PSoC5/Bootloader_1.c ****                 {
 863:.\Generated_Source\PSoC5/Bootloader_1.c **** 
 864:.\Generated_Source\PSoC5/Bootloader_1.c ****                     /* The command may be sent along with the last block of data, to program the ro
 865:.\Generated_Source\PSoC5/Bootloader_1.c ****                     #if(CY_PSOC3)
 866:.\Generated_Source\PSoC5/Bootloader_1.c ****                         (void) memcpy(&dataBuffer[dataOffset],
 867:.\Generated_Source\PSoC5/Bootloader_1.c ****                                       &packetBuffer[Bootloader_1_DATA_ADDR + 3u],
 868:.\Generated_Source\PSoC5/Bootloader_1.c ****                                       ( int16 )pktSize - 3);
 869:.\Generated_Source\PSoC5/Bootloader_1.c ****                     #else
 870:.\Generated_Source\PSoC5/Bootloader_1.c ****                         (void) memcpy(&dataBuffer[dataOffset],
 1041              		.loc 1 870 0 is_stmt 1
 1042 02da B7F8A833 		ldrh	r3, [r7, #936]
 1043 02de 07F59A72 		add	r2, r7, #308
 1044 02e2 D118     		adds	r1, r2, r3
 1045 02e4 B7F8AA33 		ldrh	r3, [r7, #938]
 1046 02e8 A3F10303 		sub	r3, r3, #3
 871:.\Generated_Source\PSoC5/Bootloader_1.c ****                                       &packetBuffer[Bootloader_1_DATA_ADDR + 3u],
 1047              		.loc 1 871 0
 1048 02ec 07F51872 		add	r2, r7, #608
 1049 02f0 02F10702 		add	r2, r2, #7
 870:.\Generated_Source\PSoC5/Bootloader_1.c ****                         (void) memcpy(&dataBuffer[dataOffset],
 1050              		.loc 1 870 0
ARM GAS  C:\Users\Robert\AppData\Local\Temp\ccgj8kBb.s 			page 35


 1051 02f4 0846     		mov	r0, r1
 1052 02f6 1146     		mov	r1, r2
 1053 02f8 1A46     		mov	r2, r3
 1054 02fa FFF7FEFF 		bl	memcpy
 872:.\Generated_Source\PSoC5/Bootloader_1.c ****                                       pktSize - 3u);
 873:.\Generated_Source\PSoC5/Bootloader_1.c ****                     #endif  /* (CY_PSOC3) */
 874:.\Generated_Source\PSoC5/Bootloader_1.c **** 
 875:.\Generated_Source\PSoC5/Bootloader_1.c ****                     dataOffset += (pktSize - 3u);
 1055              		.loc 1 875 0
 1056 02fe B7F8A823 		ldrh	r2, [r7, #936]	@ movhi
 1057 0302 B7F8AA33 		ldrh	r3, [r7, #938]	@ movhi
 1058 0306 D318     		adds	r3, r2, r3
 1059 0308 9BB2     		uxth	r3, r3
 1060 030a A3F10303 		sub	r3, r3, #3
 1061 030e A7F8A833 		strh	r3, [r7, #936]	@ movhi
 876:.\Generated_Source\PSoC5/Bootloader_1.c **** 
 877:.\Generated_Source\PSoC5/Bootloader_1.c ****                     #if(!CY_PSOC4)
 878:.\Generated_Source\PSoC5/Bootloader_1.c ****                         if((btldrData >= Bootloader_1_FIRST_EE_ARRAYID) &&
 1062              		.loc 1 878 0
 1063 0312 97F89933 		ldrb	r3, [r7, #921]	@ zero_extendqisi2
 1064 0316 3F2B     		cmp	r3, #63
 1065 0318 0BD9     		bls	.L69
 879:.\Generated_Source\PSoC5/Bootloader_1.c ****                            (btldrData <= Bootloader_1_LAST_EE_ARRAYID))
 1066              		.loc 1 879 0 discriminator 1
 1067 031a 97F89933 		ldrb	r3, [r7, #921]	@ zero_extendqisi2
 878:.\Generated_Source\PSoC5/Bootloader_1.c ****                         if((btldrData >= Bootloader_1_FIRST_EE_ARRAYID) &&
 1068              		.loc 1 878 0 discriminator 1
 1069 031e 5BB2     		sxtb	r3, r3
 1070 0320 002B     		cmp	r3, #0
 1071 0322 06DB     		blt	.L69
 880:.\Generated_Source\PSoC5/Bootloader_1.c ****                         {
 881:.\Generated_Source\PSoC5/Bootloader_1.c **** 
 882:.\Generated_Source\PSoC5/Bootloader_1.c ****                             CyEEPROM_Start();
 1072              		.loc 1 882 0
 1073 0324 FFF7FEFF 		bl	CyEEPROM_Start
 883:.\Generated_Source\PSoC5/Bootloader_1.c **** 
 884:.\Generated_Source\PSoC5/Bootloader_1.c ****                             /* Size of EEPROM row */
 885:.\Generated_Source\PSoC5/Bootloader_1.c ****                             pktSize = CY_EEPROM_SIZEOF_ROW;
 1074              		.loc 1 885 0
 1075 0328 4FF01003 		mov	r3, #16
 1076 032c A7F8AA33 		strh	r3, [r7, #938]	@ movhi
 1077 0330 03E0     		b	.L70
 1078              	.L69:
 886:.\Generated_Source\PSoC5/Bootloader_1.c ****                         }
 887:.\Generated_Source\PSoC5/Bootloader_1.c ****                         else
 888:.\Generated_Source\PSoC5/Bootloader_1.c ****                         {
 889:.\Generated_Source\PSoC5/Bootloader_1.c ****                             /* Size of FLASH row (depends on ECC configuration) */
 890:.\Generated_Source\PSoC5/Bootloader_1.c ****                             pktSize = Bootloader_1_FROW_SIZE;
 1079              		.loc 1 890 0
 1080 0332 4FF49073 		mov	r3, #288
 1081 0336 A7F8AA33 		strh	r3, [r7, #938]	@ movhi
 1082              	.L70:
 891:.\Generated_Source\PSoC5/Bootloader_1.c ****                         }
 892:.\Generated_Source\PSoC5/Bootloader_1.c ****                     #else
 893:.\Generated_Source\PSoC5/Bootloader_1.c ****                         /* Size of FLASH row (no ECC available) */
 894:.\Generated_Source\PSoC5/Bootloader_1.c ****                         pktSize = Bootloader_1_FROW_SIZE;
 895:.\Generated_Source\PSoC5/Bootloader_1.c ****                     #endif  /* (!CY_PSOC4) */
ARM GAS  C:\Users\Robert\AppData\Local\Temp\ccgj8kBb.s 			page 36


 896:.\Generated_Source\PSoC5/Bootloader_1.c **** 
 897:.\Generated_Source\PSoC5/Bootloader_1.c **** 
 898:.\Generated_Source\PSoC5/Bootloader_1.c ****                     /* Check if we have all data to program */
 899:.\Generated_Source\PSoC5/Bootloader_1.c ****                     if(dataOffset == pktSize)
 1083              		.loc 1 899 0
 1084 033a B7F8A823 		ldrh	r2, [r7, #936]
 1085 033e B7F8AA33 		ldrh	r3, [r7, #938]
 1086 0342 9A42     		cmp	r2, r3
 1087 0344 40D1     		bne	.L71
 900:.\Generated_Source\PSoC5/Bootloader_1.c ****                     {
 901:.\Generated_Source\PSoC5/Bootloader_1.c ****                         /* Get FLASH/EEPROM row number */
 902:.\Generated_Source\PSoC5/Bootloader_1.c ****                         dataOffset = ((uint16)((uint16)packetBuffer[Bootloader_1_DATA_ADDR + 2u] <<
 1088              		.loc 1 902 0
 1089 0346 07F51873 		add	r3, r7, #608
 1090 034a 9B79     		ldrb	r3, [r3, #6]	@ zero_extendqisi2
 1091 034c 4FEA0323 		lsl	r3, r3, #8
 1092 0350 9AB2     		uxth	r2, r3
 903:.\Generated_Source\PSoC5/Bootloader_1.c ****                                               packetBuffer[Bootloader_1_DATA_ADDR + 1u];
 1093              		.loc 1 903 0
 1094 0352 07F51873 		add	r3, r7, #608
 1095 0356 5B79     		ldrb	r3, [r3, #5]	@ zero_extendqisi2
 902:.\Generated_Source\PSoC5/Bootloader_1.c ****                         dataOffset = ((uint16)((uint16)packetBuffer[Bootloader_1_DATA_ADDR + 2u] <<
 1096              		.loc 1 902 0
 1097 0358 1343     		orrs	r3, r3, r2
 1098 035a A7F8A833 		strh	r3, [r7, #936]	@ movhi
 904:.\Generated_Source\PSoC5/Bootloader_1.c **** 
 905:.\Generated_Source\PSoC5/Bootloader_1.c ****                         #if(!CY_PSOC4)
 906:.\Generated_Source\PSoC5/Bootloader_1.c ****                             if(btldrData <= Bootloader_1_LAST_FLASH_ARRAYID)
 1099              		.loc 1 906 0
 1100 035e 97F89933 		ldrb	r3, [r7, #921]	@ zero_extendqisi2
 1101 0362 3F2B     		cmp	r3, #63
 1102 0364 1BD8     		bhi	.L72
 907:.\Generated_Source\PSoC5/Bootloader_1.c ****                             {
 908:.\Generated_Source\PSoC5/Bootloader_1.c ****                         #endif  /* (!CY_PSOC4) */
 909:.\Generated_Source\PSoC5/Bootloader_1.c **** 
 910:.\Generated_Source\PSoC5/Bootloader_1.c ****                         #if(0u == Bootloader_1_DUAL_APP_BOOTLOADER)
 911:.\Generated_Source\PSoC5/Bootloader_1.c **** 
 912:.\Generated_Source\PSoC5/Bootloader_1.c ****                             if(0u == clearedMetaData)
 1103              		.loc 1 912 0
 1104 0366 97F8A633 		ldrb	r3, [r7, #934]	@ zero_extendqisi2
 1105 036a 002B     		cmp	r3, #0
 1106 036c 17D1     		bne	.L72
 1107              	.LBB5:
 913:.\Generated_Source\PSoC5/Bootloader_1.c ****                             {
 914:.\Generated_Source\PSoC5/Bootloader_1.c ****                                 /* Metadata section must be filled with zeroes */
 915:.\Generated_Source\PSoC5/Bootloader_1.c **** 
 916:.\Generated_Source\PSoC5/Bootloader_1.c ****                                 uint8 erase[Bootloader_1_FROW_SIZE];
 917:.\Generated_Source\PSoC5/Bootloader_1.c **** 
 918:.\Generated_Source\PSoC5/Bootloader_1.c ****                                 #if(CY_PSOC3)
 919:.\Generated_Source\PSoC5/Bootloader_1.c ****                                     (void) memset(erase, (char8) 0, (int16) Bootloader_1_FROW_SIZE)
 920:.\Generated_Source\PSoC5/Bootloader_1.c ****                                 #else
 921:.\Generated_Source\PSoC5/Bootloader_1.c ****                                     (void) memset(erase, 0, Bootloader_1_FROW_SIZE);
 1108              		.loc 1 921 0
 1109 036e 07F10C03 		add	r3, r7, #12
 1110 0372 1846     		mov	r0, r3
 1111 0374 4FF00001 		mov	r1, #0
 1112 0378 4FF49072 		mov	r2, #288
ARM GAS  C:\Users\Robert\AppData\Local\Temp\ccgj8kBb.s 			page 37


 1113 037c FFF7FEFF 		bl	memset
 922:.\Generated_Source\PSoC5/Bootloader_1.c ****                                 #endif  /* (CY_PSOC3) */
 923:.\Generated_Source\PSoC5/Bootloader_1.c **** 
 924:.\Generated_Source\PSoC5/Bootloader_1.c ****                                 #if(CY_PSOC4)
 925:.\Generated_Source\PSoC5/Bootloader_1.c ****                                     (void) CySysFlashWriteRow(Bootloader_1_MD_ROW, erase);
 926:.\Generated_Source\PSoC5/Bootloader_1.c ****                                 #else
 927:.\Generated_Source\PSoC5/Bootloader_1.c ****                                     (void) CyWriteRowFull((uint8)  Bootloader_1_MD_FLASH_ARRAY_NUM,
 928:.\Generated_Source\PSoC5/Bootloader_1.c ****                                                           (uint16) Bootloader_1_MD_ROW,
 929:.\Generated_Source\PSoC5/Bootloader_1.c ****                                                                     erase,
 1114              		.loc 1 929 0
 1115 0380 07F10C03 		add	r3, r7, #12
 927:.\Generated_Source\PSoC5/Bootloader_1.c ****                                     (void) CyWriteRowFull((uint8)  Bootloader_1_MD_FLASH_ARRAY_NUM,
 1116              		.loc 1 927 0
 1117 0384 4FF00300 		mov	r0, #3
 1118 0388 4FF0FF01 		mov	r1, #255
 1119 038c 1A46     		mov	r2, r3
 1120 038e 4FF49073 		mov	r3, #288
 1121 0392 FFF7FEFF 		bl	CyWriteRowFull
 930:.\Generated_Source\PSoC5/Bootloader_1.c ****                                                                     Bootloader_1_FROW_SIZE);
 931:.\Generated_Source\PSoC5/Bootloader_1.c ****                                 #endif  /* (CY_PSOC4) */
 932:.\Generated_Source\PSoC5/Bootloader_1.c **** 
 933:.\Generated_Source\PSoC5/Bootloader_1.c ****                                 /* Set up flag that metadata was cleared */
 934:.\Generated_Source\PSoC5/Bootloader_1.c ****                                 clearedMetaData = 1u;
 1122              		.loc 1 934 0
 1123 0396 4FF00103 		mov	r3, #1
 1124 039a 87F8A633 		strb	r3, [r7, #934]
 1125              	.L72:
 1126              	.LBE5:
 935:.\Generated_Source\PSoC5/Bootloader_1.c ****                             }
 936:.\Generated_Source\PSoC5/Bootloader_1.c **** 
 937:.\Generated_Source\PSoC5/Bootloader_1.c ****                         #else
 938:.\Generated_Source\PSoC5/Bootloader_1.c **** 
 939:.\Generated_Source\PSoC5/Bootloader_1.c ****                             if(Bootloader_1_activeApp < Bootloader_1_MD_BTLDB_ACTIVE_NONE)
 940:.\Generated_Source\PSoC5/Bootloader_1.c ****                             {
 941:.\Generated_Source\PSoC5/Bootloader_1.c ****                                 /* First active bootloadable application row */
 942:.\Generated_Source\PSoC5/Bootloader_1.c ****                                 uint16 firstRow = (uint16) 1u +
 943:.\Generated_Source\PSoC5/Bootloader_1.c ****                                     (uint16) Bootloader_1_GetMetadata(Bootloader_1_GET_METADATA_BTL
 944:.\Generated_Source\PSoC5/Bootloader_1.c ****                                                                           Bootloader_1_activeApp);
 945:.\Generated_Source\PSoC5/Bootloader_1.c **** 
 946:.\Generated_Source\PSoC5/Bootloader_1.c ****                                 #if(CY_PSOC4)
 947:.\Generated_Source\PSoC5/Bootloader_1.c ****                                     uint16 row = dataOffset;
 948:.\Generated_Source\PSoC5/Bootloader_1.c ****                                 #else
 949:.\Generated_Source\PSoC5/Bootloader_1.c ****                                     uint16 row = (uint16)(btldrData * (CYDEV_FLS_SECTOR_SIZE / CYDE
 950:.\Generated_Source\PSoC5/Bootloader_1.c ****                                                   dataOffset;
 951:.\Generated_Source\PSoC5/Bootloader_1.c ****                                 #endif  /* (CY_PSOC4) */
 952:.\Generated_Source\PSoC5/Bootloader_1.c **** 
 953:.\Generated_Source\PSoC5/Bootloader_1.c **** 
 954:.\Generated_Source\PSoC5/Bootloader_1.c ****                                 /******************************************************************
 955:.\Generated_Source\PSoC5/Bootloader_1.c ****                                 * Last row is equal to the first row plus the number of rows availa
 956:.\Generated_Source\PSoC5/Bootloader_1.c ****                                 * app. To compute this, we first subtract the number of appliaction
 957:.\Generated_Source\PSoC5/Bootloader_1.c ****                                 * the total flash rows: (CY_FLASH_NUMBER_ROWS - 2u).
 958:.\Generated_Source\PSoC5/Bootloader_1.c ****                                 *
 959:.\Generated_Source\PSoC5/Bootloader_1.c ****                                 * Then subtract off the first row:
 960:.\Generated_Source\PSoC5/Bootloader_1.c ****                                 * App Rows = (CY_FLASH_NUMBER_ROWS - 2u - firstRow)
 961:.\Generated_Source\PSoC5/Bootloader_1.c ****                                 * Then divide that number by the number of application that must fi
 962:.\Generated_Source\PSoC5/Bootloader_1.c ****                                 * space, if we are app1 then that number is 2, if app2 then 1.  Our
 963:.\Generated_Source\PSoC5/Bootloader_1.c ****                                 * then: (2u - Bootloader_1_activeApp).
ARM GAS  C:\Users\Robert\AppData\Local\Temp\ccgj8kBb.s 			page 38


 964:.\Generated_Source\PSoC5/Bootloader_1.c ****                                 *
 965:.\Generated_Source\PSoC5/Bootloader_1.c ****                                 * Adding this number to firstRow gives the address right beyond our
 966:.\Generated_Source\PSoC5/Bootloader_1.c ****                                 * so we subtract 1.
 967:.\Generated_Source\PSoC5/Bootloader_1.c ****                                 *******************************************************************
 968:.\Generated_Source\PSoC5/Bootloader_1.c ****                                 uint16 lastRow = (firstRow - 1u) +
 969:.\Generated_Source\PSoC5/Bootloader_1.c ****                                                   ((uint16)((CYDEV_FLASH_SIZE / CYDEV_FLS_ROW_SIZE)
 970:.\Generated_Source\PSoC5/Bootloader_1.c ****                                                   ((uint16)2u - (uint16)Bootloader_1_activeApp));
 971:.\Generated_Source\PSoC5/Bootloader_1.c **** 
 972:.\Generated_Source\PSoC5/Bootloader_1.c **** 
 973:.\Generated_Source\PSoC5/Bootloader_1.c ****                                 /******************************************************************
 974:.\Generated_Source\PSoC5/Bootloader_1.c ****                                 * Check to see if the row to program is within the range of the act
 975:.\Generated_Source\PSoC5/Bootloader_1.c ****                                 * application, or if it maches the active application's metadata ro
 976:.\Generated_Source\PSoC5/Bootloader_1.c ****                                 * refuse to program as it would corrupt the active app.
 977:.\Generated_Source\PSoC5/Bootloader_1.c ****                                 *******************************************************************
 978:.\Generated_Source\PSoC5/Bootloader_1.c ****                                 if(((row >= firstRow) && (row <= lastRow)) ||
 979:.\Generated_Source\PSoC5/Bootloader_1.c ****                                    ((btldrData == Bootloader_1_MD_FLASH_ARRAY_NUM) &&
 980:.\Generated_Source\PSoC5/Bootloader_1.c ****                                    (dataOffset == Bootloader_1_MD_ROW_NUM(Bootloader_1_activeApp)))
 981:.\Generated_Source\PSoC5/Bootloader_1.c ****                                 {
 982:.\Generated_Source\PSoC5/Bootloader_1.c ****                                     ackCode = Bootloader_1_ERR_ACTIVE;
 983:.\Generated_Source\PSoC5/Bootloader_1.c ****                                     dataOffset = 0u;
 984:.\Generated_Source\PSoC5/Bootloader_1.c ****                                     break;
 985:.\Generated_Source\PSoC5/Bootloader_1.c ****                                 }
 986:.\Generated_Source\PSoC5/Bootloader_1.c ****                             }
 987:.\Generated_Source\PSoC5/Bootloader_1.c **** 
 988:.\Generated_Source\PSoC5/Bootloader_1.c ****                         #endif  /* (0u == Bootloader_1_DUAL_APP_BOOTLOADER) */
 989:.\Generated_Source\PSoC5/Bootloader_1.c **** 
 990:.\Generated_Source\PSoC5/Bootloader_1.c ****                         #if(!CY_PSOC4)
 991:.\Generated_Source\PSoC5/Bootloader_1.c ****                             }
 992:.\Generated_Source\PSoC5/Bootloader_1.c ****                         #endif  /* (!CY_PSOC4) */
 993:.\Generated_Source\PSoC5/Bootloader_1.c **** 
 994:.\Generated_Source\PSoC5/Bootloader_1.c ****                         #if(CY_PSOC4)
 995:.\Generated_Source\PSoC5/Bootloader_1.c **** 
 996:.\Generated_Source\PSoC5/Bootloader_1.c ****                             ackCode = (CYRET_SUCCESS != CySysFlashWriteRow((uint32) dataOffset, dat
 997:.\Generated_Source\PSoC5/Bootloader_1.c ****                                 ? Bootloader_1_ERR_ROW \
 998:.\Generated_Source\PSoC5/Bootloader_1.c ****                                 : CYRET_SUCCESS;
 999:.\Generated_Source\PSoC5/Bootloader_1.c **** 
1000:.\Generated_Source\PSoC5/Bootloader_1.c ****                         #else
1001:.\Generated_Source\PSoC5/Bootloader_1.c **** 
1002:.\Generated_Source\PSoC5/Bootloader_1.c ****                             ackCode = (CYRET_SUCCESS != CyWriteRowFull(btldrData, dataOffset, dataB
 1127              		.loc 1 1002 0
 1128 039e 97F89903 		ldrb	r0, [r7, #921]	@ zero_extendqisi2
 1129 03a2 B7F8A813 		ldrh	r1, [r7, #936]
 1130 03a6 07F59A72 		add	r2, r7, #308
 1131 03aa B7F8AA33 		ldrh	r3, [r7, #938]
 1132 03ae FFF7FEFF 		bl	CyWriteRowFull
 1133 03b2 0346     		mov	r3, r0
 1134 03b4 002B     		cmp	r3, #0
 1135 03b6 02D0     		beq	.L73
 1136              		.loc 1 1002 0 is_stmt 0 discriminator 1
 1137 03b8 4FF00A03 		mov	r3, #10
 1138 03bc 01E0     		b	.L74
 1139              	.L73:
 1140              		.loc 1 1002 0 discriminator 2
 1141 03be 4FF00003 		mov	r3, #0
 1142              	.L74:
 1143              		.loc 1 1002 0 discriminator 3
 1144 03c2 87F8AD33 		strb	r3, [r7, #941]
ARM GAS  C:\Users\Robert\AppData\Local\Temp\ccgj8kBb.s 			page 39


 1145 03c6 03E0     		b	.L75
 1146              	.L71:
1003:.\Generated_Source\PSoC5/Bootloader_1.c ****                                 ? Bootloader_1_ERR_ROW \
1004:.\Generated_Source\PSoC5/Bootloader_1.c ****                                 : CYRET_SUCCESS;
1005:.\Generated_Source\PSoC5/Bootloader_1.c **** 
1006:.\Generated_Source\PSoC5/Bootloader_1.c ****                         #endif  /* (CY_PSOC4) */
1007:.\Generated_Source\PSoC5/Bootloader_1.c **** 
1008:.\Generated_Source\PSoC5/Bootloader_1.c ****                     }
1009:.\Generated_Source\PSoC5/Bootloader_1.c ****                     else
1010:.\Generated_Source\PSoC5/Bootloader_1.c ****                     {
1011:.\Generated_Source\PSoC5/Bootloader_1.c ****                         ackCode = Bootloader_1_ERR_LENGTH;
 1147              		.loc 1 1011 0 is_stmt 1
 1148 03c8 4FF00303 		mov	r3, #3
 1149 03cc 87F8AD33 		strb	r3, [r7, #941]
 1150              	.L75:
1012:.\Generated_Source\PSoC5/Bootloader_1.c ****                     }
1013:.\Generated_Source\PSoC5/Bootloader_1.c **** 
1014:.\Generated_Source\PSoC5/Bootloader_1.c ****                     dataOffset = 0u;
 1151              		.loc 1 1014 0
 1152 03d0 4FF00003 		mov	r3, #0
 1153 03d4 A7F8A833 		strh	r3, [r7, #936]	@ movhi
1015:.\Generated_Source\PSoC5/Bootloader_1.c ****                 }
1016:.\Generated_Source\PSoC5/Bootloader_1.c ****                 break;
 1154              		.loc 1 1016 0
 1155 03d8 18E1     		b	.L92
 1156              	.L57:
1017:.\Generated_Source\PSoC5/Bootloader_1.c **** 
1018:.\Generated_Source\PSoC5/Bootloader_1.c **** 
1019:.\Generated_Source\PSoC5/Bootloader_1.c ****             /***************************************************************************
1020:.\Generated_Source\PSoC5/Bootloader_1.c ****             *   Sync bootloader
1021:.\Generated_Source\PSoC5/Bootloader_1.c ****             ***************************************************************************/
1022:.\Generated_Source\PSoC5/Bootloader_1.c ****             #if(0u != Bootloader_1_CMD_SYNC_BOOTLOADER_AVAIL)
1023:.\Generated_Source\PSoC5/Bootloader_1.c **** 
1024:.\Generated_Source\PSoC5/Bootloader_1.c ****             case Bootloader_1_COMMAND_SYNC:
1025:.\Generated_Source\PSoC5/Bootloader_1.c **** 
1026:.\Generated_Source\PSoC5/Bootloader_1.c ****                 if(Bootloader_1_COMMUNICATION_STATE_ACTIVE == communicationState)
 1157              		.loc 1 1026 0
 1158 03da 97F8A533 		ldrb	r3, [r7, #933]	@ zero_extendqisi2
 1159 03de 012B     		cmp	r3, #1
 1160 03e0 40F01681 		bne	.L93
1027:.\Generated_Source\PSoC5/Bootloader_1.c ****                 {
1028:.\Generated_Source\PSoC5/Bootloader_1.c ****                     /* If something failed the host would send this command to reset the bootloader
1029:.\Generated_Source\PSoC5/Bootloader_1.c ****                     dataOffset = 0u;
 1161              		.loc 1 1029 0
 1162 03e4 4FF00003 		mov	r3, #0
 1163 03e8 A7F8A833 		strh	r3, [r7, #936]	@ movhi
1030:.\Generated_Source\PSoC5/Bootloader_1.c **** 
1031:.\Generated_Source\PSoC5/Bootloader_1.c ****                     /* Don't ack the packet, just get ready to accept the next one */
1032:.\Generated_Source\PSoC5/Bootloader_1.c ****                     continue;
 1164              		.loc 1 1032 0
 1165 03ec 24E1     		b	.L46
 1166              	.L58:
1033:.\Generated_Source\PSoC5/Bootloader_1.c ****                 }
1034:.\Generated_Source\PSoC5/Bootloader_1.c ****                 break;
1035:.\Generated_Source\PSoC5/Bootloader_1.c **** 
1036:.\Generated_Source\PSoC5/Bootloader_1.c ****             #endif  /* (0u != Bootloader_1_CMD_SYNC_BOOTLOADER_AVAIL) */
1037:.\Generated_Source\PSoC5/Bootloader_1.c **** 
ARM GAS  C:\Users\Robert\AppData\Local\Temp\ccgj8kBb.s 			page 40


1038:.\Generated_Source\PSoC5/Bootloader_1.c **** 
1039:.\Generated_Source\PSoC5/Bootloader_1.c ****             /***************************************************************************
1040:.\Generated_Source\PSoC5/Bootloader_1.c ****             *   Set active application
1041:.\Generated_Source\PSoC5/Bootloader_1.c ****             ***************************************************************************/
1042:.\Generated_Source\PSoC5/Bootloader_1.c ****             #if(0u != Bootloader_1_DUAL_APP_BOOTLOADER)
1043:.\Generated_Source\PSoC5/Bootloader_1.c **** 
1044:.\Generated_Source\PSoC5/Bootloader_1.c ****                 case Bootloader_1_COMMAND_APP_ACTIVE:
1045:.\Generated_Source\PSoC5/Bootloader_1.c **** 
1046:.\Generated_Source\PSoC5/Bootloader_1.c ****                     if((Bootloader_1_COMMUNICATION_STATE_ACTIVE == communicationState) && (pktSize 
1047:.\Generated_Source\PSoC5/Bootloader_1.c ****                     {
1048:.\Generated_Source\PSoC5/Bootloader_1.c ****                         if(CYRET_SUCCESS == Bootloader_1_ValidateBootloadable(btldrData))
1049:.\Generated_Source\PSoC5/Bootloader_1.c ****                         {
1050:.\Generated_Source\PSoC5/Bootloader_1.c ****                             uint8 CYDATA idx;
1051:.\Generated_Source\PSoC5/Bootloader_1.c **** 
1052:.\Generated_Source\PSoC5/Bootloader_1.c ****                             for(idx = 0u; idx < Bootloader_1_MAX_NUM_OF_BTLDB; idx++)
1053:.\Generated_Source\PSoC5/Bootloader_1.c ****                             {
1054:.\Generated_Source\PSoC5/Bootloader_1.c ****                                 Bootloader_1_SetFlashByte((uint32) Bootloader_1_MD_BTLDB_ACTIVE_OFF
1055:.\Generated_Source\PSoC5/Bootloader_1.c ****                                                               (uint8 )(idx == btldrData));
1056:.\Generated_Source\PSoC5/Bootloader_1.c ****                             }
1057:.\Generated_Source\PSoC5/Bootloader_1.c ****                             Bootloader_1_activeApp = btldrData;
1058:.\Generated_Source\PSoC5/Bootloader_1.c ****                             ackCode = CYRET_SUCCESS;
1059:.\Generated_Source\PSoC5/Bootloader_1.c ****                         }
1060:.\Generated_Source\PSoC5/Bootloader_1.c ****                         else
1061:.\Generated_Source\PSoC5/Bootloader_1.c ****                         {
1062:.\Generated_Source\PSoC5/Bootloader_1.c ****                             ackCode = Bootloader_1_ERR_APP;
1063:.\Generated_Source\PSoC5/Bootloader_1.c ****                         }
1064:.\Generated_Source\PSoC5/Bootloader_1.c ****                     }
1065:.\Generated_Source\PSoC5/Bootloader_1.c ****                     break;
1066:.\Generated_Source\PSoC5/Bootloader_1.c **** 
1067:.\Generated_Source\PSoC5/Bootloader_1.c ****             #endif  /* (0u != Bootloader_1_DUAL_APP_BOOTLOADER) */
1068:.\Generated_Source\PSoC5/Bootloader_1.c **** 
1069:.\Generated_Source\PSoC5/Bootloader_1.c **** 
1070:.\Generated_Source\PSoC5/Bootloader_1.c ****             /***************************************************************************
1071:.\Generated_Source\PSoC5/Bootloader_1.c ****             *   Send data
1072:.\Generated_Source\PSoC5/Bootloader_1.c ****             ***************************************************************************/
1073:.\Generated_Source\PSoC5/Bootloader_1.c ****             #if (0u != Bootloader_1_CMD_SEND_DATA_AVAIL)
1074:.\Generated_Source\PSoC5/Bootloader_1.c **** 
1075:.\Generated_Source\PSoC5/Bootloader_1.c ****                 case Bootloader_1_COMMAND_DATA:
1076:.\Generated_Source\PSoC5/Bootloader_1.c **** 
1077:.\Generated_Source\PSoC5/Bootloader_1.c ****                     if(Bootloader_1_COMMUNICATION_STATE_ACTIVE == communicationState)
 1167              		.loc 1 1077 0
 1168 03ee 97F8A533 		ldrb	r3, [r7, #933]	@ zero_extendqisi2
 1169 03f2 012B     		cmp	r3, #1
 1170 03f4 40F00E81 		bne	.L94
1078:.\Generated_Source\PSoC5/Bootloader_1.c ****                     {
1079:.\Generated_Source\PSoC5/Bootloader_1.c ****                         /*  Make sure that dataOffset is valid before copying the data */
1080:.\Generated_Source\PSoC5/Bootloader_1.c ****                         if((dataOffset + pktSize) <= Bootloader_1_SIZEOF_COMMAND_BUFFER)
 1171              		.loc 1 1080 0
 1172 03f8 B7F8A823 		ldrh	r2, [r7, #936]
 1173 03fc B7F8AA33 		ldrh	r3, [r7, #938]
 1174 0400 D318     		adds	r3, r2, r3
 1175 0402 B3F5967F 		cmp	r3, #300
 1176 0406 1BD8     		bhi	.L78
1081:.\Generated_Source\PSoC5/Bootloader_1.c ****                         {
1082:.\Generated_Source\PSoC5/Bootloader_1.c ****                             ackCode = CYRET_SUCCESS;
 1177              		.loc 1 1082 0
 1178 0408 4FF00003 		mov	r3, #0
ARM GAS  C:\Users\Robert\AppData\Local\Temp\ccgj8kBb.s 			page 41


 1179 040c 87F8AD33 		strb	r3, [r7, #941]
1083:.\Generated_Source\PSoC5/Bootloader_1.c **** 
1084:.\Generated_Source\PSoC5/Bootloader_1.c ****                             #if(CY_PSOC3)
1085:.\Generated_Source\PSoC5/Bootloader_1.c ****                                 (void) memcpy(&dataBuffer[dataOffset],
1086:.\Generated_Source\PSoC5/Bootloader_1.c ****                                               &packetBuffer[Bootloader_1_DATA_ADDR],
1087:.\Generated_Source\PSoC5/Bootloader_1.c ****                                               ( int16 )pktSize);
1088:.\Generated_Source\PSoC5/Bootloader_1.c ****                             #else
1089:.\Generated_Source\PSoC5/Bootloader_1.c ****                                 (void) memcpy(&dataBuffer[dataOffset],
 1180              		.loc 1 1089 0
 1181 0410 B7F8A833 		ldrh	r3, [r7, #936]
 1182 0414 07F59A72 		add	r2, r7, #308
 1183 0418 D118     		adds	r1, r2, r3
 1184 041a B7F8AA33 		ldrh	r3, [r7, #938]
1090:.\Generated_Source\PSoC5/Bootloader_1.c ****                                               &packetBuffer[Bootloader_1_DATA_ADDR],
 1185              		.loc 1 1090 0
 1186 041e 07F51872 		add	r2, r7, #608
 1187 0422 02F10402 		add	r2, r2, #4
1089:.\Generated_Source\PSoC5/Bootloader_1.c ****                                 (void) memcpy(&dataBuffer[dataOffset],
 1188              		.loc 1 1089 0
 1189 0426 0846     		mov	r0, r1
 1190 0428 1146     		mov	r1, r2
 1191 042a 1A46     		mov	r2, r3
 1192 042c FFF7FEFF 		bl	memcpy
1091:.\Generated_Source\PSoC5/Bootloader_1.c ****                                               pktSize);
1092:.\Generated_Source\PSoC5/Bootloader_1.c ****                             #endif  /* (CY_PSOC3) */
1093:.\Generated_Source\PSoC5/Bootloader_1.c **** 
1094:.\Generated_Source\PSoC5/Bootloader_1.c ****                             dataOffset += pktSize;
 1193              		.loc 1 1094 0
 1194 0430 B7F8A823 		ldrh	r2, [r7, #936]	@ movhi
 1195 0434 B7F8AA33 		ldrh	r3, [r7, #938]	@ movhi
 1196 0438 D318     		adds	r3, r2, r3
 1197 043a A7F8A833 		strh	r3, [r7, #936]	@ movhi
1095:.\Generated_Source\PSoC5/Bootloader_1.c ****                         }
1096:.\Generated_Source\PSoC5/Bootloader_1.c ****                         else
1097:.\Generated_Source\PSoC5/Bootloader_1.c ****                         {
1098:.\Generated_Source\PSoC5/Bootloader_1.c ****                             ackCode = Bootloader_1_ERR_LENGTH;
1099:.\Generated_Source\PSoC5/Bootloader_1.c ****                         }
1100:.\Generated_Source\PSoC5/Bootloader_1.c ****                     }
1101:.\Generated_Source\PSoC5/Bootloader_1.c **** 
1102:.\Generated_Source\PSoC5/Bootloader_1.c ****                     break;
 1198              		.loc 1 1102 0
 1199 043e E9E0     		b	.L94
 1200              	.L78:
1098:.\Generated_Source\PSoC5/Bootloader_1.c ****                             ackCode = Bootloader_1_ERR_LENGTH;
 1201              		.loc 1 1098 0
 1202 0440 4FF00303 		mov	r3, #3
 1203 0444 87F8AD33 		strb	r3, [r7, #941]
 1204              		.loc 1 1102 0
 1205 0448 E4E0     		b	.L94
 1206              	.L59:
1103:.\Generated_Source\PSoC5/Bootloader_1.c **** 
1104:.\Generated_Source\PSoC5/Bootloader_1.c ****             #endif  /* (0u != Bootloader_1_CMD_SEND_DATA_AVAIL) */
1105:.\Generated_Source\PSoC5/Bootloader_1.c **** 
1106:.\Generated_Source\PSoC5/Bootloader_1.c **** 
1107:.\Generated_Source\PSoC5/Bootloader_1.c ****             /***************************************************************************
1108:.\Generated_Source\PSoC5/Bootloader_1.c ****             *   Enter bootloader
1109:.\Generated_Source\PSoC5/Bootloader_1.c ****             ***************************************************************************/
ARM GAS  C:\Users\Robert\AppData\Local\Temp\ccgj8kBb.s 			page 42


1110:.\Generated_Source\PSoC5/Bootloader_1.c ****             case Bootloader_1_COMMAND_ENTER:
1111:.\Generated_Source\PSoC5/Bootloader_1.c **** 
1112:.\Generated_Source\PSoC5/Bootloader_1.c ****                 if(pktSize == 0u)
 1207              		.loc 1 1112 0
 1208 044a B7F8AA33 		ldrh	r3, [r7, #938]
 1209 044e 002B     		cmp	r3, #0
 1210 0450 40F0E280 		bne	.L95
 1211              	.LBB6:
1113:.\Generated_Source\PSoC5/Bootloader_1.c ****                 {
1114:.\Generated_Source\PSoC5/Bootloader_1.c ****                     #if(CY_PSOC3)
1115:.\Generated_Source\PSoC5/Bootloader_1.c **** 
1116:.\Generated_Source\PSoC5/Bootloader_1.c ****                         Bootloader_1_ENTER CYDATA BtldrVersion =
1117:.\Generated_Source\PSoC5/Bootloader_1.c ****                             {CYSWAP_ENDIAN32(CYDEV_CHIP_JTAG_ID), CYDEV_CHIP_REV_EXPECT, Bootloader
1118:.\Generated_Source\PSoC5/Bootloader_1.c **** 
1119:.\Generated_Source\PSoC5/Bootloader_1.c ****                     #else
1120:.\Generated_Source\PSoC5/Bootloader_1.c **** 
1121:.\Generated_Source\PSoC5/Bootloader_1.c ****                         Bootloader_1_ENTER CYDATA BtldrVersion =
 1212              		.loc 1 1121 0
 1213 0454 07F59672 		add	r2, r7, #300
 1214 0458 40F20003 		movw	r3, #:lower16:.LC0
 1215 045c C0F20003 		movt	r3, #:upper16:.LC0
 1216 0460 93E80300 		ldmia	r3, {r0, r1}
 1217 0464 82E80300 		stmia	r2, {r0, r1}
1122:.\Generated_Source\PSoC5/Bootloader_1.c ****                             {CYDEV_CHIP_JTAG_ID, CYDEV_CHIP_REV_EXPECT, Bootloader_1_VERSION};
1123:.\Generated_Source\PSoC5/Bootloader_1.c **** 
1124:.\Generated_Source\PSoC5/Bootloader_1.c ****                     #endif  /* (CY_PSOC3) */
1125:.\Generated_Source\PSoC5/Bootloader_1.c **** 
1126:.\Generated_Source\PSoC5/Bootloader_1.c ****                     communicationState = Bootloader_1_COMMUNICATION_STATE_ACTIVE;
 1218              		.loc 1 1126 0
 1219 0468 4FF00103 		mov	r3, #1
 1220 046c 87F8A533 		strb	r3, [r7, #933]
1127:.\Generated_Source\PSoC5/Bootloader_1.c **** 
1128:.\Generated_Source\PSoC5/Bootloader_1.c ****                     rspSize = sizeof(Bootloader_1_ENTER);
 1221              		.loc 1 1128 0
 1222 0470 4FF00803 		mov	r3, #8
 1223 0474 A7F8AE33 		strh	r3, [r7, #942]	@ movhi
1129:.\Generated_Source\PSoC5/Bootloader_1.c **** 
1130:.\Generated_Source\PSoC5/Bootloader_1.c ****                     #if(CY_PSOC3)
1131:.\Generated_Source\PSoC5/Bootloader_1.c ****                         (void) memcpy(&packetBuffer[Bootloader_1_DATA_ADDR],
1132:.\Generated_Source\PSoC5/Bootloader_1.c ****                                       &BtldrVersion,
1133:.\Generated_Source\PSoC5/Bootloader_1.c ****                                       ( int16 )rspSize);
1134:.\Generated_Source\PSoC5/Bootloader_1.c ****                     #else
1135:.\Generated_Source\PSoC5/Bootloader_1.c ****                         (void) memcpy(&packetBuffer[Bootloader_1_DATA_ADDR],
 1224              		.loc 1 1135 0
 1225 0478 B7F8AE33 		ldrh	r3, [r7, #942]
 1226 047c 07F51872 		add	r2, r7, #608
 1227 0480 02F10401 		add	r1, r2, #4
1136:.\Generated_Source\PSoC5/Bootloader_1.c ****                                       &BtldrVersion,
 1228              		.loc 1 1136 0
 1229 0484 07F59672 		add	r2, r7, #300
1135:.\Generated_Source\PSoC5/Bootloader_1.c ****                         (void) memcpy(&packetBuffer[Bootloader_1_DATA_ADDR],
 1230              		.loc 1 1135 0
 1231 0488 0846     		mov	r0, r1
 1232 048a 1146     		mov	r1, r2
 1233 048c 1A46     		mov	r2, r3
 1234 048e FFF7FEFF 		bl	memcpy
1137:.\Generated_Source\PSoC5/Bootloader_1.c ****                                       rspSize);
ARM GAS  C:\Users\Robert\AppData\Local\Temp\ccgj8kBb.s 			page 43


1138:.\Generated_Source\PSoC5/Bootloader_1.c ****                     #endif  /* (CY_PSOC3) */
1139:.\Generated_Source\PSoC5/Bootloader_1.c **** 
1140:.\Generated_Source\PSoC5/Bootloader_1.c ****                     ackCode = CYRET_SUCCESS;
 1235              		.loc 1 1140 0
 1236 0492 4FF00003 		mov	r3, #0
 1237 0496 87F8AD33 		strb	r3, [r7, #941]
 1238              	.LBE6:
1141:.\Generated_Source\PSoC5/Bootloader_1.c ****                 }
1142:.\Generated_Source\PSoC5/Bootloader_1.c ****                 break;
 1239              		.loc 1 1142 0
 1240 049a BDE0     		b	.L95
 1241              	.L60:
1143:.\Generated_Source\PSoC5/Bootloader_1.c **** 
1144:.\Generated_Source\PSoC5/Bootloader_1.c **** 
1145:.\Generated_Source\PSoC5/Bootloader_1.c ****             /***************************************************************************
1146:.\Generated_Source\PSoC5/Bootloader_1.c ****             *   Verify row
1147:.\Generated_Source\PSoC5/Bootloader_1.c ****             ***************************************************************************/
1148:.\Generated_Source\PSoC5/Bootloader_1.c ****             case Bootloader_1_COMMAND_VERIFY:
1149:.\Generated_Source\PSoC5/Bootloader_1.c **** 
1150:.\Generated_Source\PSoC5/Bootloader_1.c ****                 if((Bootloader_1_COMMUNICATION_STATE_ACTIVE == communicationState) && (pktSize == 3
 1242              		.loc 1 1150 0
 1243 049c 97F8A533 		ldrb	r3, [r7, #933]	@ zero_extendqisi2
 1244 04a0 012B     		cmp	r3, #1
 1245 04a2 40F0BB80 		bne	.L96
 1246              		.loc 1 1150 0 is_stmt 0 discriminator 1
 1247 04a6 B7F8AA33 		ldrh	r3, [r7, #938]
 1248 04aa 032B     		cmp	r3, #3
 1249 04ac 40F0B680 		bne	.L96
 1250              	.LBB7:
1151:.\Generated_Source\PSoC5/Bootloader_1.c ****                 {
1152:.\Generated_Source\PSoC5/Bootloader_1.c ****                     /* Get FLASH/EEPROM row number */
1153:.\Generated_Source\PSoC5/Bootloader_1.c ****                     uint16 CYDATA rowNum = ((uint16)((uint16)packetBuffer[Bootloader_1_DATA_ADDR + 
 1251              		.loc 1 1153 0 is_stmt 1
 1252 04b0 07F51873 		add	r3, r7, #608
 1253 04b4 9B79     		ldrb	r3, [r3, #6]	@ zero_extendqisi2
 1254 04b6 4FEA0323 		lsl	r3, r3, #8
 1255 04ba 9AB2     		uxth	r2, r3
1154:.\Generated_Source\PSoC5/Bootloader_1.c ****                                                     packetBuffer[Bootloader_1_DATA_ADDR + 1u];
 1256              		.loc 1 1154 0
 1257 04bc 07F51873 		add	r3, r7, #608
 1258 04c0 5B79     		ldrb	r3, [r3, #5]	@ zero_extendqisi2
1153:.\Generated_Source\PSoC5/Bootloader_1.c ****                     uint16 CYDATA rowNum = ((uint16)((uint16)packetBuffer[Bootloader_1_DATA_ADDR + 
 1259              		.loc 1 1153 0
 1260 04c2 1343     		orrs	r3, r3, r2
 1261 04c4 A7F89433 		strh	r3, [r7, #916]	@ movhi
1155:.\Generated_Source\PSoC5/Bootloader_1.c **** 
1156:.\Generated_Source\PSoC5/Bootloader_1.c ****                     #if(!CY_PSOC4)
1157:.\Generated_Source\PSoC5/Bootloader_1.c **** 
1158:.\Generated_Source\PSoC5/Bootloader_1.c ****                         uint32 CYDATA rowAddr;
1159:.\Generated_Source\PSoC5/Bootloader_1.c ****                         uint8 CYDATA checksum;
1160:.\Generated_Source\PSoC5/Bootloader_1.c **** 
1161:.\Generated_Source\PSoC5/Bootloader_1.c ****                         if((btldrData >= Bootloader_1_FIRST_EE_ARRAYID) &&
 1262              		.loc 1 1161 0
 1263 04c8 97F89933 		ldrb	r3, [r7, #921]	@ zero_extendqisi2
 1264 04cc 3F2B     		cmp	r3, #63
 1265 04ce 14D9     		bls	.L81
1162:.\Generated_Source\PSoC5/Bootloader_1.c ****                            (btldrData <= Bootloader_1_LAST_EE_ARRAYID))
ARM GAS  C:\Users\Robert\AppData\Local\Temp\ccgj8kBb.s 			page 44


 1266              		.loc 1 1162 0 discriminator 1
 1267 04d0 97F89933 		ldrb	r3, [r7, #921]	@ zero_extendqisi2
1161:.\Generated_Source\PSoC5/Bootloader_1.c ****                         if((btldrData >= Bootloader_1_FIRST_EE_ARRAYID) &&
 1268              		.loc 1 1161 0 discriminator 1
 1269 04d4 5BB2     		sxtb	r3, r3
 1270 04d6 002B     		cmp	r3, #0
 1271 04d8 0FDB     		blt	.L81
1163:.\Generated_Source\PSoC5/Bootloader_1.c ****                         {
1164:.\Generated_Source\PSoC5/Bootloader_1.c ****                             /* EEPROM */
1165:.\Generated_Source\PSoC5/Bootloader_1.c ****                             /* Both PSoC 3 and PSoC 5LP architectures have one EEPROM array. */
1166:.\Generated_Source\PSoC5/Bootloader_1.c ****                             rowAddr = (uint32)rowNum * CYDEV_EEPROM_ROW_SIZE;
 1272              		.loc 1 1166 0
 1273 04da B7F89433 		ldrh	r3, [r7, #916]
 1274 04de 4FEA0313 		lsl	r3, r3, #4
 1275 04e2 C7F89033 		str	r3, [r7, #912]
1167:.\Generated_Source\PSoC5/Bootloader_1.c **** 
1168:.\Generated_Source\PSoC5/Bootloader_1.c ****                             checksum = Bootloader_1_Calc8BitEepromSum(rowAddr, CYDEV_EEPROM_ROW_SIZ
 1276              		.loc 1 1168 0
 1277 04e6 D7F89003 		ldr	r0, [r7, #912]
 1278 04ea 4FF01001 		mov	r1, #16
 1279 04ee FFF7FEFF 		bl	Bootloader_1_Calc8BitEepromSum
 1280 04f2 0346     		mov	r3, r0
 1281 04f4 87F8A433 		strb	r3, [r7, #932]
 1282 04f8 13E0     		b	.L82
 1283              	.L81:
1169:.\Generated_Source\PSoC5/Bootloader_1.c ****                         }
1170:.\Generated_Source\PSoC5/Bootloader_1.c ****                         else
1171:.\Generated_Source\PSoC5/Bootloader_1.c ****                         {
1172:.\Generated_Source\PSoC5/Bootloader_1.c ****                             /* FLASH */
1173:.\Generated_Source\PSoC5/Bootloader_1.c ****                             rowAddr = ((uint32)btldrData * CYDEV_FLS_SECTOR_SIZE)
 1284              		.loc 1 1173 0
 1285 04fa 97F89933 		ldrb	r3, [r7, #921]	@ zero_extendqisi2
1174:.\Generated_Source\PSoC5/Bootloader_1.c ****                                        + ((uint32)rowNum * CYDEV_FLS_ROW_SIZE);
 1286              		.loc 1 1174 0
 1287 04fe 4FEA0322 		lsl	r2, r3, #8
 1288 0502 B7F89433 		ldrh	r3, [r7, #916]
 1289 0506 D318     		adds	r3, r2, r3
1173:.\Generated_Source\PSoC5/Bootloader_1.c ****                             rowAddr = ((uint32)btldrData * CYDEV_FLS_SECTOR_SIZE)
 1290              		.loc 1 1173 0
 1291 0508 4FEA0323 		lsl	r3, r3, #8
 1292 050c C7F89033 		str	r3, [r7, #912]
1175:.\Generated_Source\PSoC5/Bootloader_1.c **** 
1176:.\Generated_Source\PSoC5/Bootloader_1.c ****                             checksum = Bootloader_1_Calc8BitFlashSum(rowAddr, CYDEV_FLS_ROW_SIZE);
 1293              		.loc 1 1176 0
 1294 0510 D7F89003 		ldr	r0, [r7, #912]
 1295 0514 4FF48071 		mov	r1, #256
 1296 0518 FFF7FEFF 		bl	Bootloader_1_Calc8BitFlashSum
 1297 051c 0346     		mov	r3, r0
 1298 051e 87F8A433 		strb	r3, [r7, #932]
 1299              	.L82:
1177:.\Generated_Source\PSoC5/Bootloader_1.c ****                         }
1178:.\Generated_Source\PSoC5/Bootloader_1.c **** 
1179:.\Generated_Source\PSoC5/Bootloader_1.c ****                     #else
1180:.\Generated_Source\PSoC5/Bootloader_1.c **** 
1181:.\Generated_Source\PSoC5/Bootloader_1.c ****                         uint32 CYDATA rowAddr = ((uint32)btldrData * CYDEV_FLS_SECTOR_SIZE)
1182:.\Generated_Source\PSoC5/Bootloader_1.c ****                                             + ((uint32)rowNum * CYDEV_FLS_ROW_SIZE);
1183:.\Generated_Source\PSoC5/Bootloader_1.c **** 
ARM GAS  C:\Users\Robert\AppData\Local\Temp\ccgj8kBb.s 			page 45


1184:.\Generated_Source\PSoC5/Bootloader_1.c ****                         uint8 CYDATA checksum = Bootloader_1_Calc8BitFlashSum(rowAddr, CYDEV_FLS_RO
1185:.\Generated_Source\PSoC5/Bootloader_1.c **** 
1186:.\Generated_Source\PSoC5/Bootloader_1.c ****                     #endif  /* (!CY_PSOC4) */
1187:.\Generated_Source\PSoC5/Bootloader_1.c **** 
1188:.\Generated_Source\PSoC5/Bootloader_1.c **** 
1189:.\Generated_Source\PSoC5/Bootloader_1.c ****                     /* Calculate checksum on data from ECC */
1190:.\Generated_Source\PSoC5/Bootloader_1.c ****                     #if(!CY_PSOC4) && (CYDEV_ECC_ENABLE == 0u)
1191:.\Generated_Source\PSoC5/Bootloader_1.c **** 
1192:.\Generated_Source\PSoC5/Bootloader_1.c ****                         if(btldrData <= Bootloader_1_LAST_FLASH_ARRAYID)
 1300              		.loc 1 1192 0
 1301 0522 97F89933 		ldrb	r3, [r7, #921]	@ zero_extendqisi2
 1302 0526 3F2B     		cmp	r3, #63
 1303 0528 27D8     		bhi	.L83
 1304              	.LBB8:
1193:.\Generated_Source\PSoC5/Bootloader_1.c ****                         {
1194:.\Generated_Source\PSoC5/Bootloader_1.c ****                             uint16 CYDATA tmpIndex;
1195:.\Generated_Source\PSoC5/Bootloader_1.c **** 
1196:.\Generated_Source\PSoC5/Bootloader_1.c ****                             rowAddr = CYDEV_ECC_BASE + ((uint32)btldrData * (CYDEV_FLS_SECTOR_SIZE 
 1305              		.loc 1 1196 0
 1306 052a 97F89933 		ldrb	r3, [r7, #921]	@ zero_extendqisi2
1197:.\Generated_Source\PSoC5/Bootloader_1.c ****                                         + ((uint32)rowNum * CYDEV_ECC_ROW_SIZE);
 1307              		.loc 1 1197 0
 1308 052e 03F51033 		add	r3, r3, #147456
 1309 0532 4FEA0322 		lsl	r2, r3, #8
 1310 0536 B7F89433 		ldrh	r3, [r7, #916]
 1311 053a D318     		adds	r3, r2, r3
1196:.\Generated_Source\PSoC5/Bootloader_1.c ****                             rowAddr = CYDEV_ECC_BASE + ((uint32)btldrData * (CYDEV_FLS_SECTOR_SIZE 
 1312              		.loc 1 1196 0
 1313 053c 4FEA4313 		lsl	r3, r3, #5
 1314 0540 C7F89033 		str	r3, [r7, #912]
1198:.\Generated_Source\PSoC5/Bootloader_1.c **** 
1199:.\Generated_Source\PSoC5/Bootloader_1.c ****                             for(tmpIndex = 0u; tmpIndex < CYDEV_ECC_ROW_SIZE; tmpIndex++)
 1315              		.loc 1 1199 0
 1316 0544 4FF00003 		mov	r3, #0
 1317 0548 A7F8A233 		strh	r3, [r7, #930]	@ movhi
 1318 054c 11E0     		b	.L84
 1319              	.L85:
1200:.\Generated_Source\PSoC5/Bootloader_1.c ****                             {
1201:.\Generated_Source\PSoC5/Bootloader_1.c ****                                 checksum += CY_GET_XTND_REG8((uint8 CYFAR *)(rowAddr + tmpIndex));
 1320              		.loc 1 1201 0 discriminator 2
 1321 054e B7F8A223 		ldrh	r2, [r7, #930]
 1322 0552 D7F89033 		ldr	r3, [r7, #912]
 1323 0556 D318     		adds	r3, r2, r3
 1324 0558 1B78     		ldrb	r3, [r3, #0]
 1325 055a DAB2     		uxtb	r2, r3
 1326 055c 97F8A433 		ldrb	r3, [r7, #932]
 1327 0560 D318     		adds	r3, r2, r3
 1328 0562 87F8A433 		strb	r3, [r7, #932]
1199:.\Generated_Source\PSoC5/Bootloader_1.c ****                             for(tmpIndex = 0u; tmpIndex < CYDEV_ECC_ROW_SIZE; tmpIndex++)
 1329              		.loc 1 1199 0 discriminator 2
 1330 0566 B7F8A233 		ldrh	r3, [r7, #930]	@ movhi
 1331 056a 03F10103 		add	r3, r3, #1
 1332 056e A7F8A233 		strh	r3, [r7, #930]	@ movhi
 1333              	.L84:
1199:.\Generated_Source\PSoC5/Bootloader_1.c ****                             for(tmpIndex = 0u; tmpIndex < CYDEV_ECC_ROW_SIZE; tmpIndex++)
 1334              		.loc 1 1199 0 is_stmt 0 discriminator 1
 1335 0572 B7F8A233 		ldrh	r3, [r7, #930]
ARM GAS  C:\Users\Robert\AppData\Local\Temp\ccgj8kBb.s 			page 46


 1336 0576 1F2B     		cmp	r3, #31
 1337 0578 E9D9     		bls	.L85
 1338              	.L83:
 1339              	.LBE8:
1202:.\Generated_Source\PSoC5/Bootloader_1.c ****                             }
1203:.\Generated_Source\PSoC5/Bootloader_1.c ****                         }
1204:.\Generated_Source\PSoC5/Bootloader_1.c **** 
1205:.\Generated_Source\PSoC5/Bootloader_1.c ****                     #endif  /* (!CY_PSOC4) && (CYDEV_ECC_ENABLE == 0u) */
1206:.\Generated_Source\PSoC5/Bootloader_1.c **** 
1207:.\Generated_Source\PSoC5/Bootloader_1.c **** 
1208:.\Generated_Source\PSoC5/Bootloader_1.c ****                     /******************************************************************************
1209:.\Generated_Source\PSoC5/Bootloader_1.c ****                     * App Verified & App Active are information that is updated in flash at runtime
1210:.\Generated_Source\PSoC5/Bootloader_1.c ****                     * remove these items from the checksum to allow the host to verify everything i
1211:.\Generated_Source\PSoC5/Bootloader_1.c ****                     * correct.
1212:.\Generated_Source\PSoC5/Bootloader_1.c ****                      ******************************************************************************
1213:.\Generated_Source\PSoC5/Bootloader_1.c ****                     if((Bootloader_1_MD_FLASH_ARRAY_NUM == btldrData) &&
 1340              		.loc 1 1213 0 is_stmt 1
 1341 057a 97F89933 		ldrb	r3, [r7, #921]	@ zero_extendqisi2
 1342 057e 032B     		cmp	r3, #3
 1343 0580 19D1     		bne	.L86
 1344              		.loc 1 1213 0 is_stmt 0 discriminator 1
 1345 0582 B7F89433 		ldrh	r3, [r7, #916]
 1346 0586 FF2B     		cmp	r3, #255
 1347 0588 15D1     		bne	.L86
1214:.\Generated_Source\PSoC5/Bootloader_1.c ****                        (Bootloader_1_CONTAIN_METADATA(rowNum)))
1215:.\Generated_Source\PSoC5/Bootloader_1.c ****                     {
1216:.\Generated_Source\PSoC5/Bootloader_1.c ****                         checksum -= Bootloader_1_MD_BTLDB_ACTIVE_VALUE  (Bootloader_1_GET_APP_ID(ro
 1348              		.loc 1 1216 0 is_stmt 1
 1349 058a 4FF6D073 		movw	r3, #65488
 1350 058e C0F20303 		movt	r3, 3
 1351 0592 1B78     		ldrb	r3, [r3, #0]
 1352 0594 DBB2     		uxtb	r3, r3
 1353 0596 97F8A423 		ldrb	r2, [r7, #932]
 1354 059a D31A     		subs	r3, r2, r3
 1355 059c 87F8A433 		strb	r3, [r7, #932]
1217:.\Generated_Source\PSoC5/Bootloader_1.c ****                         checksum -= Bootloader_1_MD_BTLDB_VERIFIED_VALUE(Bootloader_1_GET_APP_ID(ro
 1356              		.loc 1 1217 0
 1357 05a0 4FF6D173 		movw	r3, #65489
 1358 05a4 C0F20303 		movt	r3, 3
 1359 05a8 1B78     		ldrb	r3, [r3, #0]
 1360 05aa DBB2     		uxtb	r3, r3
 1361 05ac 97F8A423 		ldrb	r2, [r7, #932]
 1362 05b0 D31A     		subs	r3, r2, r3
 1363 05b2 87F8A433 		strb	r3, [r7, #932]
 1364              	.L86:
1218:.\Generated_Source\PSoC5/Bootloader_1.c ****                     }
1219:.\Generated_Source\PSoC5/Bootloader_1.c **** 
1220:.\Generated_Source\PSoC5/Bootloader_1.c ****                     packetBuffer[Bootloader_1_DATA_ADDR] = (uint8)1u + (uint8)(~checksum);
 1365              		.loc 1 1220 0
 1366 05b6 97F8A433 		ldrb	r3, [r7, #932]
 1367 05ba C3F10003 		rsb	r3, r3, #0
 1368 05be DAB2     		uxtb	r2, r3
 1369 05c0 07F51873 		add	r3, r7, #608
 1370 05c4 1A71     		strb	r2, [r3, #4]
1221:.\Generated_Source\PSoC5/Bootloader_1.c ****                     ackCode = CYRET_SUCCESS;
 1371              		.loc 1 1221 0
 1372 05c6 4FF00003 		mov	r3, #0
ARM GAS  C:\Users\Robert\AppData\Local\Temp\ccgj8kBb.s 			page 47


 1373 05ca 87F8AD33 		strb	r3, [r7, #941]
1222:.\Generated_Source\PSoC5/Bootloader_1.c ****                     rspSize = 1u;
 1374              		.loc 1 1222 0
 1375 05ce 4FF00103 		mov	r3, #1
 1376 05d2 A7F8AE33 		strh	r3, [r7, #942]	@ movhi
 1377              	.LBE7:
1223:.\Generated_Source\PSoC5/Bootloader_1.c ****                 }
1224:.\Generated_Source\PSoC5/Bootloader_1.c ****                 break;
 1378              		.loc 1 1224 0
 1379 05d6 21E0     		b	.L96
 1380              	.L61:
1225:.\Generated_Source\PSoC5/Bootloader_1.c **** 
1226:.\Generated_Source\PSoC5/Bootloader_1.c **** 
1227:.\Generated_Source\PSoC5/Bootloader_1.c ****             /***************************************************************************
1228:.\Generated_Source\PSoC5/Bootloader_1.c ****             *   Exit bootloader
1229:.\Generated_Source\PSoC5/Bootloader_1.c ****             ***************************************************************************/
1230:.\Generated_Source\PSoC5/Bootloader_1.c ****             case Bootloader_1_COMMAND_EXIT:
1231:.\Generated_Source\PSoC5/Bootloader_1.c **** 
1232:.\Generated_Source\PSoC5/Bootloader_1.c ****                 if(CYRET_SUCCESS == Bootloader_1_ValidateBootloadable(Bootloader_1_activeApp))
 1381              		.loc 1 1232 0
 1382 05d8 4FF00000 		mov	r0, #0
 1383 05dc FFF7FEFF 		bl	Bootloader_1_ValidateBootloadable
 1384 05e0 0346     		mov	r3, r0
 1385 05e2 002B     		cmp	r3, #0
 1386 05e4 06D1     		bne	.L87
1233:.\Generated_Source\PSoC5/Bootloader_1.c ****                 {
1234:.\Generated_Source\PSoC5/Bootloader_1.c ****                     Bootloader_1_SET_RUN_TYPE(Bootloader_1_START_APP);
 1387              		.loc 1 1234 0
 1388 05e6 44F2FA63 		movw	r3, #18170
 1389 05ea C4F20003 		movt	r3, 16384
 1390 05ee 4FF08002 		mov	r2, #128
 1391 05f2 1A70     		strb	r2, [r3, #0]
 1392              	.L87:
1235:.\Generated_Source\PSoC5/Bootloader_1.c ****                 }
1236:.\Generated_Source\PSoC5/Bootloader_1.c **** 
1237:.\Generated_Source\PSoC5/Bootloader_1.c ****                 CySoftwareReset();
 1393              		.loc 1 1237 0
 1394 05f4 FFF7FEFF 		bl	CySoftwareReset
1238:.\Generated_Source\PSoC5/Bootloader_1.c **** 
1239:.\Generated_Source\PSoC5/Bootloader_1.c ****                 /* Will never get here */
1240:.\Generated_Source\PSoC5/Bootloader_1.c ****                 break;
 1395              		.loc 1 1240 0
 1396 05f8 11E0     		b	.L52
 1397              	.L53:
1241:.\Generated_Source\PSoC5/Bootloader_1.c **** 
1242:.\Generated_Source\PSoC5/Bootloader_1.c **** 
1243:.\Generated_Source\PSoC5/Bootloader_1.c ****             /***************************************************************************
1244:.\Generated_Source\PSoC5/Bootloader_1.c ****             *   Unsupported command
1245:.\Generated_Source\PSoC5/Bootloader_1.c ****             ***************************************************************************/
1246:.\Generated_Source\PSoC5/Bootloader_1.c ****             default:
1247:.\Generated_Source\PSoC5/Bootloader_1.c ****                 ackCode = Bootloader_1_ERR_CMD;
 1398              		.loc 1 1247 0
 1399 05fa 4FF00503 		mov	r3, #5
 1400 05fe 87F8AD33 		strb	r3, [r7, #941]
1248:.\Generated_Source\PSoC5/Bootloader_1.c ****                 break;
 1401              		.loc 1 1248 0
 1402 0602 0CE0     		b	.L52
ARM GAS  C:\Users\Robert\AppData\Local\Temp\ccgj8kBb.s 			page 48


 1403              	.L90:
 751:.\Generated_Source\PSoC5/Bootloader_1.c ****                 break;
 1404              		.loc 1 751 0
 1405 0604 00BF     		nop
 1406 0606 0AE0     		b	.L52
 1407              	.L91:
 782:.\Generated_Source\PSoC5/Bootloader_1.c ****                     break;
 1408              		.loc 1 782 0
 1409 0608 00BF     		nop
 1410 060a 08E0     		b	.L52
 1411              	.L92:
1016:.\Generated_Source\PSoC5/Bootloader_1.c ****                 break;
 1412              		.loc 1 1016 0
 1413 060c 00BF     		nop
 1414 060e 06E0     		b	.L52
 1415              	.L93:
1034:.\Generated_Source\PSoC5/Bootloader_1.c ****                 break;
 1416              		.loc 1 1034 0
 1417 0610 00BF     		nop
 1418 0612 04E0     		b	.L52
 1419              	.L94:
1102:.\Generated_Source\PSoC5/Bootloader_1.c ****                     break;
 1420              		.loc 1 1102 0
 1421 0614 00BF     		nop
 1422 0616 02E0     		b	.L52
 1423              	.L95:
1142:.\Generated_Source\PSoC5/Bootloader_1.c ****                 break;
 1424              		.loc 1 1142 0
 1425 0618 00BF     		nop
 1426 061a 00E0     		b	.L52
 1427              	.L96:
1224:.\Generated_Source\PSoC5/Bootloader_1.c ****                 break;
 1428              		.loc 1 1224 0
 1429 061c 00BF     		nop
 1430              	.L52:
 1431              	.LBE3:
1249:.\Generated_Source\PSoC5/Bootloader_1.c ****             }
1250:.\Generated_Source\PSoC5/Bootloader_1.c ****         }
1251:.\Generated_Source\PSoC5/Bootloader_1.c **** 
1252:.\Generated_Source\PSoC5/Bootloader_1.c ****         /* ?CK the packet and function. */
1253:.\Generated_Source\PSoC5/Bootloader_1.c ****         (void) Bootloader_1_WritePacket(ackCode, packetBuffer, rspSize);
 1432              		.loc 1 1253 0
 1433 061e 97F8AD13 		ldrb	r1, [r7, #941]	@ zero_extendqisi2
 1434 0622 07F51872 		add	r2, r7, #608
 1435 0626 B7F8AE33 		ldrh	r3, [r7, #942]
 1436 062a 0846     		mov	r0, r1
 1437 062c 1146     		mov	r1, r2
 1438 062e 1A46     		mov	r2, r3
 1439 0630 FFF7FEFF 		bl	Bootloader_1_WritePacket
 1440 0634 00E0     		b	.L46
 1441              	.L89:
 657:.\Generated_Source\PSoC5/Bootloader_1.c ****             continue;
 1442              		.loc 1 657 0
 1443 0636 00BF     		nop
 1444              	.L46:
1254:.\Generated_Source\PSoC5/Bootloader_1.c **** 
1255:.\Generated_Source\PSoC5/Bootloader_1.c ****     } while ((0u == timeOut) || (Bootloader_1_COMMUNICATION_STATE_ACTIVE == communicationState));
ARM GAS  C:\Users\Robert\AppData\Local\Temp\ccgj8kBb.s 			page 49


 1445              		.loc 1 1255 0
 1446 0638 07F10703 		add	r3, r7, #7
 1447 063c 1B78     		ldrb	r3, [r3, #0]	@ zero_extendqisi2
 1448 063e 002B     		cmp	r3, #0
 1449 0640 3FF4FDAC 		beq	.L88
 1450              		.loc 1 1255 0 is_stmt 0 discriminator 1
 1451 0644 97F8A533 		ldrb	r3, [r7, #933]	@ zero_extendqisi2
 1452 0648 012B     		cmp	r3, #1
 1453 064a 3FF4F8AC 		beq	.L88
1256:.\Generated_Source\PSoC5/Bootloader_1.c **** }
 1454              		.loc 1 1256 0 is_stmt 1
 1455 064e 07F56C77 		add	r7, r7, #944
 1456 0652 BD46     		mov	sp, r7
 1457 0654 80BD     		pop	{r7, pc}
 1458              		.cfi_endproc
 1459              	.LFE64:
 1460              		.size	Bootloader_1_HostLink, .-Bootloader_1_HostLink
 1461 0656 00BF     		.section	.text.Bootloader_1_WritePacket,"ax",%progbits
 1462              		.align	2
 1463              		.thumb
 1464              		.thumb_func
 1465              		.type	Bootloader_1_WritePacket, %function
 1466              	Bootloader_1_WritePacket:
 1467              	.LFB65:
1257:.\Generated_Source\PSoC5/Bootloader_1.c **** 
1258:.\Generated_Source\PSoC5/Bootloader_1.c **** 
1259:.\Generated_Source\PSoC5/Bootloader_1.c **** /*******************************************************************************
1260:.\Generated_Source\PSoC5/Bootloader_1.c **** * Function Name: Bootloader_1_WritePacket
1261:.\Generated_Source\PSoC5/Bootloader_1.c **** ********************************************************************************
1262:.\Generated_Source\PSoC5/Bootloader_1.c **** *
1263:.\Generated_Source\PSoC5/Bootloader_1.c **** * Summary:
1264:.\Generated_Source\PSoC5/Bootloader_1.c **** *  Creates a bootloader responce packet and transmits it back to the bootloader
1265:.\Generated_Source\PSoC5/Bootloader_1.c **** *  host application over the already established communications protocol.
1266:.\Generated_Source\PSoC5/Bootloader_1.c **** *
1267:.\Generated_Source\PSoC5/Bootloader_1.c **** * Parameters:
1268:.\Generated_Source\PSoC5/Bootloader_1.c **** *  status:
1269:.\Generated_Source\PSoC5/Bootloader_1.c **** *      The status code to pass back as the second byte of the packet
1270:.\Generated_Source\PSoC5/Bootloader_1.c **** *  buffer:
1271:.\Generated_Source\PSoC5/Bootloader_1.c **** *      The buffer containing the data portion of the packet
1272:.\Generated_Source\PSoC5/Bootloader_1.c **** *  size:
1273:.\Generated_Source\PSoC5/Bootloader_1.c **** *      The number of bytes contained within the buffer to pass back
1274:.\Generated_Source\PSoC5/Bootloader_1.c **** *
1275:.\Generated_Source\PSoC5/Bootloader_1.c **** * Return:
1276:.\Generated_Source\PSoC5/Bootloader_1.c **** *   CYRET_SUCCESS if successful.
1277:.\Generated_Source\PSoC5/Bootloader_1.c **** *   CYRET_UNKNOWN if there was an error tranmitting the packet.
1278:.\Generated_Source\PSoC5/Bootloader_1.c **** *
1279:.\Generated_Source\PSoC5/Bootloader_1.c **** *******************************************************************************/
1280:.\Generated_Source\PSoC5/Bootloader_1.c **** static cystatus Bootloader_1_WritePacket(uint8 status, uint8 buffer[], uint16 size) CYSMALL \
1281:.\Generated_Source\PSoC5/Bootloader_1.c ****                                             
1282:.\Generated_Source\PSoC5/Bootloader_1.c **** {
 1468              		.loc 1 1282 0
 1469              		.cfi_startproc
 1470              		@ args = 0, pretend = 0, frame = 16
 1471              		@ frame_needed = 1, uses_anonymous_args = 0
 1472 0000 80B5     		push	{r7, lr}
 1473              	.LCFI22:
 1474              		.cfi_def_cfa_offset 8
ARM GAS  C:\Users\Robert\AppData\Local\Temp\ccgj8kBb.s 			page 50


 1475              		.cfi_offset 7, -8
 1476              		.cfi_offset 14, -4
 1477 0002 84B0     		sub	sp, sp, #16
 1478              	.LCFI23:
 1479              		.cfi_def_cfa_offset 24
 1480 0004 00AF     		add	r7, sp, #0
 1481              	.LCFI24:
 1482              		.cfi_def_cfa_register 7
 1483 0006 3960     		str	r1, [r7, #0]
 1484 0008 1346     		mov	r3, r2
 1485 000a 0246     		mov	r2, r0
 1486 000c FA71     		strb	r2, [r7, #7]
 1487 000e BB80     		strh	r3, [r7, #4]	@ movhi
1283:.\Generated_Source\PSoC5/Bootloader_1.c ****     uint16 CYDATA checksum;
1284:.\Generated_Source\PSoC5/Bootloader_1.c **** 
1285:.\Generated_Source\PSoC5/Bootloader_1.c ****     /* Start of the packet. */
1286:.\Generated_Source\PSoC5/Bootloader_1.c ****     buffer[Bootloader_1_SOP_ADDR]      = Bootloader_1_SOP;
 1488              		.loc 1 1286 0
 1489 0010 3B68     		ldr	r3, [r7, #0]
 1490 0012 4FF00102 		mov	r2, #1
 1491 0016 1A70     		strb	r2, [r3, #0]
1287:.\Generated_Source\PSoC5/Bootloader_1.c ****     buffer[Bootloader_1_CMD_ADDR]      = status;
 1492              		.loc 1 1287 0
 1493 0018 3B68     		ldr	r3, [r7, #0]
 1494 001a 03F10103 		add	r3, r3, #1
 1495 001e FA79     		ldrb	r2, [r7, #7]
 1496 0020 1A70     		strb	r2, [r3, #0]
1288:.\Generated_Source\PSoC5/Bootloader_1.c ****     buffer[Bootloader_1_SIZE_ADDR]     = LO8(size);
 1497              		.loc 1 1288 0
 1498 0022 3B68     		ldr	r3, [r7, #0]
 1499 0024 03F10203 		add	r3, r3, #2
 1500 0028 BA88     		ldrh	r2, [r7, #4]
 1501 002a D2B2     		uxtb	r2, r2
 1502 002c 1A70     		strb	r2, [r3, #0]
1289:.\Generated_Source\PSoC5/Bootloader_1.c ****     buffer[Bootloader_1_SIZE_ADDR + 1u] = HI8(size);
 1503              		.loc 1 1289 0
 1504 002e 3B68     		ldr	r3, [r7, #0]
 1505 0030 03F10303 		add	r3, r3, #3
 1506 0034 BA88     		ldrh	r2, [r7, #4]
 1507 0036 4FEA1222 		lsr	r2, r2, #8
 1508 003a 92B2     		uxth	r2, r2
 1509 003c D2B2     		uxtb	r2, r2
 1510 003e 1A70     		strb	r2, [r3, #0]
1290:.\Generated_Source\PSoC5/Bootloader_1.c **** 
1291:.\Generated_Source\PSoC5/Bootloader_1.c ****     /* Compute the checksum. */
1292:.\Generated_Source\PSoC5/Bootloader_1.c ****     checksum = Bootloader_1_CalcPacketChecksum(buffer, size + Bootloader_1_DATA_ADDR);
 1511              		.loc 1 1292 0
 1512 0040 BB88     		ldrh	r3, [r7, #4]
 1513 0042 03F10403 		add	r3, r3, #4
 1514 0046 9BB2     		uxth	r3, r3
 1515 0048 3868     		ldr	r0, [r7, #0]
 1516 004a 1946     		mov	r1, r3
 1517 004c FFF7FEFF 		bl	Bootloader_1_CalcPacketChecksum
 1518 0050 0346     		mov	r3, r0
 1519 0052 FB81     		strh	r3, [r7, #14]	@ movhi
1293:.\Generated_Source\PSoC5/Bootloader_1.c **** 
1294:.\Generated_Source\PSoC5/Bootloader_1.c ****     buffer[Bootloader_1_CHK_ADDR(size)]     = LO8(checksum);
ARM GAS  C:\Users\Robert\AppData\Local\Temp\ccgj8kBb.s 			page 51


 1520              		.loc 1 1294 0
 1521 0054 BB88     		ldrh	r3, [r7, #4]
 1522 0056 03F10403 		add	r3, r3, #4
 1523 005a 3A68     		ldr	r2, [r7, #0]
 1524 005c D318     		adds	r3, r2, r3
 1525 005e FA89     		ldrh	r2, [r7, #14]	@ movhi
 1526 0060 D2B2     		uxtb	r2, r2
 1527 0062 1A70     		strb	r2, [r3, #0]
1295:.\Generated_Source\PSoC5/Bootloader_1.c ****     buffer[Bootloader_1_CHK_ADDR(1u + size)] = HI8(checksum);
 1528              		.loc 1 1295 0
 1529 0064 BB88     		ldrh	r3, [r7, #4]
 1530 0066 03F10503 		add	r3, r3, #5
 1531 006a 3A68     		ldr	r2, [r7, #0]
 1532 006c D318     		adds	r3, r2, r3
 1533 006e FA89     		ldrh	r2, [r7, #14]
 1534 0070 4FEA1222 		lsr	r2, r2, #8
 1535 0074 92B2     		uxth	r2, r2
 1536 0076 D2B2     		uxtb	r2, r2
 1537 0078 1A70     		strb	r2, [r3, #0]
1296:.\Generated_Source\PSoC5/Bootloader_1.c ****     buffer[Bootloader_1_EOP_ADDR(size)]     = Bootloader_1_EOP;
 1538              		.loc 1 1296 0
 1539 007a BB88     		ldrh	r3, [r7, #4]
 1540 007c 03F10603 		add	r3, r3, #6
 1541 0080 3A68     		ldr	r2, [r7, #0]
 1542 0082 D318     		adds	r3, r2, r3
 1543 0084 4FF01702 		mov	r2, #23
 1544 0088 1A70     		strb	r2, [r3, #0]
1297:.\Generated_Source\PSoC5/Bootloader_1.c **** 
1298:.\Generated_Source\PSoC5/Bootloader_1.c ****     /* Start the packet transmit. */
1299:.\Generated_Source\PSoC5/Bootloader_1.c ****     return(CyBtldrCommWrite(buffer, size + Bootloader_1_MIN_PKT_SIZE, &size, 150u));
 1545              		.loc 1 1299 0
 1546 008a BB88     		ldrh	r3, [r7, #4]
 1547 008c 03F10703 		add	r3, r3, #7
 1548 0090 9AB2     		uxth	r2, r3
 1549 0092 07F10403 		add	r3, r7, #4
 1550 0096 3868     		ldr	r0, [r7, #0]
 1551 0098 1146     		mov	r1, r2
 1552 009a 1A46     		mov	r2, r3
 1553 009c 4FF09603 		mov	r3, #150
 1554 00a0 FFF7FEFF 		bl	USBFS_CyBtldrCommWrite
 1555 00a4 0346     		mov	r3, r0
1300:.\Generated_Source\PSoC5/Bootloader_1.c **** }
 1556              		.loc 1 1300 0
 1557 00a6 1846     		mov	r0, r3
 1558 00a8 07F11007 		add	r7, r7, #16
 1559 00ac BD46     		mov	sp, r7
 1560 00ae 80BD     		pop	{r7, pc}
 1561              		.cfi_endproc
 1562              	.LFE65:
 1563              		.size	Bootloader_1_WritePacket, .-Bootloader_1_WritePacket
 1564              		.section	.text.Bootloader_1_SetFlashByte,"ax",%progbits
 1565              		.align	2
 1566              		.global	Bootloader_1_SetFlashByte
 1567              		.thumb
 1568              		.thumb_func
 1569              		.type	Bootloader_1_SetFlashByte, %function
 1570              	Bootloader_1_SetFlashByte:
ARM GAS  C:\Users\Robert\AppData\Local\Temp\ccgj8kBb.s 			page 52


 1571              	.LFB66:
1301:.\Generated_Source\PSoC5/Bootloader_1.c **** 
1302:.\Generated_Source\PSoC5/Bootloader_1.c **** 
1303:.\Generated_Source\PSoC5/Bootloader_1.c **** /*******************************************************************************
1304:.\Generated_Source\PSoC5/Bootloader_1.c **** * Function Name: Bootloader_1_SetFlashByte
1305:.\Generated_Source\PSoC5/Bootloader_1.c **** ********************************************************************************
1306:.\Generated_Source\PSoC5/Bootloader_1.c **** *
1307:.\Generated_Source\PSoC5/Bootloader_1.c **** * Summary:
1308:.\Generated_Source\PSoC5/Bootloader_1.c **** *  Writes byte a flash memory location
1309:.\Generated_Source\PSoC5/Bootloader_1.c **** *
1310:.\Generated_Source\PSoC5/Bootloader_1.c **** * Parameters:
1311:.\Generated_Source\PSoC5/Bootloader_1.c **** *  address:
1312:.\Generated_Source\PSoC5/Bootloader_1.c **** *      Address in Flash memory where data will be written
1313:.\Generated_Source\PSoC5/Bootloader_1.c **** *
1314:.\Generated_Source\PSoC5/Bootloader_1.c **** *  runType:
1315:.\Generated_Source\PSoC5/Bootloader_1.c **** *      Byte to be written
1316:.\Generated_Source\PSoC5/Bootloader_1.c **** *
1317:.\Generated_Source\PSoC5/Bootloader_1.c **** * Return:
1318:.\Generated_Source\PSoC5/Bootloader_1.c **** *  None
1319:.\Generated_Source\PSoC5/Bootloader_1.c **** *
1320:.\Generated_Source\PSoC5/Bootloader_1.c **** *******************************************************************************/
1321:.\Generated_Source\PSoC5/Bootloader_1.c **** void Bootloader_1_SetFlashByte(uint32 address, uint8 runType) 
1322:.\Generated_Source\PSoC5/Bootloader_1.c **** {
 1572              		.loc 1 1322 0
 1573              		.cfi_startproc
 1574              		@ args = 0, pretend = 0, frame = 280
 1575              		@ frame_needed = 1, uses_anonymous_args = 0
 1576 0000 80B5     		push	{r7, lr}
 1577              	.LCFI25:
 1578              		.cfi_def_cfa_offset 8
 1579              		.cfi_offset 7, -8
 1580              		.cfi_offset 14, -4
 1581 0002 C6B0     		sub	sp, sp, #280
 1582              	.LCFI26:
 1583              		.cfi_def_cfa_offset 288
 1584 0004 00AF     		add	r7, sp, #0
 1585              	.LCFI27:
 1586              		.cfi_def_cfa_register 7
 1587 0006 07F10403 		add	r3, r7, #4
 1588 000a 1860     		str	r0, [r3, #0]
 1589 000c 0A46     		mov	r2, r1
 1590 000e 07F10303 		add	r3, r7, #3
 1591 0012 1A70     		strb	r2, [r3, #0]
1323:.\Generated_Source\PSoC5/Bootloader_1.c ****     uint32 flsAddr = address - CYDEV_FLASH_BASE;
 1592              		.loc 1 1323 0
 1593 0014 07F10403 		add	r3, r7, #4
 1594 0018 1B68     		ldr	r3, [r3, #0]
 1595 001a C7F81031 		str	r3, [r7, #272]
1324:.\Generated_Source\PSoC5/Bootloader_1.c ****     uint8  rowData[CYDEV_FLS_ROW_SIZE];
1325:.\Generated_Source\PSoC5/Bootloader_1.c **** 
1326:.\Generated_Source\PSoC5/Bootloader_1.c ****     #if !(CY_PSOC4)
1327:.\Generated_Source\PSoC5/Bootloader_1.c ****         uint8 arrayId = ( uint8 )(flsAddr / CYDEV_FLS_SECTOR_SIZE);
 1596              		.loc 1 1327 0
 1597 001e D7F81031 		ldr	r3, [r7, #272]
 1598 0022 4FEA1343 		lsr	r3, r3, #16
 1599 0026 87F80F31 		strb	r3, [r7, #271]
1328:.\Generated_Source\PSoC5/Bootloader_1.c ****     #endif  /* !(CY_PSOC4) */
ARM GAS  C:\Users\Robert\AppData\Local\Temp\ccgj8kBb.s 			page 53


1329:.\Generated_Source\PSoC5/Bootloader_1.c **** 
1330:.\Generated_Source\PSoC5/Bootloader_1.c ****     uint16 rowNum = ( uint16 )((flsAddr % CYDEV_FLS_SECTOR_SIZE) / CYDEV_FLS_ROW_SIZE);
 1600              		.loc 1 1330 0
 1601 002a D7F81031 		ldr	r3, [r7, #272]
 1602 002e 4FEA0343 		lsl	r3, r3, #16
 1603 0032 4FEA1343 		lsr	r3, r3, #16
 1604 0036 4FEA1323 		lsr	r3, r3, #8
 1605 003a A7F80C31 		strh	r3, [r7, #268]	@ movhi
1331:.\Generated_Source\PSoC5/Bootloader_1.c ****     uint32 baseAddr = address - (address % CYDEV_FLS_ROW_SIZE);
 1606              		.loc 1 1331 0
 1607 003e 07F10403 		add	r3, r7, #4
 1608 0042 1B68     		ldr	r3, [r3, #0]
 1609 0044 23F0FF03 		bic	r3, r3, #255
 1610 0048 C7F80831 		str	r3, [r7, #264]
1332:.\Generated_Source\PSoC5/Bootloader_1.c ****     uint16 idx;
1333:.\Generated_Source\PSoC5/Bootloader_1.c **** 
1334:.\Generated_Source\PSoC5/Bootloader_1.c ****     for(idx = 0u; idx < CYDEV_FLS_ROW_SIZE; idx++)
 1611              		.loc 1 1334 0
 1612 004c 4FF00003 		mov	r3, #0
 1613 0050 A7F81631 		strh	r3, [r7, #278]	@ movhi
 1614 0054 10E0     		b	.L100
 1615              	.L101:
1335:.\Generated_Source\PSoC5/Bootloader_1.c ****     {
1336:.\Generated_Source\PSoC5/Bootloader_1.c ****         rowData[idx] = Bootloader_1_GET_CODE_BYTE(baseAddr + idx);
 1616              		.loc 1 1336 0 discriminator 2
 1617 0056 B7F81631 		ldrh	r3, [r7, #278]
 1618 005a B7F81611 		ldrh	r1, [r7, #278]
 1619 005e D7F80821 		ldr	r2, [r7, #264]
 1620 0062 8A18     		adds	r2, r1, r2
 1621 0064 1178     		ldrb	r1, [r2, #0]	@ zero_extendqisi2
 1622 0066 07F10802 		add	r2, r7, #8
 1623 006a D154     		strb	r1, [r2, r3]
1334:.\Generated_Source\PSoC5/Bootloader_1.c ****     for(idx = 0u; idx < CYDEV_FLS_ROW_SIZE; idx++)
 1624              		.loc 1 1334 0 discriminator 2
 1625 006c B7F81631 		ldrh	r3, [r7, #278]	@ movhi
 1626 0070 03F10103 		add	r3, r3, #1
 1627 0074 A7F81631 		strh	r3, [r7, #278]	@ movhi
 1628              	.L100:
1334:.\Generated_Source\PSoC5/Bootloader_1.c ****     for(idx = 0u; idx < CYDEV_FLS_ROW_SIZE; idx++)
 1629              		.loc 1 1334 0 is_stmt 0 discriminator 1
 1630 0078 B7F81631 		ldrh	r3, [r7, #278]
 1631 007c FF2B     		cmp	r3, #255
 1632 007e EAD9     		bls	.L101
1337:.\Generated_Source\PSoC5/Bootloader_1.c ****     }
1338:.\Generated_Source\PSoC5/Bootloader_1.c **** 
1339:.\Generated_Source\PSoC5/Bootloader_1.c ****     rowData[address % CYDEV_FLS_ROW_SIZE] = runType;
 1633              		.loc 1 1339 0 is_stmt 1
 1634 0080 07F10403 		add	r3, r7, #4
 1635 0084 1B68     		ldr	r3, [r3, #0]
 1636 0086 DBB2     		uxtb	r3, r3
 1637 0088 07F10802 		add	r2, r7, #8
 1638 008c 07F10301 		add	r1, r7, #3
 1639 0090 0978     		ldrb	r1, [r1, #0]
 1640 0092 D154     		strb	r1, [r2, r3]
1340:.\Generated_Source\PSoC5/Bootloader_1.c **** 
1341:.\Generated_Source\PSoC5/Bootloader_1.c ****     #if(CY_PSOC4)
1342:.\Generated_Source\PSoC5/Bootloader_1.c ****         (void) CySysFlashWriteRow((uint32) rowNum, rowData);
ARM GAS  C:\Users\Robert\AppData\Local\Temp\ccgj8kBb.s 			page 54


1343:.\Generated_Source\PSoC5/Bootloader_1.c ****     #else
1344:.\Generated_Source\PSoC5/Bootloader_1.c ****         (void) CyWriteRowData(arrayId, rowNum, rowData);
 1641              		.loc 1 1344 0
 1642 0094 97F80F11 		ldrb	r1, [r7, #271]	@ zero_extendqisi2
 1643 0098 B7F80C21 		ldrh	r2, [r7, #268]
 1644 009c 07F10803 		add	r3, r7, #8
 1645 00a0 0846     		mov	r0, r1
 1646 00a2 1146     		mov	r1, r2
 1647 00a4 1A46     		mov	r2, r3
 1648 00a6 FFF7FEFF 		bl	CyWriteRowData
1345:.\Generated_Source\PSoC5/Bootloader_1.c ****     #endif  /* (CY_PSOC4) */
1346:.\Generated_Source\PSoC5/Bootloader_1.c **** }
 1649              		.loc 1 1346 0
 1650 00aa 07F58C77 		add	r7, r7, #280
 1651 00ae BD46     		mov	sp, r7
 1652 00b0 80BD     		pop	{r7, pc}
 1653              		.cfi_endproc
 1654              	.LFE66:
 1655              		.size	Bootloader_1_SetFlashByte, .-Bootloader_1_SetFlashByte
 1656 00b2 00BF     		.section	.text.Bootloader_1_GetMetadata,"ax",%progbits
 1657              		.align	2
 1658              		.thumb
 1659              		.thumb_func
 1660              		.type	Bootloader_1_GetMetadata, %function
 1661              	Bootloader_1_GetMetadata:
 1662              	.LFB67:
1347:.\Generated_Source\PSoC5/Bootloader_1.c **** 
1348:.\Generated_Source\PSoC5/Bootloader_1.c **** 
1349:.\Generated_Source\PSoC5/Bootloader_1.c **** /*******************************************************************************
1350:.\Generated_Source\PSoC5/Bootloader_1.c **** * Function Name: Bootloader_1_GetMetadata
1351:.\Generated_Source\PSoC5/Bootloader_1.c **** ********************************************************************************
1352:.\Generated_Source\PSoC5/Bootloader_1.c **** *
1353:.\Generated_Source\PSoC5/Bootloader_1.c **** * Summary:
1354:.\Generated_Source\PSoC5/Bootloader_1.c **** *  Returns value of the multi-byte field.
1355:.\Generated_Source\PSoC5/Bootloader_1.c **** *
1356:.\Generated_Source\PSoC5/Bootloader_1.c **** * Parameters:
1357:.\Generated_Source\PSoC5/Bootloader_1.c **** *  fieldName:
1358:.\Generated_Source\PSoC5/Bootloader_1.c **** *   The field to get data from:
1359:.\Generated_Source\PSoC5/Bootloader_1.c **** *     Bootloader_1_GET_METADATA_BTLDB_ADDR
1360:.\Generated_Source\PSoC5/Bootloader_1.c **** *     Bootloader_1_GET_METADATA_BTLDR_LAST_ROW
1361:.\Generated_Source\PSoC5/Bootloader_1.c **** *     Bootloader_1_GET_METADATA_BTLDB_LENGTH
1362:.\Generated_Source\PSoC5/Bootloader_1.c **** *     Bootloader_1_GET_METADATA_BTLDR_APP_VERSION
1363:.\Generated_Source\PSoC5/Bootloader_1.c **** *     Bootloader_1_GET_METADATA_BTLDB_APP_VERSION
1364:.\Generated_Source\PSoC5/Bootloader_1.c **** *     Bootloader_1_GET_METADATA_BTLDB_APP_ID
1365:.\Generated_Source\PSoC5/Bootloader_1.c **** *     Bootloader_1_GET_METADATA_BTLDB_APP_CUST_ID
1366:.\Generated_Source\PSoC5/Bootloader_1.c **** *
1367:.\Generated_Source\PSoC5/Bootloader_1.c **** *  appId:
1368:.\Generated_Source\PSoC5/Bootloader_1.c **** *   Number of the bootlodable application.
1369:.\Generated_Source\PSoC5/Bootloader_1.c **** *
1370:.\Generated_Source\PSoC5/Bootloader_1.c **** * Return:
1371:.\Generated_Source\PSoC5/Bootloader_1.c **** *  None
1372:.\Generated_Source\PSoC5/Bootloader_1.c **** *
1373:.\Generated_Source\PSoC5/Bootloader_1.c **** *******************************************************************************/
1374:.\Generated_Source\PSoC5/Bootloader_1.c **** static uint32 Bootloader_1_GetMetadata(uint8 fieldName, uint8 appId)
1375:.\Generated_Source\PSoC5/Bootloader_1.c **** {
 1663              		.loc 1 1375 0
 1664              		.cfi_startproc
ARM GAS  C:\Users\Robert\AppData\Local\Temp\ccgj8kBb.s 			page 55


 1665              		@ args = 0, pretend = 0, frame = 24
 1666              		@ frame_needed = 1, uses_anonymous_args = 0
 1667 0000 80B5     		push	{r7, lr}
 1668              	.LCFI28:
 1669              		.cfi_def_cfa_offset 8
 1670              		.cfi_offset 7, -8
 1671              		.cfi_offset 14, -4
 1672 0002 86B0     		sub	sp, sp, #24
 1673              	.LCFI29:
 1674              		.cfi_def_cfa_offset 32
 1675 0004 00AF     		add	r7, sp, #0
 1676              	.LCFI30:
 1677              		.cfi_def_cfa_register 7
 1678 0006 0246     		mov	r2, r0
 1679 0008 0B46     		mov	r3, r1
 1680 000a FA71     		strb	r2, [r7, #7]
 1681 000c BB71     		strb	r3, [r7, #6]
1376:.\Generated_Source\PSoC5/Bootloader_1.c ****     uint32 fieldPtr;
1377:.\Generated_Source\PSoC5/Bootloader_1.c ****     uint8  fieldSize = 2u;
 1682              		.loc 1 1377 0
 1683 000e 4FF00203 		mov	r3, #2
 1684 0012 FB74     		strb	r3, [r7, #19]
1378:.\Generated_Source\PSoC5/Bootloader_1.c ****     uint32 result;
1379:.\Generated_Source\PSoC5/Bootloader_1.c **** 
1380:.\Generated_Source\PSoC5/Bootloader_1.c ****     switch (fieldName)
 1685              		.loc 1 1380 0
 1686 0014 FB79     		ldrb	r3, [r7, #7]	@ zero_extendqisi2
 1687 0016 03F1FF33 		add	r3, r3, #-1
 1688 001a 062B     		cmp	r3, #6
 1689 001c 74D8     		bhi	.L103
 1690 001e 01A2     		adr	r2, .L111
 1691 0020 52F823F0 		ldr	pc, [r2, r3, lsl #2]
 1692              		.align	2
 1693              	.L111:
 1694 0024 7B000000 		.word	.L104+1
 1695 0028 9B000000 		.word	.L105+1
 1696 002c B5000000 		.word	.L106+1
 1697 0030 61000000 		.word	.L107+1
 1698 0034 D5000000 		.word	.L108+1
 1699 0038 EF000000 		.word	.L109+1
 1700 003c 41000000 		.word	.L110+1
 1701              	.L110:
1381:.\Generated_Source\PSoC5/Bootloader_1.c ****     {
1382:.\Generated_Source\PSoC5/Bootloader_1.c ****     case Bootloader_1_GET_METADATA_BTLDB_APP_CUST_ID:
1383:.\Generated_Source\PSoC5/Bootloader_1.c ****         fieldPtr  = Bootloader_1_MD_BTLDB_APP_CUST_ID_OFFSET(appId);
 1702              		.loc 1 1383 0
 1703 0040 BA79     		ldrb	r2, [r7, #6]	@ zero_extendqisi2
 1704 0042 1346     		mov	r3, r2
 1705 0044 4FEA0363 		lsl	r3, r3, #24
 1706 0048 9B1A     		subs	r3, r3, r2
 1707 004a 4FEA0323 		lsl	r3, r3, #8
 1708 004e 03F57F33 		add	r3, r3, #261120
 1709 0052 03F57673 		add	r3, r3, #984
 1710 0056 7B61     		str	r3, [r7, #20]
1384:.\Generated_Source\PSoC5/Bootloader_1.c ****         fieldSize = 4u;
 1711              		.loc 1 1384 0
 1712 0058 4FF00403 		mov	r3, #4
ARM GAS  C:\Users\Robert\AppData\Local\Temp\ccgj8kBb.s 			page 56


 1713 005c FB74     		strb	r3, [r7, #19]
1385:.\Generated_Source\PSoC5/Bootloader_1.c ****         break;
 1714              		.loc 1 1385 0
 1715 005e 5BE0     		b	.L112
 1716              	.L107:
1386:.\Generated_Source\PSoC5/Bootloader_1.c **** 
1387:.\Generated_Source\PSoC5/Bootloader_1.c ****     case Bootloader_1_GET_METADATA_BTLDR_APP_VERSION:
1388:.\Generated_Source\PSoC5/Bootloader_1.c ****         fieldPtr  = Bootloader_1_MD_BTLDR_APP_VERSION_OFFSET(appId);
 1717              		.loc 1 1388 0
 1718 0060 BA79     		ldrb	r2, [r7, #6]	@ zero_extendqisi2
 1719 0062 1346     		mov	r3, r2
 1720 0064 4FEA0363 		lsl	r3, r3, #24
 1721 0068 9B1A     		subs	r3, r3, r2
 1722 006a 4FEA0323 		lsl	r3, r3, #8
 1723 006e 03F57F33 		add	r3, r3, #261120
 1724 0072 03F2D233 		addw	r3, r3, #978
 1725 0076 7B61     		str	r3, [r7, #20]
1389:.\Generated_Source\PSoC5/Bootloader_1.c ****         break;
 1726              		.loc 1 1389 0
 1727 0078 4EE0     		b	.L112
 1728              	.L104:
1390:.\Generated_Source\PSoC5/Bootloader_1.c **** 
1391:.\Generated_Source\PSoC5/Bootloader_1.c ****     case Bootloader_1_GET_METADATA_BTLDB_ADDR:
1392:.\Generated_Source\PSoC5/Bootloader_1.c ****         fieldPtr  = Bootloader_1_MD_BTLDB_ADDR_OFFSET(appId);
 1729              		.loc 1 1392 0
 1730 007a BA79     		ldrb	r2, [r7, #6]	@ zero_extendqisi2
 1731 007c 1346     		mov	r3, r2
 1732 007e 4FEA0363 		lsl	r3, r3, #24
 1733 0082 9B1A     		subs	r3, r3, r2
 1734 0084 4FEA0323 		lsl	r3, r3, #8
 1735 0088 03F57F33 		add	r3, r3, #261120
 1736 008c 03F2C133 		addw	r3, r3, #961
 1737 0090 7B61     		str	r3, [r7, #20]
1393:.\Generated_Source\PSoC5/Bootloader_1.c ****     #if(!CY_PSOC3)
1394:.\Generated_Source\PSoC5/Bootloader_1.c ****         fieldSize = 4u;
 1738              		.loc 1 1394 0
 1739 0092 4FF00403 		mov	r3, #4
 1740 0096 FB74     		strb	r3, [r7, #19]
1395:.\Generated_Source\PSoC5/Bootloader_1.c ****     #endif  /* (!CY_PSOC3) */
1396:.\Generated_Source\PSoC5/Bootloader_1.c ****         break;
 1741              		.loc 1 1396 0
 1742 0098 3EE0     		b	.L112
 1743              	.L105:
1397:.\Generated_Source\PSoC5/Bootloader_1.c **** 
1398:.\Generated_Source\PSoC5/Bootloader_1.c ****     case Bootloader_1_GET_METADATA_BTLDR_LAST_ROW:
1399:.\Generated_Source\PSoC5/Bootloader_1.c ****         fieldPtr  = Bootloader_1_MD_BTLDR_LAST_ROW_OFFSET(appId);
 1744              		.loc 1 1399 0
 1745 009a BA79     		ldrb	r2, [r7, #6]	@ zero_extendqisi2
 1746 009c 1346     		mov	r3, r2
 1747 009e 4FEA0363 		lsl	r3, r3, #24
 1748 00a2 9B1A     		subs	r3, r3, r2
 1749 00a4 4FEA0323 		lsl	r3, r3, #8
 1750 00a8 03F57F33 		add	r3, r3, #261120
 1751 00ac 03F2C533 		addw	r3, r3, #965
 1752 00b0 7B61     		str	r3, [r7, #20]
1400:.\Generated_Source\PSoC5/Bootloader_1.c ****         break;
 1753              		.loc 1 1400 0
ARM GAS  C:\Users\Robert\AppData\Local\Temp\ccgj8kBb.s 			page 57


 1754 00b2 31E0     		b	.L112
 1755              	.L106:
1401:.\Generated_Source\PSoC5/Bootloader_1.c **** 
1402:.\Generated_Source\PSoC5/Bootloader_1.c ****     case Bootloader_1_GET_METADATA_BTLDB_LENGTH:
1403:.\Generated_Source\PSoC5/Bootloader_1.c ****         fieldPtr  = Bootloader_1_MD_BTLDB_LENGTH_OFFSET(appId);
 1756              		.loc 1 1403 0
 1757 00b4 BA79     		ldrb	r2, [r7, #6]	@ zero_extendqisi2
 1758 00b6 1346     		mov	r3, r2
 1759 00b8 4FEA0363 		lsl	r3, r3, #24
 1760 00bc 9B1A     		subs	r3, r3, r2
 1761 00be 4FEA0323 		lsl	r3, r3, #8
 1762 00c2 03F57F33 		add	r3, r3, #261120
 1763 00c6 03F2C933 		addw	r3, r3, #969
 1764 00ca 7B61     		str	r3, [r7, #20]
1404:.\Generated_Source\PSoC5/Bootloader_1.c ****     #if(!CY_PSOC3)
1405:.\Generated_Source\PSoC5/Bootloader_1.c ****         fieldSize = 4u;
 1765              		.loc 1 1405 0
 1766 00cc 4FF00403 		mov	r3, #4
 1767 00d0 FB74     		strb	r3, [r7, #19]
1406:.\Generated_Source\PSoC5/Bootloader_1.c ****     #endif  /* (!CY_PSOC3) */
1407:.\Generated_Source\PSoC5/Bootloader_1.c ****         break;
 1768              		.loc 1 1407 0
 1769 00d2 21E0     		b	.L112
 1770              	.L108:
1408:.\Generated_Source\PSoC5/Bootloader_1.c **** 
1409:.\Generated_Source\PSoC5/Bootloader_1.c ****     case Bootloader_1_GET_METADATA_BTLDB_APP_VERSION:
1410:.\Generated_Source\PSoC5/Bootloader_1.c ****         fieldPtr  = Bootloader_1_MD_BTLDB_APP_VERSION_OFFSET(appId);
 1771              		.loc 1 1410 0
 1772 00d4 BA79     		ldrb	r2, [r7, #6]	@ zero_extendqisi2
 1773 00d6 1346     		mov	r3, r2
 1774 00d8 4FEA0363 		lsl	r3, r3, #24
 1775 00dc 9B1A     		subs	r3, r3, r2
 1776 00de 4FEA0323 		lsl	r3, r3, #8
 1777 00e2 03F57F33 		add	r3, r3, #261120
 1778 00e6 03F2D633 		addw	r3, r3, #982
 1779 00ea 7B61     		str	r3, [r7, #20]
1411:.\Generated_Source\PSoC5/Bootloader_1.c ****         break;
 1780              		.loc 1 1411 0
 1781 00ec 14E0     		b	.L112
 1782              	.L109:
1412:.\Generated_Source\PSoC5/Bootloader_1.c **** 
1413:.\Generated_Source\PSoC5/Bootloader_1.c ****     case Bootloader_1_GET_METADATA_BTLDB_APP_ID:
1414:.\Generated_Source\PSoC5/Bootloader_1.c ****         fieldPtr  = Bootloader_1_MD_BTLDB_APP_ID_OFFSET(appId);
 1783              		.loc 1 1414 0
 1784 00ee BA79     		ldrb	r2, [r7, #6]	@ zero_extendqisi2
 1785 00f0 1346     		mov	r3, r2
 1786 00f2 4FEA0363 		lsl	r3, r3, #24
 1787 00f6 9B1A     		subs	r3, r3, r2
 1788 00f8 4FEA0323 		lsl	r3, r3, #8
 1789 00fc 03F57F33 		add	r3, r3, #261120
 1790 0100 03F57573 		add	r3, r3, #980
 1791 0104 7B61     		str	r3, [r7, #20]
1415:.\Generated_Source\PSoC5/Bootloader_1.c ****         break;
 1792              		.loc 1 1415 0
 1793 0106 07E0     		b	.L112
 1794              	.L103:
1416:.\Generated_Source\PSoC5/Bootloader_1.c **** 
ARM GAS  C:\Users\Robert\AppData\Local\Temp\ccgj8kBb.s 			page 58


1417:.\Generated_Source\PSoC5/Bootloader_1.c ****     default:
1418:.\Generated_Source\PSoC5/Bootloader_1.c ****         /* Should never be here */
1419:.\Generated_Source\PSoC5/Bootloader_1.c ****         CYASSERT(0u != 0u);
 1795              		.loc 1 1419 0 discriminator 1
 1796 0108 4FF00000 		mov	r0, #0
 1797 010c FFF7FEFF 		bl	CyHalt
1420:.\Generated_Source\PSoC5/Bootloader_1.c ****         fieldPtr  = 0u;
 1798              		.loc 1 1420 0 discriminator 1
 1799 0110 4FF00003 		mov	r3, #0
 1800 0114 7B61     		str	r3, [r7, #20]
1421:.\Generated_Source\PSoC5/Bootloader_1.c ****         break;
 1801              		.loc 1 1421 0
 1802 0116 00BF     		nop
 1803              	.L112:
1422:.\Generated_Source\PSoC5/Bootloader_1.c ****     }
1423:.\Generated_Source\PSoC5/Bootloader_1.c **** 
1424:.\Generated_Source\PSoC5/Bootloader_1.c **** 
1425:.\Generated_Source\PSoC5/Bootloader_1.c ****     /* Read all fields as big-endian */
1426:.\Generated_Source\PSoC5/Bootloader_1.c ****     if (2u == fieldSize)
 1804              		.loc 1 1426 0
 1805 0118 FB7C     		ldrb	r3, [r7, #19]	@ zero_extendqisi2
 1806 011a 022B     		cmp	r3, #2
 1807 011c 0ED1     		bne	.L113
1427:.\Generated_Source\PSoC5/Bootloader_1.c ****     {
1428:.\Generated_Source\PSoC5/Bootloader_1.c ****         result =  (uint32) CY_GET_XTND_REG8((volatile uint8 *)(fieldPtr + 1u));
 1808              		.loc 1 1428 0
 1809 011e 7B69     		ldr	r3, [r7, #20]
 1810 0120 03F10103 		add	r3, r3, #1
 1811 0124 1B78     		ldrb	r3, [r3, #0]
 1812 0126 DBB2     		uxtb	r3, r3
 1813 0128 FB60     		str	r3, [r7, #12]
1429:.\Generated_Source\PSoC5/Bootloader_1.c ****         result |= (uint32) CY_GET_XTND_REG8((volatile uint8 *) fieldPtr      ) <<  8u;
 1814              		.loc 1 1429 0
 1815 012a 7B69     		ldr	r3, [r7, #20]
 1816 012c 1B78     		ldrb	r3, [r3, #0]
 1817 012e DBB2     		uxtb	r3, r3
 1818 0130 4FEA0323 		lsl	r3, r3, #8
 1819 0134 FA68     		ldr	r2, [r7, #12]
 1820 0136 1343     		orrs	r3, r3, r2
 1821 0138 FB60     		str	r3, [r7, #12]
 1822 013a 21E0     		b	.L114
 1823              	.L113:
1430:.\Generated_Source\PSoC5/Bootloader_1.c ****     }
1431:.\Generated_Source\PSoC5/Bootloader_1.c ****     else
1432:.\Generated_Source\PSoC5/Bootloader_1.c ****     {
1433:.\Generated_Source\PSoC5/Bootloader_1.c ****         result =  (uint32) CY_GET_XTND_REG8((volatile uint8 *)(fieldPtr + 3u));
 1824              		.loc 1 1433 0
 1825 013c 7B69     		ldr	r3, [r7, #20]
 1826 013e 03F10303 		add	r3, r3, #3
 1827 0142 1B78     		ldrb	r3, [r3, #0]
 1828 0144 DBB2     		uxtb	r3, r3
 1829 0146 FB60     		str	r3, [r7, #12]
1434:.\Generated_Source\PSoC5/Bootloader_1.c ****         result |= (uint32) CY_GET_XTND_REG8((volatile uint8 *)(fieldPtr + 2u)) <<  8u;
 1830              		.loc 1 1434 0
 1831 0148 7B69     		ldr	r3, [r7, #20]
 1832 014a 03F10203 		add	r3, r3, #2
 1833 014e 1B78     		ldrb	r3, [r3, #0]
ARM GAS  C:\Users\Robert\AppData\Local\Temp\ccgj8kBb.s 			page 59


 1834 0150 DBB2     		uxtb	r3, r3
 1835 0152 4FEA0323 		lsl	r3, r3, #8
 1836 0156 FA68     		ldr	r2, [r7, #12]
 1837 0158 1343     		orrs	r3, r3, r2
 1838 015a FB60     		str	r3, [r7, #12]
1435:.\Generated_Source\PSoC5/Bootloader_1.c ****         result |= (uint32) CY_GET_XTND_REG8((volatile uint8 *)(fieldPtr + 1u)) << 16u;
 1839              		.loc 1 1435 0
 1840 015c 7B69     		ldr	r3, [r7, #20]
 1841 015e 03F10103 		add	r3, r3, #1
 1842 0162 1B78     		ldrb	r3, [r3, #0]
 1843 0164 DBB2     		uxtb	r3, r3
 1844 0166 4FEA0343 		lsl	r3, r3, #16
 1845 016a FA68     		ldr	r2, [r7, #12]
 1846 016c 1343     		orrs	r3, r3, r2
 1847 016e FB60     		str	r3, [r7, #12]
1436:.\Generated_Source\PSoC5/Bootloader_1.c ****         result |= (uint32) CY_GET_XTND_REG8((volatile uint8 *)(fieldPtr     )) << 24u;
 1848              		.loc 1 1436 0
 1849 0170 7B69     		ldr	r3, [r7, #20]
 1850 0172 1B78     		ldrb	r3, [r3, #0]
 1851 0174 DBB2     		uxtb	r3, r3
 1852 0176 4FEA0363 		lsl	r3, r3, #24
 1853 017a FA68     		ldr	r2, [r7, #12]
 1854 017c 1343     		orrs	r3, r3, r2
 1855 017e FB60     		str	r3, [r7, #12]
 1856              	.L114:
1437:.\Generated_Source\PSoC5/Bootloader_1.c ****     }
1438:.\Generated_Source\PSoC5/Bootloader_1.c **** 
1439:.\Generated_Source\PSoC5/Bootloader_1.c ****     /* Following fields should be little-endian */
1440:.\Generated_Source\PSoC5/Bootloader_1.c **** #if(!CY_PSOC3)
1441:.\Generated_Source\PSoC5/Bootloader_1.c ****     switch (fieldName)
 1857              		.loc 1 1441 0
 1858 0180 FB79     		ldrb	r3, [r7, #7]	@ zero_extendqisi2
 1859 0182 022B     		cmp	r3, #2
 1860 0184 04D0     		beq	.L117
 1861 0186 032B     		cmp	r3, #3
 1862 0188 0FD0     		beq	.L116
 1863 018a 012B     		cmp	r3, #1
 1864 018c 0DD0     		beq	.L116
 1865 018e 21E0     		b	.L120
 1866              	.L117:
1442:.\Generated_Source\PSoC5/Bootloader_1.c ****     {
1443:.\Generated_Source\PSoC5/Bootloader_1.c ****     case Bootloader_1_GET_METADATA_BTLDR_LAST_ROW:
1444:.\Generated_Source\PSoC5/Bootloader_1.c ****         result = CYSWAP_ENDIAN16(result);
 1867              		.loc 1 1444 0
 1868 0190 FB68     		ldr	r3, [r7, #12]
 1869 0192 9BB2     		uxth	r3, r3
 1870 0194 4FEA0323 		lsl	r3, r3, #8
 1871 0198 9AB2     		uxth	r2, r3
 1872 019a FB68     		ldr	r3, [r7, #12]
 1873 019c 4FEA1323 		lsr	r3, r3, #8
 1874 01a0 9BB2     		uxth	r3, r3
 1875 01a2 1343     		orrs	r3, r3, r2
 1876 01a4 9BB2     		uxth	r3, r3
 1877 01a6 FB60     		str	r3, [r7, #12]
1445:.\Generated_Source\PSoC5/Bootloader_1.c ****         break;
 1878              		.loc 1 1445 0
 1879 01a8 15E0     		b	.L118
ARM GAS  C:\Users\Robert\AppData\Local\Temp\ccgj8kBb.s 			page 60


 1880              	.L116:
1446:.\Generated_Source\PSoC5/Bootloader_1.c **** 
1447:.\Generated_Source\PSoC5/Bootloader_1.c ****     case Bootloader_1_GET_METADATA_BTLDB_ADDR:
1448:.\Generated_Source\PSoC5/Bootloader_1.c ****     case Bootloader_1_GET_METADATA_BTLDB_LENGTH:
1449:.\Generated_Source\PSoC5/Bootloader_1.c ****         result = CYSWAP_ENDIAN32(result);
 1881              		.loc 1 1449 0
 1882 01aa FB68     		ldr	r3, [r7, #12]
 1883 01ac 4FEA1362 		lsr	r2, r3, #24
 1884 01b0 FB68     		ldr	r3, [r7, #12]
 1885 01b2 03F47F03 		and	r3, r3, #16711680
 1886 01b6 4FEA1323 		lsr	r3, r3, #8
 1887 01ba 1A43     		orrs	r2, r2, r3
 1888 01bc FB68     		ldr	r3, [r7, #12]
 1889 01be 03F47F43 		and	r3, r3, #65280
 1890 01c2 4FEA0323 		lsl	r3, r3, #8
 1891 01c6 1A43     		orrs	r2, r2, r3
 1892 01c8 FB68     		ldr	r3, [r7, #12]
 1893 01ca 4FEA0363 		lsl	r3, r3, #24
 1894 01ce 1343     		orrs	r3, r3, r2
 1895 01d0 FB60     		str	r3, [r7, #12]
1450:.\Generated_Source\PSoC5/Bootloader_1.c ****         break;
 1896              		.loc 1 1450 0
 1897 01d2 00E0     		b	.L118
 1898              	.L120:
1451:.\Generated_Source\PSoC5/Bootloader_1.c **** 
1452:.\Generated_Source\PSoC5/Bootloader_1.c ****     default:
1453:.\Generated_Source\PSoC5/Bootloader_1.c ****         break;
 1899              		.loc 1 1453 0
 1900 01d4 00BF     		nop
 1901              	.L118:
1454:.\Generated_Source\PSoC5/Bootloader_1.c ****     }
1455:.\Generated_Source\PSoC5/Bootloader_1.c **** 
1456:.\Generated_Source\PSoC5/Bootloader_1.c **** #endif  /* (!CY_PSOC3) */
1457:.\Generated_Source\PSoC5/Bootloader_1.c **** 
1458:.\Generated_Source\PSoC5/Bootloader_1.c ****     return (result);
 1902              		.loc 1 1458 0
 1903 01d6 FB68     		ldr	r3, [r7, #12]
1459:.\Generated_Source\PSoC5/Bootloader_1.c **** }
 1904              		.loc 1 1459 0
 1905 01d8 1846     		mov	r0, r3
 1906 01da 07F11807 		add	r7, r7, #24
 1907 01de BD46     		mov	sp, r7
 1908 01e0 80BD     		pop	{r7, pc}
 1909              		.cfi_endproc
 1910              	.LFE67:
 1911              		.size	Bootloader_1_GetMetadata, .-Bootloader_1_GetMetadata
 1912 01e2 00BF     		.text
 1913              	.Letext0:
 1914              		.file 2 "c:\\program files (x86)\\cypress\\psoc creator\\3.0\\psoc creator\\import\\gnu_cs\\arm\\4
 1915              		.file 3 ".\\Generated_Source\\PSoC5\\cytypes.h"
 1916              		.file 4 ".\\Generated_Source\\PSoC5\\Bootloader_1_PVT.h"
 1917              		.file 5 "./Generated_Source/PSoC5/core_cm3.h"