ARM GAS  C:\Users\Robert\AppData\Local\Temp\ccgj8kBb.s 			page 1


   1              		.syntax unified
   2              		.cpu cortex-m3
   3              		.fpu softvfp
   4              		.eabi_attribute 20, 1
   5              		.eabi_attribute 21, 1
   6              		.eabi_attribute 23, 3
   7              		.eabi_attribute 24, 1
   8              		.eabi_attribute 25, 1
   9              		.eabi_attribute 26, 1
  10              		.eabi_attribute 30, 6
  11              		.eabi_attribute 34, 1
  12              		.eabi_attribute 18, 4
  13              		.thumb
  14              		.file	"Bootloader_1.c"
  15              		.text
  16              	.Ltext0:
  17              		.cfi_sections	.debug_frame
  18              		.global	Bootloader_1_Checksum
  19              		.section	.bootloader,"a",%progbits
  20              		.type	Bootloader_1_Checksum, %object
  21              		.size	Bootloader_1_Checksum, 1
  22              	Bootloader_1_Checksum:
  23 0000 00       		.space	1
  24              		.global	Bootloader_1_ChecksumAccess
  25              		.data
  26              		.align	2
  27              		.type	Bootloader_1_ChecksumAccess, %object
  28              		.size	Bootloader_1_ChecksumAccess, 4
  29              	Bootloader_1_ChecksumAccess:
  30 0000 00000000 		.word	Bootloader_1_Checksum
  31              		.global	Bootloader_1_SizeBytes
  32              		.section	.bootloader
  33 0001 000000   		.align	2
  34              		.type	Bootloader_1_SizeBytes, %object
  35              		.size	Bootloader_1_SizeBytes, 4
  36              	Bootloader_1_SizeBytes:
  37 0004 FFFFFFFF 		.word	-1
  38              		.global	Bootloader_1_SizeBytesAccess
  39              		.data
  40              		.align	2
  41              		.type	Bootloader_1_SizeBytesAccess, %object
  42              		.size	Bootloader_1_SizeBytesAccess, 4
  43              	Bootloader_1_SizeBytesAccess:
  44 0004 00000000 		.word	Bootloader_1_SizeBytes
  45              		.section	.text.Bootloader_1_CalcPacketChecksum,"ax",%progbits
  46              		.align	2
  47              		.thumb
  48              		.thumb_func
  49              		.type	Bootloader_1_CalcPacketChecksum, %function
  50              	Bootloader_1_CalcPacketChecksum:
  51              	.LFB56:
  52              		.file 1 ".\\Generated_Source\\PSoC5\\Bootloader_1.c"
   1:.\Generated_Source\PSoC5/Bootloader_1.c **** /*******************************************************************************
   2:.\Generated_Source\PSoC5/Bootloader_1.c **** * File Name: Bootloader_1.c
   3:.\Generated_Source\PSoC5/Bootloader_1.c **** * Version 1.20
   4:.\Generated_Source\PSoC5/Bootloader_1.c **** *
   5:.\Generated_Source\PSoC5/Bootloader_1.c **** *  Description:
ARM GAS  C:\Users\Robert\AppData\Local\Temp\ccgj8kBb.s 			page 2


   6:.\Generated_Source\PSoC5/Bootloader_1.c **** *   Provides an API for the Bootloader component. The API includes functions
   7:.\Generated_Source\PSoC5/Bootloader_1.c **** *   for starting boot loading operations, validating the application and
   8:.\Generated_Source\PSoC5/Bootloader_1.c **** *   jumping to the application.
   9:.\Generated_Source\PSoC5/Bootloader_1.c **** *
  10:.\Generated_Source\PSoC5/Bootloader_1.c **** ********************************************************************************
  11:.\Generated_Source\PSoC5/Bootloader_1.c **** * Copyright 2008-2013, Cypress Semiconductor Corporation.  All rights reserved.
  12:.\Generated_Source\PSoC5/Bootloader_1.c **** * You may use this file only in accordance with the license, terms, conditions,
  13:.\Generated_Source\PSoC5/Bootloader_1.c **** * disclaimers, and limitations in the end user license agreement accompanying
  14:.\Generated_Source\PSoC5/Bootloader_1.c **** * the software package with which this file was provided.
  15:.\Generated_Source\PSoC5/Bootloader_1.c **** *******************************************************************************/
  16:.\Generated_Source\PSoC5/Bootloader_1.c **** 
  17:.\Generated_Source\PSoC5/Bootloader_1.c **** #include "Bootloader_1_PVT.h"
  18:.\Generated_Source\PSoC5/Bootloader_1.c **** 
  19:.\Generated_Source\PSoC5/Bootloader_1.c **** #include "project.h"
  20:.\Generated_Source\PSoC5/Bootloader_1.c **** #include <string.h>
  21:.\Generated_Source\PSoC5/Bootloader_1.c **** 
  22:.\Generated_Source\PSoC5/Bootloader_1.c **** 
  23:.\Generated_Source\PSoC5/Bootloader_1.c **** /*******************************************************************************
  24:.\Generated_Source\PSoC5/Bootloader_1.c **** * The Checksum and SizeBytes are forcefully set in code. We then post process
  25:.\Generated_Source\PSoC5/Bootloader_1.c **** * the hex file from the linker and inject their values then. When the hex file
  26:.\Generated_Source\PSoC5/Bootloader_1.c **** * is loaded onto the device these two variables should have valid values.
  27:.\Generated_Source\PSoC5/Bootloader_1.c **** * Because the compiler can do optimizations remove the constant
  28:.\Generated_Source\PSoC5/Bootloader_1.c **** * accesses, these should not be accessed directly. Instead, the variables
  29:.\Generated_Source\PSoC5/Bootloader_1.c **** * CyBtldr_ChecksumAccess & CyBtldr_SizeBytesAccess should be used to get the
  30:.\Generated_Source\PSoC5/Bootloader_1.c **** * proper values at runtime.
  31:.\Generated_Source\PSoC5/Bootloader_1.c **** *******************************************************************************/
  32:.\Generated_Source\PSoC5/Bootloader_1.c **** #if defined(__ARMCC_VERSION) || defined (__GNUC__)
  33:.\Generated_Source\PSoC5/Bootloader_1.c ****     __attribute__((section (".bootloader")))
  34:.\Generated_Source\PSoC5/Bootloader_1.c **** #elif defined (__ICCARM__)
  35:.\Generated_Source\PSoC5/Bootloader_1.c ****     #pragma location=".bootloader"
  36:.\Generated_Source\PSoC5/Bootloader_1.c **** #endif  /* defined(__ARMCC_VERSION) || defined (__GNUC__) */
  37:.\Generated_Source\PSoC5/Bootloader_1.c **** 
  38:.\Generated_Source\PSoC5/Bootloader_1.c **** const uint8  CYCODE Bootloader_1_Checksum = 0u;
  39:.\Generated_Source\PSoC5/Bootloader_1.c **** const uint8  CYCODE *Bootloader_1_ChecksumAccess  = (const uint8  CYCODE *)(&Bootloader_1_Checksum)
  40:.\Generated_Source\PSoC5/Bootloader_1.c **** 
  41:.\Generated_Source\PSoC5/Bootloader_1.c **** #if defined(__ARMCC_VERSION) || defined (__GNUC__)
  42:.\Generated_Source\PSoC5/Bootloader_1.c ****     __attribute__((section (".bootloader")))
  43:.\Generated_Source\PSoC5/Bootloader_1.c **** #elif defined (__ICCARM__)
  44:.\Generated_Source\PSoC5/Bootloader_1.c ****     #pragma location=".bootloader"
  45:.\Generated_Source\PSoC5/Bootloader_1.c **** #endif  /* defined(__ARMCC_VERSION) || defined (__GNUC__) */
  46:.\Generated_Source\PSoC5/Bootloader_1.c **** 
  47:.\Generated_Source\PSoC5/Bootloader_1.c **** const uint32 CYCODE Bootloader_1_SizeBytes = 0xFFFFFFFFu;
  48:.\Generated_Source\PSoC5/Bootloader_1.c **** const uint32 CYCODE *Bootloader_1_SizeBytesAccess = (const uint32 CYCODE *)(&Bootloader_1_SizeBytes
  49:.\Generated_Source\PSoC5/Bootloader_1.c **** 
  50:.\Generated_Source\PSoC5/Bootloader_1.c **** 
  51:.\Generated_Source\PSoC5/Bootloader_1.c **** #if(0u != Bootloader_1_DUAL_APP_BOOTLOADER)
  52:.\Generated_Source\PSoC5/Bootloader_1.c ****     uint8 Bootloader_1_activeApp = Bootloader_1_MD_BTLDB_ACTIVE_NONE;
  53:.\Generated_Source\PSoC5/Bootloader_1.c **** #else
  54:.\Generated_Source\PSoC5/Bootloader_1.c ****     #define Bootloader_1_activeApp      (Bootloader_1_MD_BTLDB_ACTIVE_0)
  55:.\Generated_Source\PSoC5/Bootloader_1.c **** #endif  /* (0u != Bootloader_1_DUAL_APP_BOOTLOADER) */
  56:.\Generated_Source\PSoC5/Bootloader_1.c **** 
  57:.\Generated_Source\PSoC5/Bootloader_1.c **** 
  58:.\Generated_Source\PSoC5/Bootloader_1.c **** /***************************************
  59:.\Generated_Source\PSoC5/Bootloader_1.c **** *     Function Prototypes
  60:.\Generated_Source\PSoC5/Bootloader_1.c **** ***************************************/
  61:.\Generated_Source\PSoC5/Bootloader_1.c **** static cystatus Bootloader_1_WritePacket(uint8 status, uint8 buffer[], uint16 size) CYSMALL \
  62:.\Generated_Source\PSoC5/Bootloader_1.c ****                                     ;
ARM GAS  C:\Users\Robert\AppData\Local\Temp\ccgj8kBb.s 			page 3


  63:.\Generated_Source\PSoC5/Bootloader_1.c **** 
  64:.\Generated_Source\PSoC5/Bootloader_1.c **** static uint16   Bootloader_1_CalcPacketChecksum(const uint8 buffer[], uint16 size) CYSMALL \
  65:.\Generated_Source\PSoC5/Bootloader_1.c ****                                     ;
  66:.\Generated_Source\PSoC5/Bootloader_1.c **** 
  67:.\Generated_Source\PSoC5/Bootloader_1.c **** static uint8    Bootloader_1_Calc8BitFlashSum(uint32 start, uint32 size) CYSMALL \
  68:.\Generated_Source\PSoC5/Bootloader_1.c ****                                     ;
  69:.\Generated_Source\PSoC5/Bootloader_1.c **** #if(!CY_PSOC4)
  70:.\Generated_Source\PSoC5/Bootloader_1.c **** static uint8    Bootloader_1_Calc8BitEepromSum(uint32 start, uint32 size) CYSMALL \
  71:.\Generated_Source\PSoC5/Bootloader_1.c ****                                     ;
  72:.\Generated_Source\PSoC5/Bootloader_1.c **** #endif /* (!CY_PSOC4) */
  73:.\Generated_Source\PSoC5/Bootloader_1.c **** 
  74:.\Generated_Source\PSoC5/Bootloader_1.c **** static void     Bootloader_1_HostLink(uint8 timeOut) \
  75:.\Generated_Source\PSoC5/Bootloader_1.c ****                                     ;
  76:.\Generated_Source\PSoC5/Bootloader_1.c **** 
  77:.\Generated_Source\PSoC5/Bootloader_1.c **** static void     Bootloader_1_LaunchApplication(void) CYSMALL \
  78:.\Generated_Source\PSoC5/Bootloader_1.c ****                                     ;
  79:.\Generated_Source\PSoC5/Bootloader_1.c **** 
  80:.\Generated_Source\PSoC5/Bootloader_1.c **** static cystatus Bootloader_1_ValidateBootloadable(uint8 appId) CYSMALL \
  81:.\Generated_Source\PSoC5/Bootloader_1.c ****                                     ;
  82:.\Generated_Source\PSoC5/Bootloader_1.c **** 
  83:.\Generated_Source\PSoC5/Bootloader_1.c **** static uint32   Bootloader_1_GetMetadata(uint8 fieldName, uint8 appId)\
  84:.\Generated_Source\PSoC5/Bootloader_1.c ****                                     ;
  85:.\Generated_Source\PSoC5/Bootloader_1.c **** 
  86:.\Generated_Source\PSoC5/Bootloader_1.c **** #if(!CY_PSOC3)
  87:.\Generated_Source\PSoC5/Bootloader_1.c ****     /* Implementation for the PSoC 3 resides in a Bootloader_1_psoc3.a51 file.  */
  88:.\Generated_Source\PSoC5/Bootloader_1.c ****     static void     Bootloader_1_LaunchBootloadable(uint32 appAddr);
  89:.\Generated_Source\PSoC5/Bootloader_1.c **** #endif  /* (!CY_PSOC3) */
  90:.\Generated_Source\PSoC5/Bootloader_1.c **** 
  91:.\Generated_Source\PSoC5/Bootloader_1.c **** 
  92:.\Generated_Source\PSoC5/Bootloader_1.c **** /*******************************************************************************
  93:.\Generated_Source\PSoC5/Bootloader_1.c **** * Function Name: Bootloader_1_CalcPacketChecksum
  94:.\Generated_Source\PSoC5/Bootloader_1.c **** ********************************************************************************
  95:.\Generated_Source\PSoC5/Bootloader_1.c **** *
  96:.\Generated_Source\PSoC5/Bootloader_1.c **** * Summary:
  97:.\Generated_Source\PSoC5/Bootloader_1.c **** *  This computes the 16 bit checksum for the provided number of bytes contained
  98:.\Generated_Source\PSoC5/Bootloader_1.c **** *  in the provided buffer
  99:.\Generated_Source\PSoC5/Bootloader_1.c **** *
 100:.\Generated_Source\PSoC5/Bootloader_1.c **** * Parameters:
 101:.\Generated_Source\PSoC5/Bootloader_1.c **** *  buffer:
 102:.\Generated_Source\PSoC5/Bootloader_1.c **** *     The buffer containing the data to compute the checksum for
 103:.\Generated_Source\PSoC5/Bootloader_1.c **** *  size:
 104:.\Generated_Source\PSoC5/Bootloader_1.c **** *     The number of bytes in buffer to compute the checksum for
 105:.\Generated_Source\PSoC5/Bootloader_1.c **** *
 106:.\Generated_Source\PSoC5/Bootloader_1.c **** * Returns:
 107:.\Generated_Source\PSoC5/Bootloader_1.c **** *  16 bit checksum for the provided data
 108:.\Generated_Source\PSoC5/Bootloader_1.c **** *
 109:.\Generated_Source\PSoC5/Bootloader_1.c **** *******************************************************************************/
 110:.\Generated_Source\PSoC5/Bootloader_1.c **** static uint16 Bootloader_1_CalcPacketChecksum(const uint8 buffer[], uint16 size) \
 111:.\Generated_Source\PSoC5/Bootloader_1.c ****                     CYSMALL 
 112:.\Generated_Source\PSoC5/Bootloader_1.c **** {
  53              		.loc 1 112 0
  54              		.cfi_startproc
  55              		@ args = 0, pretend = 0, frame = 16
  56              		@ frame_needed = 1, uses_anonymous_args = 0
  57              		@ link register save eliminated.
  58 0000 80B4     		push	{r7}
  59              	.LCFI0:
ARM GAS  C:\Users\Robert\AppData\Local\Temp\ccgj8kBb.s 			page 4


  60              		.cfi_def_cfa_offset 4
  61              		.cfi_offset 7, -4
  62 0002 85B0     		sub	sp, sp, #20
  63              	.LCFI1:
  64              		.cfi_def_cfa_offset 24
  65 0004 00AF     		add	r7, sp, #0
  66              	.LCFI2:
  67              		.cfi_def_cfa_register 7
  68 0006 7860     		str	r0, [r7, #4]
  69 0008 0B46     		mov	r3, r1
  70 000a 7B80     		strh	r3, [r7, #2]	@ movhi
 113:.\Generated_Source\PSoC5/Bootloader_1.c ****     #if(0u != Bootloader_1_PACKET_CHECKSUM_CRC)
 114:.\Generated_Source\PSoC5/Bootloader_1.c **** 
 115:.\Generated_Source\PSoC5/Bootloader_1.c ****         uint16 CYDATA crc = Bootloader_1_CRC_CCITT_INITIAL_VALUE;
  71              		.loc 1 115 0
  72 000c 4FF6FF73 		movw	r3, #65535
  73 0010 FB81     		strh	r3, [r7, #14]	@ movhi
 116:.\Generated_Source\PSoC5/Bootloader_1.c ****         uint16 CYDATA tmp;
 117:.\Generated_Source\PSoC5/Bootloader_1.c ****         uint8  CYDATA i;
 118:.\Generated_Source\PSoC5/Bootloader_1.c ****         uint16 CYDATA tmpIndex = size;
  74              		.loc 1 118 0
  75 0012 7B88     		ldrh	r3, [r7, #2]	@ movhi
  76 0014 3B81     		strh	r3, [r7, #8]	@ movhi
 119:.\Generated_Source\PSoC5/Bootloader_1.c **** 
 120:.\Generated_Source\PSoC5/Bootloader_1.c ****         if(0u == size)
  77              		.loc 1 120 0
  78 0016 7B88     		ldrh	r3, [r7, #2]
  79 0018 002B     		cmp	r3, #0
  80 001a 04D1     		bne	.L2
 121:.\Generated_Source\PSoC5/Bootloader_1.c ****         {
 122:.\Generated_Source\PSoC5/Bootloader_1.c ****             crc = ~crc;
  81              		.loc 1 122 0
  82 001c FB89     		ldrh	r3, [r7, #14]	@ movhi
  83 001e 6FEA0303 		mvn	r3, r3
  84 0022 FB81     		strh	r3, [r7, #14]	@ movhi
  85 0024 42E0     		b	.L3
  86              	.L2:
 123:.\Generated_Source\PSoC5/Bootloader_1.c ****         }
 124:.\Generated_Source\PSoC5/Bootloader_1.c ****         else
 125:.\Generated_Source\PSoC5/Bootloader_1.c ****         {
 126:.\Generated_Source\PSoC5/Bootloader_1.c ****             do
 127:.\Generated_Source\PSoC5/Bootloader_1.c ****             {
 128:.\Generated_Source\PSoC5/Bootloader_1.c ****                 tmp = buffer[tmpIndex - size];
  87              		.loc 1 128 0
  88 0026 3A89     		ldrh	r2, [r7, #8]
  89 0028 7B88     		ldrh	r3, [r7, #2]
  90 002a D31A     		subs	r3, r2, r3
  91 002c 7A68     		ldr	r2, [r7, #4]
  92 002e D318     		adds	r3, r2, r3
  93 0030 1B78     		ldrb	r3, [r3, #0]	@ zero_extendqisi2
  94 0032 BB81     		strh	r3, [r7, #12]	@ movhi
 129:.\Generated_Source\PSoC5/Bootloader_1.c **** 
 130:.\Generated_Source\PSoC5/Bootloader_1.c ****                 for (i = 0u; i < 8u; i++)
  95              		.loc 1 130 0
  96 0034 4FF00003 		mov	r3, #0
  97 0038 FB72     		strb	r3, [r7, #11]
  98 003a 1DE0     		b	.L4
ARM GAS  C:\Users\Robert\AppData\Local\Temp\ccgj8kBb.s 			page 5


  99              	.L7:
 131:.\Generated_Source\PSoC5/Bootloader_1.c ****                 {
 132:.\Generated_Source\PSoC5/Bootloader_1.c ****                     if (0u != ((crc & 0x0001u) ^ (tmp & 0x0001u)))
 100              		.loc 1 132 0
 101 003c FA89     		ldrh	r2, [r7, #14]
 102 003e BB89     		ldrh	r3, [r7, #12]
 103 0040 5340     		eors	r3, r3, r2
 104 0042 03F00103 		and	r3, r3, #1
 105 0046 002B     		cmp	r3, #0
 106 0048 0AD0     		beq	.L5
 133:.\Generated_Source\PSoC5/Bootloader_1.c ****                     {
 134:.\Generated_Source\PSoC5/Bootloader_1.c ****                         crc = (crc >> 1u) ^ Bootloader_1_CRC_CCITT_POLYNOMIAL;
 107              		.loc 1 134 0
 108 004a FB89     		ldrh	r3, [r7, #14]
 109 004c 4FEA5303 		lsr	r3, r3, #1
 110 0050 9AB2     		uxth	r2, r3
 111 0052 48F20843 		movw	r3, #33800
 112 0056 CFF6FF73 		movt	r3, 65535
 113 005a 5340     		eors	r3, r3, r2
 114 005c FB81     		strh	r3, [r7, #14]	@ movhi
 115 005e 03E0     		b	.L6
 116              	.L5:
 135:.\Generated_Source\PSoC5/Bootloader_1.c ****                     }
 136:.\Generated_Source\PSoC5/Bootloader_1.c ****                     else
 137:.\Generated_Source\PSoC5/Bootloader_1.c ****                     {
 138:.\Generated_Source\PSoC5/Bootloader_1.c ****                         crc >>= 1u;
 117              		.loc 1 138 0
 118 0060 FB89     		ldrh	r3, [r7, #14]
 119 0062 4FEA5303 		lsr	r3, r3, #1
 120 0066 FB81     		strh	r3, [r7, #14]	@ movhi
 121              	.L6:
 139:.\Generated_Source\PSoC5/Bootloader_1.c ****                     }
 140:.\Generated_Source\PSoC5/Bootloader_1.c **** 
 141:.\Generated_Source\PSoC5/Bootloader_1.c ****                     tmp >>= 1u;
 122              		.loc 1 141 0
 123 0068 BB89     		ldrh	r3, [r7, #12]
 124 006a 4FEA5303 		lsr	r3, r3, #1
 125 006e BB81     		strh	r3, [r7, #12]	@ movhi
 130:.\Generated_Source\PSoC5/Bootloader_1.c ****                 for (i = 0u; i < 8u; i++)
 126              		.loc 1 130 0
 127 0070 FB7A     		ldrb	r3, [r7, #11]
 128 0072 03F10103 		add	r3, r3, #1
 129 0076 FB72     		strb	r3, [r7, #11]
 130              	.L4:
 130:.\Generated_Source\PSoC5/Bootloader_1.c ****                 for (i = 0u; i < 8u; i++)
 131              		.loc 1 130 0 is_stmt 0 discriminator 1
 132 0078 FB7A     		ldrb	r3, [r7, #11]	@ zero_extendqisi2
 133 007a 072B     		cmp	r3, #7
 134 007c DED9     		bls	.L7
 142:.\Generated_Source\PSoC5/Bootloader_1.c ****                 }
 143:.\Generated_Source\PSoC5/Bootloader_1.c **** 
 144:.\Generated_Source\PSoC5/Bootloader_1.c ****                 size--;
 135              		.loc 1 144 0 is_stmt 1
 136 007e 7B88     		ldrh	r3, [r7, #2]	@ movhi
 137 0080 03F1FF33 		add	r3, r3, #-1
 138 0084 7B80     		strh	r3, [r7, #2]	@ movhi
 145:.\Generated_Source\PSoC5/Bootloader_1.c ****             }
ARM GAS  C:\Users\Robert\AppData\Local\Temp\ccgj8kBb.s 			page 6


 146:.\Generated_Source\PSoC5/Bootloader_1.c ****             while(0u != size);
 139              		.loc 1 146 0
 140 0086 7B88     		ldrh	r3, [r7, #2]
 141 0088 002B     		cmp	r3, #0
 142 008a CCD1     		bne	.L2
 147:.\Generated_Source\PSoC5/Bootloader_1.c **** 
 148:.\Generated_Source\PSoC5/Bootloader_1.c ****             crc = ~crc;
 143              		.loc 1 148 0
 144 008c FB89     		ldrh	r3, [r7, #14]	@ movhi
 145 008e 6FEA0303 		mvn	r3, r3
 146 0092 FB81     		strh	r3, [r7, #14]	@ movhi
 149:.\Generated_Source\PSoC5/Bootloader_1.c ****             tmp = crc;
 147              		.loc 1 149 0
 148 0094 FB89     		ldrh	r3, [r7, #14]	@ movhi
 149 0096 BB81     		strh	r3, [r7, #12]	@ movhi
 150:.\Generated_Source\PSoC5/Bootloader_1.c ****             crc = ( uint16 )(crc << 8u) | (tmp >> 8u);
 150              		.loc 1 150 0
 151 0098 FB89     		ldrh	r3, [r7, #14]	@ movhi
 152 009a 4FEA0323 		lsl	r3, r3, #8
 153 009e 9AB2     		uxth	r2, r3
 154 00a0 BB89     		ldrh	r3, [r7, #12]
 155 00a2 4FEA1323 		lsr	r3, r3, #8
 156 00a6 9BB2     		uxth	r3, r3
 157 00a8 1343     		orrs	r3, r3, r2
 158 00aa FB81     		strh	r3, [r7, #14]	@ movhi
 159              	.L3:
 151:.\Generated_Source\PSoC5/Bootloader_1.c ****         }
 152:.\Generated_Source\PSoC5/Bootloader_1.c **** 
 153:.\Generated_Source\PSoC5/Bootloader_1.c ****         return(crc);
 160              		.loc 1 153 0
 161 00ac FB89     		ldrh	r3, [r7, #14]
 154:.\Generated_Source\PSoC5/Bootloader_1.c **** 
 155:.\Generated_Source\PSoC5/Bootloader_1.c ****     #else
 156:.\Generated_Source\PSoC5/Bootloader_1.c **** 
 157:.\Generated_Source\PSoC5/Bootloader_1.c ****         uint16 CYDATA sum = 0u;
 158:.\Generated_Source\PSoC5/Bootloader_1.c **** 
 159:.\Generated_Source\PSoC5/Bootloader_1.c ****         while (size > 0u)
 160:.\Generated_Source\PSoC5/Bootloader_1.c ****         {
 161:.\Generated_Source\PSoC5/Bootloader_1.c ****             sum += buffer[size - 1u];
 162:.\Generated_Source\PSoC5/Bootloader_1.c ****             size--;
 163:.\Generated_Source\PSoC5/Bootloader_1.c ****         }
 164:.\Generated_Source\PSoC5/Bootloader_1.c **** 
 165:.\Generated_Source\PSoC5/Bootloader_1.c ****         return(( uint16 )1u + ( uint16 )(~sum));
 166:.\Generated_Source\PSoC5/Bootloader_1.c **** 
 167:.\Generated_Source\PSoC5/Bootloader_1.c ****     #endif /* (0u != Bootloader_1_PACKET_CHECKSUM_CRC) */
 168:.\Generated_Source\PSoC5/Bootloader_1.c **** }
 162              		.loc 1 168 0
 163 00ae 1846     		mov	r0, r3
 164 00b0 07F11407 		add	r7, r7, #20
 165 00b4 BD46     		mov	sp, r7
 166 00b6 80BC     		pop	{r7}
 167 00b8 7047     		bx	lr
 168              		.cfi_endproc
 169              	.LFE56:
 170              		.size	Bootloader_1_CalcPacketChecksum, .-Bootloader_1_CalcPacketChecksum
 171 00ba 00BF     		.section	.text.Bootloader_1_Calc8BitFlashSum,"ax",%progbits
 172              		.align	2
ARM GAS  C:\Users\Robert\AppData\Local\Temp\ccgj8kBb.s 			page 7


 173              		.thumb
 174              		.thumb_func
 175              		.type	Bootloader_1_Calc8BitFlashSum, %function
 176              	Bootloader_1_Calc8BitFlashSum:
 177              	.LFB57:
 169:.\Generated_Source\PSoC5/Bootloader_1.c **** 
 170:.\Generated_Source\PSoC5/Bootloader_1.c **** 
 171:.\Generated_Source\PSoC5/Bootloader_1.c **** /*******************************************************************************
 172:.\Generated_Source\PSoC5/Bootloader_1.c **** * Function Name: Bootloader_1_Calc8BitFlashSum
 173:.\Generated_Source\PSoC5/Bootloader_1.c **** ********************************************************************************
 174:.\Generated_Source\PSoC5/Bootloader_1.c **** *
 175:.\Generated_Source\PSoC5/Bootloader_1.c **** * Summary:
 176:.\Generated_Source\PSoC5/Bootloader_1.c **** *  This computes the 8 bit sum for the provided number of bytes contained in
 177:.\Generated_Source\PSoC5/Bootloader_1.c **** *  flash.
 178:.\Generated_Source\PSoC5/Bootloader_1.c **** *
 179:.\Generated_Source\PSoC5/Bootloader_1.c **** * Parameters:
 180:.\Generated_Source\PSoC5/Bootloader_1.c **** *  start:
 181:.\Generated_Source\PSoC5/Bootloader_1.c **** *     The starting address to start summing data for
 182:.\Generated_Source\PSoC5/Bootloader_1.c **** *  size:
 183:.\Generated_Source\PSoC5/Bootloader_1.c **** *     The number of bytes to read and compute the sum for
 184:.\Generated_Source\PSoC5/Bootloader_1.c **** *
 185:.\Generated_Source\PSoC5/Bootloader_1.c **** * Returns:
 186:.\Generated_Source\PSoC5/Bootloader_1.c **** *   8 bit sum for the provided data
 187:.\Generated_Source\PSoC5/Bootloader_1.c **** *
 188:.\Generated_Source\PSoC5/Bootloader_1.c **** *******************************************************************************/
 189:.\Generated_Source\PSoC5/Bootloader_1.c **** static uint8 Bootloader_1_Calc8BitFlashSum(uint32 start, uint32 size) \
 190:.\Generated_Source\PSoC5/Bootloader_1.c ****                 CYSMALL 
 191:.\Generated_Source\PSoC5/Bootloader_1.c **** {
 178              		.loc 1 191 0
 179              		.cfi_startproc
 180              		@ args = 0, pretend = 0, frame = 16
 181              		@ frame_needed = 1, uses_anonymous_args = 0
 182              		@ link register save eliminated.
 183 0000 80B4     		push	{r7}
 184              	.LCFI3:
 185              		.cfi_def_cfa_offset 4
 186              		.cfi_offset 7, -4
 187 0002 85B0     		sub	sp, sp, #20
 188              	.LCFI4:
 189              		.cfi_def_cfa_offset 24
 190 0004 00AF     		add	r7, sp, #0
 191              	.LCFI5:
 192              		.cfi_def_cfa_register 7
 193 0006 7860     		str	r0, [r7, #4]
 194 0008 3960     		str	r1, [r7, #0]
 192:.\Generated_Source\PSoC5/Bootloader_1.c ****     uint8 CYDATA sum = 0u;
 195              		.loc 1 192 0
 196 000a 4FF00003 		mov	r3, #0
 197 000e FB73     		strb	r3, [r7, #15]
 193:.\Generated_Source\PSoC5/Bootloader_1.c **** 
 194:.\Generated_Source\PSoC5/Bootloader_1.c ****     while (size > 0u)
 198              		.loc 1 194 0
 199 0010 0AE0     		b	.L10
 200              	.L11:
 195:.\Generated_Source\PSoC5/Bootloader_1.c ****     {
 196:.\Generated_Source\PSoC5/Bootloader_1.c ****         size--;
 201              		.loc 1 196 0
ARM GAS  C:\Users\Robert\AppData\Local\Temp\ccgj8kBb.s 			page 8


 202 0012 3B68     		ldr	r3, [r7, #0]
 203 0014 03F1FF33 		add	r3, r3, #-1
 204 0018 3B60     		str	r3, [r7, #0]
 197:.\Generated_Source\PSoC5/Bootloader_1.c ****         sum += Bootloader_1_GET_CODE_BYTE(start + size);
 205              		.loc 1 197 0
 206 001a 7A68     		ldr	r2, [r7, #4]
 207 001c 3B68     		ldr	r3, [r7, #0]
 208 001e D318     		adds	r3, r2, r3
 209 0020 1A78     		ldrb	r2, [r3, #0]	@ zero_extendqisi2
 210 0022 FB7B     		ldrb	r3, [r7, #15]
 211 0024 D318     		adds	r3, r2, r3
 212 0026 FB73     		strb	r3, [r7, #15]
 213              	.L10:
 194:.\Generated_Source\PSoC5/Bootloader_1.c ****     while (size > 0u)
 214              		.loc 1 194 0 discriminator 1
 215 0028 3B68     		ldr	r3, [r7, #0]
 216 002a 002B     		cmp	r3, #0
 217 002c F1D1     		bne	.L11
 198:.\Generated_Source\PSoC5/Bootloader_1.c ****     }
 199:.\Generated_Source\PSoC5/Bootloader_1.c **** 
 200:.\Generated_Source\PSoC5/Bootloader_1.c ****     return(sum);
 218              		.loc 1 200 0
 219 002e FB7B     		ldrb	r3, [r7, #15]	@ zero_extendqisi2
 201:.\Generated_Source\PSoC5/Bootloader_1.c **** }
 220              		.loc 1 201 0
 221 0030 1846     		mov	r0, r3
 222 0032 07F11407 		add	r7, r7, #20
 223 0036 BD46     		mov	sp, r7
 224 0038 80BC     		pop	{r7}
 225 003a 7047     		bx	lr
 226              		.cfi_endproc
 227              	.LFE57:
 228              		.size	Bootloader_1_Calc8BitFlashSum, .-Bootloader_1_Calc8BitFlashSum
 229              		.section	.text.Bootloader_1_Calc8BitEepromSum,"ax",%progbits
 230              		.align	2
 231              		.thumb
 232              		.thumb_func
 233              		.type	Bootloader_1_Calc8BitEepromSum, %function
 234              	Bootloader_1_Calc8BitEepromSum:
 235              	.LFB58:
 202:.\Generated_Source\PSoC5/Bootloader_1.c **** 
 203:.\Generated_Source\PSoC5/Bootloader_1.c **** 
 204:.\Generated_Source\PSoC5/Bootloader_1.c **** #if(!CY_PSOC4)
 205:.\Generated_Source\PSoC5/Bootloader_1.c **** 
 206:.\Generated_Source\PSoC5/Bootloader_1.c ****     /*******************************************************************************
 207:.\Generated_Source\PSoC5/Bootloader_1.c ****     * Function Name: Bootloader_1_Calc8BitEepromSum
 208:.\Generated_Source\PSoC5/Bootloader_1.c ****     ********************************************************************************
 209:.\Generated_Source\PSoC5/Bootloader_1.c ****     *
 210:.\Generated_Source\PSoC5/Bootloader_1.c ****     * Summary:
 211:.\Generated_Source\PSoC5/Bootloader_1.c ****     *  This computes the 8 bit sum for the provided number of bytes contained in
 212:.\Generated_Source\PSoC5/Bootloader_1.c ****     *  EEPROM.
 213:.\Generated_Source\PSoC5/Bootloader_1.c ****     *
 214:.\Generated_Source\PSoC5/Bootloader_1.c ****     * Parameters:
 215:.\Generated_Source\PSoC5/Bootloader_1.c ****     *  start:
 216:.\Generated_Source\PSoC5/Bootloader_1.c ****     *     The starting address to start summing data for
 217:.\Generated_Source\PSoC5/Bootloader_1.c ****     *  size:
 218:.\Generated_Source\PSoC5/Bootloader_1.c ****     *     The number of bytes to read and compute the sum for
ARM GAS  C:\Users\Robert\AppData\Local\Temp\ccgj8kBb.s 			page 9


 219:.\Generated_Source\PSoC5/Bootloader_1.c ****     *
 220:.\Generated_Source\PSoC5/Bootloader_1.c ****     * Returns:
 221:.\Generated_Source\PSoC5/Bootloader_1.c ****     *   8 bit sum for the provided data
 222:.\Generated_Source\PSoC5/Bootloader_1.c ****     *
 223:.\Generated_Source\PSoC5/Bootloader_1.c ****     *******************************************************************************/
 224:.\Generated_Source\PSoC5/Bootloader_1.c ****     static uint8 Bootloader_1_Calc8BitEepromSum(uint32 start, uint32 size) \
 225:.\Generated_Source\PSoC5/Bootloader_1.c ****                     CYSMALL 
 226:.\Generated_Source\PSoC5/Bootloader_1.c ****     {
 236              		.loc 1 226 0
 237              		.cfi_startproc
 238              		@ args = 0, pretend = 0, frame = 16
 239              		@ frame_needed = 1, uses_anonymous_args = 0
 240              		@ link register save eliminated.
 241 0000 80B4     		push	{r7}
 242              	.LCFI6:
 243              		.cfi_def_cfa_offset 4
 244              		.cfi_offset 7, -4
 245 0002 85B0     		sub	sp, sp, #20
 246              	.LCFI7:
 247              		.cfi_def_cfa_offset 24
 248 0004 00AF     		add	r7, sp, #0
 249              	.LCFI8:
 250              		.cfi_def_cfa_register 7
 251 0006 7860     		str	r0, [r7, #4]
 252 0008 3960     		str	r1, [r7, #0]
 227:.\Generated_Source\PSoC5/Bootloader_1.c ****         uint8 CYDATA sum = 0u;
 253              		.loc 1 227 0
 254 000a 4FF00003 		mov	r3, #0
 255 000e FB73     		strb	r3, [r7, #15]
 228:.\Generated_Source\PSoC5/Bootloader_1.c **** 
 229:.\Generated_Source\PSoC5/Bootloader_1.c ****         while (size > 0u)
 256              		.loc 1 229 0
 257 0010 0EE0     		b	.L14
 258              	.L15:
 230:.\Generated_Source\PSoC5/Bootloader_1.c ****         {
 231:.\Generated_Source\PSoC5/Bootloader_1.c ****             size--;
 259              		.loc 1 231 0
 260 0012 3B68     		ldr	r3, [r7, #0]
 261 0014 03F1FF33 		add	r3, r3, #-1
 262 0018 3B60     		str	r3, [r7, #0]
 232:.\Generated_Source\PSoC5/Bootloader_1.c ****             sum += Bootloader_1_GET_EEPROM_BYTE(start + size);
 263              		.loc 1 232 0
 264 001a 7A68     		ldr	r2, [r7, #4]
 265 001c 3B68     		ldr	r3, [r7, #0]
 266 001e D318     		adds	r3, r2, r3
 267 0020 03F18043 		add	r3, r3, #1073741824
 268 0024 03F50043 		add	r3, r3, #32768
 269 0028 1A78     		ldrb	r2, [r3, #0]	@ zero_extendqisi2
 270 002a FB7B     		ldrb	r3, [r7, #15]
 271 002c D318     		adds	r3, r2, r3
 272 002e FB73     		strb	r3, [r7, #15]
 273              	.L14:
 229:.\Generated_Source\PSoC5/Bootloader_1.c ****         while (size > 0u)
 274              		.loc 1 229 0 discriminator 1
 275 0030 3B68     		ldr	r3, [r7, #0]
 276 0032 002B     		cmp	r3, #0
 277 0034 EDD1     		bne	.L15
ARM GAS  C:\Users\Robert\AppData\Local\Temp\ccgj8kBb.s 			page 10


 233:.\Generated_Source\PSoC5/Bootloader_1.c ****         }
 234:.\Generated_Source\PSoC5/Bootloader_1.c **** 
 235:.\Generated_Source\PSoC5/Bootloader_1.c ****         return(sum);
 278              		.loc 1 235 0
 279 0036 FB7B     		ldrb	r3, [r7, #15]	@ zero_extendqisi2
 236:.\Generated_Source\PSoC5/Bootloader_1.c ****     }
 280              		.loc 1 236 0
 281 0038 1846     		mov	r0, r3
 282 003a 07F11407 		add	r7, r7, #20
 283 003e BD46     		mov	sp, r7
 284 0040 80BC     		pop	{r7}
 285 0042 7047     		bx	lr
 286              		.cfi_endproc
 287              	.LFE58:
 288              		.size	Bootloader_1_Calc8BitEepromSum, .-Bootloader_1_Calc8BitEepromSum
 289              		.section	.text.Bootloader_1_Start,"ax",%progbits
 290              		.align	2
 291              		.global	Bootloader_1_Start
 292              		.thumb
 293              		.thumb_func
 294              		.type	Bootloader_1_Start, %function
 295              	Bootloader_1_Start:
 296              	.LFB59:
 237:.\Generated_Source\PSoC5/Bootloader_1.c **** 
 238:.\Generated_Source\PSoC5/Bootloader_1.c **** #endif  /* (!CY_PSOC4) */
 239:.\Generated_Source\PSoC5/Bootloader_1.c **** 
 240:.\Generated_Source\PSoC5/Bootloader_1.c **** 
 241:.\Generated_Source\PSoC5/Bootloader_1.c **** /*******************************************************************************
 242:.\Generated_Source\PSoC5/Bootloader_1.c **** * Function Name: Bootloader_1_Start
 243:.\Generated_Source\PSoC5/Bootloader_1.c **** ********************************************************************************
 244:.\Generated_Source\PSoC5/Bootloader_1.c **** * Summary:
 245:.\Generated_Source\PSoC5/Bootloader_1.c **** *  This function is called in order executing following algorithm:
 246:.\Generated_Source\PSoC5/Bootloader_1.c **** *
 247:.\Generated_Source\PSoC5/Bootloader_1.c **** *  - Identify active bootloadable application (applicable only to
 248:.\Generated_Source\PSoC5/Bootloader_1.c **** *    Multi-application bootloader)
 249:.\Generated_Source\PSoC5/Bootloader_1.c **** *
 250:.\Generated_Source\PSoC5/Bootloader_1.c **** *  - Validate bootloader application (desing-time configurable, Bootloader
 251:.\Generated_Source\PSoC5/Bootloader_1.c **** *    application validation option of the component customizer)
 252:.\Generated_Source\PSoC5/Bootloader_1.c **** *
 253:.\Generated_Source\PSoC5/Bootloader_1.c **** *  - Validate active bootloadable application
 254:.\Generated_Source\PSoC5/Bootloader_1.c **** *
 255:.\Generated_Source\PSoC5/Bootloader_1.c **** *  - Run communication subroutine (desing-time configurable, Wait for command
 256:.\Generated_Source\PSoC5/Bootloader_1.c **** *    option of the component customizer)
 257:.\Generated_Source\PSoC5/Bootloader_1.c **** *
 258:.\Generated_Source\PSoC5/Bootloader_1.c **** *  - Schedule bootloadable and reset device
 259:.\Generated_Source\PSoC5/Bootloader_1.c **** *
 260:.\Generated_Source\PSoC5/Bootloader_1.c **** * Parameters:
 261:.\Generated_Source\PSoC5/Bootloader_1.c **** *  None
 262:.\Generated_Source\PSoC5/Bootloader_1.c **** *
 263:.\Generated_Source\PSoC5/Bootloader_1.c **** * Return:
 264:.\Generated_Source\PSoC5/Bootloader_1.c **** *  This method will never return. It will either load a new application and
 265:.\Generated_Source\PSoC5/Bootloader_1.c **** *  reset the device or it will jump directly to the existing application.
 266:.\Generated_Source\PSoC5/Bootloader_1.c **** *
 267:.\Generated_Source\PSoC5/Bootloader_1.c **** * Side Effects:
 268:.\Generated_Source\PSoC5/Bootloader_1.c **** *  If this method determines that the bootloader appliation itself is corrupt,
 269:.\Generated_Source\PSoC5/Bootloader_1.c **** *  this method will not return, instead it will simply hang the application.
 270:.\Generated_Source\PSoC5/Bootloader_1.c **** *
ARM GAS  C:\Users\Robert\AppData\Local\Temp\ccgj8kBb.s 			page 11


 271:.\Generated_Source\PSoC5/Bootloader_1.c **** *******************************************************************************/
 272:.\Generated_Source\PSoC5/Bootloader_1.c **** void Bootloader_1_Start(void) CYSMALL 
 273:.\Generated_Source\PSoC5/Bootloader_1.c **** {
 297              		.loc 1 273 0
 298              		.cfi_startproc
 299              		@ args = 0, pretend = 0, frame = 296
 300              		@ frame_needed = 1, uses_anonymous_args = 0
 301 0000 80B5     		push	{r7, lr}
 302              	.LCFI9:
 303              		.cfi_def_cfa_offset 8
 304              		.cfi_offset 7, -8
 305              		.cfi_offset 14, -4
 306 0002 CAB0     		sub	sp, sp, #296
 307              	.LCFI10:
 308              		.cfi_def_cfa_offset 304
 309 0004 00AF     		add	r7, sp, #0
 310              	.LCFI11:
 311              		.cfi_def_cfa_register 7
 274:.\Generated_Source\PSoC5/Bootloader_1.c ****     #if(0u != Bootloader_1_BOOTLOADER_APP_VALIDATION)
 275:.\Generated_Source\PSoC5/Bootloader_1.c ****         uint8 CYDATA calcedChecksum;
 276:.\Generated_Source\PSoC5/Bootloader_1.c ****     #endif    /* (0u != Bootloader_1_BOOTLOADER_APP_VALIDATION) */
 277:.\Generated_Source\PSoC5/Bootloader_1.c **** 
 278:.\Generated_Source\PSoC5/Bootloader_1.c ****     #if(!CY_PSOC4)
 279:.\Generated_Source\PSoC5/Bootloader_1.c ****         uint8 CYXDATA Bootloader_1_flashBuffer[Bootloader_1_FROW_SIZE];
 280:.\Generated_Source\PSoC5/Bootloader_1.c ****     #endif  /* (!CY_PSOC4) */
 281:.\Generated_Source\PSoC5/Bootloader_1.c **** 
 282:.\Generated_Source\PSoC5/Bootloader_1.c ****     cystatus tmpStatus;
 283:.\Generated_Source\PSoC5/Bootloader_1.c **** 
 284:.\Generated_Source\PSoC5/Bootloader_1.c **** 
 285:.\Generated_Source\PSoC5/Bootloader_1.c ****     /* Identify active bootloadable application */
 286:.\Generated_Source\PSoC5/Bootloader_1.c ****     #if(0u != Bootloader_1_DUAL_APP_BOOTLOADER)
 287:.\Generated_Source\PSoC5/Bootloader_1.c **** 
 288:.\Generated_Source\PSoC5/Bootloader_1.c ****         if(Bootloader_1_MD_BTLDB_ACTIVE_VALUE(0u) == Bootloader_1_MD_BTLDB_IS_ACTIVE)
 289:.\Generated_Source\PSoC5/Bootloader_1.c ****         {
 290:.\Generated_Source\PSoC5/Bootloader_1.c ****             Bootloader_1_activeApp = Bootloader_1_MD_BTLDB_ACTIVE_0;
 291:.\Generated_Source\PSoC5/Bootloader_1.c ****         }
 292:.\Generated_Source\PSoC5/Bootloader_1.c ****         else if (Bootloader_1_MD_BTLDB_ACTIVE_VALUE(1u) == Bootloader_1_MD_BTLDB_IS_ACTIVE)
 293:.\Generated_Source\PSoC5/Bootloader_1.c ****         {
 294:.\Generated_Source\PSoC5/Bootloader_1.c ****             Bootloader_1_activeApp = Bootloader_1_MD_BTLDB_ACTIVE_1;
 295:.\Generated_Source\PSoC5/Bootloader_1.c ****         }
 296:.\Generated_Source\PSoC5/Bootloader_1.c ****         else
 297:.\Generated_Source\PSoC5/Bootloader_1.c ****         {
 298:.\Generated_Source\PSoC5/Bootloader_1.c ****             Bootloader_1_activeApp = Bootloader_1_MD_BTLDB_ACTIVE_NONE;
 299:.\Generated_Source\PSoC5/Bootloader_1.c ****         }
 300:.\Generated_Source\PSoC5/Bootloader_1.c **** 
 301:.\Generated_Source\PSoC5/Bootloader_1.c ****     #endif  /* (0u != Bootloader_1_DUAL_APP_BOOTLOADER) */
 302:.\Generated_Source\PSoC5/Bootloader_1.c **** 
 303:.\Generated_Source\PSoC5/Bootloader_1.c **** 
 304:.\Generated_Source\PSoC5/Bootloader_1.c ****     /* Initialize Flash subsystem for non-PSoC 4 devices */
 305:.\Generated_Source\PSoC5/Bootloader_1.c ****     #if(!CY_PSOC4)
 306:.\Generated_Source\PSoC5/Bootloader_1.c ****         if (CYRET_SUCCESS != CySetTemp())
 312              		.loc 1 306 0
 313 0006 FFF7FEFF 		bl	CySetTemp
 314 000a 0346     		mov	r3, r0
 315 000c 002B     		cmp	r3, #0
 316 000e 03D0     		beq	.L18
 307:.\Generated_Source\PSoC5/Bootloader_1.c ****         {
ARM GAS  C:\Users\Robert\AppData\Local\Temp\ccgj8kBb.s 			page 12


 308:.\Generated_Source\PSoC5/Bootloader_1.c ****             CyHalt(0x00u);
 317              		.loc 1 308 0
 318 0010 4FF00000 		mov	r0, #0
 319 0014 FFF7FEFF 		bl	CyHalt
 320              	.L18:
 309:.\Generated_Source\PSoC5/Bootloader_1.c ****         }
 310:.\Generated_Source\PSoC5/Bootloader_1.c **** 
 311:.\Generated_Source\PSoC5/Bootloader_1.c ****         if (CYRET_SUCCESS != CySetFlashEEBuffer(Bootloader_1_flashBuffer))
 321              		.loc 1 311 0
 322 0018 3B46     		mov	r3, r7
 323 001a 1846     		mov	r0, r3
 324 001c FFF7FEFF 		bl	CySetFlashEEBuffer
 325 0020 0346     		mov	r3, r0
 326 0022 002B     		cmp	r3, #0
 327 0024 03D0     		beq	.L19
 312:.\Generated_Source\PSoC5/Bootloader_1.c ****         {
 313:.\Generated_Source\PSoC5/Bootloader_1.c ****             CyHalt(0x00u);
 328              		.loc 1 313 0
 329 0026 4FF00000 		mov	r0, #0
 330 002a FFF7FEFF 		bl	CyHalt
 331              	.L19:
 314:.\Generated_Source\PSoC5/Bootloader_1.c ****         }
 315:.\Generated_Source\PSoC5/Bootloader_1.c ****     #endif  /* (CY_PSOC4) */
 316:.\Generated_Source\PSoC5/Bootloader_1.c **** 
 317:.\Generated_Source\PSoC5/Bootloader_1.c **** 
 318:.\Generated_Source\PSoC5/Bootloader_1.c ****     /***********************************************************************
 319:.\Generated_Source\PSoC5/Bootloader_1.c ****     * Bootloader Application Validation
 320:.\Generated_Source\PSoC5/Bootloader_1.c ****     *
 321:.\Generated_Source\PSoC5/Bootloader_1.c ****     * Halt device if:
 322:.\Generated_Source\PSoC5/Bootloader_1.c ****     *  - Calculated checksum does not much one stored in metadata section
 323:.\Generated_Source\PSoC5/Bootloader_1.c ****     *  - Invalid pointer to the place where bootloader application ends
 324:.\Generated_Source\PSoC5/Bootloader_1.c ****     *  - Flash subsystem where not initialized correctly
 325:.\Generated_Source\PSoC5/Bootloader_1.c ****     ***********************************************************************/
 326:.\Generated_Source\PSoC5/Bootloader_1.c ****     #if(0u != Bootloader_1_BOOTLOADER_APP_VALIDATION)
 327:.\Generated_Source\PSoC5/Bootloader_1.c **** 
 328:.\Generated_Source\PSoC5/Bootloader_1.c ****         /* Calculate Bootloader application checksum */
 329:.\Generated_Source\PSoC5/Bootloader_1.c ****         calcedChecksum = Bootloader_1_Calc8BitFlashSum(Bootloader_1_MD_BTLDR_ADDR_PTR,
 332              		.loc 1 329 0
 333 002e 40F20003 		movw	r3, #:lower16:Bootloader_1_SizeBytesAccess
 334 0032 C0F20003 		movt	r3, #:upper16:Bootloader_1_SizeBytesAccess
 335 0036 1B68     		ldr	r3, [r3, #0]
 336 0038 1B68     		ldr	r3, [r3, #0]
 337 003a 4FF00000 		mov	r0, #0
 338 003e 1946     		mov	r1, r3
 339 0040 FFF7FEFF 		bl	Bootloader_1_Calc8BitFlashSum
 340 0044 0346     		mov	r3, r0
 341 0046 87F82731 		strb	r3, [r7, #295]
 330:.\Generated_Source\PSoC5/Bootloader_1.c ****                 *Bootloader_1_SizeBytesAccess - Bootloader_1_MD_BTLDR_ADDR_PTR);
 331:.\Generated_Source\PSoC5/Bootloader_1.c **** 
 332:.\Generated_Source\PSoC5/Bootloader_1.c ****         /* we actually included the checksum, so remove it */
 333:.\Generated_Source\PSoC5/Bootloader_1.c ****         calcedChecksum -= *Bootloader_1_ChecksumAccess;
 342              		.loc 1 333 0
 343 004a 40F20003 		movw	r3, #:lower16:Bootloader_1_ChecksumAccess
 344 004e C0F20003 		movt	r3, #:upper16:Bootloader_1_ChecksumAccess
 345 0052 1B68     		ldr	r3, [r3, #0]
 346 0054 1B78     		ldrb	r3, [r3, #0]	@ zero_extendqisi2
 347 0056 97F82721 		ldrb	r2, [r7, #295]
ARM GAS  C:\Users\Robert\AppData\Local\Temp\ccgj8kBb.s 			page 13


 348 005a D31A     		subs	r3, r2, r3
 349 005c 87F82731 		strb	r3, [r7, #295]
 334:.\Generated_Source\PSoC5/Bootloader_1.c ****         calcedChecksum = ( uint8 )1u + ( uint8 )(~calcedChecksum);
 350              		.loc 1 334 0
 351 0060 97F82731 		ldrb	r3, [r7, #295]
 352 0064 C3F10003 		rsb	r3, r3, #0
 353 0068 87F82731 		strb	r3, [r7, #295]
 335:.\Generated_Source\PSoC5/Bootloader_1.c **** 
 336:.\Generated_Source\PSoC5/Bootloader_1.c ****         /* Checksum and pointer to bootloader verification */
 337:.\Generated_Source\PSoC5/Bootloader_1.c ****         if((calcedChecksum != *Bootloader_1_ChecksumAccess) ||
 354              		.loc 1 337 0
 355 006c 40F20003 		movw	r3, #:lower16:Bootloader_1_ChecksumAccess
 356 0070 C0F20003 		movt	r3, #:upper16:Bootloader_1_ChecksumAccess
 357 0074 1B68     		ldr	r3, [r3, #0]
 358 0076 1B78     		ldrb	r3, [r3, #0]	@ zero_extendqisi2
 359 0078 97F82721 		ldrb	r2, [r7, #295]	@ zero_extendqisi2
 360 007c 9A42     		cmp	r2, r3
 361 007e 07D1     		bne	.L20
 338:.\Generated_Source\PSoC5/Bootloader_1.c ****            (0u == *Bootloader_1_SizeBytesAccess))
 362              		.loc 1 338 0 discriminator 1
 363 0080 40F20003 		movw	r3, #:lower16:Bootloader_1_SizeBytesAccess
 364 0084 C0F20003 		movt	r3, #:upper16:Bootloader_1_SizeBytesAccess
 365 0088 1B68     		ldr	r3, [r3, #0]
 366 008a 1B68     		ldr	r3, [r3, #0]
 337:.\Generated_Source\PSoC5/Bootloader_1.c ****         if((calcedChecksum != *Bootloader_1_ChecksumAccess) ||
 367              		.loc 1 337 0 discriminator 1
 368 008c 002B     		cmp	r3, #0
 369 008e 03D1     		bne	.L21
 370              	.L20:
 339:.\Generated_Source\PSoC5/Bootloader_1.c ****         {
 340:.\Generated_Source\PSoC5/Bootloader_1.c ****             CyHalt(0x00u);
 371              		.loc 1 340 0
 372 0090 4FF00000 		mov	r0, #0
 373 0094 FFF7FEFF 		bl	CyHalt
 374              	.L21:
 341:.\Generated_Source\PSoC5/Bootloader_1.c ****         }
 342:.\Generated_Source\PSoC5/Bootloader_1.c **** 
 343:.\Generated_Source\PSoC5/Bootloader_1.c ****     #endif  /* (0u != Bootloader_1_BOOTLOADER_APP_VALIDATION) */
 344:.\Generated_Source\PSoC5/Bootloader_1.c **** 
 345:.\Generated_Source\PSoC5/Bootloader_1.c **** 
 346:.\Generated_Source\PSoC5/Bootloader_1.c ****     /***********************************************************************
 347:.\Generated_Source\PSoC5/Bootloader_1.c ****     * Active Bootloadable Application Validation
 348:.\Generated_Source\PSoC5/Bootloader_1.c ****     *
 349:.\Generated_Source\PSoC5/Bootloader_1.c ****     * If active bootloadable application is invalid or bootloader
 350:.\Generated_Source\PSoC5/Bootloader_1.c ****     * application is scheduled - do the following:
 351:.\Generated_Source\PSoC5/Bootloader_1.c ****     *  - schedule bootloader application to be run after software reset
 352:.\Generated_Source\PSoC5/Bootloader_1.c ****     *  - Go to the communication subroutine. Will wait for commands forever
 353:.\Generated_Source\PSoC5/Bootloader_1.c ****     ***********************************************************************/
 354:.\Generated_Source\PSoC5/Bootloader_1.c ****     tmpStatus = Bootloader_1_ValidateBootloadable(Bootloader_1_activeApp);
 375              		.loc 1 354 0
 376 0098 4FF00000 		mov	r0, #0
 377 009c FFF7FEFF 		bl	Bootloader_1_ValidateBootloadable
 378 00a0 C7F82001 		str	r0, [r7, #288]
 355:.\Generated_Source\PSoC5/Bootloader_1.c **** 
 356:.\Generated_Source\PSoC5/Bootloader_1.c ****     if ((Bootloader_1_GET_RUN_TYPE == Bootloader_1_START_BTLDR) ||
 379              		.loc 1 356 0
 380 00a4 44F2FA63 		movw	r3, #18170
ARM GAS  C:\Users\Robert\AppData\Local\Temp\ccgj8kBb.s 			page 14


 381 00a8 C4F20003 		movt	r3, 16384
 382 00ac 1B78     		ldrb	r3, [r3, #0]
 383 00ae DBB2     		uxtb	r3, r3
 384 00b0 03F0C003 		and	r3, r3, #192
 385 00b4 402B     		cmp	r3, #64
 386 00b6 03D0     		beq	.L22
 387              		.loc 1 356 0 is_stmt 0 discriminator 1
 388 00b8 D7F82031 		ldr	r3, [r7, #288]
 389 00bc 002B     		cmp	r3, #0
 390 00be 0AD0     		beq	.L23
 391              	.L22:
 357:.\Generated_Source\PSoC5/Bootloader_1.c ****         (CYRET_SUCCESS != tmpStatus))
 358:.\Generated_Source\PSoC5/Bootloader_1.c ****     {
 359:.\Generated_Source\PSoC5/Bootloader_1.c ****         Bootloader_1_SET_RUN_TYPE(0u);
 392              		.loc 1 359 0 is_stmt 1
 393 00c0 44F2FA63 		movw	r3, #18170
 394 00c4 C4F20003 		movt	r3, 16384
 395 00c8 4FF00002 		mov	r2, #0
 396 00cc 1A70     		strb	r2, [r3, #0]
 360:.\Generated_Source\PSoC5/Bootloader_1.c **** 
 361:.\Generated_Source\PSoC5/Bootloader_1.c ****         Bootloader_1_HostLink(Bootloader_1_WAIT_FOR_COMMAND_FOREVER);
 397              		.loc 1 361 0
 398 00ce 4FF00000 		mov	r0, #0
 399 00d2 FFF7FEFF 		bl	Bootloader_1_HostLink
 400              	.L23:
 362:.\Generated_Source\PSoC5/Bootloader_1.c ****     }
 363:.\Generated_Source\PSoC5/Bootloader_1.c **** 
 364:.\Generated_Source\PSoC5/Bootloader_1.c **** 
 365:.\Generated_Source\PSoC5/Bootloader_1.c ****     /* Go to the communication subroutine. Will wait for commands specifed time */
 366:.\Generated_Source\PSoC5/Bootloader_1.c ****     #if(0u != Bootloader_1_WAIT_FOR_COMMAND)
 367:.\Generated_Source\PSoC5/Bootloader_1.c **** 
 368:.\Generated_Source\PSoC5/Bootloader_1.c ****         /* Timeout is in 100s of miliseconds */
 369:.\Generated_Source\PSoC5/Bootloader_1.c ****         Bootloader_1_HostLink(Bootloader_1_WAIT_FOR_COMMAND_TIME);
 401              		.loc 1 369 0
 402 00d6 4FF01400 		mov	r0, #20
 403 00da FFF7FEFF 		bl	Bootloader_1_HostLink
 370:.\Generated_Source\PSoC5/Bootloader_1.c **** 
 371:.\Generated_Source\PSoC5/Bootloader_1.c ****     #endif  /* (0u != Bootloader_1_WAIT_FOR_COMMAND) */
 372:.\Generated_Source\PSoC5/Bootloader_1.c **** 
 373:.\Generated_Source\PSoC5/Bootloader_1.c **** 
 374:.\Generated_Source\PSoC5/Bootloader_1.c ****     /* Schedule bootloadable application and perform software reset */
 375:.\Generated_Source\PSoC5/Bootloader_1.c ****     Bootloader_1_LaunchApplication();
 404              		.loc 1 375 0
 405 00de FFF7FEFF 		bl	Bootloader_1_LaunchApplication
 376:.\Generated_Source\PSoC5/Bootloader_1.c **** }
 406              		.loc 1 376 0
 407 00e2 07F59477 		add	r7, r7, #296
 408 00e6 BD46     		mov	sp, r7
 409 00e8 80BD     		pop	{r7, pc}
 410              		.cfi_endproc
 411              	.LFE59:
 412              		.size	Bootloader_1_Start, .-Bootloader_1_Start
 413 00ea 00BF     		.section	.text.Bootloader_1_LaunchApplication,"ax",%progbits
 414              		.align	2
 415              		.thumb
 416              		.thumb_func
 417              		.type	Bootloader_1_LaunchApplication, %function
ARM GAS  C:\Users\Robert\AppData\Local\Temp\ccgj8kBb.s 			page 15


 418              	Bootloader_1_LaunchApplication:
 419              	.LFB60:
 377:.\Generated_Source\PSoC5/Bootloader_1.c **** 
 378:.\Generated_Source\PSoC5/Bootloader_1.c **** 
 379:.\Generated_Source\PSoC5/Bootloader_1.c **** /*******************************************************************************
 380:.\Generated_Source\PSoC5/Bootloader_1.c **** * Function Name: Bootloader_1_LaunchApplication
 381:.\Generated_Source\PSoC5/Bootloader_1.c **** ********************************************************************************
 382:.\Generated_Source\PSoC5/Bootloader_1.c **** *
 383:.\Generated_Source\PSoC5/Bootloader_1.c **** * Summary:
 384:.\Generated_Source\PSoC5/Bootloader_1.c **** *  Jumps the PC to the start address of the user application in flash.
 385:.\Generated_Source\PSoC5/Bootloader_1.c **** *
 386:.\Generated_Source\PSoC5/Bootloader_1.c **** * Parameters:
 387:.\Generated_Source\PSoC5/Bootloader_1.c **** *  None
 388:.\Generated_Source\PSoC5/Bootloader_1.c **** *
 389:.\Generated_Source\PSoC5/Bootloader_1.c **** * Returns:
 390:.\Generated_Source\PSoC5/Bootloader_1.c **** *  This method will never return if it succesfully goes to the user application.
 391:.\Generated_Source\PSoC5/Bootloader_1.c **** *
 392:.\Generated_Source\PSoC5/Bootloader_1.c **** *******************************************************************************/
 393:.\Generated_Source\PSoC5/Bootloader_1.c **** static void Bootloader_1_LaunchApplication(void) CYSMALL 
 394:.\Generated_Source\PSoC5/Bootloader_1.c **** {
 420              		.loc 1 394 0
 421              		.cfi_startproc
 422              		@ args = 0, pretend = 0, frame = 0
 423              		@ frame_needed = 1, uses_anonymous_args = 0
 424 0000 80B5     		push	{r7, lr}
 425              	.LCFI12:
 426              		.cfi_def_cfa_offset 8
 427              		.cfi_offset 7, -8
 428              		.cfi_offset 14, -4
 429 0002 00AF     		add	r7, sp, #0
 430              	.LCFI13:
 431              		.cfi_def_cfa_register 7
 395:.\Generated_Source\PSoC5/Bootloader_1.c ****     /* Schedule Bootloadable to start after reset */
 396:.\Generated_Source\PSoC5/Bootloader_1.c ****     Bootloader_1_SET_RUN_TYPE(Bootloader_1_START_APP);
 432              		.loc 1 396 0
 433 0004 44F2FA63 		movw	r3, #18170
 434 0008 C4F20003 		movt	r3, 16384
 435 000c 4FF08002 		mov	r2, #128
 436 0010 1A70     		strb	r2, [r3, #0]
 397:.\Generated_Source\PSoC5/Bootloader_1.c **** 
 398:.\Generated_Source\PSoC5/Bootloader_1.c ****     CySoftwareReset();
 437              		.loc 1 398 0
 438 0012 FFF7FEFF 		bl	CySoftwareReset
 399:.\Generated_Source\PSoC5/Bootloader_1.c **** }
 439              		.loc 1 399 0
 440 0016 80BD     		pop	{r7, pc}
 441              		.cfi_endproc
 442              	.LFE60:
 443              		.size	Bootloader_1_LaunchApplication, .-Bootloader_1_LaunchApplication
 444              		.section	.text.CyBtldr_CheckLaunch,"ax",%progbits
 445              		.align	2
 446              		.global	CyBtldr_CheckLaunch
 447              		.thumb
 448              		.thumb_func
 449              		.type	CyBtldr_CheckLaunch, %function
 450              	CyBtldr_CheckLaunch:
 451              	.LFB61:
ARM GAS  C:\Users\Robert\AppData\Local\Temp\ccgj8kBb.s 			page 16


 400:.\Generated_Source\PSoC5/Bootloader_1.c **** 
 401:.\Generated_Source\PSoC5/Bootloader_1.c **** 
 402:.\Generated_Source\PSoC5/Bootloader_1.c **** /*******************************************************************************
 403:.\Generated_Source\PSoC5/Bootloader_1.c **** * Function Name: CyBtldr_CheckLaunch
 404:.\Generated_Source\PSoC5/Bootloader_1.c **** ********************************************************************************
 405:.\Generated_Source\PSoC5/Bootloader_1.c **** *
 406:.\Generated_Source\PSoC5/Bootloader_1.c **** * Summary:
 407:.\Generated_Source\PSoC5/Bootloader_1.c **** *  This routine checks to see if the bootloader or the bootloadable application
 408:.\Generated_Source\PSoC5/Bootloader_1.c **** *  should be run.  If the application is to be run, it will start executing.
 409:.\Generated_Source\PSoC5/Bootloader_1.c **** *  If the bootloader is to be run, it will return so the bootloader can
 410:.\Generated_Source\PSoC5/Bootloader_1.c **** *  continue starting up.
 411:.\Generated_Source\PSoC5/Bootloader_1.c **** *
 412:.\Generated_Source\PSoC5/Bootloader_1.c **** * Parameters:
 413:.\Generated_Source\PSoC5/Bootloader_1.c **** *  None
 414:.\Generated_Source\PSoC5/Bootloader_1.c **** *
 415:.\Generated_Source\PSoC5/Bootloader_1.c **** * Returns:
 416:.\Generated_Source\PSoC5/Bootloader_1.c **** *  None
 417:.\Generated_Source\PSoC5/Bootloader_1.c **** *
 418:.\Generated_Source\PSoC5/Bootloader_1.c **** *******************************************************************************/
 419:.\Generated_Source\PSoC5/Bootloader_1.c **** void CyBtldr_CheckLaunch(void) CYSMALL 
 420:.\Generated_Source\PSoC5/Bootloader_1.c **** {
 452              		.loc 1 420 0
 453              		.cfi_startproc
 454              		@ args = 0, pretend = 0, frame = 0
 455              		@ frame_needed = 1, uses_anonymous_args = 0
 456 0000 80B5     		push	{r7, lr}
 457              	.LCFI14:
 458              		.cfi_def_cfa_offset 8
 459              		.cfi_offset 7, -8
 460              		.cfi_offset 14, -4
 461 0002 00AF     		add	r7, sp, #0
 462              	.LCFI15:
 463              		.cfi_def_cfa_register 7
 421:.\Generated_Source\PSoC5/Bootloader_1.c **** 
 422:.\Generated_Source\PSoC5/Bootloader_1.c **** #if(CY_PSOC4)
 423:.\Generated_Source\PSoC5/Bootloader_1.c **** 
 424:.\Generated_Source\PSoC5/Bootloader_1.c ****     /*******************************************************************************
 425:.\Generated_Source\PSoC5/Bootloader_1.c ****     * Set cyBtldrRunType to zero in case of non-software reset occured. This means
 426:.\Generated_Source\PSoC5/Bootloader_1.c ****     * that bootloader application is scheduled - that is initial clean state. The
 427:.\Generated_Source\PSoC5/Bootloader_1.c ****     * value of cyBtldrRunType is valid only in case of software reset.
 428:.\Generated_Source\PSoC5/Bootloader_1.c ****     *******************************************************************************/
 429:.\Generated_Source\PSoC5/Bootloader_1.c ****     if (0u == (Bootloader_1_RES_CAUSE_REG & Bootloader_1_RES_CAUSE_RESET_SOFT))
 430:.\Generated_Source\PSoC5/Bootloader_1.c ****     {
 431:.\Generated_Source\PSoC5/Bootloader_1.c ****         cyBtldrRunType = 0u;
 432:.\Generated_Source\PSoC5/Bootloader_1.c ****     }
 433:.\Generated_Source\PSoC5/Bootloader_1.c **** 
 434:.\Generated_Source\PSoC5/Bootloader_1.c **** #endif /* (CY_PSOC4) */
 435:.\Generated_Source\PSoC5/Bootloader_1.c **** 
 436:.\Generated_Source\PSoC5/Bootloader_1.c **** 
 437:.\Generated_Source\PSoC5/Bootloader_1.c ****     if (Bootloader_1_GET_RUN_TYPE == Bootloader_1_START_APP)
 464              		.loc 1 437 0
 465 0004 44F2FA63 		movw	r3, #18170
 466 0008 C4F20003 		movt	r3, 16384
 467 000c 1B78     		ldrb	r3, [r3, #0]
 468 000e DBB2     		uxtb	r3, r3
 469 0010 03F0C003 		and	r3, r3, #192
 470 0014 802B     		cmp	r3, #128
ARM GAS  C:\Users\Robert\AppData\Local\Temp\ccgj8kBb.s 			page 17


 471 0016 19D1     		bne	.L25
 438:.\Generated_Source\PSoC5/Bootloader_1.c ****     {
 439:.\Generated_Source\PSoC5/Bootloader_1.c ****         Bootloader_1_SET_RUN_TYPE(0u);
 472              		.loc 1 439 0
 473 0018 44F2FA63 		movw	r3, #18170
 474 001c C4F20003 		movt	r3, 16384
 475 0020 4FF00002 		mov	r2, #0
 476 0024 1A70     		strb	r2, [r3, #0]
 440:.\Generated_Source\PSoC5/Bootloader_1.c **** 
 441:.\Generated_Source\PSoC5/Bootloader_1.c ****         /*******************************************************************************
 442:.\Generated_Source\PSoC5/Bootloader_1.c ****         * Indicates that we have told ourselves to jump to the application since we have
 443:.\Generated_Source\PSoC5/Bootloader_1.c ****         * already told ourselves to jump, we do not do any expensive verification of the
 444:.\Generated_Source\PSoC5/Bootloader_1.c ****         * application. We just check to make sure that the value at CY_APP_ADDR_ADDRESS
 445:.\Generated_Source\PSoC5/Bootloader_1.c ****         * is something other than 0.
 446:.\Generated_Source\PSoC5/Bootloader_1.c ****         *******************************************************************************/
 447:.\Generated_Source\PSoC5/Bootloader_1.c ****         if(0u != Bootloader_1_GetMetadata(Bootloader_1_GET_METADATA_BTLDB_ADDR, Bootloader_1_active
 477              		.loc 1 447 0
 478 0026 4FF00100 		mov	r0, #1
 479 002a 4FF00001 		mov	r1, #0
 480 002e FFF7FEFF 		bl	Bootloader_1_GetMetadata
 481 0032 0346     		mov	r3, r0
 482 0034 002B     		cmp	r3, #0
 483 0036 09D0     		beq	.L25
 448:.\Generated_Source\PSoC5/Bootloader_1.c ****         {
 449:.\Generated_Source\PSoC5/Bootloader_1.c ****             /* Never return from this method */
 450:.\Generated_Source\PSoC5/Bootloader_1.c ****             Bootloader_1_LaunchBootloadable(Bootloader_1_GetMetadata(Bootloader_1_GET_METADATA_BTLD
 484              		.loc 1 450 0
 485 0038 4FF00100 		mov	r0, #1
 486 003c 4FF00001 		mov	r1, #0
 487 0040 FFF7FEFF 		bl	Bootloader_1_GetMetadata
 488 0044 0346     		mov	r3, r0
 489 0046 1846     		mov	r0, r3
 490 0048 FFF7FEFF 		bl	Bootloader_1_LaunchBootloadable
 491              	.L25:
 451:.\Generated_Source\PSoC5/Bootloader_1.c ****                                                                              Bootloader_1_activeApp
 452:.\Generated_Source\PSoC5/Bootloader_1.c ****         }
 453:.\Generated_Source\PSoC5/Bootloader_1.c ****     }
 454:.\Generated_Source\PSoC5/Bootloader_1.c **** }
 492              		.loc 1 454 0
 493 004c 80BD     		pop	{r7, pc}
 494              		.cfi_endproc
 495              	.LFE61:
 496              		.size	CyBtldr_CheckLaunch, .-CyBtldr_CheckLaunch
 497 004e 00BF     		.section	.text.Bootloader_1_LaunchBootloadable,"ax",%progbits
 498              		.align	2
 499              		.thumb
 500              		.thumb_func
 501              		.type	Bootloader_1_LaunchBootloadable, %function
 502              	Bootloader_1_LaunchBootloadable:
 503              	.LFB62:
 455:.\Generated_Source\PSoC5/Bootloader_1.c **** 
 456:.\Generated_Source\PSoC5/Bootloader_1.c **** 
 457:.\Generated_Source\PSoC5/Bootloader_1.c **** /* Moves the arguement appAddr (RO) into PC, moving execution to the appAddr */
 458:.\Generated_Source\PSoC5/Bootloader_1.c **** #if defined (__ARMCC_VERSION)
 459:.\Generated_Source\PSoC5/Bootloader_1.c **** 
 460:.\Generated_Source\PSoC5/Bootloader_1.c ****     __asm static void Bootloader_1_LaunchBootloadable(uint32 appAddr)
 461:.\Generated_Source\PSoC5/Bootloader_1.c ****     {
ARM GAS  C:\Users\Robert\AppData\Local\Temp\ccgj8kBb.s 			page 18


 462:.\Generated_Source\PSoC5/Bootloader_1.c ****         BX  R0
 463:.\Generated_Source\PSoC5/Bootloader_1.c ****         ALIGN
 464:.\Generated_Source\PSoC5/Bootloader_1.c ****     }
 465:.\Generated_Source\PSoC5/Bootloader_1.c **** 
 466:.\Generated_Source\PSoC5/Bootloader_1.c **** #elif defined(__GNUC__)
 467:.\Generated_Source\PSoC5/Bootloader_1.c **** 
 468:.\Generated_Source\PSoC5/Bootloader_1.c ****     __attribute__((noinline)) /* Workaround for GCC toolchain bug with inlining */
 469:.\Generated_Source\PSoC5/Bootloader_1.c ****     __attribute__((naked))
 470:.\Generated_Source\PSoC5/Bootloader_1.c ****     static void Bootloader_1_LaunchBootloadable(uint32 appAddr)
 471:.\Generated_Source\PSoC5/Bootloader_1.c ****     {
 504              		.loc 1 471 0
 505              		.cfi_startproc
 506              		@ Naked Function: prologue and epilogue provided by programmer.
 507              		@ args = 0, pretend = 0, frame = 0
 508              		@ frame_needed = 1, uses_anonymous_args = 0
 472:.\Generated_Source\PSoC5/Bootloader_1.c ****         __asm volatile("    BX  R0\n");
 509              		.loc 1 472 0
 510              	@ 472 ".\Generated_Source\PSoC5\Bootloader_1.c" 1
 511 0000 0047     		    BX  R0
 512              	
 513              	@ 0 "" 2
 473:.\Generated_Source\PSoC5/Bootloader_1.c ****     }
 514              		.loc 1 473 0
 515              		.thumb
 516              		.cfi_endproc
 517              	.LFE62:
 518              		.size	Bootloader_1_LaunchBootloadable, .-Bootloader_1_LaunchBootloadable
 519 0002 00BF     		.section	.text.Bootloader_1_ValidateBootloadable,"ax",%progbits
 520              		.align	2
 521              		.thumb
 522              		.thumb_func
 523              		.type	Bootloader_1_ValidateBootloadable, %function
 524              	Bootloader_1_ValidateBootloadable:
 525              	.LFB63:
 474:.\Generated_Source\PSoC5/Bootloader_1.c **** 
 475:.\Generated_Source\PSoC5/Bootloader_1.c **** #elif defined (__ICCARM__)
 476:.\Generated_Source\PSoC5/Bootloader_1.c **** 
 477:.\Generated_Source\PSoC5/Bootloader_1.c ****     static void Bootloader_1_LaunchBootloadable(uint32 appAddr)
 478:.\Generated_Source\PSoC5/Bootloader_1.c ****     {
 479:.\Generated_Source\PSoC5/Bootloader_1.c ****         __asm volatile("    BX  R0\n");
 480:.\Generated_Source\PSoC5/Bootloader_1.c ****     }
 481:.\Generated_Source\PSoC5/Bootloader_1.c **** 
 482:.\Generated_Source\PSoC5/Bootloader_1.c **** #endif  /* (__ARMCC_VERSION) */
 483:.\Generated_Source\PSoC5/Bootloader_1.c **** 
 484:.\Generated_Source\PSoC5/Bootloader_1.c **** 
 485:.\Generated_Source\PSoC5/Bootloader_1.c **** /*******************************************************************************
 486:.\Generated_Source\PSoC5/Bootloader_1.c **** * Function Name: Bootloader_1_ValidateBootloadable
 487:.\Generated_Source\PSoC5/Bootloader_1.c **** ********************************************************************************
 488:.\Generated_Source\PSoC5/Bootloader_1.c **** * Summary:
 489:.\Generated_Source\PSoC5/Bootloader_1.c **** *  This routine computes the checksum, zero check, 0xFF check of the
 490:.\Generated_Source\PSoC5/Bootloader_1.c **** *  application area to determine whether a valid application is loaded.
 491:.\Generated_Source\PSoC5/Bootloader_1.c **** *
 492:.\Generated_Source\PSoC5/Bootloader_1.c **** * Parameters:
 493:.\Generated_Source\PSoC5/Bootloader_1.c **** *  appId:
 494:.\Generated_Source\PSoC5/Bootloader_1.c **** *      The application number to verify
 495:.\Generated_Source\PSoC5/Bootloader_1.c **** *
 496:.\Generated_Source\PSoC5/Bootloader_1.c **** * Returns:
ARM GAS  C:\Users\Robert\AppData\Local\Temp\ccgj8kBb.s 			page 19


 497:.\Generated_Source\PSoC5/Bootloader_1.c **** *  CYRET_SUCCESS  - if successful
 498:.\Generated_Source\PSoC5/Bootloader_1.c **** *  CYRET_BAD_DATA - if the bootloadable is corrupt
 499:.\Generated_Source\PSoC5/Bootloader_1.c **** *
 500:.\Generated_Source\PSoC5/Bootloader_1.c **** *******************************************************************************/
 501:.\Generated_Source\PSoC5/Bootloader_1.c **** static cystatus Bootloader_1_ValidateBootloadable(uint8 appId) CYSMALL \
 502:.\Generated_Source\PSoC5/Bootloader_1.c **** 
 503:.\Generated_Source\PSoC5/Bootloader_1.c ****     {
 526              		.loc 1 503 0
 527              		.cfi_startproc
 528              		@ args = 0, pretend = 0, frame = 24
 529              		@ frame_needed = 1, uses_anonymous_args = 0
 530 0000 90B5     		push	{r4, r7, lr}
 531              	.LCFI16:
 532              		.cfi_def_cfa_offset 12
 533              		.cfi_offset 4, -12
 534              		.cfi_offset 7, -8
 535              		.cfi_offset 14, -4
 536 0002 87B0     		sub	sp, sp, #28
 537              	.LCFI17:
 538              		.cfi_def_cfa_offset 40
 539 0004 00AF     		add	r7, sp, #0
 540              	.LCFI18:
 541              		.cfi_def_cfa_register 7
 542 0006 0346     		mov	r3, r0
 543 0008 FB71     		strb	r3, [r7, #7]
 504:.\Generated_Source\PSoC5/Bootloader_1.c ****         uint32 CYDATA idx;
 505:.\Generated_Source\PSoC5/Bootloader_1.c **** 
 506:.\Generated_Source\PSoC5/Bootloader_1.c ****         uint32 CYDATA end   = Bootloader_1_FIRST_APP_BYTE(appId) +
 544              		.loc 1 506 0
 545 000a FB79     		ldrb	r3, [r7, #7]	@ zero_extendqisi2
 546 000c 4FF00200 		mov	r0, #2
 547 0010 1946     		mov	r1, r3
 548 0012 FFF7FEFF 		bl	Bootloader_1_GetMetadata
 549 0016 0346     		mov	r3, r0
 550 0018 03F10103 		add	r3, r3, #1
 551 001c 4FEA0324 		lsl	r4, r3, #8
 507:.\Generated_Source\PSoC5/Bootloader_1.c ****                                 Bootloader_1_GetMetadata(Bootloader_1_GET_METADATA_BTLDB_LENGTH,
 552              		.loc 1 507 0
 553 0020 FB79     		ldrb	r3, [r7, #7]	@ zero_extendqisi2
 554 0022 4FF00300 		mov	r0, #3
 555 0026 1946     		mov	r1, r3
 556 0028 FFF7FEFF 		bl	Bootloader_1_GetMetadata
 557 002c 0346     		mov	r3, r0
 506:.\Generated_Source\PSoC5/Bootloader_1.c ****         uint32 CYDATA end   = Bootloader_1_FIRST_APP_BYTE(appId) +
 558              		.loc 1 506 0
 559 002e E318     		adds	r3, r4, r3
 560 0030 FB60     		str	r3, [r7, #12]
 508:.\Generated_Source\PSoC5/Bootloader_1.c ****                                                        appId);
 509:.\Generated_Source\PSoC5/Bootloader_1.c **** 
 510:.\Generated_Source\PSoC5/Bootloader_1.c ****         CYBIT         valid = 0u; /* Assume bad flash image */
 561              		.loc 1 510 0
 562 0032 4FF00003 		mov	r3, #0
 563 0036 FB74     		strb	r3, [r7, #19]
 511:.\Generated_Source\PSoC5/Bootloader_1.c ****         uint8  CYDATA calcedChecksum = 0u;
 564              		.loc 1 511 0
 565 0038 4FF00003 		mov	r3, #0
 566 003c BB74     		strb	r3, [r7, #18]
ARM GAS  C:\Users\Robert\AppData\Local\Temp\ccgj8kBb.s 			page 20


 512:.\Generated_Source\PSoC5/Bootloader_1.c **** 
 513:.\Generated_Source\PSoC5/Bootloader_1.c **** 
 514:.\Generated_Source\PSoC5/Bootloader_1.c ****         #if(0u != Bootloader_1_DUAL_APP_BOOTLOADER)
 515:.\Generated_Source\PSoC5/Bootloader_1.c **** 
 516:.\Generated_Source\PSoC5/Bootloader_1.c ****             if(appId > 1u)
 517:.\Generated_Source\PSoC5/Bootloader_1.c ****             {
 518:.\Generated_Source\PSoC5/Bootloader_1.c ****                 return(CYRET_BAD_DATA);
 519:.\Generated_Source\PSoC5/Bootloader_1.c ****             }
 520:.\Generated_Source\PSoC5/Bootloader_1.c **** 
 521:.\Generated_Source\PSoC5/Bootloader_1.c ****         #endif  /* (0u != Bootloader_1_DUAL_APP_BOOTLOADER) */
 522:.\Generated_Source\PSoC5/Bootloader_1.c **** 
 523:.\Generated_Source\PSoC5/Bootloader_1.c **** 
 524:.\Generated_Source\PSoC5/Bootloader_1.c ****         #if(0u != Bootloader_1_FAST_APP_VALIDATION)
 525:.\Generated_Source\PSoC5/Bootloader_1.c **** 
 526:.\Generated_Source\PSoC5/Bootloader_1.c ****             if(Bootloader_1_MD_BTLDB_VERIFIED_VALUE(appId) == Bootloader_1_MD_BTLDB_IS_VERIFIED)
 527:.\Generated_Source\PSoC5/Bootloader_1.c ****             {
 528:.\Generated_Source\PSoC5/Bootloader_1.c ****                 return(CYRET_SUCCESS);
 529:.\Generated_Source\PSoC5/Bootloader_1.c ****             }
 530:.\Generated_Source\PSoC5/Bootloader_1.c **** 
 531:.\Generated_Source\PSoC5/Bootloader_1.c ****         #endif  /* (0u != Bootloader_1_FAST_APP_VALIDATION) */
 532:.\Generated_Source\PSoC5/Bootloader_1.c **** 
 533:.\Generated_Source\PSoC5/Bootloader_1.c **** 
 534:.\Generated_Source\PSoC5/Bootloader_1.c ****         /* Calculate checksum of bootloadable image */
 535:.\Generated_Source\PSoC5/Bootloader_1.c ****         for(idx = Bootloader_1_FIRST_APP_BYTE(appId); idx < end; ++idx)
 567              		.loc 1 535 0
 568 003e FB79     		ldrb	r3, [r7, #7]	@ zero_extendqisi2
 569 0040 4FF00200 		mov	r0, #2
 570 0044 1946     		mov	r1, r3
 571 0046 FFF7FEFF 		bl	Bootloader_1_GetMetadata
 572 004a 0346     		mov	r3, r0
 573 004c 03F10103 		add	r3, r3, #1
 574 0050 4FEA0323 		lsl	r3, r3, #8
 575 0054 7B61     		str	r3, [r7, #20]
 576 0056 13E0     		b	.L29
 577              	.L31:
 578              	.LBB2:
 536:.\Generated_Source\PSoC5/Bootloader_1.c ****         {
 537:.\Generated_Source\PSoC5/Bootloader_1.c ****             uint8 CYDATA curByte = Bootloader_1_GET_CODE_BYTE(idx);
 579              		.loc 1 537 0
 580 0058 7B69     		ldr	r3, [r7, #20]
 581 005a 1B78     		ldrb	r3, [r3, #0]
 582 005c FB72     		strb	r3, [r7, #11]
 538:.\Generated_Source\PSoC5/Bootloader_1.c **** 
 539:.\Generated_Source\PSoC5/Bootloader_1.c ****             if((curByte != 0u) && (curByte != 0xFFu))
 583              		.loc 1 539 0
 584 005e FB7A     		ldrb	r3, [r7, #11]	@ zero_extendqisi2
 585 0060 002B     		cmp	r3, #0
 586 0062 05D0     		beq	.L30
 587              		.loc 1 539 0 is_stmt 0 discriminator 1
 588 0064 FB7A     		ldrb	r3, [r7, #11]	@ zero_extendqisi2
 589 0066 FF2B     		cmp	r3, #255
 590 0068 02D0     		beq	.L30
 540:.\Generated_Source\PSoC5/Bootloader_1.c ****             {
 541:.\Generated_Source\PSoC5/Bootloader_1.c ****                 valid = 1u;
 591              		.loc 1 541 0 is_stmt 1
 592 006a 4FF00103 		mov	r3, #1
 593 006e FB74     		strb	r3, [r7, #19]
ARM GAS  C:\Users\Robert\AppData\Local\Temp\ccgj8kBb.s 			page 21


 594              	.L30:
 542:.\Generated_Source\PSoC5/Bootloader_1.c ****             }
 543:.\Generated_Source\PSoC5/Bootloader_1.c **** 
 544:.\Generated_Source\PSoC5/Bootloader_1.c ****             calcedChecksum += curByte;
 595              		.loc 1 544 0
 596 0070 BA7C     		ldrb	r2, [r7, #18]
 597 0072 FB7A     		ldrb	r3, [r7, #11]
 598 0074 D318     		adds	r3, r2, r3
 599 0076 BB74     		strb	r3, [r7, #18]
 600              	.LBE2:
 535:.\Generated_Source\PSoC5/Bootloader_1.c ****         for(idx = Bootloader_1_FIRST_APP_BYTE(appId); idx < end; ++idx)
 601              		.loc 1 535 0
 602 0078 7B69     		ldr	r3, [r7, #20]
 603 007a 03F10103 		add	r3, r3, #1
 604 007e 7B61     		str	r3, [r7, #20]
 605              	.L29:
 535:.\Generated_Source\PSoC5/Bootloader_1.c ****         for(idx = Bootloader_1_FIRST_APP_BYTE(appId); idx < end; ++idx)
 606              		.loc 1 535 0 is_stmt 0 discriminator 1
 607 0080 7A69     		ldr	r2, [r7, #20]
 608 0082 FB68     		ldr	r3, [r7, #12]
 609 0084 9A42     		cmp	r2, r3
 610 0086 E7D3     		bcc	.L31
 545:.\Generated_Source\PSoC5/Bootloader_1.c ****         }
 546:.\Generated_Source\PSoC5/Bootloader_1.c **** 
 547:.\Generated_Source\PSoC5/Bootloader_1.c **** 
 548:.\Generated_Source\PSoC5/Bootloader_1.c ****         /***************************************************************************
 549:.\Generated_Source\PSoC5/Bootloader_1.c ****         * We do not compute checksum over the meta data section, so no need to
 550:.\Generated_Source\PSoC5/Bootloader_1.c ****         * subtract off App Verified or App Active information here like we do when
 551:.\Generated_Source\PSoC5/Bootloader_1.c ****         * verifying a row.
 552:.\Generated_Source\PSoC5/Bootloader_1.c ****         ***************************************************************************/
 553:.\Generated_Source\PSoC5/Bootloader_1.c **** 
 554:.\Generated_Source\PSoC5/Bootloader_1.c **** 
 555:.\Generated_Source\PSoC5/Bootloader_1.c ****         #if((!CY_PSOC4) && (CYDEV_ECC_ENABLE == 0u))
 556:.\Generated_Source\PSoC5/Bootloader_1.c **** 
 557:.\Generated_Source\PSoC5/Bootloader_1.c ****             /* Add ECC data to checksum */
 558:.\Generated_Source\PSoC5/Bootloader_1.c ****             idx = ((Bootloader_1_FIRST_APP_BYTE(appId)) >> 3u);
 611              		.loc 1 558 0 is_stmt 1
 612 0088 FB79     		ldrb	r3, [r7, #7]	@ zero_extendqisi2
 613 008a 4FF00200 		mov	r0, #2
 614 008e 1946     		mov	r1, r3
 615 0090 FFF7FEFF 		bl	Bootloader_1_GetMetadata
 616 0094 0346     		mov	r3, r0
 617 0096 03F10103 		add	r3, r3, #1
 618 009a 4FEA0323 		lsl	r3, r3, #8
 619 009e 4FEAD303 		lsr	r3, r3, #3
 620 00a2 7B61     		str	r3, [r7, #20]
 559:.\Generated_Source\PSoC5/Bootloader_1.c **** 
 560:.\Generated_Source\PSoC5/Bootloader_1.c ****             /* Flash may run into meta data, ECC does not so use full row */
 561:.\Generated_Source\PSoC5/Bootloader_1.c ****             end = (end == (CY_FLASH_SIZE - Bootloader_1_MD_SIZEOF))
 562:.\Generated_Source\PSoC5/Bootloader_1.c ****                 ? (CY_FLASH_SIZE >> 3u)
 563:.\Generated_Source\PSoC5/Bootloader_1.c ****                 : (end >> 3u);
 621              		.loc 1 563 0
 622 00a4 FA68     		ldr	r2, [r7, #12]
 623 00a6 4FF6C073 		movw	r3, #65472
 624 00aa C0F20303 		movt	r3, 3
 625 00ae 9A42     		cmp	r2, r3
 626 00b0 03D0     		beq	.L32
ARM GAS  C:\Users\Robert\AppData\Local\Temp\ccgj8kBb.s 			page 22


 627              		.loc 1 563 0 is_stmt 0 discriminator 1
 628 00b2 FB68     		ldr	r3, [r7, #12]
 629 00b4 4FEAD303 		lsr	r3, r3, #3
 630 00b8 01E0     		b	.L33
 631              	.L32:
 632              		.loc 1 563 0 discriminator 2
 633 00ba 4FF40043 		mov	r3, #32768
 634              	.L33:
 561:.\Generated_Source\PSoC5/Bootloader_1.c ****             end = (end == (CY_FLASH_SIZE - Bootloader_1_MD_SIZEOF))
 635              		.loc 1 561 0 is_stmt 1
 636 00be FB60     		str	r3, [r7, #12]
 564:.\Generated_Source\PSoC5/Bootloader_1.c **** 
 565:.\Generated_Source\PSoC5/Bootloader_1.c ****             for (; idx < end; ++idx)
 637              		.loc 1 565 0
 638 00c0 0BE0     		b	.L34
 639              	.L35:
 566:.\Generated_Source\PSoC5/Bootloader_1.c ****             {
 567:.\Generated_Source\PSoC5/Bootloader_1.c ****                 calcedChecksum += CY_GET_XTND_REG8((volatile uint8 *)(CYDEV_ECC_BASE + idx));
 640              		.loc 1 567 0 discriminator 2
 641 00c2 7B69     		ldr	r3, [r7, #20]
 642 00c4 03F19043 		add	r3, r3, #1207959552
 643 00c8 1B78     		ldrb	r3, [r3, #0]
 644 00ca DAB2     		uxtb	r2, r3
 645 00cc BB7C     		ldrb	r3, [r7, #18]
 646 00ce D318     		adds	r3, r2, r3
 647 00d0 BB74     		strb	r3, [r7, #18]
 565:.\Generated_Source\PSoC5/Bootloader_1.c ****             for (; idx < end; ++idx)
 648              		.loc 1 565 0 discriminator 2
 649 00d2 7B69     		ldr	r3, [r7, #20]
 650 00d4 03F10103 		add	r3, r3, #1
 651 00d8 7B61     		str	r3, [r7, #20]
 652              	.L34:
 565:.\Generated_Source\PSoC5/Bootloader_1.c ****             for (; idx < end; ++idx)
 653              		.loc 1 565 0 is_stmt 0 discriminator 1
 654 00da 7A69     		ldr	r2, [r7, #20]
 655 00dc FB68     		ldr	r3, [r7, #12]
 656 00de 9A42     		cmp	r2, r3
 657 00e0 EFD3     		bcc	.L35
 568:.\Generated_Source\PSoC5/Bootloader_1.c ****             }
 569:.\Generated_Source\PSoC5/Bootloader_1.c **** 
 570:.\Generated_Source\PSoC5/Bootloader_1.c ****         #endif  /* ((!CY_PSOC4) && (CYDEV_ECC_ENABLE == 0u)) */
 571:.\Generated_Source\PSoC5/Bootloader_1.c **** 
 572:.\Generated_Source\PSoC5/Bootloader_1.c **** 
 573:.\Generated_Source\PSoC5/Bootloader_1.c ****         calcedChecksum = ( uint8 )1u + ( uint8 )(~calcedChecksum);
 658              		.loc 1 573 0 is_stmt 1
 659 00e2 BB7C     		ldrb	r3, [r7, #18]
 660 00e4 C3F10003 		rsb	r3, r3, #0
 661 00e8 BB74     		strb	r3, [r7, #18]
 574:.\Generated_Source\PSoC5/Bootloader_1.c **** 
 575:.\Generated_Source\PSoC5/Bootloader_1.c ****         if((calcedChecksum != Bootloader_1_MD_BTLDB_CHECKSUM_VALUE(appId)) ||
 662              		.loc 1 575 0
 663 00ea FA79     		ldrb	r2, [r7, #7]	@ zero_extendqisi2
 664 00ec 1346     		mov	r3, r2
 665 00ee 4FEA0363 		lsl	r3, r3, #24
 666 00f2 9B1A     		subs	r3, r3, r2
 667 00f4 4FEA0323 		lsl	r3, r3, #8
 668 00f8 03F57F33 		add	r3, r3, #261120
ARM GAS  C:\Users\Robert\AppData\Local\Temp\ccgj8kBb.s 			page 23


 669 00fc 03F57073 		add	r3, r3, #960
 670 0100 1B78     		ldrb	r3, [r3, #0]
 671 0102 DBB2     		uxtb	r3, r3
 672 0104 BA7C     		ldrb	r2, [r7, #18]	@ zero_extendqisi2
 673 0106 9A42     		cmp	r2, r3
 674 0108 02D1     		bne	.L36
 675              		.loc 1 575 0 is_stmt 0 discriminator 1
 676 010a FB7C     		ldrb	r3, [r7, #19]	@ zero_extendqisi2
 677 010c 002B     		cmp	r3, #0
 678 010e 02D1     		bne	.L37
 679              	.L36:
 576:.\Generated_Source\PSoC5/Bootloader_1.c ****            (0u == valid))
 577:.\Generated_Source\PSoC5/Bootloader_1.c ****         {
 578:.\Generated_Source\PSoC5/Bootloader_1.c ****             return(CYRET_BAD_DATA);
 680              		.loc 1 578 0 is_stmt 1
 681 0110 4FF00603 		mov	r3, #6
 682 0114 01E0     		b	.L38
 683              	.L37:
 579:.\Generated_Source\PSoC5/Bootloader_1.c ****         }
 580:.\Generated_Source\PSoC5/Bootloader_1.c **** 
 581:.\Generated_Source\PSoC5/Bootloader_1.c **** 
 582:.\Generated_Source\PSoC5/Bootloader_1.c ****         #if(0u != Bootloader_1_FAST_APP_VALIDATION)
 583:.\Generated_Source\PSoC5/Bootloader_1.c ****             Bootloader_1_SetFlashByte((uint32) Bootloader_1_MD_BTLDB_VERIFIED_OFFSET(appId),
 584:.\Generated_Source\PSoC5/Bootloader_1.c ****                                           Bootloader_1_MD_BTLDB_IS_VERIFIED);
 585:.\Generated_Source\PSoC5/Bootloader_1.c ****         #endif  /* (0u != Bootloader_1_FAST_APP_VALIDATION) */
 586:.\Generated_Source\PSoC5/Bootloader_1.c **** 
 587:.\Generated_Source\PSoC5/Bootloader_1.c **** 
 588:.\Generated_Source\PSoC5/Bootloader_1.c ****         return(CYRET_SUCCESS);
 684              		.loc 1 588 0
 685 0116 4FF00003 		mov	r3, #0
 686              	.L38:
 589:.\Generated_Source\PSoC5/Bootloader_1.c **** }
 687              		.loc 1 589 0
 688 011a 1846     		mov	r0, r3
 689 011c 07F11C07 		add	r7, r7, #28
 690 0120 BD46     		mov	sp, r7
 691 0122 90BD     		pop	{r4, r7, pc}
 692              		.cfi_endproc
 693              	.LFE63:
 694              		.size	Bootloader_1_ValidateBootloadable, .-Bootloader_1_ValidateBootloadable
 695              		.section	.rodata
 696              		.align	2
 697              	.LC0:
 698 0000 6930122E 		.word	772943977
 699 0004 00       		.byte	0
 700 0005 14       		.byte	20
 701 0006 01       		.byte	1
 702 0007 01       		.byte	1
 703              		.section	.text.Bootloader_1_HostLink,"ax",%progbits
 704              		.align	2
 705              		.thumb
 706              		.thumb_func
 707              		.type	Bootloader_1_HostLink, %function
 708              	Bootloader_1_HostLink:
 709              	.LFB64:
 590:.\Generated_Source\PSoC5/Bootloader_1.c **** 
 591:.\Generated_Source\PSoC5/Bootloader_1.c **** 
ARM GAS  C:\Users\Robert\AppData\Local\Temp\ccgj8kBb.s 			page 24


 592:.\Generated_Source\PSoC5/Bootloader_1.c **** /*******************************************************************************
 593:.\Generated_Source\PSoC5/Bootloader_1.c **** * Function Name: Bootloader_1_HostLink
 594:.\Generated_Source\PSoC5/Bootloader_1.c **** ********************************************************************************
 595:.\Generated_Source\PSoC5/Bootloader_1.c **** *
 596:.\Generated_Source\PSoC5/Bootloader_1.c **** * Summary:
 597:.\Generated_Source\PSoC5/Bootloader_1.c **** *  Causes the bootloader to attempt to read data being transmitted by the
 598:.\Generated_Source\PSoC5/Bootloader_1.c **** *  host application.  If data is sent from the host, this establishes the
 599:.\Generated_Source\PSoC5/Bootloader_1.c **** *  communication interface to process all requests.
 600:.\Generated_Source\PSoC5/Bootloader_1.c **** *
 601:.\Generated_Source\PSoC5/Bootloader_1.c **** * Parameters:
 602:.\Generated_Source\PSoC5/Bootloader_1.c **** *  timeOut:
 603:.\Generated_Source\PSoC5/Bootloader_1.c **** *   The amount of time to listen for data before giving up. Timeout is
 604:.\Generated_Source\PSoC5/Bootloader_1.c **** *   measured in 10s of ms.  Use 0 for infinite wait.
 605:.\Generated_Source\PSoC5/Bootloader_1.c **** *
 606:.\Generated_Source\PSoC5/Bootloader_1.c **** * Return:
 607:.\Generated_Source\PSoC5/Bootloader_1.c **** *   None
 608:.\Generated_Source\PSoC5/Bootloader_1.c **** *
 609:.\Generated_Source\PSoC5/Bootloader_1.c **** *******************************************************************************/
 610:.\Generated_Source\PSoC5/Bootloader_1.c **** static void Bootloader_1_HostLink(uint8 timeOut) 
 611:.\Generated_Source\PSoC5/Bootloader_1.c **** {
 710              		.loc 1 611 0
 711              		.cfi_startproc
 712              		@ args = 0, pretend = 0, frame = 944
 713              		@ frame_needed = 1, uses_anonymous_args = 0
 714 0000 80B5     		push	{r7, lr}
 715              	.LCFI19:
 716              		.cfi_def_cfa_offset 8
 717              		.cfi_offset 7, -8
 718              		.cfi_offset 14, -4
 719 0002 ADF56C7D 		sub	sp, sp, #944
 720              	.LCFI20:
 721              		.cfi_def_cfa_offset 952
 722 0006 00AF     		add	r7, sp, #0
 723              	.LCFI21:
 724              		.cfi_def_cfa_register 7
 725 0008 0246     		mov	r2, r0
 726 000a 07F10703 		add	r3, r7, #7
 727 000e 1A70     		strb	r2, [r3, #0]
 612:.\Generated_Source\PSoC5/Bootloader_1.c ****     uint16    CYDATA numberRead;
 613:.\Generated_Source\PSoC5/Bootloader_1.c ****     uint16    CYDATA rspSize;
 614:.\Generated_Source\PSoC5/Bootloader_1.c ****     uint8     CYDATA ackCode;
 615:.\Generated_Source\PSoC5/Bootloader_1.c ****     uint16    CYDATA pktChecksum;
 616:.\Generated_Source\PSoC5/Bootloader_1.c ****     cystatus  CYDATA readStat;
 617:.\Generated_Source\PSoC5/Bootloader_1.c ****     uint16    CYDATA pktSize    = 0u;
 728              		.loc 1 617 0
 729 0010 4FF00003 		mov	r3, #0
 730 0014 A7F8AA33 		strh	r3, [r7, #938]	@ movhi
 618:.\Generated_Source\PSoC5/Bootloader_1.c ****     uint16    CYDATA dataOffset = 0u;
 731              		.loc 1 618 0
 732 0018 4FF00003 		mov	r3, #0
 733 001c A7F8A833 		strh	r3, [r7, #936]	@ movhi
 619:.\Generated_Source\PSoC5/Bootloader_1.c ****     uint8     CYDATA timeOutCnt = 10u;
 734              		.loc 1 619 0
 735 0020 4FF00A03 		mov	r3, #10
 736 0024 87F8A733 		strb	r3, [r7, #935]
 620:.\Generated_Source\PSoC5/Bootloader_1.c **** 
 621:.\Generated_Source\PSoC5/Bootloader_1.c ****     #if(0u == Bootloader_1_DUAL_APP_BOOTLOADER)
ARM GAS  C:\Users\Robert\AppData\Local\Temp\ccgj8kBb.s 			page 25


 622:.\Generated_Source\PSoC5/Bootloader_1.c ****         uint8 CYDATA clearedMetaData = 0u;
 737              		.loc 1 622 0
 738 0028 4FF00003 		mov	r3, #0
 739 002c 87F8A633 		strb	r3, [r7, #934]
 623:.\Generated_Source\PSoC5/Bootloader_1.c ****     #endif  /* (0u == Bootloader_1_DUAL_APP_BOOTLOADER) */
 624:.\Generated_Source\PSoC5/Bootloader_1.c **** 
 625:.\Generated_Source\PSoC5/Bootloader_1.c ****     CYBIT     communicationState = Bootloader_1_COMMUNICATION_STATE_IDLE;
 740              		.loc 1 625 0
 741 0030 4FF00003 		mov	r3, #0
 742 0034 87F8A533 		strb	r3, [r7, #933]
 626:.\Generated_Source\PSoC5/Bootloader_1.c **** 
 627:.\Generated_Source\PSoC5/Bootloader_1.c ****     uint8     packetBuffer[Bootloader_1_SIZEOF_COMMAND_BUFFER];
 628:.\Generated_Source\PSoC5/Bootloader_1.c ****     uint8     dataBuffer  [Bootloader_1_SIZEOF_COMMAND_BUFFER];
 629:.\Generated_Source\PSoC5/Bootloader_1.c **** 
 630:.\Generated_Source\PSoC5/Bootloader_1.c **** 
 631:.\Generated_Source\PSoC5/Bootloader_1.c ****     /* Initialize communications channel. */
 632:.\Generated_Source\PSoC5/Bootloader_1.c ****     CyBtldrCommStart();
 743              		.loc 1 632 0
 744 0038 FFF7FEFF 		bl	USBFS_CyBtldrCommStart
 633:.\Generated_Source\PSoC5/Bootloader_1.c **** 
 634:.\Generated_Source\PSoC5/Bootloader_1.c ****     /* Enable global interrupts */
 635:.\Generated_Source\PSoC5/Bootloader_1.c ****     CyGlobalIntEnable;
 745              		.loc 1 635 0
 746              	@ 635 ".\Generated_Source\PSoC5\Bootloader_1.c" 1
 747 003c 62B6     		CPSIE   i
 748              	@ 0 "" 2
 749              		.thumb
 750              	.L88:
 636:.\Generated_Source\PSoC5/Bootloader_1.c **** 
 637:.\Generated_Source\PSoC5/Bootloader_1.c ****     do
 638:.\Generated_Source\PSoC5/Bootloader_1.c ****     {
 639:.\Generated_Source\PSoC5/Bootloader_1.c ****         ackCode = CYRET_SUCCESS;
 751              		.loc 1 639 0
 752 003e 4FF00003 		mov	r3, #0
 753 0042 87F8AD33 		strb	r3, [r7, #941]
 754              	.L44:
 640:.\Generated_Source\PSoC5/Bootloader_1.c **** 
 641:.\Generated_Source\PSoC5/Bootloader_1.c ****         do
 642:.\Generated_Source\PSoC5/Bootloader_1.c ****         {
 643:.\Generated_Source\PSoC5/Bootloader_1.c ****             readStat = CyBtldrCommRead(packetBuffer,
 755              		.loc 1 643 0
 756 0046 07F10703 		add	r3, r7, #7
 757 004a 1B78     		ldrb	r3, [r3, #0]	@ zero_extendqisi2
 758 004c 002B     		cmp	r3, #0
 759 004e 03D0     		beq	.L40
 760              		.loc 1 643 0 is_stmt 0 discriminator 1
 761 0050 07F10703 		add	r3, r7, #7
 762 0054 1B78     		ldrb	r3, [r3, #0]	@ zero_extendqisi2
 763 0056 01E0     		b	.L41
 764              	.L40:
 765              		.loc 1 643 0 discriminator 2
 766 0058 4FF0FF03 		mov	r3, #255
 767              	.L41:
 768              		.loc 1 643 0 discriminator 3
 769 005c 07F51871 		add	r1, r7, #608
 770 0060 07F28E32 		addw	r2, r7, #910
 771 0064 0846     		mov	r0, r1
ARM GAS  C:\Users\Robert\AppData\Local\Temp\ccgj8kBb.s 			page 26


 772 0066 4FF49671 		mov	r1, #300
 773 006a FFF7FEFF 		bl	USBFS_CyBtldrCommRead
 774 006e C7F89C03 		str	r0, [r7, #924]
 644:.\Generated_Source\PSoC5/Bootloader_1.c ****                                         Bootloader_1_SIZEOF_COMMAND_BUFFER,
 645:.\Generated_Source\PSoC5/Bootloader_1.c ****                                         &numberRead,
 646:.\Generated_Source\PSoC5/Bootloader_1.c ****                                         (0u == timeOut) ? 0xFFu : timeOut);
 647:.\Generated_Source\PSoC5/Bootloader_1.c ****             if (0u != timeOut)
 775              		.loc 1 647 0 is_stmt 1 discriminator 3
 776 0072 07F10703 		add	r3, r7, #7
 777 0076 1B78     		ldrb	r3, [r3, #0]	@ zero_extendqisi2
 778 0078 002B     		cmp	r3, #0
 779 007a 05D0     		beq	.L42
 648:.\Generated_Source\PSoC5/Bootloader_1.c ****             {
 649:.\Generated_Source\PSoC5/Bootloader_1.c ****                 timeOutCnt--;
 780              		.loc 1 649 0
 781 007c 97F8A733 		ldrb	r3, [r7, #935]
 782 0080 03F1FF33 		add	r3, r3, #-1
 783 0084 87F8A733 		strb	r3, [r7, #935]
 784              	.L42:
 650:.\Generated_Source\PSoC5/Bootloader_1.c ****             }
 651:.\Generated_Source\PSoC5/Bootloader_1.c **** 
 652:.\Generated_Source\PSoC5/Bootloader_1.c ****         } while ( (0u != timeOutCnt) && (readStat != CYRET_SUCCESS) );
 785              		.loc 1 652 0
 786 0088 97F8A733 		ldrb	r3, [r7, #935]	@ zero_extendqisi2
 787 008c 002B     		cmp	r3, #0
 788 008e 03D0     		beq	.L43
 789              		.loc 1 652 0 is_stmt 0 discriminator 1
 790 0090 D7F89C33 		ldr	r3, [r7, #924]
 791 0094 002B     		cmp	r3, #0
 792 0096 D6D1     		bne	.L44
 793              	.L43:
 653:.\Generated_Source\PSoC5/Bootloader_1.c **** 
 654:.\Generated_Source\PSoC5/Bootloader_1.c **** 
 655:.\Generated_Source\PSoC5/Bootloader_1.c ****         if( readStat != CYRET_SUCCESS )
 794              		.loc 1 655 0 is_stmt 1
 795 0098 D7F89C33 		ldr	r3, [r7, #924]
 796 009c 002B     		cmp	r3, #0
 797 009e 40F0CA82 		bne	.L89
 798              	.L45:
 656:.\Generated_Source\PSoC5/Bootloader_1.c ****         {
 657:.\Generated_Source\PSoC5/Bootloader_1.c ****             continue;
 658:.\Generated_Source\PSoC5/Bootloader_1.c ****         }
 659:.\Generated_Source\PSoC5/Bootloader_1.c **** 
 660:.\Generated_Source\PSoC5/Bootloader_1.c ****         if((numberRead < Bootloader_1_MIN_PKT_SIZE) ||
 799              		.loc 1 660 0
 800 00a2 B7F88E33 		ldrh	r3, [r7, #910]
 801 00a6 062B     		cmp	r3, #6
 802 00a8 04D9     		bls	.L47
 661:.\Generated_Source\PSoC5/Bootloader_1.c ****            (packetBuffer[Bootloader_1_SOP_ADDR] != Bootloader_1_SOP))
 803              		.loc 1 661 0 discriminator 1
 804 00aa 07F51873 		add	r3, r7, #608
 805 00ae 1B78     		ldrb	r3, [r3, #0]	@ zero_extendqisi2
 660:.\Generated_Source\PSoC5/Bootloader_1.c ****         if((numberRead < Bootloader_1_MIN_PKT_SIZE) ||
 806              		.loc 1 660 0 discriminator 1
 807 00b0 012B     		cmp	r3, #1
 808 00b2 04D0     		beq	.L48
 809              	.L47:
ARM GAS  C:\Users\Robert\AppData\Local\Temp\ccgj8kBb.s 			page 27


 662:.\Generated_Source\PSoC5/Bootloader_1.c ****         {
 663:.\Generated_Source\PSoC5/Bootloader_1.c ****             ackCode = Bootloader_1_ERR_DATA;
 810              		.loc 1 663 0
 811 00b4 4FF00403 		mov	r3, #4
 812 00b8 87F8AD33 		strb	r3, [r7, #941]
 813 00bc 4EE0     		b	.L49
 814              	.L48:
 664:.\Generated_Source\PSoC5/Bootloader_1.c ****         }
 665:.\Generated_Source\PSoC5/Bootloader_1.c ****         else
 666:.\Generated_Source\PSoC5/Bootloader_1.c ****         {
 667:.\Generated_Source\PSoC5/Bootloader_1.c ****             pktSize = ((uint16)((uint16)packetBuffer[Bootloader_1_SIZE_ADDR + 1u] << 8u)) |
 815              		.loc 1 667 0
 816 00be 07F51873 		add	r3, r7, #608
 817 00c2 DB78     		ldrb	r3, [r3, #3]	@ zero_extendqisi2
 818 00c4 4FEA0323 		lsl	r3, r3, #8
 819 00c8 9AB2     		uxth	r2, r3
 668:.\Generated_Source\PSoC5/Bootloader_1.c ****                                packetBuffer[Bootloader_1_SIZE_ADDR];
 820              		.loc 1 668 0
 821 00ca 07F51873 		add	r3, r7, #608
 822 00ce 9B78     		ldrb	r3, [r3, #2]	@ zero_extendqisi2
 667:.\Generated_Source\PSoC5/Bootloader_1.c ****             pktSize = ((uint16)((uint16)packetBuffer[Bootloader_1_SIZE_ADDR + 1u] << 8u)) |
 823              		.loc 1 667 0
 824 00d0 1343     		orrs	r3, r3, r2
 825 00d2 A7F8AA33 		strh	r3, [r7, #938]	@ movhi
 669:.\Generated_Source\PSoC5/Bootloader_1.c **** 
 670:.\Generated_Source\PSoC5/Bootloader_1.c ****             pktChecksum = ((uint16)((uint16)packetBuffer[Bootloader_1_CHK_ADDR(pktSize) + 1u] << 8u
 826              		.loc 1 670 0
 827 00d6 B7F8AA33 		ldrh	r3, [r7, #938]
 828 00da 03F10503 		add	r3, r3, #5
 829 00de 07F51872 		add	r2, r7, #608
 830 00e2 D35C     		ldrb	r3, [r2, r3]	@ zero_extendqisi2
 831 00e4 4FEA0323 		lsl	r3, r3, #8
 832 00e8 9AB2     		uxth	r2, r3
 671:.\Generated_Source\PSoC5/Bootloader_1.c ****                                    packetBuffer[Bootloader_1_CHK_ADDR(pktSize)];
 833              		.loc 1 671 0
 834 00ea B7F8AA33 		ldrh	r3, [r7, #938]
 835 00ee 03F10403 		add	r3, r3, #4
 836 00f2 07F51871 		add	r1, r7, #608
 837 00f6 CB5C     		ldrb	r3, [r1, r3]	@ zero_extendqisi2
 670:.\Generated_Source\PSoC5/Bootloader_1.c ****             pktChecksum = ((uint16)((uint16)packetBuffer[Bootloader_1_CHK_ADDR(pktSize) + 1u] << 8u
 838              		.loc 1 670 0
 839 00f8 1343     		orrs	r3, r3, r2
 840 00fa A7F89A33 		strh	r3, [r7, #922]	@ movhi
 672:.\Generated_Source\PSoC5/Bootloader_1.c **** 
 673:.\Generated_Source\PSoC5/Bootloader_1.c ****             if((pktSize + Bootloader_1_MIN_PKT_SIZE) > numberRead)
 841              		.loc 1 673 0
 842 00fe B7F8AA33 		ldrh	r3, [r7, #938]
 843 0102 03F10702 		add	r2, r3, #7
 844 0106 B7F88E33 		ldrh	r3, [r7, #910]
 845 010a 9A42     		cmp	r2, r3
 846 010c 04D9     		bls	.L50
 674:.\Generated_Source\PSoC5/Bootloader_1.c ****             {
 675:.\Generated_Source\PSoC5/Bootloader_1.c ****                 ackCode = Bootloader_1_ERR_LENGTH;
 847              		.loc 1 675 0
 848 010e 4FF00303 		mov	r3, #3
 849 0112 87F8AD33 		strb	r3, [r7, #941]
 850 0116 21E0     		b	.L49
ARM GAS  C:\Users\Robert\AppData\Local\Temp\ccgj8kBb.s 			page 28


 851              	.L50:
 676:.\Generated_Source\PSoC5/Bootloader_1.c ****             }
 677:.\Generated_Source\PSoC5/Bootloader_1.c ****             else if(packetBuffer[Bootloader_1_EOP_ADDR(pktSize)] != Bootloader_1_EOP)
 852              		.loc 1 677 0
 853 0118 B7F8AA33 		ldrh	r3, [r7, #938]
 854 011c 03F10603 		add	r3, r3, #6
 855 0120 07F51872 		add	r2, r7, #608
 856 0124 D35C     		ldrb	r3, [r2, r3]	@ zero_extendqisi2
 857 0126 172B     		cmp	r3, #23
 858 0128 04D0     		beq	.L51
 678:.\Generated_Source\PSoC5/Bootloader_1.c ****             {
 679:.\Generated_Source\PSoC5/Bootloader_1.c ****                 ackCode = Bootloader_1_ERR_DATA;
 859              		.loc 1 679 0
 860 012a 4FF00403 		mov	r3, #4
 861 012e 87F8AD33 		strb	r3, [r7, #941]
 862 0132 13E0     		b	.L49
 863              	.L51:
 680:.\Generated_Source\PSoC5/Bootloader_1.c ****             }
 681:.\Generated_Source\PSoC5/Bootloader_1.c ****             else if(pktChecksum != Bootloader_1_CalcPacketChecksum(packetBuffer,
 864              		.loc 1 681 0
 865 0134 B7F8AA33 		ldrh	r3, [r7, #938]	@ movhi
 866 0138 03F10403 		add	r3, r3, #4
 867 013c 9BB2     		uxth	r3, r3
 868 013e 07F51872 		add	r2, r7, #608
 869 0142 1046     		mov	r0, r2
 870 0144 1946     		mov	r1, r3
 871 0146 FFF7FEFF 		bl	Bootloader_1_CalcPacketChecksum
 872 014a 0346     		mov	r3, r0
 873 014c B7F89A23 		ldrh	r2, [r7, #922]
 874 0150 9A42     		cmp	r2, r3
 875 0152 03D0     		beq	.L49
 682:.\Generated_Source\PSoC5/Bootloader_1.c ****                                                                         pktSize + Bootloader_1_DATA
 683:.\Generated_Source\PSoC5/Bootloader_1.c ****             {
 684:.\Generated_Source\PSoC5/Bootloader_1.c ****                 ackCode = Bootloader_1_ERR_CHECKSUM;
 876              		.loc 1 684 0
 877 0154 4FF00803 		mov	r3, #8
 878 0158 87F8AD33 		strb	r3, [r7, #941]
 879              	.L49:
 685:.\Generated_Source\PSoC5/Bootloader_1.c ****             }
 686:.\Generated_Source\PSoC5/Bootloader_1.c ****             else
 687:.\Generated_Source\PSoC5/Bootloader_1.c ****             {
 688:.\Generated_Source\PSoC5/Bootloader_1.c ****                 /* Empty section */
 689:.\Generated_Source\PSoC5/Bootloader_1.c ****             }
 690:.\Generated_Source\PSoC5/Bootloader_1.c ****         }
 691:.\Generated_Source\PSoC5/Bootloader_1.c **** 
 692:.\Generated_Source\PSoC5/Bootloader_1.c ****         rspSize = 0u;
 880              		.loc 1 692 0
 881 015c 4FF00003 		mov	r3, #0
 882 0160 A7F8AE33 		strh	r3, [r7, #942]	@ movhi
 693:.\Generated_Source\PSoC5/Bootloader_1.c ****         if(ackCode == CYRET_SUCCESS)
 883              		.loc 1 693 0
 884 0164 97F8AD33 		ldrb	r3, [r7, #941]	@ zero_extendqisi2
 885 0168 002B     		cmp	r3, #0
 886 016a 40F05882 		bne	.L52
 887              	.LBB3:
 694:.\Generated_Source\PSoC5/Bootloader_1.c ****         {
 695:.\Generated_Source\PSoC5/Bootloader_1.c ****             uint8 CYDATA btldrData = packetBuffer[Bootloader_1_DATA_ADDR];
ARM GAS  C:\Users\Robert\AppData\Local\Temp\ccgj8kBb.s 			page 29


 888              		.loc 1 695 0
 889 016e 07F51873 		add	r3, r7, #608
 890 0172 1B79     		ldrb	r3, [r3, #4]
 891 0174 87F89933 		strb	r3, [r7, #921]
 696:.\Generated_Source\PSoC5/Bootloader_1.c **** 
 697:.\Generated_Source\PSoC5/Bootloader_1.c ****             ackCode = Bootloader_1_ERR_DATA;
 892              		.loc 1 697 0
 893 0178 4FF00403 		mov	r3, #4
 894 017c 87F8AD33 		strb	r3, [r7, #941]
 698:.\Generated_Source\PSoC5/Bootloader_1.c ****             switch(packetBuffer[Bootloader_1_CMD_ADDR])
 895              		.loc 1 698 0
 896 0180 07F51873 		add	r3, r7, #608
 897 0184 5B78     		ldrb	r3, [r3, #1]	@ zero_extendqisi2
 898 0186 A3F13103 		sub	r3, r3, #49
 899 018a 0A2B     		cmp	r3, #10
 900 018c 00F23582 		bhi	.L53
 901 0190 01A2     		adr	r2, .L62
 902 0192 52F823F0 		ldr	pc, [r2, r3, lsl #2]
 903 0196 00BF     		.align	2
 904              	.L62:
 905 0198 C5010000 		.word	.L54+1
 906 019c 07020000 		.word	.L55+1
 907 01a0 FB050000 		.word	.L53+1
 908 01a4 71020000 		.word	.L56+1
 909 01a8 DB030000 		.word	.L57+1
 910 01ac FB050000 		.word	.L53+1
 911 01b0 EF030000 		.word	.L58+1
 912 01b4 4B040000 		.word	.L59+1
 913 01b8 71020000 		.word	.L56+1
 914 01bc 9D040000 		.word	.L60+1
 915 01c0 D9050000 		.word	.L61+1
 916              	.L54:
 699:.\Generated_Source\PSoC5/Bootloader_1.c ****             {
 700:.\Generated_Source\PSoC5/Bootloader_1.c **** 
 701:.\Generated_Source\PSoC5/Bootloader_1.c **** 
 702:.\Generated_Source\PSoC5/Bootloader_1.c ****             /***************************************************************************
 703:.\Generated_Source\PSoC5/Bootloader_1.c ****             *   Get metadata
 704:.\Generated_Source\PSoC5/Bootloader_1.c ****             ***************************************************************************/
 705:.\Generated_Source\PSoC5/Bootloader_1.c ****             #if(0u != Bootloader_1_CMD_GET_METADATA)
 706:.\Generated_Source\PSoC5/Bootloader_1.c **** 
 707:.\Generated_Source\PSoC5/Bootloader_1.c ****                 case Bootloader_1_COMMAND_GET_METADATA:
 708:.\Generated_Source\PSoC5/Bootloader_1.c **** 
 709:.\Generated_Source\PSoC5/Bootloader_1.c ****                     if((Bootloader_1_COMMUNICATION_STATE_ACTIVE == communicationState) && (pktSize 
 710:.\Generated_Source\PSoC5/Bootloader_1.c ****                     {
 711:.\Generated_Source\PSoC5/Bootloader_1.c ****                         if (btldrData >= Bootloader_1_MAX_NUM_OF_BTLDB)
 712:.\Generated_Source\PSoC5/Bootloader_1.c ****                         {
 713:.\Generated_Source\PSoC5/Bootloader_1.c ****                             ackCode = Bootloader_1_ERR_APP;
 714:.\Generated_Source\PSoC5/Bootloader_1.c ****                         }
 715:.\Generated_Source\PSoC5/Bootloader_1.c ****                         else if(CYRET_SUCCESS == Bootloader_1_ValidateBootloadable(btldrData))
 716:.\Generated_Source\PSoC5/Bootloader_1.c ****                         {
 717:.\Generated_Source\PSoC5/Bootloader_1.c ****                             #if(CY_PSOC3)
 718:.\Generated_Source\PSoC5/Bootloader_1.c ****                                 (void) memcpy(&packetBuffer[Bootloader_1_DATA_ADDR],
 719:.\Generated_Source\PSoC5/Bootloader_1.c ****                                             ((uint8  CYCODE *) (Bootloader_1_META_BASE(btldrData)))
 720:.\Generated_Source\PSoC5/Bootloader_1.c ****                             #else
 721:.\Generated_Source\PSoC5/Bootloader_1.c ****                                 (void) memcpy(&packetBuffer[Bootloader_1_DATA_ADDR],
 722:.\Generated_Source\PSoC5/Bootloader_1.c ****                                             (uint8 *) Bootloader_1_META_BASE(btldrData), 56u);
 723:.\Generated_Source\PSoC5/Bootloader_1.c ****                             #endif  /* (CY_PSOC3) */
ARM GAS  C:\Users\Robert\AppData\Local\Temp\ccgj8kBb.s 			page 30


 724:.\Generated_Source\PSoC5/Bootloader_1.c **** 
 725:.\Generated_Source\PSoC5/Bootloader_1.c ****                             rspSize = 56u;
 726:.\Generated_Source\PSoC5/Bootloader_1.c ****                             ackCode = CYRET_SUCCESS;
 727:.\Generated_Source\PSoC5/Bootloader_1.c ****                         }
 728:.\Generated_Source\PSoC5/Bootloader_1.c ****                         else
 729:.\Generated_Source\PSoC5/Bootloader_1.c ****                         {
 730:.\Generated_Source\PSoC5/Bootloader_1.c ****                             ackCode = Bootloader_1_ERR_APP;
 731:.\Generated_Source\PSoC5/Bootloader_1.c ****                         }
 732:.\Generated_Source\PSoC5/Bootloader_1.c ****                     }
 733:.\Generated_Source\PSoC5/Bootloader_1.c ****                     break;
 734:.\Generated_Source\PSoC5/Bootloader_1.c **** 
 735:.\Generated_Source\PSoC5/Bootloader_1.c ****             #endif  /* (0u != Bootloader_1_CMD_GET_METADATA) */
 736:.\Generated_Source\PSoC5/Bootloader_1.c **** 
 737:.\Generated_Source\PSoC5/Bootloader_1.c **** 
 738:.\Generated_Source\PSoC5/Bootloader_1.c ****             /***************************************************************************
 739:.\Generated_Source\PSoC5/Bootloader_1.c ****             *   Verify checksum
 740:.\Generated_Source\PSoC5/Bootloader_1.c ****             ***************************************************************************/
 741:.\Generated_Source\PSoC5/Bootloader_1.c ****             case Bootloader_1_COMMAND_CHECKSUM:
 742:.\Generated_Source\PSoC5/Bootloader_1.c **** 
 743:.\Generated_Source\PSoC5/Bootloader_1.c ****                 if((Bootloader_1_COMMUNICATION_STATE_ACTIVE == communicationState) && (pktSize == 0
 917              		.loc 1 743 0
 918 01c4 97F8A533 		ldrb	r3, [r7, #933]	@ zero_extendqisi2
 919 01c8 012B     		cmp	r3, #1
 920 01ca 40F01B82 		bne	.L90
 921              		.loc 1 743 0 is_stmt 0 discriminator 1
 922 01ce B7F8AA33 		ldrh	r3, [r7, #938]
 923 01d2 002B     		cmp	r3, #0
 924 01d4 40F01682 		bne	.L90
 744:.\Generated_Source\PSoC5/Bootloader_1.c ****                 {
 745:.\Generated_Source\PSoC5/Bootloader_1.c ****                     packetBuffer[Bootloader_1_DATA_ADDR] =
 746:.\Generated_Source\PSoC5/Bootloader_1.c ****                             (uint8)(Bootloader_1_ValidateBootloadable(Bootloader_1_activeApp) == CY
 925              		.loc 1 746 0 is_stmt 1
 926 01d8 4FF00000 		mov	r0, #0
 927 01dc FFF7FEFF 		bl	Bootloader_1_ValidateBootloadable
 928 01e0 0346     		mov	r3, r0
 929 01e2 002B     		cmp	r3, #0
 930 01e4 14BF     		ite	ne
 931 01e6 0023     		movne	r3, #0
 932 01e8 0123     		moveq	r3, #1
 933 01ea DBB2     		uxtb	r3, r3
 934 01ec 1A46     		mov	r2, r3
 745:.\Generated_Source\PSoC5/Bootloader_1.c ****                     packetBuffer[Bootloader_1_DATA_ADDR] =
 935              		.loc 1 745 0
 936 01ee 07F51873 		add	r3, r7, #608
 937 01f2 1A71     		strb	r2, [r3, #4]
 747:.\Generated_Source\PSoC5/Bootloader_1.c **** 
 748:.\Generated_Source\PSoC5/Bootloader_1.c ****                     rspSize = 1u;
 938              		.loc 1 748 0
 939 01f4 4FF00103 		mov	r3, #1
 940 01f8 A7F8AE33 		strh	r3, [r7, #942]	@ movhi
 749:.\Generated_Source\PSoC5/Bootloader_1.c ****                     ackCode = CYRET_SUCCESS;
 941              		.loc 1 749 0
 942 01fc 4FF00003 		mov	r3, #0
 943 0200 87F8AD33 		strb	r3, [r7, #941]
 750:.\Generated_Source\PSoC5/Bootloader_1.c ****                 }
 751:.\Generated_Source\PSoC5/Bootloader_1.c ****                 break;
 944              		.loc 1 751 0
ARM GAS  C:\Users\Robert\AppData\Local\Temp\ccgj8kBb.s 			page 31


 945 0204 FEE1     		b	.L90
 946              	.L55:
 752:.\Generated_Source\PSoC5/Bootloader_1.c **** 
 753:.\Generated_Source\PSoC5/Bootloader_1.c **** 
 754:.\Generated_Source\PSoC5/Bootloader_1.c ****             /***************************************************************************
 755:.\Generated_Source\PSoC5/Bootloader_1.c ****             *   Get flash size
 756:.\Generated_Source\PSoC5/Bootloader_1.c ****             ***************************************************************************/
 757:.\Generated_Source\PSoC5/Bootloader_1.c ****             #if(0u != Bootloader_1_CMD_GET_FLASH_SIZE_AVAIL)
 758:.\Generated_Source\PSoC5/Bootloader_1.c **** 
 759:.\Generated_Source\PSoC5/Bootloader_1.c ****                 case Bootloader_1_COMMAND_REPORT_SIZE:
 760:.\Generated_Source\PSoC5/Bootloader_1.c **** 
 761:.\Generated_Source\PSoC5/Bootloader_1.c ****                     if((Bootloader_1_COMMUNICATION_STATE_ACTIVE == communicationState) && (pktSize 
 947              		.loc 1 761 0
 948 0206 97F8A533 		ldrb	r3, [r7, #933]	@ zero_extendqisi2
 949 020a 012B     		cmp	r3, #1
 950 020c 40F0FC81 		bne	.L91
 951              		.loc 1 761 0 is_stmt 0 discriminator 1
 952 0210 B7F8AA33 		ldrh	r3, [r7, #938]
 953 0214 012B     		cmp	r3, #1
 954 0216 40F0F781 		bne	.L91
 762:.\Generated_Source\PSoC5/Bootloader_1.c ****                     {
 763:.\Generated_Source\PSoC5/Bootloader_1.c ****                         /* btldrData holds flash array ID sent by host */
 764:.\Generated_Source\PSoC5/Bootloader_1.c ****                         if(btldrData < Bootloader_1_NUM_OF_FLASH_ARRAYS)
 955              		.loc 1 764 0 is_stmt 1
 956 021a 97F89933 		ldrb	r3, [r7, #921]	@ zero_extendqisi2
 957 021e 032B     		cmp	r3, #3
 958 0220 00F2F281 		bhi	.L91
 959              	.LBB4:
 765:.\Generated_Source\PSoC5/Bootloader_1.c ****                         {
 766:.\Generated_Source\PSoC5/Bootloader_1.c ****                             #if (1u == Bootloader_1_NUM_OF_FLASH_ARRAYS)
 767:.\Generated_Source\PSoC5/Bootloader_1.c ****                                 uint16 CYDATA startRow = (uint16)*Bootloader_1_SizeBytesAccess / CY
 768:.\Generated_Source\PSoC5/Bootloader_1.c ****                             #else
 769:.\Generated_Source\PSoC5/Bootloader_1.c ****                                 uint16 CYDATA startRow = 0u;
 960              		.loc 1 769 0
 961 0224 4FF00003 		mov	r3, #0
 962 0228 A7F89633 		strh	r3, [r7, #918]	@ movhi
 770:.\Generated_Source\PSoC5/Bootloader_1.c ****                             #endif  /* (1u == Bootloader_1_NUM_OF_FLASH_ARRAYS) */
 771:.\Generated_Source\PSoC5/Bootloader_1.c **** 
 772:.\Generated_Source\PSoC5/Bootloader_1.c ****                             packetBuffer[Bootloader_1_DATA_ADDR]      = LO8(startRow);
 963              		.loc 1 772 0
 964 022c B7F89633 		ldrh	r3, [r7, #918]	@ movhi
 965 0230 DAB2     		uxtb	r2, r3
 966 0232 07F51873 		add	r3, r7, #608
 967 0236 1A71     		strb	r2, [r3, #4]
 773:.\Generated_Source\PSoC5/Bootloader_1.c ****                             packetBuffer[Bootloader_1_DATA_ADDR + 1u] = HI8(startRow);
 968              		.loc 1 773 0
 969 0238 B7F89633 		ldrh	r3, [r7, #918]
 970 023c 4FEA1323 		lsr	r3, r3, #8
 971 0240 9BB2     		uxth	r3, r3
 972 0242 DAB2     		uxtb	r2, r3
 973 0244 07F51873 		add	r3, r7, #608
 974 0248 5A71     		strb	r2, [r3, #5]
 774:.\Generated_Source\PSoC5/Bootloader_1.c ****                             packetBuffer[Bootloader_1_DATA_ADDR + 2u] = LO8(CY_FLASH_NUMBER_ROWS - 
 975              		.loc 1 774 0
 976 024a 07F51873 		add	r3, r7, #608
 977 024e 4FF0FF02 		mov	r2, #255
 978 0252 9A71     		strb	r2, [r3, #6]
ARM GAS  C:\Users\Robert\AppData\Local\Temp\ccgj8kBb.s 			page 32


 775:.\Generated_Source\PSoC5/Bootloader_1.c ****                             packetBuffer[Bootloader_1_DATA_ADDR + 3u] = HI8(CY_FLASH_NUMBER_ROWS - 
 979              		.loc 1 775 0
 980 0254 07F51873 		add	r3, r7, #608
 981 0258 4FF00302 		mov	r2, #3
 982 025c DA71     		strb	r2, [r3, #7]
 776:.\Generated_Source\PSoC5/Bootloader_1.c **** 
 777:.\Generated_Source\PSoC5/Bootloader_1.c ****                             rspSize = 4u;
 983              		.loc 1 777 0
 984 025e 4FF00403 		mov	r3, #4
 985 0262 A7F8AE33 		strh	r3, [r7, #942]	@ movhi
 778:.\Generated_Source\PSoC5/Bootloader_1.c ****                             ackCode = CYRET_SUCCESS;
 986              		.loc 1 778 0
 987 0266 4FF00003 		mov	r3, #0
 988 026a 87F8AD33 		strb	r3, [r7, #941]
 989              	.LBE4:
 779:.\Generated_Source\PSoC5/Bootloader_1.c ****                         }
 780:.\Generated_Source\PSoC5/Bootloader_1.c **** 
 781:.\Generated_Source\PSoC5/Bootloader_1.c ****                     }
 782:.\Generated_Source\PSoC5/Bootloader_1.c ****                     break;
 990              		.loc 1 782 0
 991 026e CBE1     		b	.L91
 992              	.L56:
 783:.\Generated_Source\PSoC5/Bootloader_1.c **** 
 784:.\Generated_Source\PSoC5/Bootloader_1.c ****             #endif  /* (0u != Bootloader_1_CMD_GET_FLASH_SIZE_AVAIL) */
 785:.\Generated_Source\PSoC5/Bootloader_1.c **** 
 786:.\Generated_Source\PSoC5/Bootloader_1.c **** 
 787:.\Generated_Source\PSoC5/Bootloader_1.c ****             /***************************************************************************
 788:.\Generated_Source\PSoC5/Bootloader_1.c ****             *   Get application status
 789:.\Generated_Source\PSoC5/Bootloader_1.c ****             ***************************************************************************/
 790:.\Generated_Source\PSoC5/Bootloader_1.c ****             #if(0u != Bootloader_1_DUAL_APP_BOOTLOADER)
 791:.\Generated_Source\PSoC5/Bootloader_1.c **** 
 792:.\Generated_Source\PSoC5/Bootloader_1.c ****                 #if(0u != Bootloader_1_CMD_GET_APP_STATUS_AVAIL)
 793:.\Generated_Source\PSoC5/Bootloader_1.c **** 
 794:.\Generated_Source\PSoC5/Bootloader_1.c ****                     case Bootloader_1_COMMAND_APP_STATUS:
 795:.\Generated_Source\PSoC5/Bootloader_1.c **** 
 796:.\Generated_Source\PSoC5/Bootloader_1.c ****                         if((Bootloader_1_COMMUNICATION_STATE_ACTIVE == communicationState) && (pktS
 797:.\Generated_Source\PSoC5/Bootloader_1.c ****                         {
 798:.\Generated_Source\PSoC5/Bootloader_1.c **** 
 799:.\Generated_Source\PSoC5/Bootloader_1.c ****                             packetBuffer[Bootloader_1_DATA_ADDR] =
 800:.\Generated_Source\PSoC5/Bootloader_1.c ****                                 (uint8)Bootloader_1_ValidateBootloadable(btldrData);
 801:.\Generated_Source\PSoC5/Bootloader_1.c **** 
 802:.\Generated_Source\PSoC5/Bootloader_1.c ****                             packetBuffer[Bootloader_1_DATA_ADDR + 1u] =
 803:.\Generated_Source\PSoC5/Bootloader_1.c ****                                 (uint8)Bootloader_1_MD_BTLDB_ACTIVE_VALUE(btldrData);
 804:.\Generated_Source\PSoC5/Bootloader_1.c **** 
 805:.\Generated_Source\PSoC5/Bootloader_1.c ****                             rspSize = 2u;
 806:.\Generated_Source\PSoC5/Bootloader_1.c ****                             ackCode = CYRET_SUCCESS;
 807:.\Generated_Source\PSoC5/Bootloader_1.c ****                         }
 808:.\Generated_Source\PSoC5/Bootloader_1.c ****                         break;
 809:.\Generated_Source\PSoC5/Bootloader_1.c **** 
 810:.\Generated_Source\PSoC5/Bootloader_1.c ****                 #endif  /* (0u != Bootloader_1_CMD_GET_APP_STATUS_AVAIL) */
 811:.\Generated_Source\PSoC5/Bootloader_1.c **** 
 812:.\Generated_Source\PSoC5/Bootloader_1.c ****             #endif  /* (0u != Bootloader_1_DUAL_APP_BOOTLOADER) */
 813:.\Generated_Source\PSoC5/Bootloader_1.c **** 
 814:.\Generated_Source\PSoC5/Bootloader_1.c **** 
 815:.\Generated_Source\PSoC5/Bootloader_1.c ****             /***************************************************************************
 816:.\Generated_Source\PSoC5/Bootloader_1.c ****             *   Program / Erase row
 817:.\Generated_Source\PSoC5/Bootloader_1.c ****             ***************************************************************************/
ARM GAS  C:\Users\Robert\AppData\Local\Temp\ccgj8kBb.s 			page 33


 818:.\Generated_Source\PSoC5/Bootloader_1.c ****             case Bootloader_1_COMMAND_PROGRAM:
 819:.\Generated_Source\PSoC5/Bootloader_1.c **** 
 820:.\Generated_Source\PSoC5/Bootloader_1.c ****             /* The btldrData variable holds Flash Array ID */
 821:.\Generated_Source\PSoC5/Bootloader_1.c **** 
 822:.\Generated_Source\PSoC5/Bootloader_1.c ****         #if (0u != Bootloader_1_CMD_ERASE_ROW_AVAIL)
 823:.\Generated_Source\PSoC5/Bootloader_1.c **** 
 824:.\Generated_Source\PSoC5/Bootloader_1.c ****             case Bootloader_1_COMMAND_ERASE:
 825:.\Generated_Source\PSoC5/Bootloader_1.c ****                 if (Bootloader_1_COMMAND_ERASE == packetBuffer[Bootloader_1_CMD_ADDR])
 993              		.loc 1 825 0
 994 0270 07F51873 		add	r3, r7, #608
 995 0274 5B78     		ldrb	r3, [r3, #1]	@ zero_extendqisi2
 996 0276 342B     		cmp	r3, #52
 997 0278 25D1     		bne	.L65
 826:.\Generated_Source\PSoC5/Bootloader_1.c ****                 {
 827:.\Generated_Source\PSoC5/Bootloader_1.c ****                     if ((Bootloader_1_COMMUNICATION_STATE_ACTIVE == communicationState) && (pktSize
 998              		.loc 1 827 0
 999 027a 97F8A533 		ldrb	r3, [r7, #933]	@ zero_extendqisi2
 1000 027e 012B     		cmp	r3, #1
 1001 0280 40F0CD81 		bne	.L52
 1002              		.loc 1 827 0 is_stmt 0 discriminator 1
 1003 0284 B7F8AA33 		ldrh	r3, [r7, #938]
 1004 0288 032B     		cmp	r3, #3
 1005 028a 40F0C881 		bne	.L52
 828:.\Generated_Source\PSoC5/Bootloader_1.c ****                     {
 829:.\Generated_Source\PSoC5/Bootloader_1.c ****                         #if(!CY_PSOC4)
 830:.\Generated_Source\PSoC5/Bootloader_1.c ****                             if((btldrData >= Bootloader_1_FIRST_EE_ARRAYID) &&
 1006              		.loc 1 830 0 is_stmt 1
 1007 028e 97F89933 		ldrb	r3, [r7, #921]	@ zero_extendqisi2
 1008 0292 3F2B     		cmp	r3, #63
 1009 0294 09D9     		bls	.L66
 831:.\Generated_Source\PSoC5/Bootloader_1.c ****                                (btldrData <= Bootloader_1_LAST_EE_ARRAYID))
 1010              		.loc 1 831 0 discriminator 1
 1011 0296 97F89933 		ldrb	r3, [r7, #921]	@ zero_extendqisi2
 830:.\Generated_Source\PSoC5/Bootloader_1.c ****                             if((btldrData >= Bootloader_1_FIRST_EE_ARRAYID) &&
 1012              		.loc 1 830 0 discriminator 1
 1013 029a 5BB2     		sxtb	r3, r3
 1014 029c 002B     		cmp	r3, #0
 1015 029e 04DB     		blt	.L66
 832:.\Generated_Source\PSoC5/Bootloader_1.c ****                             {
 833:.\Generated_Source\PSoC5/Bootloader_1.c ****                                 /* Size of EEPROM row */
 834:.\Generated_Source\PSoC5/Bootloader_1.c ****                                 dataOffset = CY_EEPROM_SIZEOF_ROW;
 1016              		.loc 1 834 0
 1017 02a0 4FF01003 		mov	r3, #16
 1018 02a4 A7F8A833 		strh	r3, [r7, #936]	@ movhi
 1019 02a8 03E0     		b	.L67
 1020              	.L66:
 835:.\Generated_Source\PSoC5/Bootloader_1.c ****                             }
 836:.\Generated_Source\PSoC5/Bootloader_1.c ****                             else
 837:.\Generated_Source\PSoC5/Bootloader_1.c ****                             {
 838:.\Generated_Source\PSoC5/Bootloader_1.c ****                                 /* Size of FLASH row (depends on ECC configuration) */
 839:.\Generated_Source\PSoC5/Bootloader_1.c ****                                 dataOffset = Bootloader_1_FROW_SIZE;
 1021              		.loc 1 839 0
 1022 02aa 4FF49073 		mov	r3, #288
 1023 02ae A7F8A833 		strh	r3, [r7, #936]	@ movhi
 1024              	.L67:
 840:.\Generated_Source\PSoC5/Bootloader_1.c ****                             }
 841:.\Generated_Source\PSoC5/Bootloader_1.c ****                         #else
ARM GAS  C:\Users\Robert\AppData\Local\Temp\ccgj8kBb.s 			page 34


 842:.\Generated_Source\PSoC5/Bootloader_1.c ****                             /* Size of FLASH row (no ECC available) */
 843:.\Generated_Source\PSoC5/Bootloader_1.c ****                             dataOffset = Bootloader_1_FROW_SIZE;
 844:.\Generated_Source\PSoC5/Bootloader_1.c ****                         #endif  /* (!CY_PSOC4) */
 845:.\Generated_Source\PSoC5/Bootloader_1.c **** 
 846:.\Generated_Source\PSoC5/Bootloader_1.c ****                         #if(CY_PSOC3)
 847:.\Generated_Source\PSoC5/Bootloader_1.c ****                             (void) memset(dataBuffer, (char8) 0, (int16) dataOffset);
 848:.\Generated_Source\PSoC5/Bootloader_1.c ****                         #else
 849:.\Generated_Source\PSoC5/Bootloader_1.c ****                             (void) memset(dataBuffer, 0, dataOffset);
 1025              		.loc 1 849 0
 1026 02b2 B7F8A833 		ldrh	r3, [r7, #936]
 1027 02b6 07F59A72 		add	r2, r7, #308
 1028 02ba 1046     		mov	r0, r2
 1029 02bc 4FF00001 		mov	r1, #0
 1030 02c0 1A46     		mov	r2, r3
 1031 02c2 FFF7FEFF 		bl	memset
 1032              	.L65:
 850:.\Generated_Source\PSoC5/Bootloader_1.c ****                         #endif  /* (CY_PSOC3) */
 851:.\Generated_Source\PSoC5/Bootloader_1.c ****                     }
 852:.\Generated_Source\PSoC5/Bootloader_1.c ****                     else
 853:.\Generated_Source\PSoC5/Bootloader_1.c ****                     {
 854:.\Generated_Source\PSoC5/Bootloader_1.c ****                         break;
 855:.\Generated_Source\PSoC5/Bootloader_1.c ****                     }
 856:.\Generated_Source\PSoC5/Bootloader_1.c ****                 }
 857:.\Generated_Source\PSoC5/Bootloader_1.c **** 
 858:.\Generated_Source\PSoC5/Bootloader_1.c ****         #endif  /* (0u != Bootloader_1_CMD_ERASE_ROW_AVAIL) */
 859:.\Generated_Source\PSoC5/Bootloader_1.c **** 
 860:.\Generated_Source\PSoC5/Bootloader_1.c **** 
 861:.\Generated_Source\PSoC5/Bootloader_1.c ****                 if((Bootloader_1_COMMUNICATION_STATE_ACTIVE == communicationState) && (pktSize >= 3
 1033              		.loc 1 861 0
 1034 02c6 97F8A533 		ldrb	r3, [r7, #933]	@ zero_extendqisi2
 1035 02ca 012B     		cmp	r3, #1
 1036 02cc 40F09E81 		bne	.L92
 1037              		.loc 1 861 0 is_stmt 0 discriminator 1
 1038 02d0 B7F8AA33 		ldrh	r3, [r7, #938]
 1039 02d4 022B     		cmp	r3, #2
 1040 02d6 40F29981 		bls	.L92
 862:.\Generated_Source\PSoC5/Bootloader_1.c ****                 {
 863:.\Generated_Source\PSoC5/Bootloader_1.c **** 
 864:.\Generated_Source\PSoC5/Bootloader_1.c ****                     /* The command may be sent along with the last block of data, to program the ro
 865:.\Generated_Source\PSoC5/Bootloader_1.c ****                     #if(CY_PSOC3)
 866:.\Generated_Source\PSoC5/Bootloader_1.c ****                         (void) memcpy(&dataBuffer[dataOffset],
 867:.\Generated_Source\PSoC5/Bootloader_1.c ****                                       &packetBuffer[Bootloader_1_DATA_ADDR + 3u],
 868:.\Generated_Source\PSoC5/Bootloader_1.c ****                                       ( int16 )pktSize - 3);
 869:.\Generated_Source\PSoC5/Bootloader_1.c ****                     #else
 870:.\Generated_Source\PSoC5/Bootloader_1.c ****                         (void) memcpy(&dataBuffer[dataOffset],
 1041              		.loc 1 870 0 is_stmt 1
 1042 02da B7F8A833 		ldrh	r3, [r7, #936]
 1043 02de 07F59A72 		add	r2, r7, #308
 1044 02e2 D118     		adds	r1, r2, r3
 1045 02e4 B7F8AA33 		ldrh	r3, [r7, #938]
 1046 02e8 A3F10303 		sub	r3, r3, #3
 871:.\Generated_Source\PSoC5/Bootloader_1.c ****                                       &packetBuffer[Bootloader_1_DATA_ADDR + 3u],
 1047              		.loc 1 871 0
 1048 02ec 07F51872 		add	r2, r7, #608
 1049 02f0 02F10702 		add	r2, r2, #7
 870:.\Generated_Source\PSoC5/Bootloader_1.c ****                         (void) memcpy(&dataBuffer[dataOffset],
 1050              		.loc 1 870 0
ARM GAS  C:\Users\Robert\AppData\Local\Temp\ccgj8kBb.s 			page 35


 1051 02f4 0846     		mov	r0, r1
 1052 02f6 1146     		mov	r1, r2
 1053 02f8 1A46     		mov	r2, r3
 1054 02fa FFF7FEFF 		bl	memcpy
 872:.\Generated_Source\PSoC5/Bootloader_1.c ****                                       pktSize - 3u);
 873:.\Generated_Source\PSoC5/Bootloader_1.c ****                     #endif  /* (CY_PSOC3) */
 874:.\Generated_Source\PSoC5/Bootloader_1.c **** 
 875:.\Generated_Source\PSoC5/Bootloader_1.c ****                     dataOffset += (pktSize - 3u);
 1055              		.loc 1 875 0
 1056 02fe B7F8A823 		ldrh	r2, [r7, #936]	@ movhi
 1057 0302 B7F8AA33 		ldrh	r3, [r7, #938]	@ movhi
 1058 0306 D318     		adds	r3, r2, r3
 1059 0308 9BB2     		uxth	r3, r3
 1060 030a A3F10303 		sub	r3, r3, #3
 1061 030e A7F8A833 		strh	r3, [r7, #936]	@ movhi
 876:.\Generated_Source\PSoC5/Bootloader_1.c **** 
 877:.\Generated_Source\PSoC5/Bootloader_1.c ****                     #if(!CY_PSOC4)
 878:.\Generated_Source\PSoC5/Bootloader_1.c ****                         if((btldrData >= Bootloader_1_FIRST_EE_ARRAYID) &&
 1062              		.loc 1 878 0
 1063 0312 97F89933 		ldrb	r3, [r7, #921]	@ zero_extendqisi2
 1064 0316 3F2B     		cmp	r3, #63
 1065 0318 0BD9     		bls	.L69
 879:.\Generated_Source\PSoC5/Bootloader_1.c ****                            (btldrData <= Bootloader_1_LAST_EE_ARRAYID))
 1066              		.loc 1 879 0 discriminator 1
 1067 031a 97F89933 		ldrb	r3, [r7, #921]	@ zero_extendqisi2
 878:.\Generated_Source\PSoC5/Bootloader_1.c ****                         if((btldrData >= Bootloader_1_FIRST_EE_ARRAYID) &&
 1068              		.loc 1 878 0 discriminator 1
 1069 031e 5BB2     		sxtb	r3, r3
 1070 0320 002B     		cmp	r3, #0
 1071 0322 06DB     		blt	.L69
 880:.\Generated_Source\PSoC5/Bootloader_1.c ****                         {
 881:.\Generated_Source\PSoC5/Bootloader_1.c **** 
 882:.\Generated_Source\PSoC5/Bootloader_1.c ****                             CyEEPROM_Start();
 1072              		.loc 1 882 0
 1073 0324 FFF7FEFF 		bl	CyEEPROM_Start
 883:.\Generated_Source\PSoC5/Bootloader_1.c **** 
 884:.\Generated_Source\PSoC5/Bootloader_1.c ****                             /* Size of EEPROM row */
 885:.\Generated_Source\PSoC5/Bootloader_1.c ****                             pktSize = CY_EEPROM_SIZEOF_ROW;
 1074              		.loc 1 885 0
 1075 0328 4FF01003 		mov	r3, #16
 1076 032c A7F8AA33 		strh	r3, [r7, #938]	@ movhi
 1077 0330 03E0     		b	.L70
 1078              	.L69:
 886:.\Generated_Source\PSoC5/Bootloader_1.c ****                         }
 887:.\Generated_Source\PSoC5/Bootloader_1.c ****                         else
 888:.\Generated_Source\PSoC5/Bootloader_1.c ****                         {
 889:.\Generated_Source\PSoC5/Bootloader_1.c ****                             /* Size of FLASH row (depends on ECC configuration) */
 890:.\Generated_Source\PSoC5/Bootloader_1.c ****                             pktSize = Bootloader_1_FROW_SIZE;
 1079              		.loc 1 890 0
 1080 0332 4FF49073 		mov	r3, #288
 1081 0336 A7F8AA33 		strh	r3, [r7, #938]	@ movhi
 1082              	.L70:
 891:.\Generated_Source\PSoC5/Bootloader_1.c ****                         }
 892:.\Generated_Source\PSoC5/Bootloader_1.c ****                     #else
 893:.\Generated_Source\PSoC5/Bootloader_1.c ****                         /* Size of FLASH row (no ECC available) */
 894:.\Generated_Source\PSoC5/Bootloader_1.c ****                         pktSize = Bootloader_1_FROW_SIZE;
 895:.\Generated_Source\PSoC5/Bootloader_1.c ****                     #endif  /* (!CY_PSOC4) */
ARM GAS  C:\Users\Robert\AppData\Local\Temp\ccgj8kBb.s 			page 36


 896:.\Generated_Source\PSoC5/Bootloader_1.c **** 
 897:.\Generated_Source\PSoC5/Bootloader_1.c **** 
 898:.\Generated_Source\PSoC5/Bootloader_1.c ****                     /* Check if we have all data to program */
 899:.\Generated_Source\PSoC5/Bootloader_1.c ****                     if(dataOffset == pktSize)
 1083              		.loc 1 899 0
 1084 033a B7F8A823 		ldrh	r2, [r7, #936]
 1085 033e B7F8AA33 		ldrh	r3, [r7, #938]
 1086 0342 9A42     		cmp	r2, r3
 1087 0344 40D1     		bne	.L71
 900:.\Generated_Source\PSoC5/Bootloader_1.c ****                     {
 901:.\Generated_Source\PSoC5/Bootloader_1.c ****                         /* Get FLASH/EEPROM row number */
 902:.\Generated_Source\PSoC5/Bootloader_1.c ****                         dataOffset = ((uint16)((uint16)packetBuffer[Bootloader_1_DATA_ADDR + 2u] <<
 1088              		.loc 1 902 0
 1089 0346 07F51873 		add	r3, r7, #608
 1090 034a 9B79     		ldrb	r3, [r3, #6]	@ zero_extendqisi2
 1091 034c 4FEA0323 		lsl	r3, r3, #8
 1092 0350 9AB2     		uxth	r2, r3
 903:.\Generated_Source\PSoC5/Bootloader_1.c ****                                               packetBuffer[Bootloader_1_DATA_ADDR + 1u];
 1093              		.loc 1 903 0
 1094 0352 07F51873 		add	r3, r7, #608
 1095 0356 5B79     		ldrb	r3, [r3, #5]	@ zero_extendqisi2
 902:.\Generated_Source\PSoC5/Bootloader_1.c ****                         dataOffset = ((uint16)((uint16)packetBuffer[Bootloader_1_DATA_ADDR + 2u] <<
 1096              		.loc 1 902 0
 1097 0358 1343     		orrs	r3, r3, r2
 1098 035a A7F8A833 		strh	r3, [r7, #936]	@ movhi
 904:.\Generated_Source\PSoC5/Bootloader_1.c **** 
 905:.\Generated_Source\PSoC5/Bootloader_1.c ****                         #if(!CY_PSOC4)
 906:.\Generated_Source\PSoC5/Bootloader_1.c ****                             if(btldrData <= Bootloader_1_LAST_FLASH_ARRAYID)
 1099              		.loc 1 906 0
 1100 035e 97F89933 		ldrb	r3, [r7, #921]	@ zero_extendqisi2
 1101 0362 3F2B     		cmp	r3, #63
 1102 0364 1BD8     		bhi	.L72
 907:.\Generated_Source\PSoC5/Bootloader_1.c ****                             {
 908:.\Generated_Source\PSoC5/Bootloader_1.c ****                         #endif  /* (!CY_PSOC4) */
 909:.\Generated_Source\PSoC5/Bootloader_1.c **** 
 910:.\Generated_Source\PSoC5/Bootloader_1.c ****                         #if(0u == Bootloader_1_DUAL_APP_BOOTLOADER)
 911:.\Generated_Source\PSoC5/Bootloader_1.c **** 
 912:.\Generated_Source\PSoC5/Bootloader_1.c ****                             if(0u == clearedMetaData)
 1103              		.loc 1 912 0
 1104 0366 97F8A633 		ldrb	r3, [r7, #934]	@ zero_extendqisi2
 1105 036a 002B     		cmp	r3, #0
 1106 036c 17D1     		bne	.L72
 1107              	.LBB5:
 913:.\Generated_Source\PSoC5/Bootloader_1.c ****                             {
 914:.\Generated_Source\PSoC5/Bootloader_1.c ****                                 /* Metadata section must be filled with zeroes */
 915:.\Generated_Source\PSoC5/Bootloader_1.c **** 
 916:.\Generated_Source\PSoC5/Bootloader_1.c ****                                 uint8 erase[Bootloader_1_FROW_SIZE];
 917:.\Generated_Source\PSoC5/Bootloader_1.c **** 
 918:.\Generated_Source\PSoC5/Bootloader_1.c ****                                 #if(CY_PSOC3)
 919:.\Generated_Source\PSoC5/Bootloader_1.c ****                                     (void) memset(erase, (char8) 0, (int16) Bootloader_1_FROW_SIZE)
 920:.\Generated_Source\PSoC5/Bootloader_1.c ****                                 #else
 921:.\Generated_Source\PSoC5/Bootloader_1.c ****                                     (void) memset(erase, 0, Bootloader_1_FROW_SIZE);
 1108              		.loc 1 921 0
 1109 036e 07F10C03 		add	r3, r7, #12
 1110 0372 1846     		mov	r0, r3
 1111 0374 4FF00001 		mov	r1, #0
 1112 0378 4FF49072 		mov	r2, #288
ARM GAS  C:\Users\Robert\AppData\Local\Temp\ccgj8kBb.s 			page 37


 1113 037c FFF7FEFF 		bl	memset
 922:.\Generated_Source\PSoC5/Bootloader_1.c ****                                 #endif  /* (CY_PSOC3) */
 923:.\Generated_Source\PSoC5/Bootloader_1.c **** 
 924:.\Generated_Source\PSoC5/Bootloader_1.c ****                                 #if(CY_PSOC4)
 925:.\Generated_Source\PSoC5/Bootloader_1.c ****                                     (void) CySysFlashWriteRow(Bootloader_1_MD_ROW, erase);
 926:.\Generated_Source\PSoC5/Bootloader_1.c ****                                 #else
 927:.\Generated_Source\PSoC5/Bootloader_1.c ****                                     (void) CyWriteRowFull((uint8)  Bootloader_1_MD_FLASH_ARRAY_NUM,
 928:.\Generated_Source\PSoC5/Bootloader_1.c ****                                                           (uint16) Bootloader_1_MD_ROW,
 929:.\Generated_Source\PSoC5/Bootloader_1.c ****                                                                     erase,
 1114              		.loc 1 929 0
 1115 0380 07F10C03 		add	r3, r7, #12
 927:.\Generated_Source\PSoC5/Bootloader_1.c ****                                     (void) CyWriteRowFull((uint8)  Bootloader_1_MD_FLASH_ARRAY_NUM,
 1116              		.loc 1 927 0
 1117 0384 4FF00300 		mov	r0, #3
 1118 0388 4FF0FF01 		mov	r1, #255
 1119 038c 1A46     		mov	r2, r3
 1120 038e 4FF49073 		mov	r3, #288
 1121 0392 FFF7FEFF 		bl	CyWriteRowFull
 930:.\Generated_Source\PSoC5/Bootloader_1.c ****                                                                     Bootloader_1_FROW_SIZE);
 931:.\Generated_Source\PSoC5/Bootloader_1.c ****                                 #endif  /* (CY_PSOC4) */
 932:.\Generated_Source\PSoC5/Bootloader_1.c **** 
 933:.\Generated_Source\PSoC5/Bootloader_1.c ****                                 /* Set up flag that metadata was cleared */
 934:.\Generated_Source\PSoC5/Bootloader_1.c ****                                 clearedMetaData = 1u;
 1122              		.loc 1 934 0
 1123 0396 4FF00103 		mov	r3, #1
 1124 039a 87F8A633 		strb	r3, [r7, #934]
 1125              	.L72:
 1126              	.LBE5:
 935:.\Generated_Source\PSoC5/Bootloader_1.c ****                             }
 936:.\Generated_Source\PSoC5/Bootloader_1.c **** 
 937:.\Generated_Source\PSoC5/Bootloader_1.c ****                         #else
 938:.\Generated_Source\PSoC5/Bootloader_1.c **** 
 939:.\Generated_Source\PSoC5/Bootloader_1.c ****                             if(Bootloader_1_activeApp < Bootloader_1_MD_BTLDB_ACTIVE_NONE)
 940:.\Generated_Source\PSoC5/Bootloader_1.c ****                             {
 941:.\Generated_Source\PSoC5/Bootloader_1.c ****                                 /* First active bootloadable application row */
 942:.\Generated_Source\PSoC5/Bootloader_1.c ****                                 uint16 firstRow = (uint16) 1u +
 943:.\Generated_Source\PSoC5/Bootloader_1.c ****                                     (uint16) Bootloader_1_GetMetadata(Bootloader_1_GET_METADATA_BTL
 944:.\Generated_Source\PSoC5/Bootloader_1.c ****                                                                           Bootloader_1_activeApp);
 945:.\Generated_Source\PSoC5/Bootloader_1.c **** 
 946:.\Generated_Source\PSoC5/Bootloader_1.c ****                                 #if(CY_PSOC4)
 947:.\Generated_Source\PSoC5/Bootloader_1.c ****                                     uint16 row = dataOffset;
 948:.\Generated_Source\PSoC5/Bootloader_1.c ****                                 #else
 949:.\Generated_Source\PSoC5/Bootloader_1.c ****                                     uint16 row = (uint16)(btldrData * (CYDEV_FLS_SECTOR_SIZE / CYDE
 950:.\Generated_Source\PSoC5/Bootloader_1.c ****                                                   dataOffset;
 951:.\Generated_Source\PSoC5/Bootloader_1.c ****                                 #endif  /* (CY_PSOC4) */
 952:.\Generated_Source\PSoC5/Bootloader_1.c **** 
 953:.\Generated_Source\PSoC5/Bootloader_1.c **** 
 954:.\Generated_Source\PSoC5/Bootloader_1.c ****                                 /******************************************************************
 955:.\Generated_Source\PSoC5/Bootloader_1.c ****                                 * Last row is equal to the first row plus the number of rows availa
 956:.\Generated_Source\PSoC5/Bootloader_1.c ****                                 * app. To compute this, we first subtract the number of appliaction
 957:.\Generated_Source\PSoC5/Bootloader_1.c ****                                 * the total flash rows: (CY_FLASH_NUMBER_ROWS - 2u).
 958:.\Generated_Source\PSoC5/Bootloader_1.c ****                                 *
 959:.\Generated_Source\PSoC5/Bootloader_1.c ****                                 * Then subtract off the first row:
 960:.\Generated_Source\PSoC5/Bootloader_1.c ****                                 * App Rows = (CY_FLASH_NUMBER_ROWS - 2u - firstRow)
 961:.\Generated_Source\PSoC5/Bootloader_1.c ****                                 * Then divide that number by the number of application that must fi
 962:.\Generated_Source\PSoC5/Bootloader_1.c ****                                 * space, if we are app1 then that number is 2, if app2 then 1.  Our
 963:.\Generated_Source\PSoC5/Bootloader_1.c ****                                 * then: (2u - Bootloader_1_activeApp).
ARM GAS  C:\Users\Robert\AppData\Local\Temp\ccgj8kBb.s 			page 38


 964:.\Generated_Source\PSoC5/Bootloader_1.c ****                                 *
 965:.\Generated_Source\PSoC5/Bootloader_1.c ****                                 * Adding this number to firstRow gives the address right beyond our
 966:.\Generated_Source\PSoC5/Bootloader_1.c ****                                 * so we subtract 1.
 967:.\Generated_Source\PSoC5/Bootloader_1.c ****                                 *******************************************************************
 968:.\Generated_Source\PSoC5/Bootloader_1.c ****                                 uint16 lastRow = (firstRow - 1u) +
 969:.\Generated_Source\PSoC5/Bootloader_1.c ****                                                   ((uint16)((CYDEV_FLASH_SIZE / CYDEV_FLS_ROW_SIZE)
 970:.\Generated_Source\PSoC5/Bootloader_1.c ****                                                   ((uint16)2u - (uint16)Bootloader_1_activeApp));
 971:.\Generated_Source\PSoC5/Bootloader_1.c **** 
 972:.\Generated_Source\PSoC5/Bootloader_1.c **** 
 973:.\Generated_Source\PSoC5/Bootloader_1.c ****                                 /******************************************************************
 974:.\Generated_Source\PSoC5/Bootloader_1.c ****                                 * Check to see if the row to program is within the range of the act
 975:.\Generated_Source\PSoC5/Bootloader_1.c ****                                 * application, or if it maches the active application's metadata ro
 976:.\Generated_Source\PSoC5/Bootloader_1.c ****                                 * refuse to program as it would corrupt the active app.
 977:.\Generated_Source\PSoC5/Bootloader_1.c ****                                 *******************************************************************
 978:.\Generated_Source\PSoC5/Bootloader_1.c ****                                 if(((row >= firstRow) && (row <= lastRow)) ||
 979:.\Generated_Source\PSoC5/Bootloader_1.c ****                                    ((btldrData == Bootloader_1_MD_FLASH_ARRAY_NUM) &&
 980:.\Generated_Source\PSoC5/Bootloader_1.c ****                                    (dataOffset == Bootloader_1_MD_ROW_NUM(Bootloader_1_activeApp)))
 981:.\Generated_Source\PSoC5/Bootloader_1.c ****                                 {
 982:.\Generated_Source\PSoC5/Bootloader_1.c ****                                     ackCode = Bootloader_1_ERR_ACTIVE;
 983:.\Generated_Source\PSoC5/Bootloader_1.c ****                                     dataOffset = 0u;
 984:.\Generated_Source\PSoC5/Bootloader_1.c ****                                     break;
 985:.\Generated_Source\PSoC5/Bootloader_1.c ****                                 }
 986:.\Generated_Source\PSoC5/Bootloader_1.c ****                             }
 987:.\Generated_Source\PSoC5/Bootloader_1.c **** 
 988:.\Generated_Source\PSoC5/Bootloader_1.c ****                         #endif  /* (0u == Bootloader_1_DUAL_APP_BOOTLOADER) */
 989:.\Generated_Source\PSoC5/Bootloader_1.c **** 
 990:.\Generated_Source\PSoC5/Bootloader_1.c ****                         #if(!CY_PSOC4)
 991:.\Generated_Source\PSoC5/Bootloader_1.c ****                             }
 992:.\Generated_Source\PSoC5/Bootloader_1.c ****                         #endif  /* (!CY_PSOC4) */
 993:.\Generated_Source\PSoC5/Bootloader_1.c **** 
 994:.\Generated_Source\PSoC5/Bootloader_1.c ****                         #if(CY_PSOC4)
 995:.\Generated_Source\PSoC5/Bootloader_1.c **** 
 996:.\Generated_Source\PSoC5/Bootloader_1.c ****                             ackCode = (CYRET_SUCCESS != CySysFlashWriteRow((uint32) dataOffset, dat
 997:.\Generated_Source\PSoC5/Bootloader_1.c ****                                 ? Bootloader_1_ERR_ROW \
 998:.\Generated_Source\PSoC5/Bootloader_1.c ****                                 : CYRET_SUCCESS;
 999:.\Generated_Source\PSoC5/Bootloader_1.c **** 
1000:.\Generated_Source\PSoC5/Bootloader_1.c ****                         #else
1001:.\Generated_Source\PSoC5/Bootloader_1.c **** 
1002:.\Generated_Source\PSoC5/Bootloader_1.c ****                             ackCode = (CYRET_SUCCESS != CyWriteRowFull(btldrData, dataOffset, dataB
 1127              		.loc 1 1002 0
 1128 039e 97F89903 		ldrb	r0, [r7, #921]	@ zero_extendqisi2
 1129 03a2 B7F8A813 		ldrh	r1, [r7, #936]
 1130 03a6 07F59A72 		add	r2, r7, #308
 1131 03aa B7F8AA33 		ldrh	r3, [r7, #938]
 1132 03ae FFF7FEFF 		bl	CyWriteRowFull
 1133 03b2 0346     		mov	r3, r0
 1134 03b4 002B     		cmp	r3, #0
 1135 03b6 02D0     		beq	.L73
 1136              		.loc 1 1002 0 is_stmt 0 discriminator 1
 1137 03b8 4FF00A03 		mov	r3, #10
 1138 03bc 01E0     		b	.L74
 1139              	.L73:
 1140              		.loc 1 1002 0 discriminator 2
 1141 03be 4FF00003 		mov	r3, #0
 1142              	.L74:
 1143              		.loc 1 1002 0 discriminator 3
 1144 03c2 87F8AD33 		strb	r3, [r7, #941]
ARM GAS  C:\Users\Robert\AppData\Local\Temp\ccgj8kBb.s 			page 39


 1145 03c6 03E0     		b	.L75
 1146              	.L71:
1003:.\Generated_Source\PSoC5/Bootloader_1.c ****                                 ? Bootloader_1_ERR_ROW \
1004:.\Generated_Source\PSoC5/Bootloader_1.c ****                                 : CYRET_SUCCESS;
1005:.\Generated_Source\PSoC5/Bootloader_1.c **** 
1006:.\Generated_Source\PSoC5/Bootloader_1.c ****                         #endif  /* (CY_PSOC4) */
1007:.\Generated_Source\PSoC5/Bootloader_1.c **** 
1008:.\Generated_Source\PSoC5/Bootloader_1.c ****                     }
1009:.\Generated_Source\PSoC5/Bootloader_1.c ****                     else
1010:.\Generated_Source\PSoC5/Bootloader_1.c ****                     {
1011:.\Generated_Source\PSoC5/Bootloader_1.c ****                         ackCode = Bootloader_1_ERR_LENGTH;
 1147              		.loc 1 1011 0 is_stmt 1
 1148 03c8 4FF00303 		mov	r3, #3
 1149 03cc 87F8AD33 		strb	r3, [r7, #941]
 1150              	.L75:
1012:.\Generated_Source\PSoC5/Bootloader_1.c ****                     }
1013:.\Generated_Source\PSoC5/Bootloader_1.c **** 
1014:.\Generated_Source\PSoC5/Bootloader_1.c ****                     dataOffset = 0u;
 1151              		.loc 1 1014 0
 1152 03d0 4FF00003 		mov	r3, #0
 1153 03d4 A7F8A833 		strh	r3, [r7, #936]	@ movhi
1015:.\Generated_Source\PSoC5/Bootloader_1.c ****                 }
1016:.\Generated_Source\PSoC5/Bootloader_1.c ****                 break;
 1154              		.loc 1 1016 0
 1155 03d8 18E1     		b	.L92
 1156              	.L57:
1017:.\Generated_Source\PSoC5/Bootloader_1.c **** 
1018:.\Generated_Source\PSoC5/Bootloader_1.c **** 
1019:.\Generated_Source\PSoC5/Bootloader_1.c ****             /***************************************************************************
1020:.\Generated_Source\PSoC5/Bootloader_1.c ****             *   Sync bootloader
1021:.\Generated_Source\PSoC5/Bootloader_1.c ****             ***************************************************************************/
1022:.\Generated_Source\PSoC5/Bootloader_1.c ****             #if(0u != Bootloader_1_CMD_SYNC_BOOTLOADER_AVAIL)
1023:.\Generated_Source\PSoC5/Bootloader_1.c **** 
1024:.\Generated_Source\PSoC5/Bootloader_1.c ****             case Bootloader_1_COMMAND_SYNC:
1025:.\Generated_Source\PSoC5/Bootloader_1.c **** 
1026:.\Generated_Source\PSoC5/Bootloader_1.c ****                 if(Bootloader_1_COMMUNICATION_STATE_ACTIVE == communicationState)
 1157              		.loc 1 1026 0
 1158 03da 97F8A533 		ldrb	r3, [r7, #933]	@ zero_extendqisi2
 1159 03de 012B     		cmp	r3, #1
 1160 03e0 40F01681 		bne	.L93
1027:.\Generated_Source\PSoC5/Bootloader_1.c ****                 {
1028:.\Generated_Source\PSoC5/Bootloader_1.c ****                     /* If something failed the host would send this command to reset the bootloader
1029:.\Generated_Source\PSoC5/Bootloader_1.c ****                     dataOffset = 0u;
 1161              		.loc 1 1029 0
 1162 03e4 4FF00003 		mov	r3, #0
 1163 03e8 A7F8A833 		strh	r3, [r7, #936]	@ movhi
1030:.\Generated_Source\PSoC5/Bootloader_1.c **** 
1031:.\Generated_Source\PSoC5/Bootloader_1.c ****                     /* Don't ack the packet, just get ready to accept the next one */
1032:.\Generated_Source\PSoC5/Bootloader_1.c ****                     continue;
 1164              		.loc 1 1032 0
 1165 03ec 24E1     		b	.L46
 1166              	.L58:
1033:.\Generated_Source\PSoC5/Bootloader_1.c ****                 }
1034:.\Generated_Source\PSoC5/Bootloader_1.c ****                 break;
1035:.\Generated_Source\PSoC5/Bootloader_1.c **** 
1036:.\Generated_Source\PSoC5/Bootloader_1.c ****             #endif  /* (0u != Bootloader_1_CMD_SYNC_BOOTLOADER_AVAIL) */
1037:.\Generated_Source\PSoC5/Bootloader_1.c **** 
ARM GAS  C:\Users\Robert\AppData\Local\Temp\ccgj8kBb.s 			page 40


1038:.\Generated_Source\PSoC5/Bootloader_1.c **** 
1039:.\Generated_Source\PSoC5/Bootloader_1.c ****             /***************************************************************************
1040:.\Generated_Source\PSoC5/Bootloader_1.c ****             *   Set active application
1041:.\Generated_Source\PSoC5/Bootloader_1.c ****             ***************************************************************************/
1042:.\Generated_Source\PSoC5/Bootloader_1.c ****             #if(0u != Bootloader_1_DUAL_APP_BOOTLOADER)
1043:.\Generated_Source\PSoC5/Bootloader_1.c **** 
1044:.\Generated_Source\PSoC5/Bootloader_1.c ****                 case Bootloader_1_COMMAND_APP_ACTIVE:
1045:.\Generated_Source\PSoC5/Bootloader_1.c **** 
1046:.\Generated_Source\PSoC5/Bootloader_1.c ****                     if((Bootloader_1_COMMUNICATION_STATE_ACTIVE == communicationState) && (pktSize 
1047:.\Generated_Source\PSoC5/Bootloader_1.c ****                     {
1048:.\Generated_Source\PSoC5/Bootloader_1.c ****                         if(CYRET_SUCCESS == Bootloader_1_ValidateBootloadable(btldrData))
1049:.\Generated_Source\PSoC5/Bootloader_1.c ****                         {
1050:.\Generated_Source\PSoC5/Bootloader_1.c ****                             uint8 CYDATA idx;
1051:.\Generated_Source\PSoC5/Bootloader_1.c **** 
1052:.\Generated_Source\PSoC5/Bootloader_1.c ****                             for(idx = 0u; idx < Bootloader_1_MAX_NUM_OF_BTLDB; idx++)
1053:.\Generated_Source\PSoC5/Bootloader_1.c ****                             {
1054:.\Generated_Source\PSoC5/Bootloader_1.c ****                                 Bootloader_1_SetFlashByte((uint32) Bootloader_1_MD_BTLDB_ACTIVE_OFF
1055:.\Generated_Source\PSoC5/Bootloader_1.c ****                                                               (uint8 )(idx == btldrData));
1056:.\Generated_Source\PSoC5/Bootloader_1.c ****                             }
1057:.\Generated_Source\PSoC5/Bootloader_1.c ****                             Bootloader_1_activeApp = btldrData;
1058:.\Generated_Source\PSoC5/Bootloader_1.c ****                             ackCode = CYRET_SUCCESS;
1059:.\Generated_Source\PSoC5/Bootloader_1.c ****                         }
1060:.\Generated_Source\PSoC5/Bootloader_1.c ****                         else
1061:.\Generated_Source\PSoC5/Bootloader_1.c ****                         {
1062:.\Generated_Source\PSoC5/Bootloader_1.c ****                             ackCode = Bootloader_1_ERR_APP;
1063:.\Generated_Source\PSoC5/Bootloader_1.c ****                         }
1064:.\Generated_Source\PSoC5/Bootloader_1.c ****                     }
1065:.\Generated_Source\PSoC5/Bootloader_1.c ****                     break;
1066:.\Generated_Source\PSoC5/Bootloader_1.c **** 
1067:.\Generated_Source\PSoC5/Bootloader_1.c ****             #endif  /* (0u != Bootloader_1_DUAL_APP_BOOTLOADER) */
1068:.\Generated_Source\PSoC5/Bootloader_1.c **** 
1069:.\Generated_Source\PSoC5/Bootloader_1.c **** 
1070:.\Generated_Source\PSoC5/Bootloader_1.c ****             /***************************************************************************
1071:.\Generated_Source\PSoC5/Bootloader_1.c ****             *   Send data
1072:.\Generated_Source\PSoC5/Bootloader_1.c ****             ***************************************************************************/
1073:.\Generated_Source\PSoC5/Bootloader_1.c ****             #if (0u != Bootloader_1_CMD_SEND_DATA_AVAIL)
1074:.\Generated_Source\PSoC5/Bootloader_1.c **** 
1075:.\Generated_Source\PSoC5/Bootloader_1.c ****                 case Bootloader_1_COMMAND_DATA:
1076:.\Generated_Source\PSoC5/Bootloader_1.c **** 
1077:.\Generated_Source\PSoC5/Bootloader_1.c ****                     if(Bootloader_1_COMMUNICATION_STATE_ACTIVE == communicationState)
 1167              		.loc 1 1077 0
 1168 03ee 97F8A533 		ldrb	r3, [r7, #933]	@ zero_extendqisi2
 1169 03f2 012B     		cmp	r3, #1
 1170 03f4 40F00E81 		bne	.L94
1078:.\Generated_Source\PSoC5/Bootloader_1.c ****                     {
1079:.\Generated_Source\PSoC5/Bootloader_1.c ****                         /*  Make sure that dataOffset is valid before copying the data */
1080:.\Generated_Source\PSoC5/Bootloader_1.c ****                         if((dataOffset + pktSize) <= Bootloader_1_SIZEOF_COMMAND_BUFFER)
 1171              		.loc 1 1080 0
 1172 03f8 B7F8A823 		ldrh	r2, [r7, #936]
 1173 03fc B7F8AA33 		ldrh	r3, [r7, #938]
 1174 0400 D318     		adds	r3, r2, r3
 1175 0402 B3F5967F 		cmp	r3, #300
 1176 0406 1BD8     		bhi	.L78
1081:.\Generated_Source\PSoC5/Bootloader_1.c ****                         {
1082:.\Generated_Source\PSoC5/Bootloader_1.c ****                             ackCode = CYRET_SUCCESS;
 1177              		.loc 1 1082 0
 1178 0408 4FF00003 		mov	r3, #0
ARM GAS  C:\Users\Robert\AppData\Local\Temp\ccgj8kBb.s 			page 41


 1179 040c 87F8AD33 		strb	r3, [r7, #941]
1083:.\Generated_Source\PSoC5/Bootloader_1.c **** 
1084:.\Generated_Source\PSoC5/Bootloader_1.c ****                             #if(CY_PSOC3)
1085:.\Generated_Source\PSoC5/Bootloader_1.c ****                                 (void) memcpy(&dataBuffer[dataOffset],
1086:.\Generated_Source\PSoC5/Bootloader_1.c ****                                               &packetBuffer[Bootloader_1_DATA_ADDR],
1087:.\Generated_Source\PSoC5/Bootloader_1.c ****                                               ( int16 )pktSize);
1088:.\Generated_Source\PSoC5/Bootloader_1.c ****                             #else
1089:.\Generated_Source\PSoC5/Bootloader_1.c ****                                 (void) memcpy(&dataBuffer[dataOffset],
 1180              		.loc 1 1089 0
 1181 0410 B7F8A833 		ldrh	r3, [r7, #936]
 1182 0414 07F59A72 		add	r2, r7, #308
 1183 0418 D118     		adds	r1, r2, r3
 1184 041a B7F8AA33 		ldrh	r3, [r7, #938]
1090:.\Generated_Source\PSoC5/Bootloader_1.c ****                                               &packetBuffer[Bootloader_1_DATA_ADDR],
 1185              		.loc 1 1090 0
 1186 041e 07F51872 		add	r2, r7, #608
 1187 0422 02F10402 		add	r2, r2, #4
1089:.\Generated_Source\PSoC5/Bootloader_1.c ****                                 (void) memcpy(&dataBuffer[dataOffset],
 1188              		.loc 1 1089 0
 1189 0426 0846     		mov	r0, r1
 1190 0428 1146     		mov	r1, r2
 1191 042a 1A46     		mov	r2, r3
 1192 042c FFF7FEFF 		bl	memcpy
1091:.\Generated_Source\PSoC5/Bootloader_1.c ****                                               pktSize);
1092:.\Generated_Source\PSoC5/Bootloader_1.c ****                             #endif  /* (CY_PSOC3) */
1093:.\Generated_Source\PSoC5/Bootloader_1.c **** 
1094:.\Generated_Source\PSoC5/Bootloader_1.c ****                             dataOffset += pktSize;
 1193              		.loc 1 1094 0
 1194 0430 B7F8A823 		ldrh	r2, [r7, #936]	@ movhi
 1195 0434 B7F8AA33 		ldrh	r3, [r7, #938]	@ movhi
 1196 0438 D318     		adds	r3, r2, r3
 1197 043a A7F8A833 		strh	r3, [r7, #936]	@ movhi
1095:.\Generated_Source\PSoC5/Bootloader_1.c ****                         }
1096:.\Generated_Source\PSoC5/Bootloader_1.c ****                         else
1097:.\Generated_Source\PSoC5/Bootloader_1.c ****                         {
1098:.\Generated_Source\PSoC5/Bootloader_1.c ****                             ackCode = Bootloader_1_ERR_LENGTH;
1099:.\Generated_Source\PSoC5/Bootloader_1.c ****                         }
1100:.\Generated_Source\PSoC5/Bootloader_1.c ****                     }
1101:.\Generated_Source\PSoC5/Bootloader_1.c **** 
1102:.\Generated_Source\PSoC5/Bootloader_1.c ****                     break;
 1198              		.loc 1 1102 0
 1199 043e E9E0     		b	.L94
 1200              	.L78:
1098:.\Generated_Source\PSoC5/Bootloader_1.c ****                             ackCode = Bootloader_1_ERR_LENGTH;
 1201              		.loc 1 1098 0
 1202 0440 4FF00303 		mov	r3, #3
 1203 0444 87F8AD33 		strb	r3, [r7, #941]
 1204              		.loc 1 1102 0
 1205 0448 E4E0     		b	.L94
 1206              	.L59:
1103:.\Generated_Source\PSoC5/Bootloader_1.c **** 
1104:.\Generated_Source\PSoC5/Bootloader_1.c ****             #endif  /* (0u != Bootloader_1_CMD_SEND_DATA_AVAIL) */
1105:.\Generated_Source\PSoC5/Bootloader_1.c **** 
1106:.\Generated_Source\PSoC5/Bootloader_1.c **** 
1107:.\Generated_Source\PSoC5/Bootloader_1.c ****             /***************************************************************************
1108:.\Generated_Source\PSoC5/Bootloader_1.c ****             *   Enter bootloader
1109:.\Generated_Source\PSoC5/Bootloader_1.c ****             ***************************************************************************/
ARM GAS  C:\Users\Robert\AppData\Local\Temp\ccgj8kBb.s 			page 42


1110:.\Generated_Source\PSoC5/Bootloader_1.c ****             case Bootloader_1_COMMAND_ENTER:
1111:.\Generated_Source\PSoC5/Bootloader_1.c **** 
1112:.\Generated_Source\PSoC5/Bootloader_1.c ****                 if(pktSize == 0u)
 1207              		.loc 1 1112 0
 1208 044a B7F8AA33 		ldrh	r3, [r7, #938]
 1209 044e 002B     		cmp	r3, #0
 1210 0450 40F0E280 		bne	.L95
 1211              	.LBB6:
1113:.\Generated_Source\PSoC5/Bootloader_1.c ****                 {
1114:.\Generated_Source\PSoC5/Bootloader_1.c ****                     #if(CY_PSOC3)
1115:.\Generated_Source\PSoC5/Bootloader_1.c **** 
1116:.\Generated_Source\PSoC5/Bootloader_1.c ****                         Bootloader_1_ENTER CYDATA BtldrVersion =
1117:.\Generated_Source\PSoC5/Bootloader_1.c ****                             {CYSWAP_ENDIAN32(CYDEV_CHIP_JTAG_ID), CYDEV_CHIP_REV_EXPECT, Bootloader
1118:.\Generated_Source\PSoC5/Bootloader_1.c **** 
1119:.\Generated_Source\PSoC5/Bootloader_1.c ****                     #else
1120:.\Generated_Source\PSoC5/Bootloader_1.c **** 
1121:.\Generated_Source\PSoC5/Bootloader_1.c ****                         Bootloader_1_ENTER CYDATA BtldrVersion =
 1212              		.loc 1 1121 0
 1213 0454 07F59672 		add	r2, r7, #300
 1214 0458 40F20003 		movw	r3, #:lower16:.LC0
 1215 045c C0F20003 		movt	r3, #:upper16:.LC0
 1216 0460 93E80300 		ldmia	r3, {r0, r1}
 1217 0464 82E80300 		stmia	r2, {r0, r1}
1122:.\Generated_Source\PSoC5/Bootloader_1.c ****                             {CYDEV_CHIP_JTAG_ID, CYDEV_CHIP_REV_EXPECT, Bootloader_1_VERSION};
1123:.\Generated_Source\PSoC5/Bootloader_1.c **** 
1124:.\Generated_Source\PSoC5/Bootloader_1.c ****                     #endif  /* (CY_PSOC3) */
1125:.\Generated_Source\PSoC5/Bootloader_1.c **** 
1126:.\Generated_Source\PSoC5/Bootloader_1.c ****                     communicationState = Bootloader_1_COMMUNICATION_STATE_ACTIVE;
 1218              		.loc 1 1126 0
 1219 0468 4FF00103 		mov	r3, #1
 1220 046c 87F8A533 		strb	r3, [r7, #933]
1127:.\Generated_Source\PSoC5/Bootloader_1.c **** 
1128:.\Generated_Source\PSoC5/Bootloader_1.c ****                     rspSize = sizeof(Bootloader_1_ENTER);
 1221              		.loc 1 1128 0
 1222 0470 4FF00803 		mov	r3, #8
 1223 0474 A7F8AE33 		strh	r3, [r7, #942]	@ movhi
1129:.\Generated_Source\PSoC5/Bootloader_1.c **** 
1130:.\Generated_Source\PSoC5/Bootloader_1.c ****                     #if(CY_PSOC3)
1131:.\Generated_Source\PSoC5/Bootloader_1.c ****                         (void) memcpy(&packetBuffer[Bootloader_1_DATA_ADDR],
1132:.\Generated_Source\PSoC5/Bootloader_1.c ****                                       &BtldrVersion,
1133:.\Generated_Source\PSoC5/Bootloader_1.c ****                                       ( int16 )rspSize);
1134:.\Generated_Source\PSoC5/Bootloader_1.c ****                     #else
1135:.\Generated_Source\PSoC5/Bootloader_1.c ****                         (void) memcpy(&packetBuffer[Bootloader_1_DATA_ADDR],
 1224              		.loc 1 1135 0
 1225 0478 B7F8AE33 		ldrh	r3, [r7, #942]
 1226 047c 07F51872 		add	r2, r7, #608
 1227 0480 02F10401 		add	r1, r2, #4
1136:.\Generated_Source\PSoC5/Bootloader_1.c ****                                       &BtldrVersion,
 1228              		.loc 1 1136 0
 1229 0484 07F59672 		add	r2, r7, #300
1135:.\Generated_Source\PSoC5/Bootloader_1.c ****                         (void) memcpy(&packetBuffer[Bootloader_1_DATA_ADDR],
 1230              		.loc 1 1135 0
 1231 0488 0846     		mov	r0, r1
 1232 048a 1146     		mov	r1, r2
 1233 048c 1A46     		mov	r2, r3
 1234 048e FFF7FEFF 		bl	memcpy
1137:.\Generated_Source\PSoC5/Bootloader_1.c ****                                       rspSize);
ARM GAS  C:\Users\Robert\AppData\Local\Temp\ccgj8kBb.s 			page 43


1138:.\Generated_Source\PSoC5/Bootloader_1.c ****                     #endif  /* (CY_PSOC3) */
1139:.\Generated_Source\PSoC5/Bootloader_1.c **** 
1140:.\Generated_Source\PSoC5/Bootloader_1.c ****                     ackCode = CYRET_SUCCESS;
 1235              		.loc 1 1140 0
 1236 0492 4FF00003 		mov	r3, #0
 1237 0496 87F8AD33 		strb	r3, [r7, #941]
 1238              	.LBE6:
1141:.\Generated_Source\PSoC5/Bootloader_1.c ****                 }
1142:.\Generated_Source\PSoC5/Bootloader_1.c ****                 break;
 1239              		.loc 1 1142 0
 1240 049a BDE0     		b	.L95
 1241              	.L60:
1143:.\Generated_Source\PSoC5/Bootloader_1.c **** 
1144:.\Generated_Source\PSoC5/Bootloader_1.c **** 
1145:.\Generated_Source\PSoC5/Bootloader_1.c ****             /***************************************************************************
1146:.\Generated_Source\PSoC5/Bootloader_1.c ****             *   Verify row
1147:.\Generated_Source\PSoC5/Bootloader_1.c ****             ***************************************************************************/
1148:.\Generated_Source\PSoC5/Bootloader_1.c ****             case Bootloader_1_COMMAND_VERIFY:
1149:.\Generated_Source\PSoC5/Bootloader_1.c **** 
1150:.\Generated_Source\PSoC5/Bootloader_1.c ****                 if((Bootloader_1_COMMUNICATION_STATE_ACTIVE == communicationState) && (pktSize == 3
 1242              		.loc 1 1150 0
 1243 049c 97F8A533 		ldrb	r3, [r7, #933]	@ zero_extendqisi2
 1244 04a0 012B     		cmp	r3, #1
 1245 04a2 40F0BB80 		bne	.L96
 1246              		.loc 1 1150 0 is_stmt 0 discriminator 1
 1247 04a6 B7F8AA33 		ldrh	r3, [r7, #938]
 1248 04aa 032B     		cmp	r3, #3
 1249 04ac 40F0B680 		bne	.L96
 1250              	.LBB7:
1151:.\Generated_Source\PSoC5/Bootloader_1.c ****                 {
1152:.\Generated_Source\PSoC5/Bootloader_1.c ****                     /* Get FLASH/EEPROM row number */
1153:.\Generated_Source\PSoC5/Bootloader_1.c ****                     uint16 CYDATA rowNum = ((uint16)((uint16)packetBuffer[Bootloader_1_DATA_ADDR + 
 1251              		.loc 1 1153 0 is_stmt 1
 1252 04b0 07F51873 		add	r3, r7, #608
 1253 04b4 9B79     		ldrb	r3, [r3, #6]	@ zero_extendqisi2
 1254 04b6 4FEA0323 		lsl	r3, r3, #8
 1255 04ba 9AB2     		uxth	r2, r3
1154:.\Generated_Source\PSoC5/Bootloader_1.c ****                                                     packetBuffer[Bootloader_1_DATA_ADDR + 1u];
 1256              		.loc 1 1154 0
 1257 04bc 07F51873 		add	r3, r7, #608
 1258 04c0 5B79     		ldrb	r3, [r3, #5]	@ zero_extendqisi2
1153:.\Generated_Source\PSoC5/Bootloader_1.c ****                     uint16 CYDATA rowNum = ((uint16)((uint16)packetBuffer[Bootloader_1_DATA_ADDR + 
 1259              		.loc 1 1153 0
 1260 04c2 1343     		orrs	r3, r3, r2
 1261 04c4 A7F89433 		strh	r3, [r7, #916]	@ movhi
1155:.\Generated_Source\PSoC5/Bootloader_1.c **** 
1156:.\Generated_Source\PSoC5/Bootloader_1.c ****                     #if(!CY_PSOC4)
1157:.\Generated_Source\PSoC5/Bootloader_1.c **** 
1158:.\Generated_Source\PSoC5/Bootloader_1.c ****                         uint32 CYDATA rowAddr;
1159:.\Generated_Source\PSoC5/Bootloader_1.c ****                         uint8 CYDATA checksum;
1160:.\Generated_Source\PSoC5/Bootloader_1.c **** 
1161:.\Generated_Source\PSoC5/Bootloader_1.c ****                         if((btldrData >= Bootloader_1_FIRST_EE_ARRAYID) &&
 1262              		.loc 1 1161 0
 1263 04c8 97F89933 		ldrb	r3, [r7, #921]	@ zero_extendqisi2
 1264 04cc 3F2B     		cmp	r3, #63
 1265 04ce 14D9     		bls	.L81
1162:.\Generated_Source\PSoC5/Bootloader_1.c ****                            (btldrData <= Bootloader_1_LAST_EE_ARRAYID))
ARM GAS  C:\Users\Robert\AppData\Local\Temp\ccgj8kBb.s 			page 44


 1266              		.loc 1 1162 0 discriminator 1
 1267 04d0 97F89933 		ldrb	r3, [r7, #921]	@ zero_extendqisi2
1161:.\Generated_Source\PSoC5/Bootloader_1.c ****                         if((btldrData >= Bootloader_1_FIRST_EE_ARRAYID) &&
 1268              		.loc 1 1161 0 discriminator 1
 1269 04d4 5BB2     		sxtb	r3, r3
 1270 04d6 002B     		cmp	r3, #0
 1271 04d8 0FDB     		blt	.L81
1163:.\Generated_Source\PSoC5/Bootloader_1.c ****                         {
1164:.\Generated_Source\PSoC5/Bootloader_1.c ****                             /* EEPROM */
1165:.\Generated_Source\PSoC5/Bootloader_1.c ****                             /* Both PSoC 3 and PSoC 5LP architectures have one EEPROM array. */
1166:.\Generated_Source\PSoC5/Bootloader_1.c ****                             rowAddr = (uint32)rowNum * CYDEV_EEPROM_ROW_SIZE;
 1272              		.loc 1 1166 0
 1273 04da B7F89433 		ldrh	r3, [r7, #916]
 1274 04de 4FEA0313 		lsl	r3, r3, #4
 1275 04e2 C7F89033 		str	r3, [r7, #912]
1167:.\Generated_Source\PSoC5/Bootloader_1.c **** 
1168:.\Generated_Source\PSoC5/Bootloader_1.c ****                             checksum = Bootloader_1_Calc8BitEepromSum(rowAddr, CYDEV_EEPROM_ROW_SIZ
 1276              		.loc 1 1168 0
 1277 04e6 D7F89003 		ldr	r0, [r7, #912]
 1278 04ea 4FF01001 		mov	r1, #16
 1279 04ee FFF7FEFF 		bl	Bootloader_1_Calc8BitEepromSum
 1280 04f2 0346     		mov	r3, r0
 1281 04f4 87F8A433 		strb	r3, [r7, #932]
 1282 04f8 13E0     		b	.L82
 1283              	.L81:
1169:.\Generated_Source\PSoC5/Bootloader_1.c ****                         }
1170:.\Generated_Source\PSoC5/Bootloader_1.c ****                         else
1171:.\Generated_Source\PSoC5/Bootloader_1.c ****                         {
1172:.\Generated_Source\PSoC5/Bootloader_1.c ****                             /* FLASH */
1173:.\Generated_Source\PSoC5/Bootloader_1.c ****                             rowAddr = ((uint32)btldrData * CYDEV_FLS_SECTOR_SIZE)
 1284              		.loc 1 1173 0
 1285 04fa 97F89933 		ldrb	r3, [r7, #921]	@ zero_extendqisi2
1174:.\Generated_Source\PSoC5/Bootloader_1.c ****                                        + ((uint32)rowNum * CYDEV_FLS_ROW_SIZE);
 1286              		.loc 1 1174 0
 1287 04fe 4FEA0322 		lsl	r2, r3, #8
 1288 0502 B7F89433 		ldrh	r3, [r7, #916]
 1289 0506 D318     		adds	r3, r2, r3
1173:.\Generated_Source\PSoC5/Bootloader_1.c ****                             rowAddr = ((uint32)btldrData * CYDEV_FLS_SECTOR_SIZE)
 1290              		.loc 1 1173 0
 1291 0508 4FEA0323 		lsl	r3, r3, #8
 1292 050c C7F89033 		str	r3, [r7, #912]
1175:.\Generated_Source\PSoC5/Bootloader_1.c **** 
1176:.\Generated_Source\PSoC5/Bootloader_1.c ****                             checksum = Bootloader_1_Calc8BitFlashSum(rowAddr, CYDEV_FLS_ROW_SIZE);
 1293              		.loc 1 1176 0
 1294 0510 D7F89003 		ldr	r0, [r7, #912]
 1295 0514 4FF48071 		mov	r1, #256
 1296 0518 FFF7FEFF 		bl	Bootloader_1_Calc8BitFlashSum
 1297 051c 0346     		mov	r3, r0
 1298 051e 87F8A433 		strb	r3, [r7, #932]
 1299              	.L82:
1177:.\Generated_Source\PSoC5/Bootloader_1.c ****                         }
1178:.\Generated_Source\PSoC5/Bootloader_1.c **** 
1179:.\Generated_Source\PSoC5/Bootloader_1.c ****                     #else
1180:.\Generated_Source\PSoC5/Bootloader_1.c **** 
1181:.\Generated_Source\PSoC5/Bootloader_1.c ****                         uint32 CYDATA rowAddr = ((uint32)btldrData * CYDEV_FLS_SECTOR_SIZE)
1182:.\Generated_Source\PSoC5/Bootloader_1.c ****                                             + ((uint32)rowNum * CYDEV_FLS_ROW_SIZE);
1183:.\Generated_Source\PSoC5/Bootloader_1.c **** 
ARM GAS  C:\Users\Robert\AppData\Local\Temp\ccgj8kBb.s 			page 45


1184:.\Generated_Source\PSoC5/Bootloader_1.c ****                         uint8 CYDATA checksum = Bootloader_1_Calc8BitFlashSum(rowAddr, CYDEV_FLS_RO
1185:.\Generated_Source\PSoC5/Bootloader_1.c **** 
1186:.\Generated_Source\PSoC5/Bootloader_1.c ****                     #endif  /* (!CY_PSOC4) */
1187:.\Generated_Source\PSoC5/Bootloader_1.c **** 
1188:.\Generated_Source\PSoC5/Bootloader_1.c **** 
1189:.\Generated_Source\PSoC5/Bootloader_1.c ****                     /* Calculate checksum on data from ECC */
1190:.\Generated_Source\PSoC5/Bootloader_1.c ****                     #if(!CY_PSOC4) && (CYDEV_ECC_ENABLE == 0u)
1191:.\Generated_Source\PSoC5/Bootloader_1.c **** 
1192:.\Generated_Source\PSoC5/Bootloader_1.c ****                         if(btldrData <= Bootloader_1_LAST_FLASH_ARRAYID)
 1300              		.loc 1 1192 0
 1301 0522 97F89933 		ldrb	r3, [r7, #921]	@ zero_extendqisi2
 1302 0526 3F2B     		cmp	r3, #63
 1303 0528 27D8     		bhi	.L83
 1304              	.LBB8:
1193:.\Generated_Source\PSoC5/Bootloader_1.c ****                         {
1194:.\Generated_Source\PSoC5/Bootloader_1.c ****                             uint16 CYDATA tmpIndex;
1195:.\Generated_Source\PSoC5/Bootloader_1.c **** 
1196:.\Generated_Source\PSoC5/Bootloader_1.c ****                             rowAddr = CYDEV_ECC_BASE + ((uint32)btldrData * (CYDEV_FLS_SECTOR_SIZE 
 1305              		.loc 1 1196 0
 1306 052a 97F89933 		ldrb	r3, [r7, #921]	@ zero_extendqisi2
1197:.\Generated_Source\PSoC5/Bootloader_1.c ****                                         + ((uint32)rowNum * CYDEV_ECC_ROW_SIZE);
 1307              		.loc 1 1197 0
 1308 052e 03F51033 		add	r3, r3, #147456
 1309 0532 4FEA0322 		lsl	r2, r3, #8
 1310 0536 B7F89433 		ldrh	r3, [r7, #916]
 1311 053a D318     		adds	r3, r2, r3
1196:.\Generated_Source\PSoC5/Bootloader_1.c ****                             rowAddr = CYDEV_ECC_BASE + ((uint32)btldrData * (CYDEV_FLS_SECTOR_SIZE 
 1312              		.loc 1 1196 0
 1313 053c 4FEA4313 		lsl	r3, r3, #5
 1314 0540 C7F89033 		str	r3, [r7, #912]
1198:.\Generated_Source\PSoC5/Bootloader_1.c **** 
1199:.\Generated_Source\PSoC5/Bootloader_1.c ****                             for(tmpIndex = 0u; tmpIndex < CYDEV_ECC_ROW_SIZE; tmpIndex++)
 1315              		.loc 1 1199 0
 1316 0544 4FF00003 		mov	r3, #0
 1317 0548 A7F8A233 		strh	r3, [r7, #930]	@ movhi
 1318 054c 11E0     		b	.L84
 1319              	.L85:
1200:.\Generated_Source\PSoC5/Bootloader_1.c ****                             {
1201:.\Generated_Source\PSoC5/Bootloader_1.c ****                                 checksum += CY_GET_XTND_REG8((uint8 CYFAR *)(rowAddr + tmpIndex));
 1320              		.loc 1 1201 0 discriminator 2
 1321 054e B7F8A223 		ldrh	r2, [r7, #930]
 1322 0552 D7F89033 		ldr	r3, [r7, #912]
 1323 0556 D318     		adds	r3, r2, r3
 1324 0558 1B78     		ldrb	r3, [r3, #0]
 1325 055a DAB2     		uxtb	r2, r3
 1326 055c 97F8A433 		ldrb	r3, [r7, #932]
 1327 0560 D318     		adds	r3, r2, r3
 1328 0562 87F8A433 		strb	r3, [r7, #932]
1199:.\Generated_Source\PSoC5/Bootloader_1.c ****                             for(tmpIndex = 0u; tmpIndex < CYDEV_ECC_ROW_SIZE; tmpIndex++)
 1329              		.loc 1 1199 0 discriminator 2
 1330 0566 B7F8A233 		ldrh	r3, [r7, #930]	@ movhi
 1331 056a 03F10103 		add	r3, r3, #1
 1332 056e A7F8A233 		strh	r3, [r7, #930]	@ movhi
 1333              	.L84:
1199:.\Generated_Source\PSoC5/Bootloader_1.c ****                             for(tmpIndex = 0u; tmpIndex < CYDEV_ECC_ROW_SIZE; tmpIndex++)
 1334              		.loc 1 1199 0 is_stmt 0 discriminator 1
 1335 0572 B7F8A233 		ldrh	r3, [r7, #930]
ARM GAS  C:\Users\Robert\AppData\Local\Temp\ccgj8kBb.s 			page 46


 1336 0576 1F2B     		cmp	r3, #31
 1337 0578 E9D9     		bls	.L85
 1338              	.L83:
 1339              	.LBE8:
1202:.\Generated_Source\PSoC5/Bootloader_1.c ****                             }
1203:.\Generated_Source\PSoC5/Bootloader_1.c ****                         }
1204:.\Generated_Source\PSoC5/Bootloader_1.c **** 
1205:.\Generated_Source\PSoC5/Bootloader_1.c ****                     #endif  /* (!CY_PSOC4) && (CYDEV_ECC_ENABLE == 0u) */
1206:.\Generated_Source\PSoC5/Bootloader_1.c **** 
1207:.\Generated_Source\PSoC5/Bootloader_1.c **** 
1208:.\Generated_Source\PSoC5/Bootloader_1.c ****                     /******************************************************************************
1209:.\Generated_Source\PSoC5/Bootloader_1.c ****                     * App Verified & App Active are information that is updated in flash at runtime
1210:.\Generated_Source\PSoC5/Bootloader_1.c ****                     * remove these items from the checksum to allow the host to verify everything i
1211:.\Generated_Source\PSoC5/Bootloader_1.c ****                     * correct.
1212:.\Generated_Source\PSoC5/Bootloader_1.c ****                      ******************************************************************************
1213:.\Generated_Source\PSoC5/Bootloader_1.c ****                     if((Bootloader_1_MD_FLASH_ARRAY_NUM == btldrData) &&
 1340              		.loc 1 1213 0 is_stmt 1
 1341 057a 97F89933 		ldrb	r3, [r7, #921]	@ zero_extendqisi2
 1342 057e 032B     		cmp	r3, #3
 1343 0580 19D1     		bne	.L86
 1344              		.loc 1 1213 0 is_stmt 0 discriminator 1
 1345 0582 B7F89433 		ldrh	r3, [r7, #916]
 1346 0586 FF2B     		cmp	r3, #255
 1347 0588 15D1     		bne	.L86
1214:.\Generated_Source\PSoC5/Bootloader_1.c ****                        (Bootloader_1_CONTAIN_METADATA(rowNum)))
1215:.\Generated_Source\PSoC5/Bootloader_1.c ****                     {
1216:.\Generated_Source\PSoC5/Bootloader_1.c ****                         checksum -= Bootloader_1_MD_BTLDB_ACTIVE_VALUE  (Bootloader_1_GET_APP_ID(ro
 1348              		.loc 1 1216 0 is_stmt 1
 1349 058a 4FF6D073 		movw	r3, #65488
 1350 058e C0F20303 		movt	r3, 3
 1351 0592 1B78     		ldrb	r3, [r3, #0]
 1352 0594 DBB2     		uxtb	r3, r3
 1353 0596 97F8A423 		ldrb	r2, [r7, #932]
 1354 059a D31A     		subs	r3, r2, r3
 1355 059c 87F8A433 		strb	r3, [r7, #932]
1217:.\Generated_Source\PSoC5/Bootloader_1.c ****                         checksum -= Bootloader_1_MD_BTLDB_VERIFIED_VALUE(Bootloader_1_GET_APP_ID(ro
 1356              		.loc 1 1217 0
 1357 05a0 4FF6D173 		movw	r3, #65489
 1358 05a4 C0F20303 		movt	r3, 3
 1359 05a8 1B78     		ldrb	r3, [r3, #0]
 1360 05aa DBB2     		uxtb	r3, r3
 1361 05ac 97F8A423 		ldrb	r2, [r7, #932]
 1362 05b0 D31A     		subs	r3, r2, r3
 1363 05b2 87F8A433 		strb	r3, [r7, #932]
 1364              	.L86:
1218:.\Generated_Source\PSoC5/Bootloader_1.c ****                     }
1219:.\Generated_Source\PSoC5/Bootloader_1.c **** 
1220:.\Generated_Source\PSoC5/Bootloader_1.c ****                     packetBuffer[Bootloader_1_DATA_ADDR] = (uint8)1u + (uint8)(~checksum);
 1365              		.loc 1 1220 0
 1366 05b6 97F8A433 		ldrb	r3, [r7, #932]
 1367 05ba C3F10003 		rsb	r3, r3, #0
 1368 05be DAB2     		uxtb	r2, r3
 1369 05c0 07F51873 		add	r3, r7, #608
 1370 05c4 1A71     		strb	r2, [r3, #4]
1221:.\Generated_Source\PSoC5/Bootloader_1.c ****                     ackCode = CYRET_SUCCESS;
 1371              		.loc 1 1221 0
 1372 05c6 4FF00003 		mov	r3, #0
ARM GAS  C:\Users\Robert\AppData\Local\Temp\ccgj8kBb.s 			page 47


 1373 05ca 87F8AD33 		strb	r3, [r7, #941]
1222:.\Generated_Source\PSoC5/Bootloader_1.c ****                     rspSize = 1u;
 1374              		.loc 1 1222 0
 1375 05ce 4FF00103 		mov	r3, #1
 1376 05d2 A7F8AE33 		strh	r3, [r7, #942]	@ movhi
 1377              	.LBE7:
1223:.\Generated_Source\PSoC5/Bootloader_1.c ****                 }
1224:.\Generated_Source\PSoC5/Bootloader_1.c ****                 break;
 1378              		.loc 1 1224 0
 1379 05d6 21E0     		b	.L96
 1380              	.L61:
1225:.\Generated_Source\PSoC5/Bootloader_1.c **** 
1226:.\Generated_Source\PSoC5/Bootloader_1.c **** 
1227:.\Generated_Source\PSoC5/Bootloader_1.c ****             /***************************************************************************
1228:.\Generated_Source\PSoC5/Bootloader_1.c ****             *   Exit bootloader
1229:.\Generated_Source\PSoC5/Bootloader_1.c ****             ***************************************************************************/
1230:.\Generated_Source\PSoC5/Bootloader_1.c ****             case Bootloader_1_COMMAND_EXIT:
1231:.\Generated_Source\PSoC5/Bootloader_1.c **** 
1232:.\Generated_Source\PSoC5/Bootloader_1.c ****                 if(CYRET_SUCCESS == Bootloader_1_ValidateBootloadable(Bootloader_1_activeApp))
 1381              		.loc 1 1232 0
 1382 05d8 4FF00000 		mov	r0, #0
 1383 05dc FFF7FEFF 		bl	Bootloader_1_ValidateBootloadable
 1384 05e0 0346     		mov	r3, r0
 1385 05e2 002B     		cmp	r3, #0
 1386 05e4 06D1     		bne	.L87
1233:.\Generated_Source\PSoC5/Bootloader_1.c ****                 {
1234:.\Generated_Source\PSoC5/Bootloader_1.c ****                     Bootloader_1_SET_RUN_TYPE(Bootloader_1_START_APP);
 1387              		.loc 1 1234 0
 1388 05e6 44F2FA63 		movw	r3, #18170
 1389 05ea C4F20003 		movt	r3, 16384
 1390 05ee 4FF08002 		mov	r2, #128
 1391 05f2 1A70     		strb	r2, [r3, #0]
 1392              	.L87:
1235:.\Generated_Source\PSoC5/Bootloader_1.c ****                 }
1236:.\Generated_Source\PSoC5/Bootloader_1.c **** 
1237:.\Generated_Source\PSoC5/Bootloader_1.c ****                 CySoftwareReset();
 1393              		.loc 1 1237 0
 1394 05f4 FFF7FEFF 		bl	CySoftwareReset
1238:.\Generated_Source\PSoC5/Bootloader_1.c **** 
1239:.\Generated_Source\PSoC5/Bootloader_1.c ****                 /* Will never get here */
1240:.\Generated_Source\PSoC5/Bootloader_1.c ****                 break;
 1395              		.loc 1 1240 0
 1396 05f8 11E0     		b	.L52
 1397              	.L53:
1241:.\Generated_Source\PSoC5/Bootloader_1.c **** 
1242:.\Generated_Source\PSoC5/Bootloader_1.c **** 
1243:.\Generated_Source\PSoC5/Bootloader_1.c ****             /***************************************************************************
1244:.\Generated_Source\PSoC5/Bootloader_1.c ****             *   Unsupported command
1245:.\Generated_Source\PSoC5/Bootloader_1.c ****             ***************************************************************************/
1246:.\Generated_Source\PSoC5/Bootloader_1.c ****             default:
1247:.\Generated_Source\PSoC5/Bootloader_1.c ****                 ackCode = Bootloader_1_ERR_CMD;
 1398              		.loc 1 1247 0
 1399 05fa 4FF00503 		mov	r3, #5
 1400 05fe 87F8AD33 		strb	r3, [r7, #941]
1248:.\Generated_Source\PSoC5/Bootloader_1.c ****                 break;
 1401              		.loc 1 1248 0
 1402 0602 0CE0     		b	.L52
ARM GAS  C:\Users\Robert\AppData\Local\Temp\ccgj8kBb.s 			page 48


 1403              	.L90:
 751:.\Generated_Source\PSoC5/Bootloader_1.c ****                 break;
 1404              		.loc 1 751 0
 1405 0604 00BF     		nop
 1406 0606 0AE0     		b	.L52
 1407              	.L91:
 782:.\Generated_Source\PSoC5/Bootloader_1.c ****                     break;
 1408              		.loc 1 782 0
 1409 0608 00BF     		nop
 1410 060a 08E0     		b	.L52
 1411              	.L92:
1016:.\Generated_Source\PSoC5/Bootloader_1.c ****                 break;
 1412              		.loc 1 1016 0
 1413 060c 00BF     		nop
 1414 060e 06E0     		b	.L52
 1415              	.L93:
1034:.\Generated_Source\PSoC5/Bootloader_1.c ****                 break;
 1416              		.loc 1 1034 0
 1417 0610 00BF     		nop
 1418 0612 04E0     		b	.L52
 1419              	.L94:
1102:.\Generated_Source\PSoC5/Bootloader_1.c ****                     break;
 1420              		.loc 1 1102 0
 1421 0614 00BF     		nop
 1422 0616 02E0     		b	.L52
 1423              	.L95:
1142:.\Generated_Source\PSoC5/Bootloader_1.c ****                 break;
 1424              		.loc 1 1142 0
 1425 0618 00BF     		nop
 1426 061a 00E0     		b	.L52
 1427              	.L96:
1224:.\Generated_Source\PSoC5/Bootloader_1.c ****                 break;
 1428              		.loc 1 1224 0
 1429 061c 00BF     		nop
 1430              	.L52:
 1431              	.LBE3:
1249:.\Generated_Source\PSoC5/Bootloader_1.c ****             }
1250:.\Generated_Source\PSoC5/Bootloader_1.c ****         }
1251:.\Generated_Source\PSoC5/Bootloader_1.c **** 
1252:.\Generated_Source\PSoC5/Bootloader_1.c ****         /* ?CK the packet and function. */
1253:.\Generated_Source\PSoC5/Bootloader_1.c ****         (void) Bootloader_1_WritePacket(ackCode, packetBuffer, rspSize);
 1432              		.loc 1 1253 0
 1433 061e 97F8AD13 		ldrb	r1, [r7, #941]	@ zero_extendqisi2
 1434 0622 07F51872 		add	r2, r7, #608
 1435 0626 B7F8AE33 		ldrh	r3, [r7, #942]
 1436 062a 0846     		mov	r0, r1
 1437 062c 1146     		mov	r1, r2
 1438 062e 1A46     		mov	r2, r3
 1439 0630 FFF7FEFF 		bl	Bootloader_1_WritePacket
 1440 0634 00E0     		b	.L46
 1441              	.L89:
 657:.\Generated_Source\PSoC5/Bootloader_1.c ****             continue;
 1442              		.loc 1 657 0
 1443 0636 00BF     		nop
 1444              	.L46:
1254:.\Generated_Source\PSoC5/Bootloader_1.c **** 
1255:.\Generated_Source\PSoC5/Bootloader_1.c ****     } while ((0u == timeOut) || (Bootloader_1_COMMUNICATION_STATE_ACTIVE == communicationState));
ARM GAS  C:\Users\Robert\AppData\Local\Temp\ccgj8kBb.s 			page 49


 1445              		.loc 1 1255 0
 1446 0638 07F10703 		add	r3, r7, #7
 1447 063c 1B78     		ldrb	r3, [r3, #0]	@ zero_extendqisi2
 1448 063e 002B     		cmp	r3, #0
 1449 0640 3FF4FDAC 		beq	.L88
 1450              		.loc 1 1255 0 is_stmt 0 discriminator 1
 1451 0644 97F8A533 		ldrb	r3, [r7, #933]	@ zero_extendqisi2
 1452 0648 012B     		cmp	r3, #1
 1453 064a 3FF4F8AC 		beq	.L88
1256:.\Generated_Source\PSoC5/Bootloader_1.c **** }
 1454              		.loc 1 1256 0 is_stmt 1
 1455 064e 07F56C77 		add	r7, r7, #944
 1456 0652 BD46     		mov	sp, r7
 1457 0654 80BD     		pop	{r7, pc}
 1458              		.cfi_endproc
 1459              	.LFE64:
 1460              		.size	Bootloader_1_HostLink, .-Bootloader_1_HostLink
 1461 0656 00BF     		.section	.text.Bootloader_1_WritePacket,"ax",%progbits
 1462              		.align	2
 1463              		.thumb
 1464              		.thumb_func
 1465              		.type	Bootloader_1_WritePacket, %function
 1466              	Bootloader_1_WritePacket:
 1467              	.LFB65:
1257:.\Generated_Source\PSoC5/Bootloader_1.c **** 
1258:.\Generated_Source\PSoC5/Bootloader_1.c **** 
1259:.\Generated_Source\PSoC5/Bootloader_1.c **** /*******************************************************************************
1260:.\Generated_Source\PSoC5/Bootloader_1.c **** * Function Name: Bootloader_1_WritePacket
1261:.\Generated_Source\PSoC5/Bootloader_1.c **** ********************************************************************************
1262:.\Generated_Source\PSoC5/Bootloader_1.c **** *
1263:.\Generated_Source\PSoC5/Bootloader_1.c **** * Summary:
1264:.\Generated_Source\PSoC5/Bootloader_1.c **** *  Creates a bootloader responce packet and transmits it back to the bootloader
1265:.\Generated_Source\PSoC5/Bootloader_1.c **** *  host application over the already established communications protocol.
1266:.\Generated_Source\PSoC5/Bootloader_1.c **** *
1267:.\Generated_Source\PSoC5/Bootloader_1.c **** * Parameters:
1268:.\Generated_Source\PSoC5/Bootloader_1.c **** *  status:
1269:.\Generated_Source\PSoC5/Bootloader_1.c **** *      The status code to pass back as the second byte of the packet
1270:.\Generated_Source\PSoC5/Bootloader_1.c **** *  buffer:
1271:.\Generated_Source\PSoC5/Bootloader_1.c **** *      The buffer containing the data portion of the packet
1272:.\Generated_Source\PSoC5/Bootloader_1.c **** *  size:
1273:.\Generated_Source\PSoC5/Bootloader_1.c **** *      The number of bytes contained within the buffer to pass back
1274:.\Generated_Source\PSoC5/Bootloader_1.c **** *
1275:.\Generated_Source\PSoC5/Bootloader_1.c **** * Return:
1276:.\Generated_Source\PSoC5/Bootloader_1.c **** *   CYRET_SUCCESS if successful.
1277:.\Generated_Source\PSoC5/Bootloader_1.c **** *   CYRET_UNKNOWN if there was an error tranmitting the packet.
1278:.\Generated_Source\PSoC5/Bootloader_1.c **** *
1279:.\Generated_Source\PSoC5/Bootloader_1.c **** *******************************************************************************/
1280:.\Generated_Source\PSoC5/Bootloader_1.c **** static cystatus Bootloader_1_WritePacket(uint8 status, uint8 buffer[], uint16 size) CYSMALL \
1281:.\Generated_Source\PSoC5/Bootloader_1.c ****                                             
1282:.\Generated_Source\PSoC5/Bootloader_1.c **** {
 1468              		.loc 1 1282 0
 1469              		.cfi_startproc
 1470              		@ args = 0, pretend = 0, frame = 16
 1471              		@ frame_needed = 1, uses_anonymous_args = 0
 1472 0000 80B5     		push	{r7, lr}
 1473              	.LCFI22:
 1474              		.cfi_def_cfa_offset 8
ARM GAS  C:\Users\Robert\AppData\Local\Temp\ccgj8kBb.s 			page 50


 1475              		.cfi_offset 7, -8
 1476              		.cfi_offset 14, -4
 1477 0002 84B0     		sub	sp, sp, #16
 1478              	.LCFI23:
 1479              		.cfi_def_cfa_offset 24
 1480 0004 00AF     		add	r7, sp, #0
 1481              	.LCFI24:
 1482              		.cfi_def_cfa_register 7
 1483 0006 3960     		str	r1, [r7, #0]
 1484 0008 1346     		mov	r3, r2
 1485 000a 0246     		mov	r2, r0
 1486 000c FA71     		strb	r2, [r7, #7]
 1487 000e BB80     		strh	r3, [r7, #4]	@ movhi
1283:.\Generated_Source\PSoC5/Bootloader_1.c ****     uint16 CYDATA checksum;
1284:.\Generated_Source\PSoC5/Bootloader_1.c **** 
1285:.\Generated_Source\PSoC5/Bootloader_1.c ****     /* Start of the packet. */
1286:.\Generated_Source\PSoC5/Bootloader_1.c ****     buffer[Bootloader_1_SOP_ADDR]      = Bootloader_1_SOP;
 1488              		.loc 1 1286 0
 1489 0010 3B68     		ldr	r3, [r7, #0]
 1490 0012 4FF00102 		mov	r2, #1
 1491 0016 1A70     		strb	r2, [r3, #0]
1287:.\Generated_Source\PSoC5/Bootloader_1.c ****     buffer[Bootloader_1_CMD_ADDR]      = status;
 1492              		.loc 1 1287 0
 1493 0018 3B68     		ldr	r3, [r7, #0]
 1494 001a 03F10103 		add	r3, r3, #1
 1495 001e FA79     		ldrb	r2, [r7, #7]
 1496 0020 1A70     		strb	r2, [r3, #0]
1288:.\Generated_Source\PSoC5/Bootloader_1.c ****     buffer[Bootloader_1_SIZE_ADDR]     = LO8(size);
 1497              		.loc 1 1288 0
 1498 0022 3B68     		ldr	r3, [r7, #0]
 1499 0024 03F10203 		add	r3, r3, #2
 1500 0028 BA88     		ldrh	r2, [r7, #4]
 1501 002a D2B2     		uxtb	r2, r2
 1502 002c 1A70     		strb	r2, [r3, #0]
1289:.\Generated_Source\PSoC5/Bootloader_1.c ****     buffer[Bootloader_1_SIZE_ADDR + 1u] = HI8(size);
 1503              		.loc 1 1289 0
 1504 002e 3B68     		ldr	r3, [r7, #0]
 1505 0030 03F10303 		add	r3, r3, #3
 1506 0034 BA88     		ldrh	r2, [r7, #4]
 1507 0036 4FEA1222 		lsr	r2, r2, #8
 1508 003a 92B2     		uxth	r2, r2
 1509 003c D2B2     		uxtb	r2, r2
 1510 003e 1A70     		strb	r2, [r3, #0]
1290:.\Generated_Source\PSoC5/Bootloader_1.c **** 
1291:.\Generated_Source\PSoC5/Bootloader_1.c ****     /* Compute the checksum. */
1292:.\Generated_Source\PSoC5/Bootloader_1.c ****     checksum = Bootloader_1_CalcPacketChecksum(buffer, size + Bootloader_1_DATA_ADDR);
 1511              		.loc 1 1292 0
 1512 0040 BB88     		ldrh	r3, [r7, #4]
 1513 0042 03F10403 		add	r3, r3, #4
 1514 0046 9BB2     		uxth	r3, r3
 1515 0048 3868     		ldr	r0, [r7, #0]
 1516 004a 1946     		mov	r1, r3
 1517 004c FFF7FEFF 		bl	Bootloader_1_CalcPacketChecksum
 1518 0050 0346     		mov	r3, r0
 1519 0052 FB81     		strh	r3, [r7, #14]	@ movhi
1293:.\Generated_Source\PSoC5/Bootloader_1.c **** 
1294:.\Generated_Source\PSoC5/Bootloader_1.c ****     buffer[Bootloader_1_CHK_ADDR(size)]     = LO8(checksum);
ARM GAS  C:\Users\Robert\AppData\Local\Temp\ccgj8kBb.s 			page 51


 1520              		.loc 1 1294 0
 1521 0054 BB88     		ldrh	r3, [r7, #4]
 1522 0056 03F10403 		add	r3, r3, #4
 1523 005a 3A68     		ldr	r2, [r7, #0]
 1524 005c D318     		adds	r3, r2, r3
 1525 005e FA89     		ldrh	r2, [r7, #14]	@ movhi
 1526 0060 D2B2     		uxtb	r2, r2
 1527 0062 1A70     		strb	r2, [r3, #0]
1295:.\Generated_Source\PSoC5/Bootloader_1.c ****     buffer[Bootloader_1_CHK_ADDR(1u + size)] = HI8(checksum);
 1528              		.loc 1 1295 0
 1529 0064 BB88     		ldrh	r3, [r7, #4]
 1530 0066 03F10503 		add	r3, r3, #5
 1531 006a 3A68     		ldr	r2, [r7, #0]
 1532 006c D318     		adds	r3, r2, r3
 1533 006e FA89     		ldrh	r2, [r7, #14]
 1534 0070 4FEA1222 		lsr	r2, r2, #8
 1535 0074 92B2     		uxth	r2, r2
 1536 0076 D2B2     		uxtb	r2, r2
 1537 0078 1A70     		strb	r2, [r3, #0]
1296:.\Generated_Source\PSoC5/Bootloader_1.c ****     buffer[Bootloader_1_EOP_ADDR(size)]     = Bootloader_1_EOP;
 1538              		.loc 1 1296 0
 1539 007a BB88     		ldrh	r3, [r7, #4]
 1540 007c 03F10603 		add	r3, r3, #6
 1541 0080 3A68     		ldr	r2, [r7, #0]
 1542 0082 D318     		adds	r3, r2, r3
 1543 0084 4FF01702 		mov	r2, #23
 1544 0088 1A70     		strb	r2, [r3, #0]
1297:.\Generated_Source\PSoC5/Bootloader_1.c **** 
1298:.\Generated_Source\PSoC5/Bootloader_1.c ****     /* Start the packet transmit. */
1299:.\Generated_Source\PSoC5/Bootloader_1.c ****     return(CyBtldrCommWrite(buffer, size + Bootloader_1_MIN_PKT_SIZE, &size, 150u));
 1545              		.loc 1 1299 0
 1546 008a BB88     		ldrh	r3, [r7, #4]
 1547 008c 03F10703 		add	r3, r3, #7
 1548 0090 9AB2     		uxth	r2, r3
 1549 0092 07F10403 		add	r3, r7, #4
 1550 0096 3868     		ldr	r0, [r7, #0]
 1551 0098 1146     		mov	r1, r2
 1552 009a 1A46     		mov	r2, r3
 1553 009c 4FF09603 		mov	r3, #150
 1554 00a0 FFF7FEFF 		bl	USBFS_CyBtldrCommWrite
 1555 00a4 0346     		mov	r3, r0
1300:.\Generated_Source\PSoC5/Bootloader_1.c **** }
 1556              		.loc 1 1300 0
 1557 00a6 1846     		mov	r0, r3
 1558 00a8 07F11007 		add	r7, r7, #16
 1559 00ac BD46     		mov	sp, r7
 1560 00ae 80BD     		pop	{r7, pc}
 1561              		.cfi_endproc
 1562              	.LFE65:
 1563              		.size	Bootloader_1_WritePacket, .-Bootloader_1_WritePacket
 1564              		.section	.text.Bootloader_1_SetFlashByte,"ax",%progbits
 1565              		.align	2
 1566              		.global	Bootloader_1_SetFlashByte
 1567              		.thumb
 1568              		.thumb_func
 1569              		.type	Bootloader_1_SetFlashByte, %function
 1570              	Bootloader_1_SetFlashByte:
ARM GAS  C:\Users\Robert\AppData\Local\Temp\ccgj8kBb.s 			page 52


 1571              	.LFB66:
1301:.\Generated_Source\PSoC5/Bootloader_1.c **** 
1302:.\Generated_Source\PSoC5/Bootloader_1.c **** 
1303:.\Generated_Source\PSoC5/Bootloader_1.c **** /*******************************************************************************
1304:.\Generated_Source\PSoC5/Bootloader_1.c **** * Function Name: Bootloader_1_SetFlashByte
1305:.\Generated_Source\PSoC5/Bootloader_1.c **** ********************************************************************************
1306:.\Generated_Source\PSoC5/Bootloader_1.c **** *
1307:.\Generated_Source\PSoC5/Bootloader_1.c **** * Summary:
1308:.\Generated_Source\PSoC5/Bootloader_1.c **** *  Writes byte a flash memory location
1309:.\Generated_Source\PSoC5/Bootloader_1.c **** *
1310:.\Generated_Source\PSoC5/Bootloader_1.c **** * Parameters:
1311:.\Generated_Source\PSoC5/Bootloader_1.c **** *  address:
1312:.\Generated_Source\PSoC5/Bootloader_1.c **** *      Address in Flash memory where data will be written
1313:.\Generated_Source\PSoC5/Bootloader_1.c **** *
1314:.\Generated_Source\PSoC5/Bootloader_1.c **** *  runType:
1315:.\Generated_Source\PSoC5/Bootloader_1.c **** *      Byte to be written
1316:.\Generated_Source\PSoC5/Bootloader_1.c **** *
1317:.\Generated_Source\PSoC5/Bootloader_1.c **** * Return:
1318:.\Generated_Source\PSoC5/Bootloader_1.c **** *  None
1319:.\Generated_Source\PSoC5/Bootloader_1.c **** *
1320:.\Generated_Source\PSoC5/Bootloader_1.c **** *******************************************************************************/
1321:.\Generated_Source\PSoC5/Bootloader_1.c **** void Bootloader_1_SetFlashByte(uint32 address, uint8 runType) 
1322:.\Generated_Source\PSoC5/Bootloader_1.c **** {
 1572              		.loc 1 1322 0
 1573              		.cfi_startproc
 1574              		@ args = 0, pretend = 0, frame = 280
 1575              		@ frame_needed = 1, uses_anonymous_args = 0
 1576 0000 80B5     		push	{r7, lr}
 1577              	.LCFI25:
 1578              		.cfi_def_cfa_offset 8
 1579              		.cfi_offset 7, -8
 1580              		.cfi_offset 14, -4
 1581 0002 C6B0     		sub	sp, sp, #280
 1582              	.LCFI26:
 1583              		.cfi_def_cfa_offset 288
 1584 0004 00AF     		add	r7, sp, #0
 1585              	.LCFI27:
 1586              		.cfi_def_cfa_register 7
 1587 0006 07F10403 		add	r3, r7, #4
 1588 000a 1860     		str	r0, [r3, #0]
 1589 000c 0A46     		mov	r2, r1
 1590 000e 07F10303 		add	r3, r7, #3
 1591 0012 1A70     		strb	r2, [r3, #0]
1323:.\Generated_Source\PSoC5/Bootloader_1.c ****     uint32 flsAddr = address - CYDEV_FLASH_BASE;
 1592              		.loc 1 1323 0
 1593 0014 07F10403 		add	r3, r7, #4
 1594 0018 1B68     		ldr	r3, [r3, #0]
 1595 001a C7F81031 		str	r3, [r7, #272]
1324:.\Generated_Source\PSoC5/Bootloader_1.c ****     uint8  rowData[CYDEV_FLS_ROW_SIZE];
1325:.\Generated_Source\PSoC5/Bootloader_1.c **** 
1326:.\Generated_Source\PSoC5/Bootloader_1.c ****     #if !(CY_PSOC4)
1327:.\Generated_Source\PSoC5/Bootloader_1.c ****         uint8 arrayId = ( uint8 )(flsAddr / CYDEV_FLS_SECTOR_SIZE);
 1596              		.loc 1 1327 0
 1597 001e D7F81031 		ldr	r3, [r7, #272]
 1598 0022 4FEA1343 		lsr	r3, r3, #16
 1599 0026 87F80F31 		strb	r3, [r7, #271]
1328:.\Generated_Source\PSoC5/Bootloader_1.c ****     #endif  /* !(CY_PSOC4) */
ARM GAS  C:\Users\Robert\AppData\Local\Temp\ccgj8kBb.s 			page 53


1329:.\Generated_Source\PSoC5/Bootloader_1.c **** 
1330:.\Generated_Source\PSoC5/Bootloader_1.c ****     uint16 rowNum = ( uint16 )((flsAddr % CYDEV_FLS_SECTOR_SIZE) / CYDEV_FLS_ROW_SIZE);
 1600              		.loc 1 1330 0
 1601 002a D7F81031 		ldr	r3, [r7, #272]
 1602 002e 4FEA0343 		lsl	r3, r3, #16
 1603 0032 4FEA1343 		lsr	r3, r3, #16
 1604 0036 4FEA1323 		lsr	r3, r3, #8
 1605 003a A7F80C31 		strh	r3, [r7, #268]	@ movhi
1331:.\Generated_Source\PSoC5/Bootloader_1.c ****     uint32 baseAddr = address - (address % CYDEV_FLS_ROW_SIZE);
 1606              		.loc 1 1331 0
 1607 003e 07F10403 		add	r3, r7, #4
 1608 0042 1B68     		ldr	r3, [r3, #0]
 1609 0044 23F0FF03 		bic	r3, r3, #255
 1610 0048 C7F80831 		str	r3, [r7, #264]
1332:.\Generated_Source\PSoC5/Bootloader_1.c ****     uint16 idx;
1333:.\Generated_Source\PSoC5/Bootloader_1.c **** 
1334:.\Generated_Source\PSoC5/Bootloader_1.c ****     for(idx = 0u; idx < CYDEV_FLS_ROW_SIZE; idx++)
 1611              		.loc 1 1334 0
 1612 004c 4FF00003 		mov	r3, #0
 1613 0050 A7F81631 		strh	r3, [r7, #278]	@ movhi
 1614 0054 10E0     		b	.L100
 1615              	.L101:
1335:.\Generated_Source\PSoC5/Bootloader_1.c ****     {
1336:.\Generated_Source\PSoC5/Bootloader_1.c ****         rowData[idx] = Bootloader_1_GET_CODE_BYTE(baseAddr + idx);
 1616              		.loc 1 1336 0 discriminator 2
 1617 0056 B7F81631 		ldrh	r3, [r7, #278]
 1618 005a B7F81611 		ldrh	r1, [r7, #278]
 1619 005e D7F80821 		ldr	r2, [r7, #264]
 1620 0062 8A18     		adds	r2, r1, r2
 1621 0064 1178     		ldrb	r1, [r2, #0]	@ zero_extendqisi2
 1622 0066 07F10802 		add	r2, r7, #8
 1623 006a D154     		strb	r1, [r2, r3]
1334:.\Generated_Source\PSoC5/Bootloader_1.c ****     for(idx = 0u; idx < CYDEV_FLS_ROW_SIZE; idx++)
 1624              		.loc 1 1334 0 discriminator 2
 1625 006c B7F81631 		ldrh	r3, [r7, #278]	@ movhi
 1626 0070 03F10103 		add	r3, r3, #1
 1627 0074 A7F81631 		strh	r3, [r7, #278]	@ movhi
 1628              	.L100:
1334:.\Generated_Source\PSoC5/Bootloader_1.c ****     for(idx = 0u; idx < CYDEV_FLS_ROW_SIZE; idx++)
 1629              		.loc 1 1334 0 is_stmt 0 discriminator 1
 1630 0078 B7F81631 		ldrh	r3, [r7, #278]
 1631 007c FF2B     		cmp	r3, #255
 1632 007e EAD9     		bls	.L101
1337:.\Generated_Source\PSoC5/Bootloader_1.c ****     }
1338:.\Generated_Source\PSoC5/Bootloader_1.c **** 
1339:.\Generated_Source\PSoC5/Bootloader_1.c ****     rowData[address % CYDEV_FLS_ROW_SIZE] = runType;
 1633              		.loc 1 1339 0 is_stmt 1
 1634 0080 07F10403 		add	r3, r7, #4
 1635 0084 1B68     		ldr	r3, [r3, #0]
 1636 0086 DBB2     		uxtb	r3, r3
 1637 0088 07F10802 		add	r2, r7, #8
 1638 008c 07F10301 		add	r1, r7, #3
 1639 0090 0978     		ldrb	r1, [r1, #0]
 1640 0092 D154     		strb	r1, [r2, r3]
1340:.\Generated_Source\PSoC5/Bootloader_1.c **** 
1341:.\Generated_Source\PSoC5/Bootloader_1.c ****     #if(CY_PSOC4)
1342:.\Generated_Source\PSoC5/Bootloader_1.c ****         (void) CySysFlashWriteRow((uint32) rowNum, rowData);
ARM GAS  C:\Users\Robert\AppData\Local\Temp\ccgj8kBb.s 			page 54


1343:.\Generated_Source\PSoC5/Bootloader_1.c ****     #else
1344:.\Generated_Source\PSoC5/Bootloader_1.c ****         (void) CyWriteRowData(arrayId, rowNum, rowData);
 1641              		.loc 1 1344 0
 1642 0094 97F80F11 		ldrb	r1, [r7, #271]	@ zero_extendqisi2
 1643 0098 B7F80C21 		ldrh	r2, [r7, #268]
 1644 009c 07F10803 		add	r3, r7, #8
 1645 00a0 0846     		mov	r0, r1
 1646 00a2 1146     		mov	r1, r2
 1647 00a4 1A46     		mov	r2, r3
 1648 00a6 FFF7FEFF 		bl	CyWriteRowData
1345:.\Generated_Source\PSoC5/Bootloader_1.c ****     #endif  /* (CY_PSOC4) */
1346:.\Generated_Source\PSoC5/Bootloader_1.c **** }
 1649              		.loc 1 1346 0
 1650 00aa 07F58C77 		add	r7, r7, #280
 1651 00ae BD46     		mov	sp, r7
 1652 00b0 80BD     		pop	{r7, pc}
 1653              		.cfi_endproc
 1654              	.LFE66:
 1655              		.size	Bootloader_1_SetFlashByte, .-Bootloader_1_SetFlashByte
 1656 00b2 00BF     		.section	.text.Bootloader_1_GetMetadata,"ax",%progbits
 1657              		.align	2
 1658              		.thumb
 1659              		.thumb_func
 1660              		.type	Bootloader_1_GetMetadata, %function
 1661              	Bootloader_1_GetMetadata:
 1662              	.LFB67:
1347:.\Generated_Source\PSoC5/Bootloader_1.c **** 
1348:.\Generated_Source\PSoC5/Bootloader_1.c **** 
1349:.\Generated_Source\PSoC5/Bootloader_1.c **** /*******************************************************************************
1350:.\Generated_Source\PSoC5/Bootloader_1.c **** * Function Name: Bootloader_1_GetMetadata
1351:.\Generated_Source\PSoC5/Bootloader_1.c **** ********************************************************************************
1352:.\Generated_Source\PSoC5/Bootloader_1.c **** *
1353:.\Generated_Source\PSoC5/Bootloader_1.c **** * Summary:
1354:.\Generated_Source\PSoC5/Bootloader_1.c **** *  Returns value of the multi-byte field.
1355:.\Generated_Source\PSoC5/Bootloader_1.c **** *
1356:.\Generated_Source\PSoC5/Bootloader_1.c **** * Parameters:
1357:.\Generated_Source\PSoC5/Bootloader_1.c **** *  fieldName:
1358:.\Generated_Source\PSoC5/Bootloader_1.c **** *   The field to get data from:
1359:.\Generated_Source\PSoC5/Bootloader_1.c **** *     Bootloader_1_GET_METADATA_BTLDB_ADDR
1360:.\Generated_Source\PSoC5/Bootloader_1.c **** *     Bootloader_1_GET_METADATA_BTLDR_LAST_ROW
1361:.\Generated_Source\PSoC5/Bootloader_1.c **** *     Bootloader_1_GET_METADATA_BTLDB_LENGTH
1362:.\Generated_Source\PSoC5/Bootloader_1.c **** *     Bootloader_1_GET_METADATA_BTLDR_APP_VERSION
1363:.\Generated_Source\PSoC5/Bootloader_1.c **** *     Bootloader_1_GET_METADATA_BTLDB_APP_VERSION
1364:.\Generated_Source\PSoC5/Bootloader_1.c **** *     Bootloader_1_GET_METADATA_BTLDB_APP_ID
1365:.\Generated_Source\PSoC5/Bootloader_1.c **** *     Bootloader_1_GET_METADATA_BTLDB_APP_CUST_ID
1366:.\Generated_Source\PSoC5/Bootloader_1.c **** *
1367:.\Generated_Source\PSoC5/Bootloader_1.c **** *  appId:
1368:.\Generated_Source\PSoC5/Bootloader_1.c **** *   Number of the bootlodable application.
1369:.\Generated_Source\PSoC5/Bootloader_1.c **** *
1370:.\Generated_Source\PSoC5/Bootloader_1.c **** * Return:
1371:.\Generated_Source\PSoC5/Bootloader_1.c **** *  None
1372:.\Generated_Source\PSoC5/Bootloader_1.c **** *
1373:.\Generated_Source\PSoC5/Bootloader_1.c **** *******************************************************************************/
1374:.\Generated_Source\PSoC5/Bootloader_1.c **** static uint32 Bootloader_1_GetMetadata(uint8 fieldName, uint8 appId)
1375:.\Generated_Source\PSoC5/Bootloader_1.c **** {
 1663              		.loc 1 1375 0
 1664              		.cfi_startproc
ARM GAS  C:\Users\Robert\AppData\Local\Temp\ccgj8kBb.s 			page 55


 1665              		@ args = 0, pretend = 0, frame = 24
 1666              		@ frame_needed = 1, uses_anonymous_args = 0
 1667 0000 80B5     		push	{r7, lr}
 1668              	.LCFI28:
 1669              		.cfi_def_cfa_offset 8
 1670              		.cfi_offset 7, -8
 1671              		.cfi_offset 14, -4
 1672 0002 86B0     		sub	sp, sp, #24
 1673              	.LCFI29:
 1674              		.cfi_def_cfa_offset 32
 1675 0004 00AF     		add	r7, sp, #0
 1676              	.LCFI30:
 1677              		.cfi_def_cfa_register 7
 1678 0006 0246     		mov	r2, r0
 1679 0008 0B46     		mov	r3, r1
 1680 000a FA71     		strb	r2, [r7, #7]
 1681 000c BB71     		strb	r3, [r7, #6]
1376:.\Generated_Source\PSoC5/Bootloader_1.c ****     uint32 fieldPtr;
1377:.\Generated_Source\PSoC5/Bootloader_1.c ****     uint8  fieldSize = 2u;
 1682              		.loc 1 1377 0
 1683 000e 4FF00203 		mov	r3, #2
 1684 0012 FB74     		strb	r3, [r7, #19]
1378:.\Generated_Source\PSoC5/Bootloader_1.c ****     uint32 result;
1379:.\Generated_Source\PSoC5/Bootloader_1.c **** 
1380:.\Generated_Source\PSoC5/Bootloader_1.c ****     switch (fieldName)
 1685              		.loc 1 1380 0
 1686 0014 FB79     		ldrb	r3, [r7, #7]	@ zero_extendqisi2
 1687 0016 03F1FF33 		add	r3, r3, #-1
 1688 001a 062B     		cmp	r3, #6
 1689 001c 74D8     		bhi	.L103
 1690 001e 01A2     		adr	r2, .L111
 1691 0020 52F823F0 		ldr	pc, [r2, r3, lsl #2]
 1692              		.align	2
 1693              	.L111:
 1694 0024 7B000000 		.word	.L104+1
 1695 0028 9B000000 		.word	.L105+1
 1696 002c B5000000 		.word	.L106+1
 1697 0030 61000000 		.word	.L107+1
 1698 0034 D5000000 		.word	.L108+1
 1699 0038 EF000000 		.word	.L109+1
 1700 003c 41000000 		.word	.L110+1
 1701              	.L110:
1381:.\Generated_Source\PSoC5/Bootloader_1.c ****     {
1382:.\Generated_Source\PSoC5/Bootloader_1.c ****     case Bootloader_1_GET_METADATA_BTLDB_APP_CUST_ID:
1383:.\Generated_Source\PSoC5/Bootloader_1.c ****         fieldPtr  = Bootloader_1_MD_BTLDB_APP_CUST_ID_OFFSET(appId);
 1702              		.loc 1 1383 0
 1703 0040 BA79     		ldrb	r2, [r7, #6]	@ zero_extendqisi2
 1704 0042 1346     		mov	r3, r2
 1705 0044 4FEA0363 		lsl	r3, r3, #24
 1706 0048 9B1A     		subs	r3, r3, r2
 1707 004a 4FEA0323 		lsl	r3, r3, #8
 1708 004e 03F57F33 		add	r3, r3, #261120
 1709 0052 03F57673 		add	r3, r3, #984
 1710 0056 7B61     		str	r3, [r7, #20]
1384:.\Generated_Source\PSoC5/Bootloader_1.c ****         fieldSize = 4u;
 1711              		.loc 1 1384 0
 1712 0058 4FF00403 		mov	r3, #4
ARM GAS  C:\Users\Robert\AppData\Local\Temp\ccgj8kBb.s 			page 56


 1713 005c FB74     		strb	r3, [r7, #19]
1385:.\Generated_Source\PSoC5/Bootloader_1.c ****         break;
 1714              		.loc 1 1385 0
 1715 005e 5BE0     		b	.L112
 1716              	.L107:
1386:.\Generated_Source\PSoC5/Bootloader_1.c **** 
1387:.\Generated_Source\PSoC5/Bootloader_1.c ****     case Bootloader_1_GET_METADATA_BTLDR_APP_VERSION:
1388:.\Generated_Source\PSoC5/Bootloader_1.c ****         fieldPtr  = Bootloader_1_MD_BTLDR_APP_VERSION_OFFSET(appId);
 1717              		.loc 1 1388 0
 1718 0060 BA79     		ldrb	r2, [r7, #6]	@ zero_extendqisi2
 1719 0062 1346     		mov	r3, r2
 1720 0064 4FEA0363 		lsl	r3, r3, #24
 1721 0068 9B1A     		subs	r3, r3, r2
 1722 006a 4FEA0323 		lsl	r3, r3, #8
 1723 006e 03F57F33 		add	r3, r3, #261120
 1724 0072 03F2D233 		addw	r3, r3, #978
 1725 0076 7B61     		str	r3, [r7, #20]
1389:.\Generated_Source\PSoC5/Bootloader_1.c ****         break;
 1726              		.loc 1 1389 0
 1727 0078 4EE0     		b	.L112
 1728              	.L104:
1390:.\Generated_Source\PSoC5/Bootloader_1.c **** 
1391:.\Generated_Source\PSoC5/Bootloader_1.c ****     case Bootloader_1_GET_METADATA_BTLDB_ADDR:
1392:.\Generated_Source\PSoC5/Bootloader_1.c ****         fieldPtr  = Bootloader_1_MD_BTLDB_ADDR_OFFSET(appId);
 1729              		.loc 1 1392 0
 1730 007a BA79     		ldrb	r2, [r7, #6]	@ zero_extendqisi2
 1731 007c 1346     		mov	r3, r2
 1732 007e 4FEA0363 		lsl	r3, r3, #24
 1733 0082 9B1A     		subs	r3, r3, r2
 1734 0084 4FEA0323 		lsl	r3, r3, #8
 1735 0088 03F57F33 		add	r3, r3, #261120
 1736 008c 03F2C133 		addw	r3, r3, #961
 1737 0090 7B61     		str	r3, [r7, #20]
1393:.\Generated_Source\PSoC5/Bootloader_1.c ****     #if(!CY_PSOC3)
1394:.\Generated_Source\PSoC5/Bootloader_1.c ****         fieldSize = 4u;
 1738              		.loc 1 1394 0
 1739 0092 4FF00403 		mov	r3, #4
 1740 0096 FB74     		strb	r3, [r7, #19]
1395:.\Generated_Source\PSoC5/Bootloader_1.c ****     #endif  /* (!CY_PSOC3) */
1396:.\Generated_Source\PSoC5/Bootloader_1.c ****         break;
 1741              		.loc 1 1396 0
 1742 0098 3EE0     		b	.L112
 1743              	.L105:
1397:.\Generated_Source\PSoC5/Bootloader_1.c **** 
1398:.\Generated_Source\PSoC5/Bootloader_1.c ****     case Bootloader_1_GET_METADATA_BTLDR_LAST_ROW:
1399:.\Generated_Source\PSoC5/Bootloader_1.c ****         fieldPtr  = Bootloader_1_MD_BTLDR_LAST_ROW_OFFSET(appId);
 1744              		.loc 1 1399 0
 1745 009a BA79     		ldrb	r2, [r7, #6]	@ zero_extendqisi2
 1746 009c 1346     		mov	r3, r2
 1747 009e 4FEA0363 		lsl	r3, r3, #24
 1748 00a2 9B1A     		subs	r3, r3, r2
 1749 00a4 4FEA0323 		lsl	r3, r3, #8
 1750 00a8 03F57F33 		add	r3, r3, #261120
 1751 00ac 03F2C533 		addw	r3, r3, #965
 1752 00b0 7B61     		str	r3, [r7, #20]
1400:.\Generated_Source\PSoC5/Bootloader_1.c ****         break;
 1753              		.loc 1 1400 0
ARM GAS  C:\Users\Robert\AppData\Local\Temp\ccgj8kBb.s 			page 57


 1754 00b2 31E0     		b	.L112
 1755              	.L106:
1401:.\Generated_Source\PSoC5/Bootloader_1.c **** 
1402:.\Generated_Source\PSoC5/Bootloader_1.c ****     case Bootloader_1_GET_METADATA_BTLDB_LENGTH:
1403:.\Generated_Source\PSoC5/Bootloader_1.c ****         fieldPtr  = Bootloader_1_MD_BTLDB_LENGTH_OFFSET(appId);
 1756              		.loc 1 1403 0
 1757 00b4 BA79     		ldrb	r2, [r7, #6]	@ zero_extendqisi2
 1758 00b6 1346     		mov	r3, r2
 1759 00b8 4FEA0363 		lsl	r3, r3, #24
 1760 00bc 9B1A     		subs	r3, r3, r2
 1761 00be 4FEA0323 		lsl	r3, r3, #8
 1762 00c2 03F57F33 		add	r3, r3, #261120
 1763 00c6 03F2C933 		addw	r3, r3, #969
 1764 00ca 7B61     		str	r3, [r7, #20]
1404:.\Generated_Source\PSoC5/Bootloader_1.c ****     #if(!CY_PSOC3)
1405:.\Generated_Source\PSoC5/Bootloader_1.c ****         fieldSize = 4u;
 1765              		.loc 1 1405 0
 1766 00cc 4FF00403 		mov	r3, #4
 1767 00d0 FB74     		strb	r3, [r7, #19]
1406:.\Generated_Source\PSoC5/Bootloader_1.c ****     #endif  /* (!CY_PSOC3) */
1407:.\Generated_Source\PSoC5/Bootloader_1.c ****         break;
 1768              		.loc 1 1407 0
 1769 00d2 21E0     		b	.L112
 1770              	.L108:
1408:.\Generated_Source\PSoC5/Bootloader_1.c **** 
1409:.\Generated_Source\PSoC5/Bootloader_1.c ****     case Bootloader_1_GET_METADATA_BTLDB_APP_VERSION:
1410:.\Generated_Source\PSoC5/Bootloader_1.c ****         fieldPtr  = Bootloader_1_MD_BTLDB_APP_VERSION_OFFSET(appId);
 1771              		.loc 1 1410 0
 1772 00d4 BA79     		ldrb	r2, [r7, #6]	@ zero_extendqisi2
 1773 00d6 1346     		mov	r3, r2
 1774 00d8 4FEA0363 		lsl	r3, r3, #24
 1775 00dc 9B1A     		subs	r3, r3, r2
 1776 00de 4FEA0323 		lsl	r3, r3, #8
 1777 00e2 03F57F33 		add	r3, r3, #261120
 1778 00e6 03F2D633 		addw	r3, r3, #982
 1779 00ea 7B61     		str	r3, [r7, #20]
1411:.\Generated_Source\PSoC5/Bootloader_1.c ****         break;
 1780              		.loc 1 1411 0
 1781 00ec 14E0     		b	.L112
 1782              	.L109:
1412:.\Generated_Source\PSoC5/Bootloader_1.c **** 
1413:.\Generated_Source\PSoC5/Bootloader_1.c ****     case Bootloader_1_GET_METADATA_BTLDB_APP_ID:
1414:.\Generated_Source\PSoC5/Bootloader_1.c ****         fieldPtr  = Bootloader_1_MD_BTLDB_APP_ID_OFFSET(appId);
 1783              		.loc 1 1414 0
 1784 00ee BA79     		ldrb	r2, [r7, #6]	@ zero_extendqisi2
 1785 00f0 1346     		mov	r3, r2
 1786 00f2 4FEA0363 		lsl	r3, r3, #24
 1787 00f6 9B1A     		subs	r3, r3, r2
 1788 00f8 4FEA0323 		lsl	r3, r3, #8
 1789 00fc 03F57F33 		add	r3, r3, #261120
 1790 0100 03F57573 		add	r3, r3, #980
 1791 0104 7B61     		str	r3, [r7, #20]
1415:.\Generated_Source\PSoC5/Bootloader_1.c ****         break;
 1792              		.loc 1 1415 0
 1793 0106 07E0     		b	.L112
 1794              	.L103:
1416:.\Generated_Source\PSoC5/Bootloader_1.c **** 
ARM GAS  C:\Users\Robert\AppData\Local\Temp\ccgj8kBb.s 			page 58


1417:.\Generated_Source\PSoC5/Bootloader_1.c ****     default:
1418:.\Generated_Source\PSoC5/Bootloader_1.c ****         /* Should never be here */
1419:.\Generated_Source\PSoC5/Bootloader_1.c ****         CYASSERT(0u != 0u);
 1795              		.loc 1 1419 0 discriminator 1
 1796 0108 4FF00000 		mov	r0, #0
 1797 010c FFF7FEFF 		bl	CyHalt
1420:.\Generated_Source\PSoC5/Bootloader_1.c ****         fieldPtr  = 0u;
 1798              		.loc 1 1420 0 discriminator 1
 1799 0110 4FF00003 		mov	r3, #0
 1800 0114 7B61     		str	r3, [r7, #20]
1421:.\Generated_Source\PSoC5/Bootloader_1.c ****         break;
 1801              		.loc 1 1421 0
 1802 0116 00BF     		nop
 1803              	.L112:
1422:.\Generated_Source\PSoC5/Bootloader_1.c ****     }
1423:.\Generated_Source\PSoC5/Bootloader_1.c **** 
1424:.\Generated_Source\PSoC5/Bootloader_1.c **** 
1425:.\Generated_Source\PSoC5/Bootloader_1.c ****     /* Read all fields as big-endian */
1426:.\Generated_Source\PSoC5/Bootloader_1.c ****     if (2u == fieldSize)
 1804              		.loc 1 1426 0
 1805 0118 FB7C     		ldrb	r3, [r7, #19]	@ zero_extendqisi2
 1806 011a 022B     		cmp	r3, #2
 1807 011c 0ED1     		bne	.L113
1427:.\Generated_Source\PSoC5/Bootloader_1.c ****     {
1428:.\Generated_Source\PSoC5/Bootloader_1.c ****         result =  (uint32) CY_GET_XTND_REG8((volatile uint8 *)(fieldPtr + 1u));
 1808              		.loc 1 1428 0
 1809 011e 7B69     		ldr	r3, [r7, #20]
 1810 0120 03F10103 		add	r3, r3, #1
 1811 0124 1B78     		ldrb	r3, [r3, #0]
 1812 0126 DBB2     		uxtb	r3, r3
 1813 0128 FB60     		str	r3, [r7, #12]
1429:.\Generated_Source\PSoC5/Bootloader_1.c ****         result |= (uint32) CY_GET_XTND_REG8((volatile uint8 *) fieldPtr      ) <<  8u;
 1814              		.loc 1 1429 0
 1815 012a 7B69     		ldr	r3, [r7, #20]
 1816 012c 1B78     		ldrb	r3, [r3, #0]
 1817 012e DBB2     		uxtb	r3, r3
 1818 0130 4FEA0323 		lsl	r3, r3, #8
 1819 0134 FA68     		ldr	r2, [r7, #12]
 1820 0136 1343     		orrs	r3, r3, r2
 1821 0138 FB60     		str	r3, [r7, #12]
 1822 013a 21E0     		b	.L114
 1823              	.L113:
1430:.\Generated_Source\PSoC5/Bootloader_1.c ****     }
1431:.\Generated_Source\PSoC5/Bootloader_1.c ****     else
1432:.\Generated_Source\PSoC5/Bootloader_1.c ****     {
1433:.\Generated_Source\PSoC5/Bootloader_1.c ****         result =  (uint32) CY_GET_XTND_REG8((volatile uint8 *)(fieldPtr + 3u));
 1824              		.loc 1 1433 0
 1825 013c 7B69     		ldr	r3, [r7, #20]
 1826 013e 03F10303 		add	r3, r3, #3
 1827 0142 1B78     		ldrb	r3, [r3, #0]
 1828 0144 DBB2     		uxtb	r3, r3
 1829 0146 FB60     		str	r3, [r7, #12]
1434:.\Generated_Source\PSoC5/Bootloader_1.c ****         result |= (uint32) CY_GET_XTND_REG8((volatile uint8 *)(fieldPtr + 2u)) <<  8u;
 1830              		.loc 1 1434 0
 1831 0148 7B69     		ldr	r3, [r7, #20]
 1832 014a 03F10203 		add	r3, r3, #2
 1833 014e 1B78     		ldrb	r3, [r3, #0]
ARM GAS  C:\Users\Robert\AppData\Local\Temp\ccgj8kBb.s 			page 59


 1834 0150 DBB2     		uxtb	r3, r3
 1835 0152 4FEA0323 		lsl	r3, r3, #8
 1836 0156 FA68     		ldr	r2, [r7, #12]
 1837 0158 1343     		orrs	r3, r3, r2
 1838 015a FB60     		str	r3, [r7, #12]
1435:.\Generated_Source\PSoC5/Bootloader_1.c ****         result |= (uint32) CY_GET_XTND_REG8((volatile uint8 *)(fieldPtr + 1u)) << 16u;
 1839              		.loc 1 1435 0
 1840 015c 7B69     		ldr	r3, [r7, #20]
 1841 015e 03F10103 		add	r3, r3, #1
 1842 0162 1B78     		ldrb	r3, [r3, #0]
 1843 0164 DBB2     		uxtb	r3, r3
 1844 0166 4FEA0343 		lsl	r3, r3, #16
 1845 016a FA68     		ldr	r2, [r7, #12]
 1846 016c 1343     		orrs	r3, r3, r2
 1847 016e FB60     		str	r3, [r7, #12]
1436:.\Generated_Source\PSoC5/Bootloader_1.c ****         result |= (uint32) CY_GET_XTND_REG8((volatile uint8 *)(fieldPtr     )) << 24u;
 1848              		.loc 1 1436 0
 1849 0170 7B69     		ldr	r3, [r7, #20]
 1850 0172 1B78     		ldrb	r3, [r3, #0]
 1851 0174 DBB2     		uxtb	r3, r3
 1852 0176 4FEA0363 		lsl	r3, r3, #24
 1853 017a FA68     		ldr	r2, [r7, #12]
 1854 017c 1343     		orrs	r3, r3, r2
 1855 017e FB60     		str	r3, [r7, #12]
 1856              	.L114:
1437:.\Generated_Source\PSoC5/Bootloader_1.c ****     }
1438:.\Generated_Source\PSoC5/Bootloader_1.c **** 
1439:.\Generated_Source\PSoC5/Bootloader_1.c ****     /* Following fields should be little-endian */
1440:.\Generated_Source\PSoC5/Bootloader_1.c **** #if(!CY_PSOC3)
1441:.\Generated_Source\PSoC5/Bootloader_1.c ****     switch (fieldName)
 1857              		.loc 1 1441 0
 1858 0180 FB79     		ldrb	r3, [r7, #7]	@ zero_extendqisi2
 1859 0182 022B     		cmp	r3, #2
 1860 0184 04D0     		beq	.L117
 1861 0186 032B     		cmp	r3, #3
 1862 0188 0FD0     		beq	.L116
 1863 018a 012B     		cmp	r3, #1
 1864 018c 0DD0     		beq	.L116
 1865 018e 21E0     		b	.L120
 1866              	.L117:
1442:.\Generated_Source\PSoC5/Bootloader_1.c ****     {
1443:.\Generated_Source\PSoC5/Bootloader_1.c ****     case Bootloader_1_GET_METADATA_BTLDR_LAST_ROW:
1444:.\Generated_Source\PSoC5/Bootloader_1.c ****         result = CYSWAP_ENDIAN16(result);
 1867              		.loc 1 1444 0
 1868 0190 FB68     		ldr	r3, [r7, #12]
 1869 0192 9BB2     		uxth	r3, r3
 1870 0194 4FEA0323 		lsl	r3, r3, #8
 1871 0198 9AB2     		uxth	r2, r3
 1872 019a FB68     		ldr	r3, [r7, #12]
 1873 019c 4FEA1323 		lsr	r3, r3, #8
 1874 01a0 9BB2     		uxth	r3, r3
 1875 01a2 1343     		orrs	r3, r3, r2
 1876 01a4 9BB2     		uxth	r3, r3
 1877 01a6 FB60     		str	r3, [r7, #12]
1445:.\Generated_Source\PSoC5/Bootloader_1.c ****         break;
 1878              		.loc 1 1445 0
 1879 01a8 15E0     		b	.L118
ARM GAS  C:\Users\Robert\AppData\Local\Temp\ccgj8kBb.s 			page 60


 1880              	.L116:
1446:.\Generated_Source\PSoC5/Bootloader_1.c **** 
1447:.\Generated_Source\PSoC5/Bootloader_1.c ****     case Bootloader_1_GET_METADATA_BTLDB_ADDR:
1448:.\Generated_Source\PSoC5/Bootloader_1.c ****     case Bootloader_1_GET_METADATA_BTLDB_LENGTH:
1449:.\Generated_Source\PSoC5/Bootloader_1.c ****         result = CYSWAP_ENDIAN32(result);
 1881              		.loc 1 1449 0
 1882 01aa FB68     		ldr	r3, [r7, #12]
 1883 01ac 4FEA1362 		lsr	r2, r3, #24
 1884 01b0 FB68     		ldr	r3, [r7, #12]
 1885 01b2 03F47F03 		and	r3, r3, #16711680
 1886 01b6 4FEA1323 		lsr	r3, r3, #8
 1887 01ba 1A43     		orrs	r2, r2, r3
 1888 01bc FB68     		ldr	r3, [r7, #12]
 1889 01be 03F47F43 		and	r3, r3, #65280
 1890 01c2 4FEA0323 		lsl	r3, r3, #8
 1891 01c6 1A43     		orrs	r2, r2, r3
 1892 01c8 FB68     		ldr	r3, [r7, #12]
 1893 01ca 4FEA0363 		lsl	r3, r3, #24
 1894 01ce 1343     		orrs	r3, r3, r2
 1895 01d0 FB60     		str	r3, [r7, #12]
1450:.\Generated_Source\PSoC5/Bootloader_1.c ****         break;
 1896              		.loc 1 1450 0
 1897 01d2 00E0     		b	.L118
 1898              	.L120:
1451:.\Generated_Source\PSoC5/Bootloader_1.c **** 
1452:.\Generated_Source\PSoC5/Bootloader_1.c ****     default:
1453:.\Generated_Source\PSoC5/Bootloader_1.c ****         break;
 1899              		.loc 1 1453 0
 1900 01d4 00BF     		nop
 1901              	.L118:
1454:.\Generated_Source\PSoC5/Bootloader_1.c ****     }
1455:.\Generated_Source\PSoC5/Bootloader_1.c **** 
1456:.\Generated_Source\PSoC5/Bootloader_1.c **** #endif  /* (!CY_PSOC3) */
1457:.\Generated_Source\PSoC5/Bootloader_1.c **** 
1458:.\Generated_Source\PSoC5/Bootloader_1.c ****     return (result);
 1902              		.loc 1 1458 0
 1903 01d6 FB68     		ldr	r3, [r7, #12]
1459:.\Generated_Source\PSoC5/Bootloader_1.c **** }
 1904              		.loc 1 1459 0
 1905 01d8 1846     		mov	r0, r3
 1906 01da 07F11807 		add	r7, r7, #24
 1907 01de BD46     		mov	sp, r7
 1908 01e0 80BD     		pop	{r7, pc}
 1909              		.cfi_endproc
 1910              	.LFE67:
 1911              		.size	Bootloader_1_GetMetadata, .-Bootloader_1_GetMetadata
 1912 01e2 00BF     		.text
 1913              	.Letext0:
 1914              		.file 2 "c:\\program files (x86)\\cypress\\psoc creator\\3.0\\psoc creator\\import\\gnu_cs\\arm\\4
 1915              		.file 3 ".\\Generated_Source\\PSoC5\\cytypes.h"
 1916              		.file 4 ".\\Generated_Source\\PSoC5\\Bootloader_1_PVT.h"
 1917              		.file 5 "./Generated_Source/PSoC5/core_cm3.h"
 1918              		.section	.debug_info,"",%progbits
 1919              	.Ldebug_info0:
 1920 0000 E7060000 		.4byte	0x6e7
 1921 0004 0200     		.2byte	0x2
 1922 0006 00000000 		.4byte	.Ldebug_abbrev0
ARM GAS  C:\Users\Robert\AppData\Local\Temp\ccgj8kBb.s 			page 61


 1923 000a 04       		.byte	0x4
 1924 000b 01       		.uleb128 0x1
 1925 000c C3010000 		.4byte	.LASF80
 1926 0010 01       		.byte	0x1
 1927 0011 70010000 		.4byte	.LASF81
 1928 0015 7E040000 		.4byte	.LASF82
 1929 0019 00000000 		.4byte	.Ldebug_ranges0+0
 1930 001d 00000000 		.4byte	0
 1931 0021 00000000 		.4byte	0
 1932 0025 00000000 		.4byte	.Ldebug_line0
 1933 0029 02       		.uleb128 0x2
 1934 002a 01       		.byte	0x1
 1935 002b 06       		.byte	0x6
 1936 002c 75020000 		.4byte	.LASF0
 1937 0030 02       		.uleb128 0x2
 1938 0031 01       		.byte	0x1
 1939 0032 08       		.byte	0x8
 1940 0033 3D020000 		.4byte	.LASF1
 1941 0037 02       		.uleb128 0x2
 1942 0038 02       		.byte	0x2
 1943 0039 05       		.byte	0x5
 1944 003a 3E000000 		.4byte	.LASF2
 1945 003e 02       		.uleb128 0x2
 1946 003f 02       		.byte	0x2
 1947 0040 07       		.byte	0x7
 1948 0041 24030000 		.4byte	.LASF3
 1949 0045 03       		.uleb128 0x3
 1950 0046 22010000 		.4byte	.LASF9
 1951 004a 02       		.byte	0x2
 1952 004b 4F       		.byte	0x4f
 1953 004c 50000000 		.4byte	0x50
 1954 0050 02       		.uleb128 0x2
 1955 0051 04       		.byte	0x4
 1956 0052 05       		.byte	0x5
 1957 0053 5D030000 		.4byte	.LASF4
 1958 0057 02       		.uleb128 0x2
 1959 0058 04       		.byte	0x4
 1960 0059 07       		.byte	0x7
 1961 005a E8030000 		.4byte	.LASF5
 1962 005e 02       		.uleb128 0x2
 1963 005f 08       		.byte	0x8
 1964 0060 05       		.byte	0x5
 1965 0061 42010000 		.4byte	.LASF6
 1966 0065 02       		.uleb128 0x2
 1967 0066 08       		.byte	0x8
 1968 0067 07       		.byte	0x7
 1969 0068 98020000 		.4byte	.LASF7
 1970 006c 04       		.uleb128 0x4
 1971 006d 04       		.byte	0x4
 1972 006e 05       		.byte	0x5
 1973 006f 696E7400 		.ascii	"int\000"
 1974 0073 02       		.uleb128 0x2
 1975 0074 04       		.byte	0x4
 1976 0075 07       		.byte	0x7
 1977 0076 E4040000 		.4byte	.LASF8
 1978 007a 03       		.uleb128 0x3
 1979 007b FA000000 		.4byte	.LASF10
ARM GAS  C:\Users\Robert\AppData\Local\Temp\ccgj8kBb.s 			page 62


 1980 007f 03       		.byte	0x3
 1981 0080 5B       		.byte	0x5b
 1982 0081 30000000 		.4byte	0x30
 1983 0085 03       		.uleb128 0x3
 1984 0086 E2000000 		.4byte	.LASF11
 1985 008a 03       		.byte	0x3
 1986 008b 5C       		.byte	0x5c
 1987 008c 3E000000 		.4byte	0x3e
 1988 0090 03       		.uleb128 0x3
 1989 0091 DC030000 		.4byte	.LASF12
 1990 0095 03       		.byte	0x3
 1991 0096 5D       		.byte	0x5d
 1992 0097 57000000 		.4byte	0x57
 1993 009b 02       		.uleb128 0x2
 1994 009c 04       		.byte	0x4
 1995 009d 04       		.byte	0x4
 1996 009e 3C010000 		.4byte	.LASF13
 1997 00a2 02       		.uleb128 0x2
 1998 00a3 08       		.byte	0x8
 1999 00a4 04       		.byte	0x4
 2000 00a5 77040000 		.4byte	.LASF14
 2001 00a9 02       		.uleb128 0x2
 2002 00aa 01       		.byte	0x1
 2003 00ab 08       		.byte	0x8
 2004 00ac 63010000 		.4byte	.LASF15
 2005 00b0 03       		.uleb128 0x3
 2006 00b1 CF020000 		.4byte	.LASF16
 2007 00b5 03       		.byte	0x3
 2008 00b6 E8       		.byte	0xe8
 2009 00b7 57000000 		.4byte	0x57
 2010 00bb 03       		.uleb128 0x3
 2011 00bc E3030000 		.4byte	.LASF17
 2012 00c0 03       		.byte	0x3
 2013 00c1 F0       		.byte	0xf0
 2014 00c2 C6000000 		.4byte	0xc6
 2015 00c6 05       		.uleb128 0x5
 2016 00c7 7A000000 		.4byte	0x7a
 2017 00cb 06       		.uleb128 0x6
 2018 00cc 08       		.byte	0x8
 2019 00cd 04       		.byte	0x4
 2020 00ce 15       		.byte	0x15
 2021 00cf FE000000 		.4byte	0xfe
 2022 00d3 07       		.uleb128 0x7
 2023 00d4 9C030000 		.4byte	.LASF18
 2024 00d8 04       		.byte	0x4
 2025 00d9 17       		.byte	0x17
 2026 00da 90000000 		.4byte	0x90
 2027 00de 02       		.byte	0x2
 2028 00df 23       		.byte	0x23
 2029 00e0 00       		.uleb128 0
 2030 00e1 07       		.uleb128 0x7
 2031 00e2 6E040000 		.4byte	.LASF19
 2032 00e6 04       		.byte	0x4
 2033 00e7 18       		.byte	0x18
 2034 00e8 7A000000 		.4byte	0x7a
 2035 00ec 02       		.byte	0x2
 2036 00ed 23       		.byte	0x23
ARM GAS  C:\Users\Robert\AppData\Local\Temp\ccgj8kBb.s 			page 63


 2037 00ee 04       		.uleb128 0x4
 2038 00ef 07       		.uleb128 0x7
 2039 00f0 2A010000 		.4byte	.LASF20
 2040 00f4 04       		.byte	0x4
 2041 00f5 19       		.byte	0x19
 2042 00f6 FE000000 		.4byte	0xfe
 2043 00fa 02       		.byte	0x2
 2044 00fb 23       		.byte	0x23
 2045 00fc 05       		.uleb128 0x5
 2046 00fd 00       		.byte	0
 2047 00fe 08       		.uleb128 0x8
 2048 00ff 7A000000 		.4byte	0x7a
 2049 0103 0E010000 		.4byte	0x10e
 2050 0107 09       		.uleb128 0x9
 2051 0108 0E010000 		.4byte	0x10e
 2052 010c 02       		.byte	0x2
 2053 010d 00       		.byte	0
 2054 010e 02       		.uleb128 0x2
 2055 010f 04       		.byte	0x4
 2056 0110 07       		.byte	0x7
 2057 0111 63000000 		.4byte	.LASF21
 2058 0115 03       		.uleb128 0x3
 2059 0116 50010000 		.4byte	.LASF22
 2060 011a 04       		.byte	0x4
 2061 011b 1B       		.byte	0x1b
 2062 011c CB000000 		.4byte	0xcb
 2063 0120 0A       		.uleb128 0xa
 2064 0121 22040000 		.4byte	.LASF26
 2065 0125 01       		.byte	0x1
 2066 0126 6E       		.byte	0x6e
 2067 0127 01       		.byte	0x1
 2068 0128 85000000 		.4byte	0x85
 2069 012c 00000000 		.4byte	.LFB56
 2070 0130 BA000000 		.4byte	.LFE56
 2071 0134 00000000 		.4byte	.LLST0
 2072 0138 01       		.byte	0x1
 2073 0139 90010000 		.4byte	0x190
 2074 013d 0B       		.uleb128 0xb
 2075 013e A6030000 		.4byte	.LASF23
 2076 0142 01       		.byte	0x1
 2077 0143 6E       		.byte	0x6e
 2078 0144 90010000 		.4byte	0x190
 2079 0148 02       		.byte	0x2
 2080 0149 91       		.byte	0x91
 2081 014a 6C       		.sleb128 -20
 2082 014b 0B       		.uleb128 0xb
 2083 014c 42040000 		.4byte	.LASF24
 2084 0150 01       		.byte	0x1
 2085 0151 6E       		.byte	0x6e
 2086 0152 85000000 		.4byte	0x85
 2087 0156 02       		.byte	0x2
 2088 0157 91       		.byte	0x91
 2089 0158 6A       		.sleb128 -22
 2090 0159 0C       		.uleb128 0xc
 2091 015a 63726300 		.ascii	"crc\000"
 2092 015e 01       		.byte	0x1
 2093 015f 73       		.byte	0x73
ARM GAS  C:\Users\Robert\AppData\Local\Temp\ccgj8kBb.s 			page 64


 2094 0160 85000000 		.4byte	0x85
 2095 0164 02       		.byte	0x2
 2096 0165 91       		.byte	0x91
 2097 0166 76       		.sleb128 -10
 2098 0167 0C       		.uleb128 0xc
 2099 0168 746D7000 		.ascii	"tmp\000"
 2100 016c 01       		.byte	0x1
 2101 016d 74       		.byte	0x74
 2102 016e 85000000 		.4byte	0x85
 2103 0172 02       		.byte	0x2
 2104 0173 91       		.byte	0x91
 2105 0174 74       		.sleb128 -12
 2106 0175 0C       		.uleb128 0xc
 2107 0176 6900     		.ascii	"i\000"
 2108 0178 01       		.byte	0x1
 2109 0179 75       		.byte	0x75
 2110 017a 7A000000 		.4byte	0x7a
 2111 017e 02       		.byte	0x2
 2112 017f 91       		.byte	0x91
 2113 0180 73       		.sleb128 -13
 2114 0181 0D       		.uleb128 0xd
 2115 0182 A0010000 		.4byte	.LASF25
 2116 0186 01       		.byte	0x1
 2117 0187 76       		.byte	0x76
 2118 0188 85000000 		.4byte	0x85
 2119 018c 02       		.byte	0x2
 2120 018d 91       		.byte	0x91
 2121 018e 70       		.sleb128 -16
 2122 018f 00       		.byte	0
 2123 0190 0E       		.uleb128 0xe
 2124 0191 04       		.byte	0x4
 2125 0192 96010000 		.4byte	0x196
 2126 0196 0F       		.uleb128 0xf
 2127 0197 7A000000 		.4byte	0x7a
 2128 019b 0A       		.uleb128 0xa
 2129 019c F1040000 		.4byte	.LASF27
 2130 01a0 01       		.byte	0x1
 2131 01a1 BD       		.byte	0xbd
 2132 01a2 01       		.byte	0x1
 2133 01a3 7A000000 		.4byte	0x7a
 2134 01a7 00000000 		.4byte	.LFB57
 2135 01ab 3C000000 		.4byte	.LFE57
 2136 01af 38000000 		.4byte	.LLST1
 2137 01b3 01       		.byte	0x1
 2138 01b4 E3010000 		.4byte	0x1e3
 2139 01b8 0B       		.uleb128 0xb
 2140 01b9 37020000 		.4byte	.LASF28
 2141 01bd 01       		.byte	0x1
 2142 01be BD       		.byte	0xbd
 2143 01bf 90000000 		.4byte	0x90
 2144 01c3 02       		.byte	0x2
 2145 01c4 91       		.byte	0x91
 2146 01c5 6C       		.sleb128 -20
 2147 01c6 0B       		.uleb128 0xb
 2148 01c7 42040000 		.4byte	.LASF24
 2149 01cb 01       		.byte	0x1
 2150 01cc BD       		.byte	0xbd
ARM GAS  C:\Users\Robert\AppData\Local\Temp\ccgj8kBb.s 			page 65


 2151 01cd 90000000 		.4byte	0x90
 2152 01d1 02       		.byte	0x2
 2153 01d2 91       		.byte	0x91
 2154 01d3 68       		.sleb128 -24
 2155 01d4 0C       		.uleb128 0xc
 2156 01d5 73756D00 		.ascii	"sum\000"
 2157 01d9 01       		.byte	0x1
 2158 01da C0       		.byte	0xc0
 2159 01db 7A000000 		.4byte	0x7a
 2160 01df 02       		.byte	0x2
 2161 01e0 91       		.byte	0x91
 2162 01e1 77       		.sleb128 -9
 2163 01e2 00       		.byte	0
 2164 01e3 0A       		.uleb128 0xa
 2165 01e4 4B020000 		.4byte	.LASF29
 2166 01e8 01       		.byte	0x1
 2167 01e9 E0       		.byte	0xe0
 2168 01ea 01       		.byte	0x1
 2169 01eb 7A000000 		.4byte	0x7a
 2170 01ef 00000000 		.4byte	.LFB58
 2171 01f3 44000000 		.4byte	.LFE58
 2172 01f7 70000000 		.4byte	.LLST2
 2173 01fb 01       		.byte	0x1
 2174 01fc 2B020000 		.4byte	0x22b
 2175 0200 0B       		.uleb128 0xb
 2176 0201 37020000 		.4byte	.LASF28
 2177 0205 01       		.byte	0x1
 2178 0206 E0       		.byte	0xe0
 2179 0207 90000000 		.4byte	0x90
 2180 020b 02       		.byte	0x2
 2181 020c 91       		.byte	0x91
 2182 020d 6C       		.sleb128 -20
 2183 020e 0B       		.uleb128 0xb
 2184 020f 42040000 		.4byte	.LASF24
 2185 0213 01       		.byte	0x1
 2186 0214 E0       		.byte	0xe0
 2187 0215 90000000 		.4byte	0x90
 2188 0219 02       		.byte	0x2
 2189 021a 91       		.byte	0x91
 2190 021b 68       		.sleb128 -24
 2191 021c 0C       		.uleb128 0xc
 2192 021d 73756D00 		.ascii	"sum\000"
 2193 0221 01       		.byte	0x1
 2194 0222 E3       		.byte	0xe3
 2195 0223 7A000000 		.4byte	0x7a
 2196 0227 02       		.byte	0x2
 2197 0228 91       		.byte	0x91
 2198 0229 77       		.sleb128 -9
 2199 022a 00       		.byte	0
 2200 022b 10       		.uleb128 0x10
 2201 022c 01       		.byte	0x1
 2202 022d 48000000 		.4byte	.LASF62
 2203 0231 01       		.byte	0x1
 2204 0232 1001     		.2byte	0x110
 2205 0234 01       		.byte	0x1
 2206 0235 00000000 		.4byte	.LFB59
 2207 0239 EA000000 		.4byte	.LFE59
ARM GAS  C:\Users\Robert\AppData\Local\Temp\ccgj8kBb.s 			page 66


 2208 023d A8000000 		.4byte	.LLST3
 2209 0241 01       		.byte	0x1
 2210 0242 75020000 		.4byte	0x275
 2211 0246 11       		.uleb128 0x11
 2212 0247 B4010000 		.4byte	.LASF30
 2213 024b 01       		.byte	0x1
 2214 024c 1301     		.2byte	0x113
 2215 024e 7A000000 		.4byte	0x7a
 2216 0252 02       		.byte	0x2
 2217 0253 91       		.byte	0x91
 2218 0254 77       		.sleb128 -9
 2219 0255 11       		.uleb128 0x11
 2220 0256 47040000 		.4byte	.LASF31
 2221 025a 01       		.byte	0x1
 2222 025b 1701     		.2byte	0x117
 2223 025d 75020000 		.4byte	0x275
 2224 0261 03       		.byte	0x3
 2225 0262 91       		.byte	0x91
 2226 0263 D07D     		.sleb128 -304
 2227 0265 11       		.uleb128 0x11
 2228 0266 13000000 		.4byte	.LASF32
 2229 026a 01       		.byte	0x1
 2230 026b 1A01     		.2byte	0x11a
 2231 026d B0000000 		.4byte	0xb0
 2232 0271 02       		.byte	0x2
 2233 0272 91       		.byte	0x91
 2234 0273 70       		.sleb128 -16
 2235 0274 00       		.byte	0
 2236 0275 08       		.uleb128 0x8
 2237 0276 7A000000 		.4byte	0x7a
 2238 027a 86020000 		.4byte	0x286
 2239 027e 12       		.uleb128 0x12
 2240 027f 0E010000 		.4byte	0x10e
 2241 0283 1F01     		.2byte	0x11f
 2242 0285 00       		.byte	0
 2243 0286 13       		.uleb128 0x13
 2244 0287 FE020000 		.4byte	.LASF83
 2245 028b 01       		.byte	0x1
 2246 028c 8901     		.2byte	0x189
 2247 028e 01       		.byte	0x1
 2248 028f 00000000 		.4byte	.LFB60
 2249 0293 18000000 		.4byte	.LFE60
 2250 0297 E2000000 		.4byte	.LLST4
 2251 029b 01       		.byte	0x1
 2252 029c 14       		.uleb128 0x14
 2253 029d 01       		.byte	0x1
 2254 029e BB020000 		.4byte	.LASF84
 2255 02a2 01       		.byte	0x1
 2256 02a3 A301     		.2byte	0x1a3
 2257 02a5 01       		.byte	0x1
 2258 02a6 00000000 		.4byte	.LFB61
 2259 02aa 4E000000 		.4byte	.LFE61
 2260 02ae 0E010000 		.4byte	.LLST5
 2261 02b2 01       		.byte	0x1
 2262 02b3 15       		.uleb128 0x15
 2263 02b4 02040000 		.4byte	.LASF38
 2264 02b8 01       		.byte	0x1
ARM GAS  C:\Users\Robert\AppData\Local\Temp\ccgj8kBb.s 			page 67


 2265 02b9 D601     		.2byte	0x1d6
 2266 02bb 01       		.byte	0x1
 2267 02bc 00000000 		.4byte	.LFB62
 2268 02c0 02000000 		.4byte	.LFE62
 2269 02c4 02       		.byte	0x2
 2270 02c5 7D       		.byte	0x7d
 2271 02c6 00       		.sleb128 0
 2272 02c7 01       		.byte	0x1
 2273 02c8 DB020000 		.4byte	0x2db
 2274 02cc 16       		.uleb128 0x16
 2275 02cd 2E000000 		.4byte	.LASF33
 2276 02d1 01       		.byte	0x1
 2277 02d2 D601     		.2byte	0x1d6
 2278 02d4 90000000 		.4byte	0x90
 2279 02d8 01       		.byte	0x1
 2280 02d9 50       		.byte	0x50
 2281 02da 00       		.byte	0
 2282 02db 17       		.uleb128 0x17
 2283 02dc 00010000 		.4byte	.LASF34
 2284 02e0 01       		.byte	0x1
 2285 02e1 F501     		.2byte	0x1f5
 2286 02e3 01       		.byte	0x1
 2287 02e4 B0000000 		.4byte	0xb0
 2288 02e8 00000000 		.4byte	.LFB63
 2289 02ec 24010000 		.4byte	.LFE63
 2290 02f0 3A010000 		.4byte	.LLST6
 2291 02f4 01       		.byte	0x1
 2292 02f5 5E030000 		.4byte	0x35e
 2293 02f9 16       		.uleb128 0x16
 2294 02fa 06000000 		.4byte	.LASF35
 2295 02fe 01       		.byte	0x1
 2296 02ff F501     		.2byte	0x1f5
 2297 0301 7A000000 		.4byte	0x7a
 2298 0305 02       		.byte	0x2
 2299 0306 91       		.byte	0x91
 2300 0307 5F       		.sleb128 -33
 2301 0308 18       		.uleb128 0x18
 2302 0309 69647800 		.ascii	"idx\000"
 2303 030d 01       		.byte	0x1
 2304 030e F801     		.2byte	0x1f8
 2305 0310 90000000 		.4byte	0x90
 2306 0314 02       		.byte	0x2
 2307 0315 91       		.byte	0x91
 2308 0316 6C       		.sleb128 -20
 2309 0317 18       		.uleb128 0x18
 2310 0318 656E6400 		.ascii	"end\000"
 2311 031c 01       		.byte	0x1
 2312 031d FA01     		.2byte	0x1fa
 2313 031f 90000000 		.4byte	0x90
 2314 0323 02       		.byte	0x2
 2315 0324 91       		.byte	0x91
 2316 0325 64       		.sleb128 -28
 2317 0326 11       		.uleb128 0x11
 2318 0327 00000000 		.4byte	.LASF36
 2319 032b 01       		.byte	0x1
 2320 032c FE01     		.2byte	0x1fe
 2321 032e 7A000000 		.4byte	0x7a
ARM GAS  C:\Users\Robert\AppData\Local\Temp\ccgj8kBb.s 			page 68


 2322 0332 02       		.byte	0x2
 2323 0333 91       		.byte	0x91
 2324 0334 6B       		.sleb128 -21
 2325 0335 11       		.uleb128 0x11
 2326 0336 B4010000 		.4byte	.LASF30
 2327 033a 01       		.byte	0x1
 2328 033b FF01     		.2byte	0x1ff
 2329 033d 7A000000 		.4byte	0x7a
 2330 0341 02       		.byte	0x2
 2331 0342 91       		.byte	0x91
 2332 0343 6A       		.sleb128 -22
 2333 0344 19       		.uleb128 0x19
 2334 0345 58000000 		.4byte	.LBB2
 2335 0349 78000000 		.4byte	.LBE2
 2336 034d 11       		.uleb128 0x11
 2337 034e 98010000 		.4byte	.LASF37
 2338 0352 01       		.byte	0x1
 2339 0353 1902     		.2byte	0x219
 2340 0355 7A000000 		.4byte	0x7a
 2341 0359 02       		.byte	0x2
 2342 035a 91       		.byte	0x91
 2343 035b 63       		.sleb128 -29
 2344 035c 00       		.byte	0
 2345 035d 00       		.byte	0
 2346 035e 1A       		.uleb128 0x1a
 2347 035f C4000000 		.4byte	.LASF39
 2348 0363 01       		.byte	0x1
 2349 0364 6202     		.2byte	0x262
 2350 0366 01       		.byte	0x1
 2351 0367 00000000 		.4byte	.LFB64
 2352 036b 56060000 		.4byte	.LFE64
 2353 036f 72010000 		.4byte	.LLST7
 2354 0373 01       		.byte	0x1
 2355 0374 01050000 		.4byte	0x501
 2356 0378 16       		.uleb128 0x16
 2357 0379 6F030000 		.4byte	.LASF40
 2358 037d 01       		.byte	0x1
 2359 037e 6202     		.2byte	0x262
 2360 0380 7A000000 		.4byte	0x7a
 2361 0384 03       		.byte	0x3
 2362 0385 91       		.byte	0x91
 2363 0386 CF78     		.sleb128 -945
 2364 0388 11       		.uleb128 0x11
 2365 0389 A9010000 		.4byte	.LASF41
 2366 038d 01       		.byte	0x1
 2367 038e 6402     		.2byte	0x264
 2368 0390 85000000 		.4byte	0x85
 2369 0394 02       		.byte	0x2
 2370 0395 91       		.byte	0x91
 2371 0396 56       		.sleb128 -42
 2372 0397 11       		.uleb128 0x11
 2373 0398 77030000 		.4byte	.LASF42
 2374 039c 01       		.byte	0x1
 2375 039d 6502     		.2byte	0x265
 2376 039f 85000000 		.4byte	0x85
 2377 03a3 02       		.byte	0x2
 2378 03a4 91       		.byte	0x91
ARM GAS  C:\Users\Robert\AppData\Local\Temp\ccgj8kBb.s 			page 69


 2379 03a5 76       		.sleb128 -10
 2380 03a6 11       		.uleb128 0x11
 2381 03a7 5B000000 		.4byte	.LASF43
 2382 03ab 01       		.byte	0x1
 2383 03ac 6602     		.2byte	0x266
 2384 03ae 7A000000 		.4byte	0x7a
 2385 03b2 02       		.byte	0x2
 2386 03b3 91       		.byte	0x91
 2387 03b4 75       		.sleb128 -11
 2388 03b5 11       		.uleb128 0x11
 2389 03b6 AF020000 		.4byte	.LASF44
 2390 03ba 01       		.byte	0x1
 2391 03bb 6702     		.2byte	0x267
 2392 03bd 85000000 		.4byte	0x85
 2393 03c1 02       		.byte	0x2
 2394 03c2 91       		.byte	0x91
 2395 03c3 62       		.sleb128 -30
 2396 03c4 11       		.uleb128 0x11
 2397 03c5 66030000 		.4byte	.LASF45
 2398 03c9 01       		.byte	0x1
 2399 03ca 6802     		.2byte	0x268
 2400 03cc B0000000 		.4byte	0xb0
 2401 03d0 02       		.byte	0x2
 2402 03d1 91       		.byte	0x91
 2403 03d2 64       		.sleb128 -28
 2404 03d3 11       		.uleb128 0x11
 2405 03d4 26000000 		.4byte	.LASF46
 2406 03d8 01       		.byte	0x1
 2407 03d9 6902     		.2byte	0x269
 2408 03db 85000000 		.4byte	0x85
 2409 03df 02       		.byte	0x2
 2410 03e0 91       		.byte	0x91
 2411 03e1 72       		.sleb128 -14
 2412 03e2 11       		.uleb128 0x11
 2413 03e3 7F000000 		.4byte	.LASF47
 2414 03e7 01       		.byte	0x1
 2415 03e8 6A02     		.2byte	0x26a
 2416 03ea 85000000 		.4byte	0x85
 2417 03ee 02       		.byte	0x2
 2418 03ef 91       		.byte	0x91
 2419 03f0 70       		.sleb128 -16
 2420 03f1 11       		.uleb128 0x11
 2421 03f2 2C020000 		.4byte	.LASF48
 2422 03f6 01       		.byte	0x1
 2423 03f7 6B02     		.2byte	0x26b
 2424 03f9 7A000000 		.4byte	0x7a
 2425 03fd 02       		.byte	0x2
 2426 03fe 91       		.byte	0x91
 2427 03ff 6F       		.sleb128 -17
 2428 0400 11       		.uleb128 0x11
 2429 0401 13020000 		.4byte	.LASF49
 2430 0405 01       		.byte	0x1
 2431 0406 6E02     		.2byte	0x26e
 2432 0408 7A000000 		.4byte	0x7a
 2433 040c 02       		.byte	0x2
 2434 040d 91       		.byte	0x91
 2435 040e 6E       		.sleb128 -18
ARM GAS  C:\Users\Robert\AppData\Local\Temp\ccgj8kBb.s 			page 70


 2436 040f 11       		.uleb128 0x11
 2437 0410 8A000000 		.4byte	.LASF50
 2438 0414 01       		.byte	0x1
 2439 0415 7102     		.2byte	0x271
 2440 0417 7A000000 		.4byte	0x7a
 2441 041b 02       		.byte	0x2
 2442 041c 91       		.byte	0x91
 2443 041d 6D       		.sleb128 -19
 2444 041e 11       		.uleb128 0x11
 2445 041f 37030000 		.4byte	.LASF51
 2446 0423 01       		.byte	0x1
 2447 0424 7302     		.2byte	0x273
 2448 0426 01050000 		.4byte	0x501
 2449 042a 03       		.byte	0x3
 2450 042b 91       		.byte	0x91
 2451 042c A87D     		.sleb128 -344
 2452 042e 11       		.uleb128 0x11
 2453 042f 6A020000 		.4byte	.LASF52
 2454 0433 01       		.byte	0x1
 2455 0434 7402     		.2byte	0x274
 2456 0436 01050000 		.4byte	0x501
 2457 043a 03       		.byte	0x3
 2458 043b 91       		.byte	0x91
 2459 043c FC7A     		.sleb128 -644
 2460 043e 19       		.uleb128 0x19
 2461 043f 6E010000 		.4byte	.LBB3
 2462 0443 1E060000 		.4byte	.LBE3
 2463 0447 11       		.uleb128 0x11
 2464 0448 75000000 		.4byte	.LASF53
 2465 044c 01       		.byte	0x1
 2466 044d B702     		.2byte	0x2b7
 2467 044f 7A000000 		.4byte	0x7a
 2468 0453 02       		.byte	0x2
 2469 0454 91       		.byte	0x91
 2470 0455 61       		.sleb128 -31
 2471 0456 1B       		.uleb128 0x1b
 2472 0457 24020000 		.4byte	.LBB4
 2473 045b 6E020000 		.4byte	.LBE4
 2474 045f 73040000 		.4byte	0x473
 2475 0463 11       		.uleb128 0x11
 2476 0464 6C000000 		.4byte	.LASF54
 2477 0468 01       		.byte	0x1
 2478 0469 0103     		.2byte	0x301
 2479 046b 85000000 		.4byte	0x85
 2480 046f 02       		.byte	0x2
 2481 0470 91       		.byte	0x91
 2482 0471 5E       		.sleb128 -34
 2483 0472 00       		.byte	0
 2484 0473 1B       		.uleb128 0x1b
 2485 0474 6E030000 		.4byte	.LBB5
 2486 0478 9E030000 		.4byte	.LBE5
 2487 047c 91040000 		.4byte	0x491
 2488 0480 11       		.uleb128 0x11
 2489 0481 68040000 		.4byte	.LASF55
 2490 0485 01       		.byte	0x1
 2491 0486 9403     		.2byte	0x394
 2492 0488 75020000 		.4byte	0x275
ARM GAS  C:\Users\Robert\AppData\Local\Temp\ccgj8kBb.s 			page 71


 2493 048c 03       		.byte	0x3
 2494 048d 91       		.byte	0x91
 2495 048e D478     		.sleb128 -940
 2496 0490 00       		.byte	0
 2497 0491 1B       		.uleb128 0x1b
 2498 0492 54040000 		.4byte	.LBB6
 2499 0496 9A040000 		.4byte	.LBE6
 2500 049a AF040000 		.4byte	0x4af
 2501 049e 11       		.uleb128 0x11
 2502 049f B7000000 		.4byte	.LASF56
 2503 04a3 01       		.byte	0x1
 2504 04a4 6104     		.2byte	0x461
 2505 04a6 15010000 		.4byte	0x115
 2506 04aa 03       		.byte	0x3
 2507 04ab 91       		.byte	0x91
 2508 04ac F47A     		.sleb128 -652
 2509 04ae 00       		.byte	0
 2510 04af 19       		.uleb128 0x19
 2511 04b0 B0040000 		.4byte	.LBB7
 2512 04b4 D6050000 		.4byte	.LBE7
 2513 04b8 11       		.uleb128 0x11
 2514 04b9 0C020000 		.4byte	.LASF57
 2515 04bd 01       		.byte	0x1
 2516 04be 8104     		.2byte	0x481
 2517 04c0 85000000 		.4byte	0x85
 2518 04c4 02       		.byte	0x2
 2519 04c5 91       		.byte	0x91
 2520 04c6 5C       		.sleb128 -36
 2521 04c7 11       		.uleb128 0x11
 2522 04c8 FA030000 		.4byte	.LASF58
 2523 04cc 01       		.byte	0x1
 2524 04cd 8604     		.2byte	0x486
 2525 04cf 90000000 		.4byte	0x90
 2526 04d3 02       		.byte	0x2
 2527 04d4 91       		.byte	0x91
 2528 04d5 58       		.sleb128 -40
 2529 04d6 11       		.uleb128 0x11
 2530 04d7 F1000000 		.4byte	.LASF59
 2531 04db 01       		.byte	0x1
 2532 04dc 8704     		.2byte	0x487
 2533 04de 7A000000 		.4byte	0x7a
 2534 04e2 02       		.byte	0x2
 2535 04e3 91       		.byte	0x91
 2536 04e4 6C       		.sleb128 -20
 2537 04e5 19       		.uleb128 0x19
 2538 04e6 2A050000 		.4byte	.LBB8
 2539 04ea 7A050000 		.4byte	.LBE8
 2540 04ee 11       		.uleb128 0x11
 2541 04ef A0010000 		.4byte	.LASF25
 2542 04f3 01       		.byte	0x1
 2543 04f4 AA04     		.2byte	0x4aa
 2544 04f6 85000000 		.4byte	0x85
 2545 04fa 02       		.byte	0x2
 2546 04fb 91       		.byte	0x91
 2547 04fc 6A       		.sleb128 -22
 2548 04fd 00       		.byte	0
 2549 04fe 00       		.byte	0
ARM GAS  C:\Users\Robert\AppData\Local\Temp\ccgj8kBb.s 			page 72


 2550 04ff 00       		.byte	0
 2551 0500 00       		.byte	0
 2552 0501 08       		.uleb128 0x8
 2553 0502 7A000000 		.4byte	0x7a
 2554 0506 12050000 		.4byte	0x512
 2555 050a 12       		.uleb128 0x12
 2556 050b 0E010000 		.4byte	0x10e
 2557 050f 2B01     		.2byte	0x12b
 2558 0511 00       		.byte	0
 2559 0512 17       		.uleb128 0x17
 2560 0513 AD030000 		.4byte	.LASF60
 2561 0517 01       		.byte	0x1
 2562 0518 0005     		.2byte	0x500
 2563 051a 01       		.byte	0x1
 2564 051b B0000000 		.4byte	0xb0
 2565 051f 00000000 		.4byte	.LFB65
 2566 0523 B0000000 		.4byte	.LFE65
 2567 0527 AC010000 		.4byte	.LLST8
 2568 052b 01       		.byte	0x1
 2569 052c 6D050000 		.4byte	0x56d
 2570 0530 16       		.uleb128 0x16
 2571 0531 1D030000 		.4byte	.LASF61
 2572 0535 01       		.byte	0x1
 2573 0536 0005     		.2byte	0x500
 2574 0538 7A000000 		.4byte	0x7a
 2575 053c 02       		.byte	0x2
 2576 053d 91       		.byte	0x91
 2577 053e 6F       		.sleb128 -17
 2578 053f 16       		.uleb128 0x16
 2579 0540 A6030000 		.4byte	.LASF23
 2580 0544 01       		.byte	0x1
 2581 0545 0005     		.2byte	0x500
 2582 0547 6D050000 		.4byte	0x56d
 2583 054b 02       		.byte	0x2
 2584 054c 91       		.byte	0x91
 2585 054d 68       		.sleb128 -24
 2586 054e 16       		.uleb128 0x16
 2587 054f 42040000 		.4byte	.LASF24
 2588 0553 01       		.byte	0x1
 2589 0554 0005     		.2byte	0x500
 2590 0556 85000000 		.4byte	0x85
 2591 055a 02       		.byte	0x2
 2592 055b 91       		.byte	0x91
 2593 055c 6C       		.sleb128 -20
 2594 055d 11       		.uleb128 0x11
 2595 055e F1000000 		.4byte	.LASF59
 2596 0562 01       		.byte	0x1
 2597 0563 0305     		.2byte	0x503
 2598 0565 85000000 		.4byte	0x85
 2599 0569 02       		.byte	0x2
 2600 056a 91       		.byte	0x91
 2601 056b 76       		.sleb128 -10
 2602 056c 00       		.byte	0
 2603 056d 0E       		.uleb128 0xe
 2604 056e 04       		.byte	0x4
 2605 056f 7A000000 		.4byte	0x7a
 2606 0573 10       		.uleb128 0x10
ARM GAS  C:\Users\Robert\AppData\Local\Temp\ccgj8kBb.s 			page 73


 2607 0574 01       		.byte	0x1
 2608 0575 9D000000 		.4byte	.LASF63
 2609 0579 01       		.byte	0x1
 2610 057a 2905     		.2byte	0x529
 2611 057c 01       		.byte	0x1
 2612 057d 00000000 		.4byte	.LFB66
 2613 0581 B2000000 		.4byte	.LFE66
 2614 0585 E4010000 		.4byte	.LLST9
 2615 0589 01       		.byte	0x1
 2616 058a 0A060000 		.4byte	0x60a
 2617 058e 16       		.uleb128 0x16
 2618 058f E9000000 		.4byte	.LASF64
 2619 0593 01       		.byte	0x1
 2620 0594 2905     		.2byte	0x529
 2621 0596 90000000 		.4byte	0x90
 2622 059a 03       		.byte	0x3
 2623 059b 91       		.byte	0x91
 2624 059c E47D     		.sleb128 -284
 2625 059e 16       		.uleb128 0x16
 2626 059f DA000000 		.4byte	.LASF65
 2627 05a3 01       		.byte	0x1
 2628 05a4 2905     		.2byte	0x529
 2629 05a6 7A000000 		.4byte	0x7a
 2630 05aa 03       		.byte	0x3
 2631 05ab 91       		.byte	0x91
 2632 05ac E37D     		.sleb128 -285
 2633 05ae 11       		.uleb128 0x11
 2634 05af 68010000 		.4byte	.LASF66
 2635 05b3 01       		.byte	0x1
 2636 05b4 2B05     		.2byte	0x52b
 2637 05b6 90000000 		.4byte	0x90
 2638 05ba 02       		.byte	0x2
 2639 05bb 91       		.byte	0x91
 2640 05bc 70       		.sleb128 -16
 2641 05bd 11       		.uleb128 0x11
 2642 05be 36000000 		.4byte	.LASF67
 2643 05c2 01       		.byte	0x1
 2644 05c3 2C05     		.2byte	0x52c
 2645 05c5 0A060000 		.4byte	0x60a
 2646 05c9 03       		.byte	0x3
 2647 05ca 91       		.byte	0x91
 2648 05cb E87D     		.sleb128 -280
 2649 05cd 11       		.uleb128 0x11
 2650 05ce 60040000 		.4byte	.LASF68
 2651 05d2 01       		.byte	0x1
 2652 05d3 2F05     		.2byte	0x52f
 2653 05d5 7A000000 		.4byte	0x7a
 2654 05d9 02       		.byte	0x2
 2655 05da 91       		.byte	0x91
 2656 05db 6F       		.sleb128 -17
 2657 05dc 11       		.uleb128 0x11
 2658 05dd 0C020000 		.4byte	.LASF57
 2659 05e1 01       		.byte	0x1
 2660 05e2 3205     		.2byte	0x532
 2661 05e4 85000000 		.4byte	0x85
 2662 05e8 02       		.byte	0x2
 2663 05e9 91       		.byte	0x91
ARM GAS  C:\Users\Robert\AppData\Local\Temp\ccgj8kBb.s 			page 74


 2664 05ea 6C       		.sleb128 -20
 2665 05eb 11       		.uleb128 0x11
 2666 05ec 1D000000 		.4byte	.LASF69
 2667 05f0 01       		.byte	0x1
 2668 05f1 3305     		.2byte	0x533
 2669 05f3 90000000 		.4byte	0x90
 2670 05f7 02       		.byte	0x2
 2671 05f8 91       		.byte	0x91
 2672 05f9 68       		.sleb128 -24
 2673 05fa 18       		.uleb128 0x18
 2674 05fb 69647800 		.ascii	"idx\000"
 2675 05ff 01       		.byte	0x1
 2676 0600 3405     		.2byte	0x534
 2677 0602 85000000 		.4byte	0x85
 2678 0606 02       		.byte	0x2
 2679 0607 91       		.byte	0x91
 2680 0608 76       		.sleb128 -10
 2681 0609 00       		.byte	0
 2682 060a 08       		.uleb128 0x8
 2683 060b 7A000000 		.4byte	0x7a
 2684 060f 1A060000 		.4byte	0x61a
 2685 0613 09       		.uleb128 0x9
 2686 0614 0E010000 		.4byte	0x10e
 2687 0618 FF       		.byte	0xff
 2688 0619 00       		.byte	0
 2689 061a 17       		.uleb128 0x17
 2690 061b 44030000 		.4byte	.LASF70
 2691 061f 01       		.byte	0x1
 2692 0620 5E05     		.2byte	0x55e
 2693 0622 01       		.byte	0x1
 2694 0623 90000000 		.4byte	0x90
 2695 0627 00000000 		.4byte	.LFB67
 2696 062b E2010000 		.4byte	.LFE67
 2697 062f 1E020000 		.4byte	.LLST10
 2698 0633 01       		.byte	0x1
 2699 0634 84060000 		.4byte	0x684
 2700 0638 16       		.uleb128 0x16
 2701 0639 0F050000 		.4byte	.LASF71
 2702 063d 01       		.byte	0x1
 2703 063e 5E05     		.2byte	0x55e
 2704 0640 7A000000 		.4byte	0x7a
 2705 0644 02       		.byte	0x2
 2706 0645 91       		.byte	0x91
 2707 0646 67       		.sleb128 -25
 2708 0647 16       		.uleb128 0x16
 2709 0648 06000000 		.4byte	.LASF35
 2710 064c 01       		.byte	0x1
 2711 064d 5E05     		.2byte	0x55e
 2712 064f 7A000000 		.4byte	0x7a
 2713 0653 02       		.byte	0x2
 2714 0654 91       		.byte	0x91
 2715 0655 66       		.sleb128 -26
 2716 0656 11       		.uleb128 0x11
 2717 0657 23020000 		.4byte	.LASF72
 2718 065b 01       		.byte	0x1
 2719 065c 6005     		.2byte	0x560
 2720 065e 90000000 		.4byte	0x90
ARM GAS  C:\Users\Robert\AppData\Local\Temp\ccgj8kBb.s 			page 75


 2721 0662 02       		.byte	0x2
 2722 0663 91       		.byte	0x91
 2723 0664 74       		.sleb128 -12
 2724 0665 11       		.uleb128 0x11
 2725 0666 F4020000 		.4byte	.LASF73
 2726 066a 01       		.byte	0x1
 2727 066b 6105     		.2byte	0x561
 2728 066d 7A000000 		.4byte	0x7a
 2729 0671 02       		.byte	0x2
 2730 0672 91       		.byte	0x91
 2731 0673 73       		.sleb128 -13
 2732 0674 11       		.uleb128 0x11
 2733 0675 0C000000 		.4byte	.LASF74
 2734 0679 01       		.byte	0x1
 2735 067a 6205     		.2byte	0x562
 2736 067c 90000000 		.4byte	0x90
 2737 0680 02       		.byte	0x2
 2738 0681 91       		.byte	0x91
 2739 0682 6C       		.sleb128 -20
 2740 0683 00       		.byte	0
 2741 0684 1C       		.uleb128 0x1c
 2742 0685 C6030000 		.4byte	.LASF75
 2743 0689 01       		.byte	0x1
 2744 068a 26       		.byte	0x26
 2745 068b 96010000 		.4byte	0x196
 2746 068f 01       		.byte	0x1
 2747 0690 05       		.byte	0x5
 2748 0691 03       		.byte	0x3
 2749 0692 00000000 		.4byte	Bootloader_1_Checksum
 2750 0696 1C       		.uleb128 0x1c
 2751 0697 D8020000 		.4byte	.LASF76
 2752 069b 01       		.byte	0x1
 2753 069c 27       		.byte	0x27
 2754 069d 90010000 		.4byte	0x190
 2755 06a1 01       		.byte	0x1
 2756 06a2 05       		.byte	0x5
 2757 06a3 03       		.byte	0x3
 2758 06a4 00000000 		.4byte	Bootloader_1_ChecksumAccess
 2759 06a8 1C       		.uleb128 0x1c
 2760 06a9 81020000 		.4byte	.LASF77
 2761 06ad 01       		.byte	0x1
 2762 06ae 2F       		.byte	0x2f
 2763 06af BA060000 		.4byte	0x6ba
 2764 06b3 01       		.byte	0x1
 2765 06b4 05       		.byte	0x5
 2766 06b5 03       		.byte	0x3
 2767 06b6 00000000 		.4byte	Bootloader_1_SizeBytes
 2768 06ba 0F       		.uleb128 0xf
 2769 06bb 90000000 		.4byte	0x90
 2770 06bf 1C       		.uleb128 0x1c
 2771 06c0 7F030000 		.4byte	.LASF78
 2772 06c4 01       		.byte	0x1
 2773 06c5 30       		.byte	0x30
 2774 06c6 D1060000 		.4byte	0x6d1
 2775 06ca 01       		.byte	0x1
 2776 06cb 05       		.byte	0x5
 2777 06cc 03       		.byte	0x3
ARM GAS  C:\Users\Robert\AppData\Local\Temp\ccgj8kBb.s 			page 76


 2778 06cd 00000000 		.4byte	Bootloader_1_SizeBytesAccess
 2779 06d1 0E       		.uleb128 0xe
 2780 06d2 04       		.byte	0x4
 2781 06d3 BA060000 		.4byte	0x6ba
 2782 06d7 1D       		.uleb128 0x1d
 2783 06d8 D7040000 		.4byte	.LASF79
 2784 06dc 05       		.byte	0x5
 2785 06dd 1606     		.2byte	0x616
 2786 06df E5060000 		.4byte	0x6e5
 2787 06e3 01       		.byte	0x1
 2788 06e4 01       		.byte	0x1
 2789 06e5 05       		.uleb128 0x5
 2790 06e6 45000000 		.4byte	0x45
 2791 06ea 00       		.byte	0
 2792              		.section	.debug_abbrev,"",%progbits
 2793              	.Ldebug_abbrev0:
 2794 0000 01       		.uleb128 0x1
 2795 0001 11       		.uleb128 0x11
 2796 0002 01       		.byte	0x1
 2797 0003 25       		.uleb128 0x25
 2798 0004 0E       		.uleb128 0xe
 2799 0005 13       		.uleb128 0x13
 2800 0006 0B       		.uleb128 0xb
 2801 0007 03       		.uleb128 0x3
 2802 0008 0E       		.uleb128 0xe
 2803 0009 1B       		.uleb128 0x1b
 2804 000a 0E       		.uleb128 0xe
 2805 000b 55       		.uleb128 0x55
 2806 000c 06       		.uleb128 0x6
 2807 000d 11       		.uleb128 0x11
 2808 000e 01       		.uleb128 0x1
 2809 000f 52       		.uleb128 0x52
 2810 0010 01       		.uleb128 0x1
 2811 0011 10       		.uleb128 0x10
 2812 0012 06       		.uleb128 0x6
 2813 0013 00       		.byte	0
 2814 0014 00       		.byte	0
 2815 0015 02       		.uleb128 0x2
 2816 0016 24       		.uleb128 0x24
 2817 0017 00       		.byte	0
 2818 0018 0B       		.uleb128 0xb
 2819 0019 0B       		.uleb128 0xb
 2820 001a 3E       		.uleb128 0x3e
 2821 001b 0B       		.uleb128 0xb
 2822 001c 03       		.uleb128 0x3
 2823 001d 0E       		.uleb128 0xe
 2824 001e 00       		.byte	0
 2825 001f 00       		.byte	0
 2826 0020 03       		.uleb128 0x3
 2827 0021 16       		.uleb128 0x16
 2828 0022 00       		.byte	0
 2829 0023 03       		.uleb128 0x3
 2830 0024 0E       		.uleb128 0xe
 2831 0025 3A       		.uleb128 0x3a
 2832 0026 0B       		.uleb128 0xb
 2833 0027 3B       		.uleb128 0x3b
 2834 0028 0B       		.uleb128 0xb
ARM GAS  C:\Users\Robert\AppData\Local\Temp\ccgj8kBb.s 			page 77


 2835 0029 49       		.uleb128 0x49
 2836 002a 13       		.uleb128 0x13
 2837 002b 00       		.byte	0
 2838 002c 00       		.byte	0
 2839 002d 04       		.uleb128 0x4
 2840 002e 24       		.uleb128 0x24
 2841 002f 00       		.byte	0
 2842 0030 0B       		.uleb128 0xb
 2843 0031 0B       		.uleb128 0xb
 2844 0032 3E       		.uleb128 0x3e
 2845 0033 0B       		.uleb128 0xb
 2846 0034 03       		.uleb128 0x3
 2847 0035 08       		.uleb128 0x8
 2848 0036 00       		.byte	0
 2849 0037 00       		.byte	0
 2850 0038 05       		.uleb128 0x5
 2851 0039 35       		.uleb128 0x35
 2852 003a 00       		.byte	0
 2853 003b 49       		.uleb128 0x49
 2854 003c 13       		.uleb128 0x13
 2855 003d 00       		.byte	0
 2856 003e 00       		.byte	0
 2857 003f 06       		.uleb128 0x6
 2858 0040 13       		.uleb128 0x13
 2859 0041 01       		.byte	0x1
 2860 0042 0B       		.uleb128 0xb
 2861 0043 0B       		.uleb128 0xb
 2862 0044 3A       		.uleb128 0x3a
 2863 0045 0B       		.uleb128 0xb
 2864 0046 3B       		.uleb128 0x3b
 2865 0047 0B       		.uleb128 0xb
 2866 0048 01       		.uleb128 0x1
 2867 0049 13       		.uleb128 0x13
 2868 004a 00       		.byte	0
 2869 004b 00       		.byte	0
 2870 004c 07       		.uleb128 0x7
 2871 004d 0D       		.uleb128 0xd
 2872 004e 00       		.byte	0
 2873 004f 03       		.uleb128 0x3
 2874 0050 0E       		.uleb128 0xe
 2875 0051 3A       		.uleb128 0x3a
 2876 0052 0B       		.uleb128 0xb
 2877 0053 3B       		.uleb128 0x3b
 2878 0054 0B       		.uleb128 0xb
 2879 0055 49       		.uleb128 0x49
 2880 0056 13       		.uleb128 0x13
 2881 0057 38       		.uleb128 0x38
 2882 0058 0A       		.uleb128 0xa
 2883 0059 00       		.byte	0
 2884 005a 00       		.byte	0
 2885 005b 08       		.uleb128 0x8
 2886 005c 01       		.uleb128 0x1
 2887 005d 01       		.byte	0x1
 2888 005e 49       		.uleb128 0x49
 2889 005f 13       		.uleb128 0x13
 2890 0060 01       		.uleb128 0x1
 2891 0061 13       		.uleb128 0x13
ARM GAS  C:\Users\Robert\AppData\Local\Temp\ccgj8kBb.s 			page 78


 2892 0062 00       		.byte	0
 2893 0063 00       		.byte	0
 2894 0064 09       		.uleb128 0x9
 2895 0065 21       		.uleb128 0x21
 2896 0066 00       		.byte	0
 2897 0067 49       		.uleb128 0x49
 2898 0068 13       		.uleb128 0x13
 2899 0069 2F       		.uleb128 0x2f
 2900 006a 0B       		.uleb128 0xb
 2901 006b 00       		.byte	0
 2902 006c 00       		.byte	0
 2903 006d 0A       		.uleb128 0xa
 2904 006e 2E       		.uleb128 0x2e
 2905 006f 01       		.byte	0x1
 2906 0070 03       		.uleb128 0x3
 2907 0071 0E       		.uleb128 0xe
 2908 0072 3A       		.uleb128 0x3a
 2909 0073 0B       		.uleb128 0xb
 2910 0074 3B       		.uleb128 0x3b
 2911 0075 0B       		.uleb128 0xb
 2912 0076 27       		.uleb128 0x27
 2913 0077 0C       		.uleb128 0xc
 2914 0078 49       		.uleb128 0x49
 2915 0079 13       		.uleb128 0x13
 2916 007a 11       		.uleb128 0x11
 2917 007b 01       		.uleb128 0x1
 2918 007c 12       		.uleb128 0x12
 2919 007d 01       		.uleb128 0x1
 2920 007e 40       		.uleb128 0x40
 2921 007f 06       		.uleb128 0x6
 2922 0080 9742     		.uleb128 0x2117
 2923 0082 0C       		.uleb128 0xc
 2924 0083 01       		.uleb128 0x1
 2925 0084 13       		.uleb128 0x13
 2926 0085 00       		.byte	0
 2927 0086 00       		.byte	0
 2928 0087 0B       		.uleb128 0xb
 2929 0088 05       		.uleb128 0x5
 2930 0089 00       		.byte	0
 2931 008a 03       		.uleb128 0x3
 2932 008b 0E       		.uleb128 0xe
 2933 008c 3A       		.uleb128 0x3a
 2934 008d 0B       		.uleb128 0xb
 2935 008e 3B       		.uleb128 0x3b
 2936 008f 0B       		.uleb128 0xb
 2937 0090 49       		.uleb128 0x49
 2938 0091 13       		.uleb128 0x13
 2939 0092 02       		.uleb128 0x2
 2940 0093 0A       		.uleb128 0xa
 2941 0094 00       		.byte	0
 2942 0095 00       		.byte	0
 2943 0096 0C       		.uleb128 0xc
 2944 0097 34       		.uleb128 0x34
 2945 0098 00       		.byte	0
 2946 0099 03       		.uleb128 0x3
 2947 009a 08       		.uleb128 0x8
 2948 009b 3A       		.uleb128 0x3a
ARM GAS  C:\Users\Robert\AppData\Local\Temp\ccgj8kBb.s 			page 79


 2949 009c 0B       		.uleb128 0xb
 2950 009d 3B       		.uleb128 0x3b
 2951 009e 0B       		.uleb128 0xb
 2952 009f 49       		.uleb128 0x49
 2953 00a0 13       		.uleb128 0x13
 2954 00a1 02       		.uleb128 0x2
 2955 00a2 0A       		.uleb128 0xa
 2956 00a3 00       		.byte	0
 2957 00a4 00       		.byte	0
 2958 00a5 0D       		.uleb128 0xd
 2959 00a6 34       		.uleb128 0x34
 2960 00a7 00       		.byte	0
 2961 00a8 03       		.uleb128 0x3
 2962 00a9 0E       		.uleb128 0xe
 2963 00aa 3A       		.uleb128 0x3a
 2964 00ab 0B       		.uleb128 0xb
 2965 00ac 3B       		.uleb128 0x3b
 2966 00ad 0B       		.uleb128 0xb
 2967 00ae 49       		.uleb128 0x49
 2968 00af 13       		.uleb128 0x13
 2969 00b0 02       		.uleb128 0x2
 2970 00b1 0A       		.uleb128 0xa
 2971 00b2 00       		.byte	0
 2972 00b3 00       		.byte	0
 2973 00b4 0E       		.uleb128 0xe
 2974 00b5 0F       		.uleb128 0xf
 2975 00b6 00       		.byte	0
 2976 00b7 0B       		.uleb128 0xb
 2977 00b8 0B       		.uleb128 0xb
 2978 00b9 49       		.uleb128 0x49
 2979 00ba 13       		.uleb128 0x13
 2980 00bb 00       		.byte	0
 2981 00bc 00       		.byte	0
 2982 00bd 0F       		.uleb128 0xf
 2983 00be 26       		.uleb128 0x26
 2984 00bf 00       		.byte	0
 2985 00c0 49       		.uleb128 0x49
 2986 00c1 13       		.uleb128 0x13
 2987 00c2 00       		.byte	0
 2988 00c3 00       		.byte	0
 2989 00c4 10       		.uleb128 0x10
 2990 00c5 2E       		.uleb128 0x2e
 2991 00c6 01       		.byte	0x1
 2992 00c7 3F       		.uleb128 0x3f
 2993 00c8 0C       		.uleb128 0xc
 2994 00c9 03       		.uleb128 0x3
 2995 00ca 0E       		.uleb128 0xe
 2996 00cb 3A       		.uleb128 0x3a
 2997 00cc 0B       		.uleb128 0xb
 2998 00cd 3B       		.uleb128 0x3b
 2999 00ce 05       		.uleb128 0x5
 3000 00cf 27       		.uleb128 0x27
 3001 00d0 0C       		.uleb128 0xc
 3002 00d1 11       		.uleb128 0x11
 3003 00d2 01       		.uleb128 0x1
 3004 00d3 12       		.uleb128 0x12
 3005 00d4 01       		.uleb128 0x1
ARM GAS  C:\Users\Robert\AppData\Local\Temp\ccgj8kBb.s 			page 80


 3006 00d5 40       		.uleb128 0x40
 3007 00d6 06       		.uleb128 0x6
 3008 00d7 9642     		.uleb128 0x2116
 3009 00d9 0C       		.uleb128 0xc
 3010 00da 01       		.uleb128 0x1
 3011 00db 13       		.uleb128 0x13
 3012 00dc 00       		.byte	0
 3013 00dd 00       		.byte	0
 3014 00de 11       		.uleb128 0x11
 3015 00df 34       		.uleb128 0x34
 3016 00e0 00       		.byte	0
 3017 00e1 03       		.uleb128 0x3
 3018 00e2 0E       		.uleb128 0xe
 3019 00e3 3A       		.uleb128 0x3a
 3020 00e4 0B       		.uleb128 0xb
 3021 00e5 3B       		.uleb128 0x3b
 3022 00e6 05       		.uleb128 0x5
 3023 00e7 49       		.uleb128 0x49
 3024 00e8 13       		.uleb128 0x13
 3025 00e9 02       		.uleb128 0x2
 3026 00ea 0A       		.uleb128 0xa
 3027 00eb 00       		.byte	0
 3028 00ec 00       		.byte	0
 3029 00ed 12       		.uleb128 0x12
 3030 00ee 21       		.uleb128 0x21
 3031 00ef 00       		.byte	0
 3032 00f0 49       		.uleb128 0x49
 3033 00f1 13       		.uleb128 0x13
 3034 00f2 2F       		.uleb128 0x2f
 3035 00f3 05       		.uleb128 0x5
 3036 00f4 00       		.byte	0
 3037 00f5 00       		.byte	0
 3038 00f6 13       		.uleb128 0x13
 3039 00f7 2E       		.uleb128 0x2e
 3040 00f8 00       		.byte	0
 3041 00f9 03       		.uleb128 0x3
 3042 00fa 0E       		.uleb128 0xe
 3043 00fb 3A       		.uleb128 0x3a
 3044 00fc 0B       		.uleb128 0xb
 3045 00fd 3B       		.uleb128 0x3b
 3046 00fe 05       		.uleb128 0x5
 3047 00ff 27       		.uleb128 0x27
 3048 0100 0C       		.uleb128 0xc
 3049 0101 11       		.uleb128 0x11
 3050 0102 01       		.uleb128 0x1
 3051 0103 12       		.uleb128 0x12
 3052 0104 01       		.uleb128 0x1
 3053 0105 40       		.uleb128 0x40
 3054 0106 06       		.uleb128 0x6
 3055 0107 9642     		.uleb128 0x2116
 3056 0109 0C       		.uleb128 0xc
 3057 010a 00       		.byte	0
 3058 010b 00       		.byte	0
 3059 010c 14       		.uleb128 0x14
 3060 010d 2E       		.uleb128 0x2e
 3061 010e 00       		.byte	0
 3062 010f 3F       		.uleb128 0x3f
ARM GAS  C:\Users\Robert\AppData\Local\Temp\ccgj8kBb.s 			page 81


 3063 0110 0C       		.uleb128 0xc
 3064 0111 03       		.uleb128 0x3
 3065 0112 0E       		.uleb128 0xe
 3066 0113 3A       		.uleb128 0x3a
 3067 0114 0B       		.uleb128 0xb
 3068 0115 3B       		.uleb128 0x3b
 3069 0116 05       		.uleb128 0x5
 3070 0117 27       		.uleb128 0x27
 3071 0118 0C       		.uleb128 0xc
 3072 0119 11       		.uleb128 0x11
 3073 011a 01       		.uleb128 0x1
 3074 011b 12       		.uleb128 0x12
 3075 011c 01       		.uleb128 0x1
 3076 011d 40       		.uleb128 0x40
 3077 011e 06       		.uleb128 0x6
 3078 011f 9642     		.uleb128 0x2116
 3079 0121 0C       		.uleb128 0xc
 3080 0122 00       		.byte	0
 3081 0123 00       		.byte	0
 3082 0124 15       		.uleb128 0x15
 3083 0125 2E       		.uleb128 0x2e
 3084 0126 01       		.byte	0x1
 3085 0127 03       		.uleb128 0x3
 3086 0128 0E       		.uleb128 0xe
 3087 0129 3A       		.uleb128 0x3a
 3088 012a 0B       		.uleb128 0xb
 3089 012b 3B       		.uleb128 0x3b
 3090 012c 05       		.uleb128 0x5
 3091 012d 27       		.uleb128 0x27
 3092 012e 0C       		.uleb128 0xc
 3093 012f 11       		.uleb128 0x11
 3094 0130 01       		.uleb128 0x1
 3095 0131 12       		.uleb128 0x12
 3096 0132 01       		.uleb128 0x1
 3097 0133 40       		.uleb128 0x40
 3098 0134 0A       		.uleb128 0xa
 3099 0135 9742     		.uleb128 0x2117
 3100 0137 0C       		.uleb128 0xc
 3101 0138 01       		.uleb128 0x1
 3102 0139 13       		.uleb128 0x13
 3103 013a 00       		.byte	0
 3104 013b 00       		.byte	0
 3105 013c 16       		.uleb128 0x16
 3106 013d 05       		.uleb128 0x5
 3107 013e 00       		.byte	0
 3108 013f 03       		.uleb128 0x3
 3109 0140 0E       		.uleb128 0xe
 3110 0141 3A       		.uleb128 0x3a
 3111 0142 0B       		.uleb128 0xb
 3112 0143 3B       		.uleb128 0x3b
 3113 0144 05       		.uleb128 0x5
 3114 0145 49       		.uleb128 0x49
 3115 0146 13       		.uleb128 0x13
 3116 0147 02       		.uleb128 0x2
 3117 0148 0A       		.uleb128 0xa
 3118 0149 00       		.byte	0
 3119 014a 00       		.byte	0
ARM GAS  C:\Users\Robert\AppData\Local\Temp\ccgj8kBb.s 			page 82


 3120 014b 17       		.uleb128 0x17
 3121 014c 2E       		.uleb128 0x2e
 3122 014d 01       		.byte	0x1
 3123 014e 03       		.uleb128 0x3
 3124 014f 0E       		.uleb128 0xe
 3125 0150 3A       		.uleb128 0x3a
 3126 0151 0B       		.uleb128 0xb
 3127 0152 3B       		.uleb128 0x3b
 3128 0153 05       		.uleb128 0x5
 3129 0154 27       		.uleb128 0x27
 3130 0155 0C       		.uleb128 0xc
 3131 0156 49       		.uleb128 0x49
 3132 0157 13       		.uleb128 0x13
 3133 0158 11       		.uleb128 0x11
 3134 0159 01       		.uleb128 0x1
 3135 015a 12       		.uleb128 0x12
 3136 015b 01       		.uleb128 0x1
 3137 015c 40       		.uleb128 0x40
 3138 015d 06       		.uleb128 0x6
 3139 015e 9642     		.uleb128 0x2116
 3140 0160 0C       		.uleb128 0xc
 3141 0161 01       		.uleb128 0x1
 3142 0162 13       		.uleb128 0x13
 3143 0163 00       		.byte	0
 3144 0164 00       		.byte	0
 3145 0165 18       		.uleb128 0x18
 3146 0166 34       		.uleb128 0x34
 3147 0167 00       		.byte	0
 3148 0168 03       		.uleb128 0x3
 3149 0169 08       		.uleb128 0x8
 3150 016a 3A       		.uleb128 0x3a
 3151 016b 0B       		.uleb128 0xb
 3152 016c 3B       		.uleb128 0x3b
 3153 016d 05       		.uleb128 0x5
 3154 016e 49       		.uleb128 0x49
 3155 016f 13       		.uleb128 0x13
 3156 0170 02       		.uleb128 0x2
 3157 0171 0A       		.uleb128 0xa
 3158 0172 00       		.byte	0
 3159 0173 00       		.byte	0
 3160 0174 19       		.uleb128 0x19
 3161 0175 0B       		.uleb128 0xb
 3162 0176 01       		.byte	0x1
 3163 0177 11       		.uleb128 0x11
 3164 0178 01       		.uleb128 0x1
 3165 0179 12       		.uleb128 0x12
 3166 017a 01       		.uleb128 0x1
 3167 017b 00       		.byte	0
 3168 017c 00       		.byte	0
 3169 017d 1A       		.uleb128 0x1a
 3170 017e 2E       		.uleb128 0x2e
 3171 017f 01       		.byte	0x1
 3172 0180 03       		.uleb128 0x3
 3173 0181 0E       		.uleb128 0xe
 3174 0182 3A       		.uleb128 0x3a
 3175 0183 0B       		.uleb128 0xb
 3176 0184 3B       		.uleb128 0x3b
ARM GAS  C:\Users\Robert\AppData\Local\Temp\ccgj8kBb.s 			page 83


 3177 0185 05       		.uleb128 0x5
 3178 0186 27       		.uleb128 0x27
 3179 0187 0C       		.uleb128 0xc
 3180 0188 11       		.uleb128 0x11
 3181 0189 01       		.uleb128 0x1
 3182 018a 12       		.uleb128 0x12
 3183 018b 01       		.uleb128 0x1
 3184 018c 40       		.uleb128 0x40
 3185 018d 06       		.uleb128 0x6
 3186 018e 9642     		.uleb128 0x2116
 3187 0190 0C       		.uleb128 0xc
 3188 0191 01       		.uleb128 0x1
 3189 0192 13       		.uleb128 0x13
 3190 0193 00       		.byte	0
 3191 0194 00       		.byte	0
 3192 0195 1B       		.uleb128 0x1b
 3193 0196 0B       		.uleb128 0xb
 3194 0197 01       		.byte	0x1
 3195 0198 11       		.uleb128 0x11
 3196 0199 01       		.uleb128 0x1
 3197 019a 12       		.uleb128 0x12
 3198 019b 01       		.uleb128 0x1
 3199 019c 01       		.uleb128 0x1
 3200 019d 13       		.uleb128 0x13
 3201 019e 00       		.byte	0
 3202 019f 00       		.byte	0
 3203 01a0 1C       		.uleb128 0x1c
 3204 01a1 34       		.uleb128 0x34
 3205 01a2 00       		.byte	0
 3206 01a3 03       		.uleb128 0x3
 3207 01a4 0E       		.uleb128 0xe
 3208 01a5 3A       		.uleb128 0x3a
 3209 01a6 0B       		.uleb128 0xb
 3210 01a7 3B       		.uleb128 0x3b
 3211 01a8 0B       		.uleb128 0xb
 3212 01a9 49       		.uleb128 0x49
 3213 01aa 13       		.uleb128 0x13
 3214 01ab 3F       		.uleb128 0x3f
 3215 01ac 0C       		.uleb128 0xc
 3216 01ad 02       		.uleb128 0x2
 3217 01ae 0A       		.uleb128 0xa
 3218 01af 00       		.byte	0
 3219 01b0 00       		.byte	0
 3220 01b1 1D       		.uleb128 0x1d
 3221 01b2 34       		.uleb128 0x34
 3222 01b3 00       		.byte	0
 3223 01b4 03       		.uleb128 0x3
 3224 01b5 0E       		.uleb128 0xe
 3225 01b6 3A       		.uleb128 0x3a
 3226 01b7 0B       		.uleb128 0xb
 3227 01b8 3B       		.uleb128 0x3b
 3228 01b9 05       		.uleb128 0x5
 3229 01ba 49       		.uleb128 0x49
 3230 01bb 13       		.uleb128 0x13
 3231 01bc 3F       		.uleb128 0x3f
 3232 01bd 0C       		.uleb128 0xc
 3233 01be 3C       		.uleb128 0x3c
ARM GAS  C:\Users\Robert\AppData\Local\Temp\ccgj8kBb.s 			page 84


 3234 01bf 0C       		.uleb128 0xc
 3235 01c0 00       		.byte	0
 3236 01c1 00       		.byte	0
 3237 01c2 00       		.byte	0
 3238              		.section	.debug_loc,"",%progbits
 3239              	.Ldebug_loc0:
 3240              	.LLST0:
 3241 0000 00000000 		.4byte	.LFB56
 3242 0004 02000000 		.4byte	.LCFI0
 3243 0008 0200     		.2byte	0x2
 3244 000a 7D       		.byte	0x7d
 3245 000b 00       		.sleb128 0
 3246 000c 02000000 		.4byte	.LCFI0
 3247 0010 04000000 		.4byte	.LCFI1
 3248 0014 0200     		.2byte	0x2
 3249 0016 7D       		.byte	0x7d
 3250 0017 04       		.sleb128 4
 3251 0018 04000000 		.4byte	.LCFI1
 3252 001c 06000000 		.4byte	.LCFI2
 3253 0020 0200     		.2byte	0x2
 3254 0022 7D       		.byte	0x7d
 3255 0023 18       		.sleb128 24
 3256 0024 06000000 		.4byte	.LCFI2
 3257 0028 BA000000 		.4byte	.LFE56
 3258 002c 0200     		.2byte	0x2
 3259 002e 77       		.byte	0x77
 3260 002f 18       		.sleb128 24
 3261 0030 00000000 		.4byte	0
 3262 0034 00000000 		.4byte	0
 3263              	.LLST1:
 3264 0038 00000000 		.4byte	.LFB57
 3265 003c 02000000 		.4byte	.LCFI3
 3266 0040 0200     		.2byte	0x2
 3267 0042 7D       		.byte	0x7d
 3268 0043 00       		.sleb128 0
 3269 0044 02000000 		.4byte	.LCFI3
 3270 0048 04000000 		.4byte	.LCFI4
 3271 004c 0200     		.2byte	0x2
 3272 004e 7D       		.byte	0x7d
 3273 004f 04       		.sleb128 4
 3274 0050 04000000 		.4byte	.LCFI4
 3275 0054 06000000 		.4byte	.LCFI5
 3276 0058 0200     		.2byte	0x2
 3277 005a 7D       		.byte	0x7d
 3278 005b 18       		.sleb128 24
 3279 005c 06000000 		.4byte	.LCFI5
 3280 0060 3C000000 		.4byte	.LFE57
 3281 0064 0200     		.2byte	0x2
 3282 0066 77       		.byte	0x77
 3283 0067 18       		.sleb128 24
 3284 0068 00000000 		.4byte	0
 3285 006c 00000000 		.4byte	0
 3286              	.LLST2:
 3287 0070 00000000 		.4byte	.LFB58
 3288 0074 02000000 		.4byte	.LCFI6
 3289 0078 0200     		.2byte	0x2
 3290 007a 7D       		.byte	0x7d
ARM GAS  C:\Users\Robert\AppData\Local\Temp\ccgj8kBb.s 			page 85


 3291 007b 00       		.sleb128 0
 3292 007c 02000000 		.4byte	.LCFI6
 3293 0080 04000000 		.4byte	.LCFI7
 3294 0084 0200     		.2byte	0x2
 3295 0086 7D       		.byte	0x7d
 3296 0087 04       		.sleb128 4
 3297 0088 04000000 		.4byte	.LCFI7
 3298 008c 06000000 		.4byte	.LCFI8
 3299 0090 0200     		.2byte	0x2
 3300 0092 7D       		.byte	0x7d
 3301 0093 18       		.sleb128 24
 3302 0094 06000000 		.4byte	.LCFI8
 3303 0098 44000000 		.4byte	.LFE58
 3304 009c 0200     		.2byte	0x2
 3305 009e 77       		.byte	0x77
 3306 009f 18       		.sleb128 24
 3307 00a0 00000000 		.4byte	0
 3308 00a4 00000000 		.4byte	0
 3309              	.LLST3:
 3310 00a8 00000000 		.4byte	.LFB59
 3311 00ac 02000000 		.4byte	.LCFI9
 3312 00b0 0200     		.2byte	0x2
 3313 00b2 7D       		.byte	0x7d
 3314 00b3 00       		.sleb128 0
 3315 00b4 02000000 		.4byte	.LCFI9
 3316 00b8 04000000 		.4byte	.LCFI10
 3317 00bc 0200     		.2byte	0x2
 3318 00be 7D       		.byte	0x7d
 3319 00bf 08       		.sleb128 8
 3320 00c0 04000000 		.4byte	.LCFI10
 3321 00c4 06000000 		.4byte	.LCFI11
 3322 00c8 0300     		.2byte	0x3
 3323 00ca 7D       		.byte	0x7d
 3324 00cb B002     		.sleb128 304
 3325 00cd 06000000 		.4byte	.LCFI11
 3326 00d1 EA000000 		.4byte	.LFE59
 3327 00d5 0300     		.2byte	0x3
 3328 00d7 77       		.byte	0x77
 3329 00d8 B002     		.sleb128 304
 3330 00da 00000000 		.4byte	0
 3331 00de 00000000 		.4byte	0
 3332              	.LLST4:
 3333 00e2 00000000 		.4byte	.LFB60
 3334 00e6 02000000 		.4byte	.LCFI12
 3335 00ea 0200     		.2byte	0x2
 3336 00ec 7D       		.byte	0x7d
 3337 00ed 00       		.sleb128 0
 3338 00ee 02000000 		.4byte	.LCFI12
 3339 00f2 04000000 		.4byte	.LCFI13
 3340 00f6 0200     		.2byte	0x2
 3341 00f8 7D       		.byte	0x7d
 3342 00f9 08       		.sleb128 8
 3343 00fa 04000000 		.4byte	.LCFI13
 3344 00fe 18000000 		.4byte	.LFE60
 3345 0102 0200     		.2byte	0x2
 3346 0104 77       		.byte	0x77
 3347 0105 08       		.sleb128 8
ARM GAS  C:\Users\Robert\AppData\Local\Temp\ccgj8kBb.s 			page 86


 3348 0106 00000000 		.4byte	0
 3349 010a 00000000 		.4byte	0
 3350              	.LLST5:
 3351 010e 00000000 		.4byte	.LFB61
 3352 0112 02000000 		.4byte	.LCFI14
 3353 0116 0200     		.2byte	0x2
 3354 0118 7D       		.byte	0x7d
 3355 0119 00       		.sleb128 0
 3356 011a 02000000 		.4byte	.LCFI14
 3357 011e 04000000 		.4byte	.LCFI15
 3358 0122 0200     		.2byte	0x2
 3359 0124 7D       		.byte	0x7d
 3360 0125 08       		.sleb128 8
 3361 0126 04000000 		.4byte	.LCFI15
 3362 012a 4E000000 		.4byte	.LFE61
 3363 012e 0200     		.2byte	0x2
 3364 0130 77       		.byte	0x77
 3365 0131 08       		.sleb128 8
 3366 0132 00000000 		.4byte	0
 3367 0136 00000000 		.4byte	0
 3368              	.LLST6:
 3369 013a 00000000 		.4byte	.LFB63
 3370 013e 02000000 		.4byte	.LCFI16
 3371 0142 0200     		.2byte	0x2
 3372 0144 7D       		.byte	0x7d
 3373 0145 00       		.sleb128 0
 3374 0146 02000000 		.4byte	.LCFI16
 3375 014a 04000000 		.4byte	.LCFI17
 3376 014e 0200     		.2byte	0x2
 3377 0150 7D       		.byte	0x7d
 3378 0151 0C       		.sleb128 12
 3379 0152 04000000 		.4byte	.LCFI17
 3380 0156 06000000 		.4byte	.LCFI18
 3381 015a 0200     		.2byte	0x2
 3382 015c 7D       		.byte	0x7d
 3383 015d 28       		.sleb128 40
 3384 015e 06000000 		.4byte	.LCFI18
 3385 0162 24010000 		.4byte	.LFE63
 3386 0166 0200     		.2byte	0x2
 3387 0168 77       		.byte	0x77
 3388 0169 28       		.sleb128 40
 3389 016a 00000000 		.4byte	0
 3390 016e 00000000 		.4byte	0
 3391              	.LLST7:
 3392 0172 00000000 		.4byte	.LFB64
 3393 0176 02000000 		.4byte	.LCFI19
 3394 017a 0200     		.2byte	0x2
 3395 017c 7D       		.byte	0x7d
 3396 017d 00       		.sleb128 0
 3397 017e 02000000 		.4byte	.LCFI19
 3398 0182 06000000 		.4byte	.LCFI20
 3399 0186 0200     		.2byte	0x2
 3400 0188 7D       		.byte	0x7d
 3401 0189 08       		.sleb128 8
 3402 018a 06000000 		.4byte	.LCFI20
 3403 018e 08000000 		.4byte	.LCFI21
 3404 0192 0300     		.2byte	0x3
ARM GAS  C:\Users\Robert\AppData\Local\Temp\ccgj8kBb.s 			page 87


 3405 0194 7D       		.byte	0x7d
 3406 0195 B807     		.sleb128 952
 3407 0197 08000000 		.4byte	.LCFI21
 3408 019b 56060000 		.4byte	.LFE64
 3409 019f 0300     		.2byte	0x3
 3410 01a1 77       		.byte	0x77
 3411 01a2 B807     		.sleb128 952
 3412 01a4 00000000 		.4byte	0
 3413 01a8 00000000 		.4byte	0
 3414              	.LLST8:
 3415 01ac 00000000 		.4byte	.LFB65
 3416 01b0 02000000 		.4byte	.LCFI22
 3417 01b4 0200     		.2byte	0x2
 3418 01b6 7D       		.byte	0x7d
 3419 01b7 00       		.sleb128 0
 3420 01b8 02000000 		.4byte	.LCFI22
 3421 01bc 04000000 		.4byte	.LCFI23
 3422 01c0 0200     		.2byte	0x2
 3423 01c2 7D       		.byte	0x7d
 3424 01c3 08       		.sleb128 8
 3425 01c4 04000000 		.4byte	.LCFI23
 3426 01c8 06000000 		.4byte	.LCFI24
 3427 01cc 0200     		.2byte	0x2
 3428 01ce 7D       		.byte	0x7d
 3429 01cf 18       		.sleb128 24
 3430 01d0 06000000 		.4byte	.LCFI24
 3431 01d4 B0000000 		.4byte	.LFE65
 3432 01d8 0200     		.2byte	0x2
 3433 01da 77       		.byte	0x77
 3434 01db 18       		.sleb128 24
 3435 01dc 00000000 		.4byte	0
 3436 01e0 00000000 		.4byte	0
 3437              	.LLST9:
 3438 01e4 00000000 		.4byte	.LFB66
 3439 01e8 02000000 		.4byte	.LCFI25
 3440 01ec 0200     		.2byte	0x2
 3441 01ee 7D       		.byte	0x7d
 3442 01ef 00       		.sleb128 0
 3443 01f0 02000000 		.4byte	.LCFI25
 3444 01f4 04000000 		.4byte	.LCFI26
 3445 01f8 0200     		.2byte	0x2
 3446 01fa 7D       		.byte	0x7d
 3447 01fb 08       		.sleb128 8
 3448 01fc 04000000 		.4byte	.LCFI26
 3449 0200 06000000 		.4byte	.LCFI27
 3450 0204 0300     		.2byte	0x3
 3451 0206 7D       		.byte	0x7d
 3452 0207 A002     		.sleb128 288
 3453 0209 06000000 		.4byte	.LCFI27
 3454 020d B2000000 		.4byte	.LFE66
 3455 0211 0300     		.2byte	0x3
 3456 0213 77       		.byte	0x77
 3457 0214 A002     		.sleb128 288
 3458 0216 00000000 		.4byte	0
 3459 021a 00000000 		.4byte	0
 3460              	.LLST10:
 3461 021e 00000000 		.4byte	.LFB67
ARM GAS  C:\Users\Robert\AppData\Local\Temp\ccgj8kBb.s 			page 88


 3462 0222 02000000 		.4byte	.LCFI28
 3463 0226 0200     		.2byte	0x2
 3464 0228 7D       		.byte	0x7d
 3465 0229 00       		.sleb128 0
 3466 022a 02000000 		.4byte	.LCFI28
 3467 022e 04000000 		.4byte	.LCFI29
 3468 0232 0200     		.2byte	0x2
 3469 0234 7D       		.byte	0x7d
 3470 0235 08       		.sleb128 8
 3471 0236 04000000 		.4byte	.LCFI29
 3472 023a 06000000 		.4byte	.LCFI30
 3473 023e 0200     		.2byte	0x2
 3474 0240 7D       		.byte	0x7d
 3475 0241 20       		.sleb128 32
 3476 0242 06000000 		.4byte	.LCFI30
 3477 0246 E2010000 		.4byte	.LFE67
 3478 024a 0200     		.2byte	0x2
 3479 024c 77       		.byte	0x77
 3480 024d 20       		.sleb128 32
 3481 024e 00000000 		.4byte	0
 3482 0252 00000000 		.4byte	0
 3483              		.section	.debug_aranges,"",%progbits
 3484 0000 74000000 		.4byte	0x74
 3485 0004 0200     		.2byte	0x2
 3486 0006 00000000 		.4byte	.Ldebug_info0
 3487 000a 04       		.byte	0x4
 3488 000b 00       		.byte	0
 3489 000c 0000     		.2byte	0
 3490 000e 0000     		.2byte	0
 3491 0010 00000000 		.4byte	.LFB56
 3492 0014 BA000000 		.4byte	.LFE56-.LFB56
 3493 0018 00000000 		.4byte	.LFB57
 3494 001c 3C000000 		.4byte	.LFE57-.LFB57
 3495 0020 00000000 		.4byte	.LFB58
 3496 0024 44000000 		.4byte	.LFE58-.LFB58
 3497 0028 00000000 		.4byte	.LFB59
 3498 002c EA000000 		.4byte	.LFE59-.LFB59
 3499 0030 00000000 		.4byte	.LFB60
 3500 0034 18000000 		.4byte	.LFE60-.LFB60
 3501 0038 00000000 		.4byte	.LFB61
 3502 003c 4E000000 		.4byte	.LFE61-.LFB61
 3503 0040 00000000 		.4byte	.LFB62
 3504 0044 02000000 		.4byte	.LFE62-.LFB62
 3505 0048 00000000 		.4byte	.LFB63
 3506 004c 24010000 		.4byte	.LFE63-.LFB63
 3507 0050 00000000 		.4byte	.LFB64
 3508 0054 56060000 		.4byte	.LFE64-.LFB64
 3509 0058 00000000 		.4byte	.LFB65
 3510 005c B0000000 		.4byte	.LFE65-.LFB65
 3511 0060 00000000 		.4byte	.LFB66
 3512 0064 B2000000 		.4byte	.LFE66-.LFB66
 3513 0068 00000000 		.4byte	.LFB67
 3514 006c E2010000 		.4byte	.LFE67-.LFB67
 3515 0070 00000000 		.4byte	0
 3516 0074 00000000 		.4byte	0
 3517              		.section	.debug_ranges,"",%progbits
 3518              	.Ldebug_ranges0:
ARM GAS  C:\Users\Robert\AppData\Local\Temp\ccgj8kBb.s 			page 89


 3519 0000 00000000 		.4byte	.LFB56
 3520 0004 BA000000 		.4byte	.LFE56
 3521 0008 00000000 		.4byte	.LFB57
 3522 000c 3C000000 		.4byte	.LFE57
 3523 0010 00000000 		.4byte	.LFB58
 3524 0014 44000000 		.4byte	.LFE58
 3525 0018 00000000 		.4byte	.LFB59
 3526 001c EA000000 		.4byte	.LFE59
 3527 0020 00000000 		.4byte	.LFB60
 3528 0024 18000000 		.4byte	.LFE60
 3529 0028 00000000 		.4byte	.LFB61
 3530 002c 4E000000 		.4byte	.LFE61
 3531 0030 00000000 		.4byte	.LFB62
 3532 0034 02000000 		.4byte	.LFE62
 3533 0038 00000000 		.4byte	.LFB63
 3534 003c 24010000 		.4byte	.LFE63
 3535 0040 00000000 		.4byte	.LFB64
 3536 0044 56060000 		.4byte	.LFE64
 3537 0048 00000000 		.4byte	.LFB65
 3538 004c B0000000 		.4byte	.LFE65
 3539 0050 00000000 		.4byte	.LFB66
 3540 0054 B2000000 		.4byte	.LFE66
 3541 0058 00000000 		.4byte	.LFB67
 3542 005c E2010000 		.4byte	.LFE67
 3543 0060 00000000 		.4byte	0
 3544 0064 00000000 		.4byte	0
 3545              		.section	.debug_line,"",%progbits
 3546              	.Ldebug_line0:
 3547 0000 44040000 		.section	.debug_str,"MS",%progbits,1
 3547      02001501 
 3547      00000201 
 3547      FB0E0D00 
 3547      01010101 
 3548              	.LASF36:
 3549 0000 76616C69 		.ascii	"valid\000"
 3549      6400
 3550              	.LASF35:
 3551 0006 61707049 		.ascii	"appId\000"
 3551      6400
 3552              	.LASF74:
 3553 000c 72657375 		.ascii	"result\000"
 3553      6C7400
 3554              	.LASF32:
 3555 0013 746D7053 		.ascii	"tmpStatus\000"
 3555      74617475 
 3555      7300
 3556              	.LASF69:
 3557 001d 62617365 		.ascii	"baseAddr\000"
 3557      41646472 
 3557      00
 3558              	.LASF46:
 3559 0026 706B7453 		.ascii	"pktSize\000"
 3559      697A6500 
 3560              	.LASF33:
 3561 002e 61707041 		.ascii	"appAddr\000"
 3561      64647200 
 3562              	.LASF67:
ARM GAS  C:\Users\Robert\AppData\Local\Temp\ccgj8kBb.s 			page 90


 3563 0036 726F7744 		.ascii	"rowData\000"
 3563      61746100 
 3564              	.LASF2:
 3565 003e 73686F72 		.ascii	"short int\000"
 3565      7420696E 
 3565      7400
 3566              	.LASF62:
 3567 0048 426F6F74 		.ascii	"Bootloader_1_Start\000"
 3567      6C6F6164 
 3567      65725F31 
 3567      5F537461 
 3567      727400
 3568              	.LASF43:
 3569 005b 61636B43 		.ascii	"ackCode\000"
 3569      6F646500 
 3570              	.LASF21:
 3571 0063 73697A65 		.ascii	"sizetype\000"
 3571      74797065 
 3571      00
 3572              	.LASF54:
 3573 006c 73746172 		.ascii	"startRow\000"
 3573      74526F77 
 3573      00
 3574              	.LASF53:
 3575 0075 62746C64 		.ascii	"btldrData\000"
 3575      72446174 
 3575      6100
 3576              	.LASF47:
 3577 007f 64617461 		.ascii	"dataOffset\000"
 3577      4F666673 
 3577      657400
 3578              	.LASF50:
 3579 008a 636F6D6D 		.ascii	"communicationState\000"
 3579      756E6963 
 3579      6174696F 
 3579      6E537461 
 3579      746500
 3580              	.LASF63:
 3581 009d 426F6F74 		.ascii	"Bootloader_1_SetFlashByte\000"
 3581      6C6F6164 
 3581      65725F31 
 3581      5F536574 
 3581      466C6173 
 3582              	.LASF56:
 3583 00b7 42746C64 		.ascii	"BtldrVersion\000"
 3583      72566572 
 3583      73696F6E 
 3583      00
 3584              	.LASF39:
 3585 00c4 426F6F74 		.ascii	"Bootloader_1_HostLink\000"
 3585      6C6F6164 
 3585      65725F31 
 3585      5F486F73 
 3585      744C696E 
 3586              	.LASF65:
 3587 00da 72756E54 		.ascii	"runType\000"
 3587      79706500 
ARM GAS  C:\Users\Robert\AppData\Local\Temp\ccgj8kBb.s 			page 91


 3588              	.LASF11:
 3589 00e2 75696E74 		.ascii	"uint16\000"
 3589      313600
 3590              	.LASF64:
 3591 00e9 61646472 		.ascii	"address\000"
 3591      65737300 
 3592              	.LASF59:
 3593 00f1 63686563 		.ascii	"checksum\000"
 3593      6B73756D 
 3593      00
 3594              	.LASF10:
 3595 00fa 75696E74 		.ascii	"uint8\000"
 3595      3800
 3596              	.LASF34:
 3597 0100 426F6F74 		.ascii	"Bootloader_1_ValidateBootloadable\000"
 3597      6C6F6164 
 3597      65725F31 
 3597      5F56616C 
 3597      69646174 
 3598              	.LASF9:
 3599 0122 696E7433 		.ascii	"int32_t\000"
 3599      325F7400 
 3600              	.LASF20:
 3601 012a 426F6F74 		.ascii	"BootLoaderVersion\000"
 3601      4C6F6164 
 3601      65725665 
 3601      7273696F 
 3601      6E00
 3602              	.LASF13:
 3603 013c 666C6F61 		.ascii	"float\000"
 3603      7400
 3604              	.LASF6:
 3605 0142 6C6F6E67 		.ascii	"long long int\000"
 3605      206C6F6E 
 3605      6720696E 
 3605      7400
 3606              	.LASF22:
 3607 0150 426F6F74 		.ascii	"Bootloader_1_ENTER\000"
 3607      6C6F6164 
 3607      65725F31 
 3607      5F454E54 
 3607      455200
 3608              	.LASF15:
 3609 0163 63686172 		.ascii	"char\000"
 3609      00
 3610              	.LASF66:
 3611 0168 666C7341 		.ascii	"flsAddr\000"
 3611      64647200 
 3612              	.LASF81:
 3613 0170 2E5C4765 		.ascii	".\\Generated_Source\\PSoC5\\Bootloader_1.c\000"
 3613      6E657261 
 3613      7465645F 
 3613      536F7572 
 3613      63655C50 
 3614              	.LASF37:
 3615 0198 63757242 		.ascii	"curByte\000"
 3615      79746500 
ARM GAS  C:\Users\Robert\AppData\Local\Temp\ccgj8kBb.s 			page 92


 3616              	.LASF25:
 3617 01a0 746D7049 		.ascii	"tmpIndex\000"
 3617      6E646578 
 3617      00
 3618              	.LASF41:
 3619 01a9 6E756D62 		.ascii	"numberRead\000"
 3619      65725265 
 3619      616400
 3620              	.LASF30:
 3621 01b4 63616C63 		.ascii	"calcedChecksum\000"
 3621      65644368 
 3621      65636B73 
 3621      756D00
 3622              	.LASF80:
 3623 01c3 474E5520 		.ascii	"GNU C 4.7.3 20130312 (release) [ARM/embedded-4_7-br"
 3623      4320342E 
 3623      372E3320 
 3623      32303133 
 3623      30333132 
 3624 01f6 616E6368 		.ascii	"anch revision 196615]\000"
 3624      20726576 
 3624      6973696F 
 3624      6E203139 
 3624      36363135 
 3625              	.LASF57:
 3626 020c 726F774E 		.ascii	"rowNum\000"
 3626      756D00
 3627              	.LASF49:
 3628 0213 636C6561 		.ascii	"clearedMetaData\000"
 3628      7265644D 
 3628      65746144 
 3628      61746100 
 3629              	.LASF72:
 3630 0223 6669656C 		.ascii	"fieldPtr\000"
 3630      64507472 
 3630      00
 3631              	.LASF48:
 3632 022c 74696D65 		.ascii	"timeOutCnt\000"
 3632      4F757443 
 3632      6E7400
 3633              	.LASF28:
 3634 0237 73746172 		.ascii	"start\000"
 3634      7400
 3635              	.LASF1:
 3636 023d 756E7369 		.ascii	"unsigned char\000"
 3636      676E6564 
 3636      20636861 
 3636      7200
 3637              	.LASF29:
 3638 024b 426F6F74 		.ascii	"Bootloader_1_Calc8BitEepromSum\000"
 3638      6C6F6164 
 3638      65725F31 
 3638      5F43616C 
 3638      63384269 
 3639              	.LASF52:
 3640 026a 64617461 		.ascii	"dataBuffer\000"
 3640      42756666 
ARM GAS  C:\Users\Robert\AppData\Local\Temp\ccgj8kBb.s 			page 93


 3640      657200
 3641              	.LASF0:
 3642 0275 7369676E 		.ascii	"signed char\000"
 3642      65642063 
 3642      68617200 
 3643              	.LASF77:
 3644 0281 426F6F74 		.ascii	"Bootloader_1_SizeBytes\000"
 3644      6C6F6164 
 3644      65725F31 
 3644      5F53697A 
 3644      65427974 
 3645              	.LASF7:
 3646 0298 6C6F6E67 		.ascii	"long long unsigned int\000"
 3646      206C6F6E 
 3646      6720756E 
 3646      7369676E 
 3646      65642069 
 3647              	.LASF44:
 3648 02af 706B7443 		.ascii	"pktChecksum\000"
 3648      6865636B 
 3648      73756D00 
 3649              	.LASF84:
 3650 02bb 43794274 		.ascii	"CyBtldr_CheckLaunch\000"
 3650      6C64725F 
 3650      43686563 
 3650      6B4C6175 
 3650      6E636800 
 3651              	.LASF16:
 3652 02cf 63797374 		.ascii	"cystatus\000"
 3652      61747573 
 3652      00
 3653              	.LASF76:
 3654 02d8 426F6F74 		.ascii	"Bootloader_1_ChecksumAccess\000"
 3654      6C6F6164 
 3654      65725F31 
 3654      5F436865 
 3654      636B7375 
 3655              	.LASF73:
 3656 02f4 6669656C 		.ascii	"fieldSize\000"
 3656      6453697A 
 3656      6500
 3657              	.LASF83:
 3658 02fe 426F6F74 		.ascii	"Bootloader_1_LaunchApplication\000"
 3658      6C6F6164 
 3658      65725F31 
 3658      5F4C6175 
 3658      6E636841 
 3659              	.LASF61:
 3660 031d 73746174 		.ascii	"status\000"
 3660      757300
 3661              	.LASF3:
 3662 0324 73686F72 		.ascii	"short unsigned int\000"
 3662      7420756E 
 3662      7369676E 
 3662      65642069 
 3662      6E7400
 3663              	.LASF51:
ARM GAS  C:\Users\Robert\AppData\Local\Temp\ccgj8kBb.s 			page 94


 3664 0337 7061636B 		.ascii	"packetBuffer\000"
 3664      65744275 
 3664      66666572 
 3664      00
 3665              	.LASF70:
 3666 0344 426F6F74 		.ascii	"Bootloader_1_GetMetadata\000"
 3666      6C6F6164 
 3666      65725F31 
 3666      5F476574 
 3666      4D657461 
 3667              	.LASF4:
 3668 035d 6C6F6E67 		.ascii	"long int\000"
 3668      20696E74 
 3668      00
 3669              	.LASF45:
 3670 0366 72656164 		.ascii	"readStat\000"
 3670      53746174 
 3670      00
 3671              	.LASF40:
 3672 036f 74696D65 		.ascii	"timeOut\000"
 3672      4F757400 
 3673              	.LASF42:
 3674 0377 72737053 		.ascii	"rspSize\000"
 3674      697A6500 
 3675              	.LASF78:
 3676 037f 426F6F74 		.ascii	"Bootloader_1_SizeBytesAccess\000"
 3676      6C6F6164 
 3676      65725F31 
 3676      5F53697A 
 3676      65427974 
 3677              	.LASF18:
 3678 039c 53696C69 		.ascii	"SiliconId\000"
 3678      636F6E49 
 3678      6400
 3679              	.LASF23:
 3680 03a6 62756666 		.ascii	"buffer\000"
 3680      657200
 3681              	.LASF60:
 3682 03ad 426F6F74 		.ascii	"Bootloader_1_WritePacket\000"
 3682      6C6F6164 
 3682      65725F31 
 3682      5F577269 
 3682      74655061 
 3683              	.LASF75:
 3684 03c6 426F6F74 		.ascii	"Bootloader_1_Checksum\000"
 3684      6C6F6164 
 3684      65725F31 
 3684      5F436865 
 3684      636B7375 
 3685              	.LASF12:
 3686 03dc 75696E74 		.ascii	"uint32\000"
 3686      333200
 3687              	.LASF17:
 3688 03e3 72656738 		.ascii	"reg8\000"
 3688      00
 3689              	.LASF5:
 3690 03e8 6C6F6E67 		.ascii	"long unsigned int\000"
ARM GAS  C:\Users\Robert\AppData\Local\Temp\ccgj8kBb.s 			page 95


 3690      20756E73 
 3690      69676E65 
 3690      6420696E 
 3690      7400
 3691              	.LASF58:
 3692 03fa 726F7741 		.ascii	"rowAddr\000"
 3692      64647200 
 3693              	.LASF38:
 3694 0402 426F6F74 		.ascii	"Bootloader_1_LaunchBootloadable\000"
 3694      6C6F6164 
 3694      65725F31 
 3694      5F4C6175 
 3694      6E636842 
 3695              	.LASF26:
 3696 0422 426F6F74 		.ascii	"Bootloader_1_CalcPacketChecksum\000"
 3696      6C6F6164 
 3696      65725F31 
 3696      5F43616C 
 3696      63506163 
 3697              	.LASF24:
 3698 0442 73697A65 		.ascii	"size\000"
 3698      00
 3699              	.LASF31:
 3700 0447 426F6F74 		.ascii	"Bootloader_1_flashBuffer\000"
 3700      6C6F6164 
 3700      65725F31 
 3700      5F666C61 
 3700      73684275 
 3701              	.LASF68:
 3702 0460 61727261 		.ascii	"arrayId\000"
 3702      79496400 
 3703              	.LASF55:
 3704 0468 65726173 		.ascii	"erase\000"
 3704      6500
 3705              	.LASF19:
 3706 046e 52657669 		.ascii	"Revision\000"
 3706      73696F6E 
 3706      00
 3707              	.LASF14:
 3708 0477 646F7562 		.ascii	"double\000"
 3708      6C6500
 3709              	.LASF82:
 3710 047e 433A5C55 		.ascii	"C:\\Users\\Robert\\workspace\\Embedit_git_projects\\"
 3710      73657273 
 3710      5C526F62 
 3710      6572745C 
 3710      776F726B 
 3711 04ad 426F6F74 		.ascii	"Bootloader_RPiSoC\\Bootloader_RPiSoC.cydsn\000"
 3711      6C6F6164 
 3711      65725F52 
 3711      5069536F 
 3711      435C426F 
 3712              	.LASF79:
 3713 04d7 49544D5F 		.ascii	"ITM_RxBuffer\000"
 3713      52784275 
 3713      66666572 
 3713      00
ARM GAS  C:\Users\Robert\AppData\Local\Temp\ccgj8kBb.s 			page 96


 3714              	.LASF8:
 3715 04e4 756E7369 		.ascii	"unsigned int\000"
 3715      676E6564 
 3715      20696E74 
 3715      00
 3716              	.LASF27:
 3717 04f1 426F6F74 		.ascii	"Bootloader_1_Calc8BitFlashSum\000"
 3717      6C6F6164 
 3717      65725F31 
 3717      5F43616C 
 3717      63384269 
 3718              	.LASF71:
 3719 050f 6669656C 		.ascii	"fieldName\000"
 3719      644E616D 
 3719      6500
 3720              		.ident	"GCC: (GNU Tools for ARM Embedded Processors) 4.7.3 20130312 (release) [ARM/embedded-4_7-br
