ARM GAS  C:\Users\Robert\AppData\Local\Temp\cc9p6bVr.s 			page 1


   1              		.syntax unified
   2              		.cpu cortex-m3
   3              		.fpu softvfp
   4              		.eabi_attribute 20, 1
   5              		.eabi_attribute 21, 1
   6              		.eabi_attribute 23, 3
   7              		.eabi_attribute 24, 1
   8              		.eabi_attribute 25, 1
   9              		.eabi_attribute 26, 1
  10              		.eabi_attribute 30, 6
  11              		.eabi_attribute 34, 1
  12              		.eabi_attribute 18, 4
  13              		.thumb
  14              		.file	"USBFS_boot.c"
  15              		.text
  16              	.Ltext0:
  17              		.cfi_sections	.debug_frame
  18              		.bss
  19              		.align	1
  20              	USBFS_universalTime:
  21 0000 0000     		.space	2
  22              	USBFS_started:
  23 0002 00       		.space	1
  24 0003 00       		.section	.text.USBFS_CyBtldrCommStart,"ax",%progbits
  25              		.align	2
  26              		.global	USBFS_CyBtldrCommStart
  27              		.thumb
  28              		.thumb_func
  29              		.type	USBFS_CyBtldrCommStart, %function
  30              	USBFS_CyBtldrCommStart:
  31              	.LFB0:
  32              		.file 1 ".\\Generated_Source\\PSoC5\\USBFS_boot.c"
   1:.\Generated_Source\PSoC5/USBFS_boot.c **** /*******************************************************************************
   2:.\Generated_Source\PSoC5/USBFS_boot.c **** * File Name: USBFS_boot.c
   3:.\Generated_Source\PSoC5/USBFS_boot.c **** * Version 2.60
   4:.\Generated_Source\PSoC5/USBFS_boot.c **** *
   5:.\Generated_Source\PSoC5/USBFS_boot.c **** * Description:
   6:.\Generated_Source\PSoC5/USBFS_boot.c **** *  Boot loader API for USBFS Component.
   7:.\Generated_Source\PSoC5/USBFS_boot.c **** *
   8:.\Generated_Source\PSoC5/USBFS_boot.c **** *  Note:
   9:.\Generated_Source\PSoC5/USBFS_boot.c **** *
  10:.\Generated_Source\PSoC5/USBFS_boot.c **** ********************************************************************************
  11:.\Generated_Source\PSoC5/USBFS_boot.c **** * Copyright 2008-2013, Cypress Semiconductor Corporation.  All rights reserved.
  12:.\Generated_Source\PSoC5/USBFS_boot.c **** * You may use this file only in accordance with the license, terms, conditions,
  13:.\Generated_Source\PSoC5/USBFS_boot.c **** * disclaimers, and limitations in the end user license agreement accompanying
  14:.\Generated_Source\PSoC5/USBFS_boot.c **** * the software package with which this file was provided.
  15:.\Generated_Source\PSoC5/USBFS_boot.c **** *******************************************************************************/
  16:.\Generated_Source\PSoC5/USBFS_boot.c **** 
  17:.\Generated_Source\PSoC5/USBFS_boot.c **** #include "USBFS.h"
  18:.\Generated_Source\PSoC5/USBFS_boot.c **** 
  19:.\Generated_Source\PSoC5/USBFS_boot.c **** #if defined(CYDEV_BOOTLOADER_IO_COMP) && ((CYDEV_BOOTLOADER_IO_COMP == CyBtldr_USBFS) || \
  20:.\Generated_Source\PSoC5/USBFS_boot.c ****                                           (CYDEV_BOOTLOADER_IO_COMP == CyBtldr_Custom_Interface))
  21:.\Generated_Source\PSoC5/USBFS_boot.c **** 
  22:.\Generated_Source\PSoC5/USBFS_boot.c **** 
  23:.\Generated_Source\PSoC5/USBFS_boot.c **** /***************************************
  24:.\Generated_Source\PSoC5/USBFS_boot.c **** *    Bootloader defines
  25:.\Generated_Source\PSoC5/USBFS_boot.c **** ***************************************/
ARM GAS  C:\Users\Robert\AppData\Local\Temp\cc9p6bVr.s 			page 2


  26:.\Generated_Source\PSoC5/USBFS_boot.c **** 
  27:.\Generated_Source\PSoC5/USBFS_boot.c **** #define USBFS_CyBtLdrStarttimer(X, T)         {USBFS_universalTime = T * 10; X = 0u;}
  28:.\Generated_Source\PSoC5/USBFS_boot.c **** #define USBFS_CyBtLdrChecktimer(X)            ((X++ < USBFS_universalTime) ? 1u : 0u)
  29:.\Generated_Source\PSoC5/USBFS_boot.c **** 
  30:.\Generated_Source\PSoC5/USBFS_boot.c **** #define USBFS_BTLDR_OUT_EP      (0x01u)
  31:.\Generated_Source\PSoC5/USBFS_boot.c **** #define USBFS_BTLDR_IN_EP       (0x02u)
  32:.\Generated_Source\PSoC5/USBFS_boot.c **** 
  33:.\Generated_Source\PSoC5/USBFS_boot.c **** 
  34:.\Generated_Source\PSoC5/USBFS_boot.c **** /***************************************
  35:.\Generated_Source\PSoC5/USBFS_boot.c **** *    Bootloader Variables
  36:.\Generated_Source\PSoC5/USBFS_boot.c **** ***************************************/
  37:.\Generated_Source\PSoC5/USBFS_boot.c **** 
  38:.\Generated_Source\PSoC5/USBFS_boot.c **** static uint16 USBFS_universalTime;
  39:.\Generated_Source\PSoC5/USBFS_boot.c **** static uint8 USBFS_started = 0u;
  40:.\Generated_Source\PSoC5/USBFS_boot.c **** 
  41:.\Generated_Source\PSoC5/USBFS_boot.c **** 
  42:.\Generated_Source\PSoC5/USBFS_boot.c **** /*******************************************************************************
  43:.\Generated_Source\PSoC5/USBFS_boot.c **** * Function Name: USBFS_CyBtldrCommStart
  44:.\Generated_Source\PSoC5/USBFS_boot.c **** ********************************************************************************
  45:.\Generated_Source\PSoC5/USBFS_boot.c **** *
  46:.\Generated_Source\PSoC5/USBFS_boot.c **** * Summary:
  47:.\Generated_Source\PSoC5/USBFS_boot.c **** *  Starts the component and enables the interrupt.
  48:.\Generated_Source\PSoC5/USBFS_boot.c **** *
  49:.\Generated_Source\PSoC5/USBFS_boot.c **** * Parameters:
  50:.\Generated_Source\PSoC5/USBFS_boot.c **** *  None.
  51:.\Generated_Source\PSoC5/USBFS_boot.c **** *
  52:.\Generated_Source\PSoC5/USBFS_boot.c **** * Return:
  53:.\Generated_Source\PSoC5/USBFS_boot.c **** *  None.
  54:.\Generated_Source\PSoC5/USBFS_boot.c **** *
  55:.\Generated_Source\PSoC5/USBFS_boot.c **** * Side Effects:
  56:.\Generated_Source\PSoC5/USBFS_boot.c **** *  This function starts the USB with 3V or 5V operation.
  57:.\Generated_Source\PSoC5/USBFS_boot.c **** *
  58:.\Generated_Source\PSoC5/USBFS_boot.c **** * Reentrant:
  59:.\Generated_Source\PSoC5/USBFS_boot.c **** *  No.
  60:.\Generated_Source\PSoC5/USBFS_boot.c **** *
  61:.\Generated_Source\PSoC5/USBFS_boot.c **** *******************************************************************************/
  62:.\Generated_Source\PSoC5/USBFS_boot.c **** void USBFS_CyBtldrCommStart(void) 
  63:.\Generated_Source\PSoC5/USBFS_boot.c **** {
  33              		.loc 1 63 0
  34              		.cfi_startproc
  35              		@ args = 0, pretend = 0, frame = 0
  36              		@ frame_needed = 1, uses_anonymous_args = 0
  37 0000 80B5     		push	{r7, lr}
  38              	.LCFI0:
  39              		.cfi_def_cfa_offset 8
  40              		.cfi_offset 7, -8
  41              		.cfi_offset 14, -4
  42 0002 00AF     		add	r7, sp, #0
  43              	.LCFI1:
  44              		.cfi_def_cfa_register 7
  64:.\Generated_Source\PSoC5/USBFS_boot.c ****     CyGlobalIntEnable;      /* Enable Global Interrupts */
  45              		.loc 1 64 0
  46              	@ 64 ".\Generated_Source\PSoC5\USBFS_boot.c" 1
  47 0004 62B6     		CPSIE   i
  48              	@ 0 "" 2
  65:.\Generated_Source\PSoC5/USBFS_boot.c **** 
  66:.\Generated_Source\PSoC5/USBFS_boot.c ****     /*Start USBFS Operation/device 0 and with 5V or 3V operation depend on Voltage Configuration in
ARM GAS  C:\Users\Robert\AppData\Local\Temp\cc9p6bVr.s 			page 3


  67:.\Generated_Source\PSoC5/USBFS_boot.c ****     USBFS_Start(0u, USBFS_DWR_VDDD_OPERATION);
  49              		.loc 1 67 0
  50              		.thumb
  51 0006 4FF00000 		mov	r0, #0
  52 000a 4FF00201 		mov	r1, #2
  53 000e FFF7FEFF 		bl	USBFS_Start
  68:.\Generated_Source\PSoC5/USBFS_boot.c **** 
  69:.\Generated_Source\PSoC5/USBFS_boot.c ****     /* USB component started, the correct enumeration will be checked in first Read operation */
  70:.\Generated_Source\PSoC5/USBFS_boot.c ****     USBFS_started = 1u;
  54              		.loc 1 70 0
  55 0012 40F20003 		movw	r3, #:lower16:USBFS_started
  56 0016 C0F20003 		movt	r3, #:upper16:USBFS_started
  57 001a 4FF00102 		mov	r2, #1
  58 001e 1A70     		strb	r2, [r3, #0]
  71:.\Generated_Source\PSoC5/USBFS_boot.c **** 
  72:.\Generated_Source\PSoC5/USBFS_boot.c **** }
  59              		.loc 1 72 0
  60 0020 80BD     		pop	{r7, pc}
  61              		.cfi_endproc
  62              	.LFE0:
  63              		.size	USBFS_CyBtldrCommStart, .-USBFS_CyBtldrCommStart
  64 0022 00BF     		.section	.text.USBFS_CyBtldrCommStop,"ax",%progbits
  65              		.align	2
  66              		.global	USBFS_CyBtldrCommStop
  67              		.thumb
  68              		.thumb_func
  69              		.type	USBFS_CyBtldrCommStop, %function
  70              	USBFS_CyBtldrCommStop:
  71              	.LFB1:
  73:.\Generated_Source\PSoC5/USBFS_boot.c **** 
  74:.\Generated_Source\PSoC5/USBFS_boot.c **** 
  75:.\Generated_Source\PSoC5/USBFS_boot.c **** /*******************************************************************************
  76:.\Generated_Source\PSoC5/USBFS_boot.c **** * Function Name: USBFS_CyBtldrCommStop.
  77:.\Generated_Source\PSoC5/USBFS_boot.c **** ********************************************************************************
  78:.\Generated_Source\PSoC5/USBFS_boot.c **** *
  79:.\Generated_Source\PSoC5/USBFS_boot.c **** * Summary:
  80:.\Generated_Source\PSoC5/USBFS_boot.c **** *  Disable the component and disable the interrupt.
  81:.\Generated_Source\PSoC5/USBFS_boot.c **** *
  82:.\Generated_Source\PSoC5/USBFS_boot.c **** * Parameters:
  83:.\Generated_Source\PSoC5/USBFS_boot.c **** *  None.
  84:.\Generated_Source\PSoC5/USBFS_boot.c **** *
  85:.\Generated_Source\PSoC5/USBFS_boot.c **** * Return:
  86:.\Generated_Source\PSoC5/USBFS_boot.c **** *  None.
  87:.\Generated_Source\PSoC5/USBFS_boot.c **** *
  88:.\Generated_Source\PSoC5/USBFS_boot.c **** *******************************************************************************/
  89:.\Generated_Source\PSoC5/USBFS_boot.c **** void USBFS_CyBtldrCommStop(void) 
  90:.\Generated_Source\PSoC5/USBFS_boot.c **** {
  72              		.loc 1 90 0
  73              		.cfi_startproc
  74              		@ args = 0, pretend = 0, frame = 0
  75              		@ frame_needed = 1, uses_anonymous_args = 0
  76 0000 80B5     		push	{r7, lr}
  77              	.LCFI2:
  78              		.cfi_def_cfa_offset 8
  79              		.cfi_offset 7, -8
  80              		.cfi_offset 14, -4
  81 0002 00AF     		add	r7, sp, #0
ARM GAS  C:\Users\Robert\AppData\Local\Temp\cc9p6bVr.s 			page 4


  82              	.LCFI3:
  83              		.cfi_def_cfa_register 7
  91:.\Generated_Source\PSoC5/USBFS_boot.c ****     USBFS_Stop();
  84              		.loc 1 91 0
  85 0004 FFF7FEFF 		bl	USBFS_Stop
  92:.\Generated_Source\PSoC5/USBFS_boot.c **** }
  86              		.loc 1 92 0
  87 0008 80BD     		pop	{r7, pc}
  88              		.cfi_endproc
  89              	.LFE1:
  90              		.size	USBFS_CyBtldrCommStop, .-USBFS_CyBtldrCommStop
  91 000a 00BF     		.section	.text.USBFS_CyBtldrCommReset,"ax",%progbits
  92              		.align	2
  93              		.global	USBFS_CyBtldrCommReset
  94              		.thumb
  95              		.thumb_func
  96              		.type	USBFS_CyBtldrCommReset, %function
  97              	USBFS_CyBtldrCommReset:
  98              	.LFB2:
  93:.\Generated_Source\PSoC5/USBFS_boot.c **** 
  94:.\Generated_Source\PSoC5/USBFS_boot.c **** 
  95:.\Generated_Source\PSoC5/USBFS_boot.c **** /*******************************************************************************
  96:.\Generated_Source\PSoC5/USBFS_boot.c **** * Function Name: USBFS_CyBtldrCommReset.
  97:.\Generated_Source\PSoC5/USBFS_boot.c **** ********************************************************************************
  98:.\Generated_Source\PSoC5/USBFS_boot.c **** *
  99:.\Generated_Source\PSoC5/USBFS_boot.c **** * Summary:
 100:.\Generated_Source\PSoC5/USBFS_boot.c **** *  Resets the receive and transmit communication Buffers.
 101:.\Generated_Source\PSoC5/USBFS_boot.c **** *
 102:.\Generated_Source\PSoC5/USBFS_boot.c **** * Parameters:
 103:.\Generated_Source\PSoC5/USBFS_boot.c **** *  None.
 104:.\Generated_Source\PSoC5/USBFS_boot.c **** *
 105:.\Generated_Source\PSoC5/USBFS_boot.c **** * Return:
 106:.\Generated_Source\PSoC5/USBFS_boot.c **** *  None.
 107:.\Generated_Source\PSoC5/USBFS_boot.c **** *
 108:.\Generated_Source\PSoC5/USBFS_boot.c **** * Reentrant:
 109:.\Generated_Source\PSoC5/USBFS_boot.c **** *  No.
 110:.\Generated_Source\PSoC5/USBFS_boot.c **** *
 111:.\Generated_Source\PSoC5/USBFS_boot.c **** *******************************************************************************/
 112:.\Generated_Source\PSoC5/USBFS_boot.c **** void USBFS_CyBtldrCommReset(void) 
 113:.\Generated_Source\PSoC5/USBFS_boot.c **** {
  99              		.loc 1 113 0
 100              		.cfi_startproc
 101              		@ args = 0, pretend = 0, frame = 0
 102              		@ frame_needed = 1, uses_anonymous_args = 0
 103 0000 80B5     		push	{r7, lr}
 104              	.LCFI4:
 105              		.cfi_def_cfa_offset 8
 106              		.cfi_offset 7, -8
 107              		.cfi_offset 14, -4
 108 0002 00AF     		add	r7, sp, #0
 109              	.LCFI5:
 110              		.cfi_def_cfa_register 7
 114:.\Generated_Source\PSoC5/USBFS_boot.c ****     USBFS_EnableOutEP(USBFS_BTLDR_OUT_EP);  /* Enable the OUT endpoint */
 111              		.loc 1 114 0
 112 0004 4FF00100 		mov	r0, #1
 113 0008 FFF7FEFF 		bl	USBFS_EnableOutEP
 115:.\Generated_Source\PSoC5/USBFS_boot.c **** }
ARM GAS  C:\Users\Robert\AppData\Local\Temp\cc9p6bVr.s 			page 5


 114              		.loc 1 115 0
 115 000c 80BD     		pop	{r7, pc}
 116              		.cfi_endproc
 117              	.LFE2:
 118              		.size	USBFS_CyBtldrCommReset, .-USBFS_CyBtldrCommReset
 119 000e 00BF     		.section	.text.USBFS_CyBtldrCommWrite,"ax",%progbits
 120              		.align	2
 121              		.global	USBFS_CyBtldrCommWrite
 122              		.thumb
 123              		.thumb_func
 124              		.type	USBFS_CyBtldrCommWrite, %function
 125              	USBFS_CyBtldrCommWrite:
 126              	.LFB3:
 116:.\Generated_Source\PSoC5/USBFS_boot.c **** 
 117:.\Generated_Source\PSoC5/USBFS_boot.c **** 
 118:.\Generated_Source\PSoC5/USBFS_boot.c **** /*******************************************************************************
 119:.\Generated_Source\PSoC5/USBFS_boot.c **** * Function Name: USBFS_CyBtldrCommWrite.
 120:.\Generated_Source\PSoC5/USBFS_boot.c **** ********************************************************************************
 121:.\Generated_Source\PSoC5/USBFS_boot.c **** *
 122:.\Generated_Source\PSoC5/USBFS_boot.c **** * Summary:
 123:.\Generated_Source\PSoC5/USBFS_boot.c **** *  Allows the caller to write data to the boot loader host. The function will
 124:.\Generated_Source\PSoC5/USBFS_boot.c **** *  handle polling to allow a block of data to be completely sent to the host
 125:.\Generated_Source\PSoC5/USBFS_boot.c **** *  device.
 126:.\Generated_Source\PSoC5/USBFS_boot.c **** *
 127:.\Generated_Source\PSoC5/USBFS_boot.c **** * Parameters:
 128:.\Generated_Source\PSoC5/USBFS_boot.c **** *  pData:    A pointer to the block of data to send to the device
 129:.\Generated_Source\PSoC5/USBFS_boot.c **** *  size:     The number of bytes to write.
 130:.\Generated_Source\PSoC5/USBFS_boot.c **** *  count:    Pointer to an unsigned short variable to write the number of
 131:.\Generated_Source\PSoC5/USBFS_boot.c **** *             bytes actually written.
 132:.\Generated_Source\PSoC5/USBFS_boot.c **** *  timeOut:  Number of units to wait before returning because of a timeout.
 133:.\Generated_Source\PSoC5/USBFS_boot.c **** *
 134:.\Generated_Source\PSoC5/USBFS_boot.c **** * Return:
 135:.\Generated_Source\PSoC5/USBFS_boot.c **** *  Returns the value that best describes the problem.
 136:.\Generated_Source\PSoC5/USBFS_boot.c **** *
 137:.\Generated_Source\PSoC5/USBFS_boot.c **** * Reentrant:
 138:.\Generated_Source\PSoC5/USBFS_boot.c **** *  No.
 139:.\Generated_Source\PSoC5/USBFS_boot.c **** *
 140:.\Generated_Source\PSoC5/USBFS_boot.c **** *******************************************************************************/
 141:.\Generated_Source\PSoC5/USBFS_boot.c **** cystatus USBFS_CyBtldrCommWrite(uint8 *pData, uint16 size, uint16 *count, uint8 timeOut) CYSMALL
 142:.\Generated_Source\PSoC5/USBFS_boot.c ****                                                             
 143:.\Generated_Source\PSoC5/USBFS_boot.c **** {
 127              		.loc 1 143 0
 128              		.cfi_startproc
 129              		@ args = 0, pretend = 0, frame = 24
 130              		@ frame_needed = 1, uses_anonymous_args = 0
 131 0000 80B5     		push	{r7, lr}
 132              	.LCFI6:
 133              		.cfi_def_cfa_offset 8
 134              		.cfi_offset 7, -8
 135              		.cfi_offset 14, -4
 136 0002 86B0     		sub	sp, sp, #24
 137              	.LCFI7:
 138              		.cfi_def_cfa_offset 32
 139 0004 00AF     		add	r7, sp, #0
 140              	.LCFI8:
 141              		.cfi_def_cfa_register 7
 142 0006 F860     		str	r0, [r7, #12]
ARM GAS  C:\Users\Robert\AppData\Local\Temp\cc9p6bVr.s 			page 6


 143 0008 7A60     		str	r2, [r7, #4]
 144 000a 0A46     		mov	r2, r1	@ movhi
 145 000c 7A81     		strh	r2, [r7, #10]	@ movhi
 146 000e 7B72     		strb	r3, [r7, #9]
 144:.\Generated_Source\PSoC5/USBFS_boot.c ****     uint16 time;
 145:.\Generated_Source\PSoC5/USBFS_boot.c ****     cystatus status;
 146:.\Generated_Source\PSoC5/USBFS_boot.c **** 
 147:.\Generated_Source\PSoC5/USBFS_boot.c ****     /* Enable IN transfer */
 148:.\Generated_Source\PSoC5/USBFS_boot.c ****     USBFS_LoadInEP(USBFS_BTLDR_IN_EP, pData, USBFS_BTLDR_SIZEOF_READ_BUFFER);
 147              		.loc 1 148 0
 148 0010 4FF00200 		mov	r0, #2
 149 0014 F968     		ldr	r1, [r7, #12]
 150 0016 4FF04002 		mov	r2, #64
 151 001a FFF7FEFF 		bl	USBFS_LoadInEP
 149:.\Generated_Source\PSoC5/USBFS_boot.c **** 
 150:.\Generated_Source\PSoC5/USBFS_boot.c ****     /* Start a timer to wait on. */
 151:.\Generated_Source\PSoC5/USBFS_boot.c ****     USBFS_CyBtLdrStarttimer(time, timeOut);
 152              		.loc 1 151 0
 153 001e 7B7A     		ldrb	r3, [r7, #9]	@ zero_extendqisi2
 154 0020 9BB2     		uxth	r3, r3
 155 0022 1A46     		mov	r2, r3	@ movhi
 156 0024 4FEA8202 		lsl	r2, r2, #2
 157 0028 D318     		adds	r3, r2, r3
 158 002a 4FEA4303 		lsl	r3, r3, #1
 159 002e 9AB2     		uxth	r2, r3
 160 0030 40F20003 		movw	r3, #:lower16:USBFS_universalTime
 161 0034 C0F20003 		movt	r3, #:upper16:USBFS_universalTime
 162 0038 1A80     		strh	r2, [r3, #0]	@ movhi
 163 003a 4FF00003 		mov	r3, #0
 164 003e FB82     		strh	r3, [r7, #22]	@ movhi
 152:.\Generated_Source\PSoC5/USBFS_boot.c **** 
 153:.\Generated_Source\PSoC5/USBFS_boot.c ****     /* Wait for the master to read it. */
 154:.\Generated_Source\PSoC5/USBFS_boot.c ****     while((USBFS_GetEPState(USBFS_BTLDR_IN_EP) == USBFS_IN_BUFFER_FULL) && \
 165              		.loc 1 154 0
 166 0040 03E0     		b	.L5
 167              	.L7:
 155:.\Generated_Source\PSoC5/USBFS_boot.c ****            USBFS_CyBtLdrChecktimer(time))
 156:.\Generated_Source\PSoC5/USBFS_boot.c ****     {
 157:.\Generated_Source\PSoC5/USBFS_boot.c ****         CyDelay(1u); /* 1ms delay */
 168              		.loc 1 157 0
 169 0042 4FF00100 		mov	r0, #1
 170 0046 FFF7FEFF 		bl	CyDelay
 171              	.L5:
 154:.\Generated_Source\PSoC5/USBFS_boot.c ****     while((USBFS_GetEPState(USBFS_BTLDR_IN_EP) == USBFS_IN_BUFFER_FULL) && \
 172              		.loc 1 154 0 discriminator 1
 173 004a 4FF00200 		mov	r0, #2
 174 004e FFF7FEFF 		bl	USBFS_GetEPState
 175 0052 0346     		mov	r3, r0
 176 0054 002B     		cmp	r3, #0
 177 0056 10D1     		bne	.L6
 154:.\Generated_Source\PSoC5/USBFS_boot.c ****     while((USBFS_GetEPState(USBFS_BTLDR_IN_EP) == USBFS_IN_BUFFER_FULL) && \
 178              		.loc 1 154 0 is_stmt 0 discriminator 2
 179 0058 40F20003 		movw	r3, #:lower16:USBFS_universalTime
 180 005c C0F20003 		movt	r3, #:upper16:USBFS_universalTime
 181 0060 1B88     		ldrh	r3, [r3, #0]
 182 0062 FA8A     		ldrh	r2, [r7, #22]
 183 0064 9A42     		cmp	r2, r3
ARM GAS  C:\Users\Robert\AppData\Local\Temp\cc9p6bVr.s 			page 7


 184 0066 2CBF     		ite	cs
 185 0068 0023     		movcs	r3, #0
 186 006a 0123     		movcc	r3, #1
 187 006c DBB2     		uxtb	r3, r3
 155:.\Generated_Source\PSoC5/USBFS_boot.c ****            USBFS_CyBtLdrChecktimer(time))
 188              		.loc 1 155 0 is_stmt 1 discriminator 2
 189 006e FA8A     		ldrh	r2, [r7, #22]	@ movhi
 190 0070 02F10102 		add	r2, r2, #1
 191 0074 FA82     		strh	r2, [r7, #22]	@ movhi
 154:.\Generated_Source\PSoC5/USBFS_boot.c ****     while((USBFS_GetEPState(USBFS_BTLDR_IN_EP) == USBFS_IN_BUFFER_FULL) && \
 192              		.loc 1 154 0 discriminator 2
 193 0076 002B     		cmp	r3, #0
 194 0078 E3D1     		bne	.L7
 195              	.L6:
 158:.\Generated_Source\PSoC5/USBFS_boot.c ****     }
 159:.\Generated_Source\PSoC5/USBFS_boot.c **** 
 160:.\Generated_Source\PSoC5/USBFS_boot.c ****     if (USBFS_GetEPState(USBFS_BTLDR_IN_EP) == USBFS_IN_BUFFER_FULL)
 196              		.loc 1 160 0
 197 007a 4FF00200 		mov	r0, #2
 198 007e FFF7FEFF 		bl	USBFS_GetEPState
 199 0082 0346     		mov	r3, r0
 200 0084 002B     		cmp	r3, #0
 201 0086 03D1     		bne	.L8
 161:.\Generated_Source\PSoC5/USBFS_boot.c ****     {
 162:.\Generated_Source\PSoC5/USBFS_boot.c ****         status = CYRET_TIMEOUT;
 202              		.loc 1 162 0
 203 0088 4FF01003 		mov	r3, #16
 204 008c 3B61     		str	r3, [r7, #16]
 205 008e 05E0     		b	.L9
 206              	.L8:
 163:.\Generated_Source\PSoC5/USBFS_boot.c ****     }
 164:.\Generated_Source\PSoC5/USBFS_boot.c ****     else
 165:.\Generated_Source\PSoC5/USBFS_boot.c ****     {
 166:.\Generated_Source\PSoC5/USBFS_boot.c ****         *count = size;
 207              		.loc 1 166 0
 208 0090 7B68     		ldr	r3, [r7, #4]
 209 0092 7A89     		ldrh	r2, [r7, #10]	@ movhi
 210 0094 1A80     		strh	r2, [r3, #0]	@ movhi
 167:.\Generated_Source\PSoC5/USBFS_boot.c ****         status = CYRET_SUCCESS;
 211              		.loc 1 167 0
 212 0096 4FF00003 		mov	r3, #0
 213 009a 3B61     		str	r3, [r7, #16]
 214              	.L9:
 168:.\Generated_Source\PSoC5/USBFS_boot.c ****     }
 169:.\Generated_Source\PSoC5/USBFS_boot.c **** 
 170:.\Generated_Source\PSoC5/USBFS_boot.c ****     return(status);
 215              		.loc 1 170 0
 216 009c 3B69     		ldr	r3, [r7, #16]
 171:.\Generated_Source\PSoC5/USBFS_boot.c **** }
 217              		.loc 1 171 0
 218 009e 1846     		mov	r0, r3
 219 00a0 07F11807 		add	r7, r7, #24
 220 00a4 BD46     		mov	sp, r7
 221 00a6 80BD     		pop	{r7, pc}
 222              		.cfi_endproc
 223              	.LFE3:
 224              		.size	USBFS_CyBtldrCommWrite, .-USBFS_CyBtldrCommWrite
ARM GAS  C:\Users\Robert\AppData\Local\Temp\cc9p6bVr.s 			page 8


 225              		.section	.text.USBFS_CyBtldrCommRead,"ax",%progbits
 226              		.align	2
 227              		.global	USBFS_CyBtldrCommRead
 228              		.thumb
 229              		.thumb_func
 230              		.type	USBFS_CyBtldrCommRead, %function
 231              	USBFS_CyBtldrCommRead:
 232              	.LFB4:
 172:.\Generated_Source\PSoC5/USBFS_boot.c **** 
 173:.\Generated_Source\PSoC5/USBFS_boot.c **** 
 174:.\Generated_Source\PSoC5/USBFS_boot.c **** /*******************************************************************************
 175:.\Generated_Source\PSoC5/USBFS_boot.c **** * Function Name: USBFS_CyBtldrCommRead.
 176:.\Generated_Source\PSoC5/USBFS_boot.c **** ********************************************************************************
 177:.\Generated_Source\PSoC5/USBFS_boot.c **** *
 178:.\Generated_Source\PSoC5/USBFS_boot.c **** * Summary:
 179:.\Generated_Source\PSoC5/USBFS_boot.c **** *  Allows the caller to read data from the boot loader host. The function will
 180:.\Generated_Source\PSoC5/USBFS_boot.c **** *  handle polling to allow a block of data to be completely received from the
 181:.\Generated_Source\PSoC5/USBFS_boot.c **** *  host device.
 182:.\Generated_Source\PSoC5/USBFS_boot.c **** *
 183:.\Generated_Source\PSoC5/USBFS_boot.c **** * Parameters:
 184:.\Generated_Source\PSoC5/USBFS_boot.c **** *  pData:    A pointer to the area to store the block of data received
 185:.\Generated_Source\PSoC5/USBFS_boot.c **** *             from the device.
 186:.\Generated_Source\PSoC5/USBFS_boot.c **** *  size:     The number of bytes to read.
 187:.\Generated_Source\PSoC5/USBFS_boot.c **** *  count:    Pointer to an unsigned short variable to write the number
 188:.\Generated_Source\PSoC5/USBFS_boot.c **** *             of bytes actually read.
 189:.\Generated_Source\PSoC5/USBFS_boot.c **** *  timeOut:  Number of units to wait before returning because of a timeOut.
 190:.\Generated_Source\PSoC5/USBFS_boot.c **** *            Timeout is measured in 10s of ms.
 191:.\Generated_Source\PSoC5/USBFS_boot.c **** *
 192:.\Generated_Source\PSoC5/USBFS_boot.c **** * Return:
 193:.\Generated_Source\PSoC5/USBFS_boot.c **** *  Returns the value that best describes the problem.
 194:.\Generated_Source\PSoC5/USBFS_boot.c **** *
 195:.\Generated_Source\PSoC5/USBFS_boot.c **** * Reentrant:
 196:.\Generated_Source\PSoC5/USBFS_boot.c **** *  No.
 197:.\Generated_Source\PSoC5/USBFS_boot.c **** *
 198:.\Generated_Source\PSoC5/USBFS_boot.c **** *******************************************************************************/
 199:.\Generated_Source\PSoC5/USBFS_boot.c **** cystatus USBFS_CyBtldrCommRead(uint8 *pData, uint16 size, uint16 *count, uint8 timeOut) CYSMALL
 200:.\Generated_Source\PSoC5/USBFS_boot.c ****                                                             
 201:.\Generated_Source\PSoC5/USBFS_boot.c **** {
 233              		.loc 1 201 0
 234              		.cfi_startproc
 235              		@ args = 0, pretend = 0, frame = 24
 236              		@ frame_needed = 1, uses_anonymous_args = 0
 237 0000 80B5     		push	{r7, lr}
 238              	.LCFI9:
 239              		.cfi_def_cfa_offset 8
 240              		.cfi_offset 7, -8
 241              		.cfi_offset 14, -4
 242 0002 86B0     		sub	sp, sp, #24
 243              	.LCFI10:
 244              		.cfi_def_cfa_offset 32
 245 0004 00AF     		add	r7, sp, #0
 246              	.LCFI11:
 247              		.cfi_def_cfa_register 7
 248 0006 F860     		str	r0, [r7, #12]
 249 0008 7A60     		str	r2, [r7, #4]
 250 000a 0A46     		mov	r2, r1	@ movhi
 251 000c 7A81     		strh	r2, [r7, #10]	@ movhi
ARM GAS  C:\Users\Robert\AppData\Local\Temp\cc9p6bVr.s 			page 9


 252 000e 7B72     		strb	r3, [r7, #9]
 202:.\Generated_Source\PSoC5/USBFS_boot.c ****     cystatus status;
 203:.\Generated_Source\PSoC5/USBFS_boot.c ****     uint16 time;
 204:.\Generated_Source\PSoC5/USBFS_boot.c **** 
 205:.\Generated_Source\PSoC5/USBFS_boot.c ****     if(size > USBFS_BTLDR_SIZEOF_WRITE_BUFFER)
 253              		.loc 1 205 0
 254 0010 7B89     		ldrh	r3, [r7, #10]
 255 0012 402B     		cmp	r3, #64
 256 0014 02D9     		bls	.L12
 206:.\Generated_Source\PSoC5/USBFS_boot.c ****     {
 207:.\Generated_Source\PSoC5/USBFS_boot.c ****         size = USBFS_BTLDR_SIZEOF_WRITE_BUFFER;
 257              		.loc 1 207 0
 258 0016 4FF04003 		mov	r3, #64
 259 001a 7B81     		strh	r3, [r7, #10]	@ movhi
 260              	.L12:
 208:.\Generated_Source\PSoC5/USBFS_boot.c ****     }
 209:.\Generated_Source\PSoC5/USBFS_boot.c ****     /* Start a timer to wait on. */
 210:.\Generated_Source\PSoC5/USBFS_boot.c ****     USBFS_CyBtLdrStarttimer(time, timeOut);
 261              		.loc 1 210 0
 262 001c 7B7A     		ldrb	r3, [r7, #9]	@ zero_extendqisi2
 263 001e 9BB2     		uxth	r3, r3
 264 0020 1A46     		mov	r2, r3	@ movhi
 265 0022 4FEA8202 		lsl	r2, r2, #2
 266 0026 D318     		adds	r3, r2, r3
 267 0028 4FEA4303 		lsl	r3, r3, #1
 268 002c 9AB2     		uxth	r2, r3
 269 002e 40F20003 		movw	r3, #:lower16:USBFS_universalTime
 270 0032 C0F20003 		movt	r3, #:upper16:USBFS_universalTime
 271 0036 1A80     		strh	r2, [r3, #0]	@ movhi
 272 0038 4FF00003 		mov	r3, #0
 273 003c 7B82     		strh	r3, [r7, #18]	@ movhi
 211:.\Generated_Source\PSoC5/USBFS_boot.c **** 
 212:.\Generated_Source\PSoC5/USBFS_boot.c ****     /* Wait on enumeration in first time */
 213:.\Generated_Source\PSoC5/USBFS_boot.c ****     if(USBFS_started)
 274              		.loc 1 213 0
 275 003e 40F20003 		movw	r3, #:lower16:USBFS_started
 276 0042 C0F20003 		movt	r3, #:upper16:USBFS_started
 277 0046 1B78     		ldrb	r3, [r3, #0]	@ zero_extendqisi2
 278 0048 002B     		cmp	r3, #0
 279 004a 2BD0     		beq	.L13
 214:.\Generated_Source\PSoC5/USBFS_boot.c ****     {
 215:.\Generated_Source\PSoC5/USBFS_boot.c ****         /* Wait for Device to enumerate */
 216:.\Generated_Source\PSoC5/USBFS_boot.c ****         while(!USBFS_GetConfiguration() && USBFS_CyBtLdrChecktimer(time))
 280              		.loc 1 216 0
 281 004c 03E0     		b	.L14
 282              	.L16:
 217:.\Generated_Source\PSoC5/USBFS_boot.c ****         {
 218:.\Generated_Source\PSoC5/USBFS_boot.c ****             CyDelay(1u); /* 1ms delay */
 283              		.loc 1 218 0
 284 004e 4FF00100 		mov	r0, #1
 285 0052 FFF7FEFF 		bl	CyDelay
 286              	.L14:
 216:.\Generated_Source\PSoC5/USBFS_boot.c ****         while(!USBFS_GetConfiguration() && USBFS_CyBtLdrChecktimer(time))
 287              		.loc 1 216 0 discriminator 1
 288 0056 FFF7FEFF 		bl	USBFS_GetConfiguration
 289 005a 0346     		mov	r3, r0
 290 005c 002B     		cmp	r3, #0
ARM GAS  C:\Users\Robert\AppData\Local\Temp\cc9p6bVr.s 			page 10


 291 005e 10D1     		bne	.L15
 216:.\Generated_Source\PSoC5/USBFS_boot.c ****         while(!USBFS_GetConfiguration() && USBFS_CyBtLdrChecktimer(time))
 292              		.loc 1 216 0 is_stmt 0 discriminator 2
 293 0060 40F20003 		movw	r3, #:lower16:USBFS_universalTime
 294 0064 C0F20003 		movt	r3, #:upper16:USBFS_universalTime
 295 0068 1B88     		ldrh	r3, [r3, #0]
 296 006a 7A8A     		ldrh	r2, [r7, #18]
 297 006c 9A42     		cmp	r2, r3
 298 006e 2CBF     		ite	cs
 299 0070 0023     		movcs	r3, #0
 300 0072 0123     		movcc	r3, #1
 301 0074 DBB2     		uxtb	r3, r3
 302 0076 7A8A     		ldrh	r2, [r7, #18]	@ movhi
 303 0078 02F10102 		add	r2, r2, #1
 304 007c 7A82     		strh	r2, [r7, #18]	@ movhi
 305 007e 002B     		cmp	r3, #0
 306 0080 E5D1     		bne	.L16
 307              	.L15:
 219:.\Generated_Source\PSoC5/USBFS_boot.c ****         }
 220:.\Generated_Source\PSoC5/USBFS_boot.c ****         /* Enable first OUT, if enumeration complete */
 221:.\Generated_Source\PSoC5/USBFS_boot.c ****         if(USBFS_GetConfiguration())
 308              		.loc 1 221 0 is_stmt 1
 309 0082 FFF7FEFF 		bl	USBFS_GetConfiguration
 310 0086 0346     		mov	r3, r0
 311 0088 002B     		cmp	r3, #0
 312 008a 1DD0     		beq	.L24
 222:.\Generated_Source\PSoC5/USBFS_boot.c ****         {
 223:.\Generated_Source\PSoC5/USBFS_boot.c ****             USBFS_IsConfigurationChanged();  /* Clear configuration changes state status */
 313              		.loc 1 223 0
 314 008c FFF7FEFF 		bl	USBFS_IsConfigurationChanged
 224:.\Generated_Source\PSoC5/USBFS_boot.c ****             USBFS_CyBtldrCommReset();
 315              		.loc 1 224 0
 316 0090 FFF7FEFF 		bl	USBFS_CyBtldrCommReset
 225:.\Generated_Source\PSoC5/USBFS_boot.c ****             USBFS_started = 0u;
 317              		.loc 1 225 0
 318 0094 40F20003 		movw	r3, #:lower16:USBFS_started
 319 0098 C0F20003 		movt	r3, #:upper16:USBFS_started
 320 009c 4FF00002 		mov	r2, #0
 321 00a0 1A70     		strb	r2, [r3, #0]
 226:.\Generated_Source\PSoC5/USBFS_boot.c ****         }
 227:.\Generated_Source\PSoC5/USBFS_boot.c ****     }
 228:.\Generated_Source\PSoC5/USBFS_boot.c ****     else /* Check for configuration changes, has been done by Host */
 229:.\Generated_Source\PSoC5/USBFS_boot.c ****     {
 230:.\Generated_Source\PSoC5/USBFS_boot.c ****         if(USBFS_IsConfigurationChanged() != 0u) /* Host could send double SET_INTERFACE request or
 231:.\Generated_Source\PSoC5/USBFS_boot.c ****         {
 232:.\Generated_Source\PSoC5/USBFS_boot.c ****             if(USBFS_GetConfiguration() != 0u)   /* Init OUT endpoints when device reconfigured */
 233:.\Generated_Source\PSoC5/USBFS_boot.c ****             {
 234:.\Generated_Source\PSoC5/USBFS_boot.c ****                 USBFS_CyBtldrCommReset();
 235:.\Generated_Source\PSoC5/USBFS_boot.c ****             }
 236:.\Generated_Source\PSoC5/USBFS_boot.c ****         }
 237:.\Generated_Source\PSoC5/USBFS_boot.c ****     }
 238:.\Generated_Source\PSoC5/USBFS_boot.c ****     /* Wait on next packet */
 239:.\Generated_Source\PSoC5/USBFS_boot.c ****     while((USBFS_GetEPState(USBFS_BTLDR_OUT_EP) != USBFS_OUT_BUFFER_FULL) && \
 322              		.loc 1 239 0
 323 00a2 11E0     		b	.L24
 324              	.L13:
 230:.\Generated_Source\PSoC5/USBFS_boot.c ****         if(USBFS_IsConfigurationChanged() != 0u) /* Host could send double SET_INTERFACE request or
ARM GAS  C:\Users\Robert\AppData\Local\Temp\cc9p6bVr.s 			page 11


 325              		.loc 1 230 0
 326 00a4 FFF7FEFF 		bl	USBFS_IsConfigurationChanged
 327 00a8 0346     		mov	r3, r0
 328 00aa 002B     		cmp	r3, #0
 329 00ac 0CD0     		beq	.L24
 232:.\Generated_Source\PSoC5/USBFS_boot.c ****             if(USBFS_GetConfiguration() != 0u)   /* Init OUT endpoints when device reconfigured */
 330              		.loc 1 232 0
 331 00ae FFF7FEFF 		bl	USBFS_GetConfiguration
 332 00b2 0346     		mov	r3, r0
 333 00b4 002B     		cmp	r3, #0
 334 00b6 07D0     		beq	.L24
 234:.\Generated_Source\PSoC5/USBFS_boot.c ****                 USBFS_CyBtldrCommReset();
 335              		.loc 1 234 0
 336 00b8 FFF7FEFF 		bl	USBFS_CyBtldrCommReset
 337              		.loc 1 239 0
 338 00bc 04E0     		b	.L24
 339              	.L20:
 240:.\Generated_Source\PSoC5/USBFS_boot.c ****            USBFS_CyBtLdrChecktimer(time))
 241:.\Generated_Source\PSoC5/USBFS_boot.c ****     {
 242:.\Generated_Source\PSoC5/USBFS_boot.c ****         CyDelay(1u); /* 1ms delay */
 340              		.loc 1 242 0
 341 00be 4FF00100 		mov	r0, #1
 342 00c2 FFF7FEFF 		bl	CyDelay
 343 00c6 00E0     		b	.L18
 344              	.L24:
 239:.\Generated_Source\PSoC5/USBFS_boot.c ****     while((USBFS_GetEPState(USBFS_BTLDR_OUT_EP) != USBFS_OUT_BUFFER_FULL) && \
 345              		.loc 1 239 0
 346 00c8 00BF     		nop
 347              	.L18:
 239:.\Generated_Source\PSoC5/USBFS_boot.c ****     while((USBFS_GetEPState(USBFS_BTLDR_OUT_EP) != USBFS_OUT_BUFFER_FULL) && \
 348              		.loc 1 239 0 is_stmt 0 discriminator 1
 349 00ca 4FF00100 		mov	r0, #1
 350 00ce FFF7FEFF 		bl	USBFS_GetEPState
 351 00d2 0346     		mov	r3, r0
 352 00d4 012B     		cmp	r3, #1
 353 00d6 10D0     		beq	.L19
 239:.\Generated_Source\PSoC5/USBFS_boot.c ****     while((USBFS_GetEPState(USBFS_BTLDR_OUT_EP) != USBFS_OUT_BUFFER_FULL) && \
 354              		.loc 1 239 0 discriminator 2
 355 00d8 40F20003 		movw	r3, #:lower16:USBFS_universalTime
 356 00dc C0F20003 		movt	r3, #:upper16:USBFS_universalTime
 357 00e0 1B88     		ldrh	r3, [r3, #0]
 358 00e2 7A8A     		ldrh	r2, [r7, #18]
 359 00e4 9A42     		cmp	r2, r3
 360 00e6 2CBF     		ite	cs
 361 00e8 0023     		movcs	r3, #0
 362 00ea 0123     		movcc	r3, #1
 363 00ec DBB2     		uxtb	r3, r3
 240:.\Generated_Source\PSoC5/USBFS_boot.c ****            USBFS_CyBtLdrChecktimer(time))
 364              		.loc 1 240 0 is_stmt 1 discriminator 2
 365 00ee 7A8A     		ldrh	r2, [r7, #18]	@ movhi
 366 00f0 02F10102 		add	r2, r2, #1
 367 00f4 7A82     		strh	r2, [r7, #18]	@ movhi
 239:.\Generated_Source\PSoC5/USBFS_boot.c ****     while((USBFS_GetEPState(USBFS_BTLDR_OUT_EP) != USBFS_OUT_BUFFER_FULL) && \
 368              		.loc 1 239 0 discriminator 2
 369 00f6 002B     		cmp	r3, #0
 370 00f8 E1D1     		bne	.L20
 371              	.L19:
ARM GAS  C:\Users\Robert\AppData\Local\Temp\cc9p6bVr.s 			page 12


 243:.\Generated_Source\PSoC5/USBFS_boot.c ****     }
 244:.\Generated_Source\PSoC5/USBFS_boot.c **** 
 245:.\Generated_Source\PSoC5/USBFS_boot.c ****     /* OUT EP has completed */
 246:.\Generated_Source\PSoC5/USBFS_boot.c ****     if (USBFS_GetEPState(USBFS_BTLDR_OUT_EP) == USBFS_OUT_BUFFER_FULL)
 372              		.loc 1 246 0
 373 00fa 4FF00100 		mov	r0, #1
 374 00fe FFF7FEFF 		bl	USBFS_GetEPState
 375 0102 0346     		mov	r3, r0
 376 0104 012B     		cmp	r3, #1
 377 0106 0ED1     		bne	.L21
 247:.\Generated_Source\PSoC5/USBFS_boot.c ****     {
 248:.\Generated_Source\PSoC5/USBFS_boot.c ****         *count = USBFS_ReadOutEP(USBFS_BTLDR_OUT_EP, pData, size);
 378              		.loc 1 248 0
 379 0108 7B89     		ldrh	r3, [r7, #10]
 380 010a 4FF00100 		mov	r0, #1
 381 010e F968     		ldr	r1, [r7, #12]
 382 0110 1A46     		mov	r2, r3
 383 0112 FFF7FEFF 		bl	USBFS_ReadOutEP
 384 0116 0346     		mov	r3, r0
 385 0118 1A46     		mov	r2, r3
 386 011a 7B68     		ldr	r3, [r7, #4]
 387 011c 1A80     		strh	r2, [r3, #0]	@ movhi
 249:.\Generated_Source\PSoC5/USBFS_boot.c ****         status = CYRET_SUCCESS;
 388              		.loc 1 249 0
 389 011e 4FF00003 		mov	r3, #0
 390 0122 7B61     		str	r3, [r7, #20]
 391 0124 06E0     		b	.L22
 392              	.L21:
 250:.\Generated_Source\PSoC5/USBFS_boot.c ****     }
 251:.\Generated_Source\PSoC5/USBFS_boot.c ****     else
 252:.\Generated_Source\PSoC5/USBFS_boot.c ****     {
 253:.\Generated_Source\PSoC5/USBFS_boot.c ****         *count = 0u;
 393              		.loc 1 253 0
 394 0126 7B68     		ldr	r3, [r7, #4]
 395 0128 4FF00002 		mov	r2, #0
 396 012c 1A80     		strh	r2, [r3, #0]	@ movhi
 254:.\Generated_Source\PSoC5/USBFS_boot.c ****         status = CYRET_TIMEOUT;
 397              		.loc 1 254 0
 398 012e 4FF01003 		mov	r3, #16
 399 0132 7B61     		str	r3, [r7, #20]
 400              	.L22:
 255:.\Generated_Source\PSoC5/USBFS_boot.c ****     }
 256:.\Generated_Source\PSoC5/USBFS_boot.c ****     return(status);
 401              		.loc 1 256 0
 402 0134 7B69     		ldr	r3, [r7, #20]
 257:.\Generated_Source\PSoC5/USBFS_boot.c **** }
 403              		.loc 1 257 0
 404 0136 1846     		mov	r0, r3
 405 0138 07F11807 		add	r7, r7, #24
 406 013c BD46     		mov	sp, r7
 407 013e 80BD     		pop	{r7, pc}
 408              		.cfi_endproc
 409              	.LFE4:
 410              		.size	USBFS_CyBtldrCommRead, .-USBFS_CyBtldrCommRead
 411              		.text
 412              	.Letext0:
 413              		.file 2 ".\\Generated_Source\\PSoC5\\cytypes.h"
ARM GAS  C:\Users\Robert\AppData\Local\Temp\cc9p6bVr.s 			page 13

