ARM GAS  C:\Users\Robert\AppData\Local\Temp\ccWEb3hA.s 			page 1


   1              		.syntax unified
   2              		.cpu cortex-m3
   3              		.fpu softvfp
   4              		.eabi_attribute 20, 1
   5              		.eabi_attribute 21, 1
   6              		.eabi_attribute 23, 3
   7              		.eabi_attribute 24, 1
   8              		.eabi_attribute 25, 1
   9              		.eabi_attribute 26, 1
  10              		.eabi_attribute 30, 6
  11              		.eabi_attribute 34, 1
  12              		.eabi_attribute 18, 4
  13              		.thumb
  14              		.file	"USBFS_std.c"
  15              		.text
  16              	.Ltext0:
  17              		.cfi_sections	.debug_frame
  18              		.section	.text.USBFS_HandleStandardRqst,"ax",%progbits
  19              		.align	2
  20              		.global	USBFS_HandleStandardRqst
  21              		.thumb
  22              		.thumb_func
  23              		.type	USBFS_HandleStandardRqst, %function
  24              	USBFS_HandleStandardRqst:
  25              	.LFB0:
  26              		.file 1 ".\\Generated_Source\\PSoC5\\USBFS_std.c"
   1:.\Generated_Source\PSoC5/USBFS_std.c **** /*******************************************************************************
   2:.\Generated_Source\PSoC5/USBFS_std.c **** * File Name: USBFS_std.c
   3:.\Generated_Source\PSoC5/USBFS_std.c **** * Version 2.60
   4:.\Generated_Source\PSoC5/USBFS_std.c **** *
   5:.\Generated_Source\PSoC5/USBFS_std.c **** * Description:
   6:.\Generated_Source\PSoC5/USBFS_std.c **** *  USB Standard request handler.
   7:.\Generated_Source\PSoC5/USBFS_std.c **** *
   8:.\Generated_Source\PSoC5/USBFS_std.c **** * Note:
   9:.\Generated_Source\PSoC5/USBFS_std.c **** *
  10:.\Generated_Source\PSoC5/USBFS_std.c **** ********************************************************************************
  11:.\Generated_Source\PSoC5/USBFS_std.c **** * Copyright 2008-2013, Cypress Semiconductor Corporation.  All rights reserved.
  12:.\Generated_Source\PSoC5/USBFS_std.c **** * You may use this file only in accordance with the license, terms, conditions,
  13:.\Generated_Source\PSoC5/USBFS_std.c **** * disclaimers, and limitations in the end user license agreement accompanying
  14:.\Generated_Source\PSoC5/USBFS_std.c **** * the software package with which this file was provided.
  15:.\Generated_Source\PSoC5/USBFS_std.c **** *******************************************************************************/
  16:.\Generated_Source\PSoC5/USBFS_std.c **** 
  17:.\Generated_Source\PSoC5/USBFS_std.c **** #include "USBFS.h"
  18:.\Generated_Source\PSoC5/USBFS_std.c **** #include "USBFS_cdc.h"
  19:.\Generated_Source\PSoC5/USBFS_std.c **** #include "USBFS_pvt.h"
  20:.\Generated_Source\PSoC5/USBFS_std.c **** #if defined(USBFS_ENABLE_MIDI_STREAMING) 
  21:.\Generated_Source\PSoC5/USBFS_std.c ****     #include "USBFS_midi.h"
  22:.\Generated_Source\PSoC5/USBFS_std.c **** #endif /* End USBFS_ENABLE_MIDI_STREAMING*/
  23:.\Generated_Source\PSoC5/USBFS_std.c **** 
  24:.\Generated_Source\PSoC5/USBFS_std.c **** 
  25:.\Generated_Source\PSoC5/USBFS_std.c **** /***************************************
  26:.\Generated_Source\PSoC5/USBFS_std.c **** *   Static data allocation
  27:.\Generated_Source\PSoC5/USBFS_std.c **** ***************************************/
  28:.\Generated_Source\PSoC5/USBFS_std.c **** 
  29:.\Generated_Source\PSoC5/USBFS_std.c **** #if defined(USBFS_ENABLE_FWSN_STRING)
  30:.\Generated_Source\PSoC5/USBFS_std.c ****     static volatile uint8 *USBFS_fwSerialNumberStringDescriptor;
  31:.\Generated_Source\PSoC5/USBFS_std.c ****     static volatile uint8 USBFS_snStringConfirm = USBFS_FALSE;
ARM GAS  C:\Users\Robert\AppData\Local\Temp\ccWEb3hA.s 			page 2


  32:.\Generated_Source\PSoC5/USBFS_std.c **** #endif  /* USBFS_ENABLE_FWSN_STRING */
  33:.\Generated_Source\PSoC5/USBFS_std.c **** 
  34:.\Generated_Source\PSoC5/USBFS_std.c **** #if defined(USBFS_ENABLE_FWSN_STRING)
  35:.\Generated_Source\PSoC5/USBFS_std.c **** 
  36:.\Generated_Source\PSoC5/USBFS_std.c **** 
  37:.\Generated_Source\PSoC5/USBFS_std.c ****     /*******************************************************************************
  38:.\Generated_Source\PSoC5/USBFS_std.c ****     * Function Name: USBFS_SerialNumString
  39:.\Generated_Source\PSoC5/USBFS_std.c ****     ********************************************************************************
  40:.\Generated_Source\PSoC5/USBFS_std.c ****     *
  41:.\Generated_Source\PSoC5/USBFS_std.c ****     * Summary:
  42:.\Generated_Source\PSoC5/USBFS_std.c ****     *  Application firmware may supply the source of the USB device descriptors
  43:.\Generated_Source\PSoC5/USBFS_std.c ****     *  serial number string during runtime.
  44:.\Generated_Source\PSoC5/USBFS_std.c ****     *
  45:.\Generated_Source\PSoC5/USBFS_std.c ****     * Parameters:
  46:.\Generated_Source\PSoC5/USBFS_std.c ****     *  snString:  pointer to string.
  47:.\Generated_Source\PSoC5/USBFS_std.c ****     *
  48:.\Generated_Source\PSoC5/USBFS_std.c ****     * Return:
  49:.\Generated_Source\PSoC5/USBFS_std.c ****     *  None.
  50:.\Generated_Source\PSoC5/USBFS_std.c ****     *
  51:.\Generated_Source\PSoC5/USBFS_std.c ****     * Reentrant:
  52:.\Generated_Source\PSoC5/USBFS_std.c ****     *  No.
  53:.\Generated_Source\PSoC5/USBFS_std.c ****     *
  54:.\Generated_Source\PSoC5/USBFS_std.c ****     *******************************************************************************/
  55:.\Generated_Source\PSoC5/USBFS_std.c ****     void  USBFS_SerialNumString(uint8 snString[]) 
  56:.\Generated_Source\PSoC5/USBFS_std.c ****     {
  57:.\Generated_Source\PSoC5/USBFS_std.c ****         USBFS_snStringConfirm = USBFS_FALSE;
  58:.\Generated_Source\PSoC5/USBFS_std.c ****         if(snString != NULL)
  59:.\Generated_Source\PSoC5/USBFS_std.c ****         {
  60:.\Generated_Source\PSoC5/USBFS_std.c ****             USBFS_fwSerialNumberStringDescriptor = snString;
  61:.\Generated_Source\PSoC5/USBFS_std.c ****             /* Check descriptor validation */
  62:.\Generated_Source\PSoC5/USBFS_std.c ****             if( (snString[0u] > 1u ) && (snString[1u] == USBFS_DESCR_STRING) )
  63:.\Generated_Source\PSoC5/USBFS_std.c ****             {
  64:.\Generated_Source\PSoC5/USBFS_std.c ****                 USBFS_snStringConfirm = USBFS_TRUE;
  65:.\Generated_Source\PSoC5/USBFS_std.c ****             }
  66:.\Generated_Source\PSoC5/USBFS_std.c ****         }
  67:.\Generated_Source\PSoC5/USBFS_std.c ****     }
  68:.\Generated_Source\PSoC5/USBFS_std.c **** 
  69:.\Generated_Source\PSoC5/USBFS_std.c **** #endif  /* USBFS_ENABLE_FWSN_STRING */
  70:.\Generated_Source\PSoC5/USBFS_std.c **** 
  71:.\Generated_Source\PSoC5/USBFS_std.c **** 
  72:.\Generated_Source\PSoC5/USBFS_std.c **** /*******************************************************************************
  73:.\Generated_Source\PSoC5/USBFS_std.c **** * Function Name: USBFS_HandleStandardRqst
  74:.\Generated_Source\PSoC5/USBFS_std.c **** ********************************************************************************
  75:.\Generated_Source\PSoC5/USBFS_std.c **** *
  76:.\Generated_Source\PSoC5/USBFS_std.c **** * Summary:
  77:.\Generated_Source\PSoC5/USBFS_std.c **** *  This Routine dispatches standard requests
  78:.\Generated_Source\PSoC5/USBFS_std.c **** *
  79:.\Generated_Source\PSoC5/USBFS_std.c **** * Parameters:
  80:.\Generated_Source\PSoC5/USBFS_std.c **** *  None.
  81:.\Generated_Source\PSoC5/USBFS_std.c **** *
  82:.\Generated_Source\PSoC5/USBFS_std.c **** * Return:
  83:.\Generated_Source\PSoC5/USBFS_std.c **** *  TRUE if request handled.
  84:.\Generated_Source\PSoC5/USBFS_std.c **** *
  85:.\Generated_Source\PSoC5/USBFS_std.c **** * Reentrant:
  86:.\Generated_Source\PSoC5/USBFS_std.c **** *  No.
  87:.\Generated_Source\PSoC5/USBFS_std.c **** *
  88:.\Generated_Source\PSoC5/USBFS_std.c **** *******************************************************************************/
ARM GAS  C:\Users\Robert\AppData\Local\Temp\ccWEb3hA.s 			page 3


  89:.\Generated_Source\PSoC5/USBFS_std.c **** uint8 USBFS_HandleStandardRqst(void) 
  90:.\Generated_Source\PSoC5/USBFS_std.c **** {
  27              		.loc 1 90 0
  28              		.cfi_startproc
  29              		@ args = 0, pretend = 0, frame = 24
  30              		@ frame_needed = 1, uses_anonymous_args = 0
  31 0000 80B5     		push	{r7, lr}
  32              	.LCFI0:
  33              		.cfi_def_cfa_offset 8
  34              		.cfi_offset 7, -8
  35              		.cfi_offset 14, -4
  36 0002 86B0     		sub	sp, sp, #24
  37              	.LCFI1:
  38              		.cfi_def_cfa_offset 32
  39 0004 00AF     		add	r7, sp, #0
  40              	.LCFI2:
  41              		.cfi_def_cfa_register 7
  91:.\Generated_Source\PSoC5/USBFS_std.c ****     uint8 requestHandled = USBFS_FALSE;
  42              		.loc 1 91 0
  43 0006 4FF00003 		mov	r3, #0
  44 000a FB75     		strb	r3, [r7, #23]
  92:.\Generated_Source\PSoC5/USBFS_std.c ****     uint8 interfaceNumber;
  93:.\Generated_Source\PSoC5/USBFS_std.c ****     #if defined(USBFS_ENABLE_STRINGS)
  94:.\Generated_Source\PSoC5/USBFS_std.c ****         volatile uint8 *pStr = 0u;
  45              		.loc 1 94 0
  46 000c 4FF00003 		mov	r3, #0
  47 0010 3B61     		str	r3, [r7, #16]
  95:.\Generated_Source\PSoC5/USBFS_std.c ****         #if defined(USBFS_ENABLE_DESCRIPTOR_STRINGS)
  96:.\Generated_Source\PSoC5/USBFS_std.c ****             uint8 nStr;
  97:.\Generated_Source\PSoC5/USBFS_std.c ****             uint8 descrLength;
  98:.\Generated_Source\PSoC5/USBFS_std.c ****         #endif /* USBFS_ENABLE_DESCRIPTOR_STRINGS */
  99:.\Generated_Source\PSoC5/USBFS_std.c ****     #endif /* USBFS_ENABLE_STRINGS */
 100:.\Generated_Source\PSoC5/USBFS_std.c ****     static volatile uint8 USBFS_tBuffer[USBFS_STATUS_LENGTH_MAX];
 101:.\Generated_Source\PSoC5/USBFS_std.c ****     const T_USBFS_LUT CYCODE *pTmp;
 102:.\Generated_Source\PSoC5/USBFS_std.c ****     USBFS_currentTD.count = 0u;
  48              		.loc 1 102 0
  49 0012 40F20003 		movw	r3, #:lower16:USBFS_currentTD
  50 0016 C0F20003 		movt	r3, #:upper16:USBFS_currentTD
  51 001a 4FF00002 		mov	r2, #0
  52 001e 1A80     		strh	r2, [r3, #0]	@ movhi
 103:.\Generated_Source\PSoC5/USBFS_std.c **** 
 104:.\Generated_Source\PSoC5/USBFS_std.c ****     if ((CY_GET_REG8(USBFS_bmRequestType) & USBFS_RQST_DIR_MASK) == USBFS_RQST_DIR_D2H)
  53              		.loc 1 104 0
  54 0020 4FF4C043 		mov	r3, #24576
  55 0024 C4F20003 		movt	r3, 16384
  56 0028 1B78     		ldrb	r3, [r3, #0]
  57 002a DBB2     		uxtb	r3, r3
  58 002c DBB2     		uxtb	r3, r3
  59 002e 5BB2     		sxtb	r3, r3
  60 0030 002B     		cmp	r3, #0
  61 0032 80F27D81 		bge	.L2
 105:.\Generated_Source\PSoC5/USBFS_std.c ****     {
 106:.\Generated_Source\PSoC5/USBFS_std.c ****         /* Control Read */
 107:.\Generated_Source\PSoC5/USBFS_std.c ****         switch (CY_GET_REG8(USBFS_bRequest))
  62              		.loc 1 107 0
  63 0036 46F20103 		movw	r3, #24577
  64 003a C4F20003 		movt	r3, 16384
ARM GAS  C:\Users\Robert\AppData\Local\Temp\ccWEb3hA.s 			page 4


  65 003e 1B78     		ldrb	r3, [r3, #0]
  66 0040 DBB2     		uxtb	r3, r3
  67 0042 0A2B     		cmp	r3, #10
  68 0044 00F2C082 		bhi	.L51
  69 0048 01A2     		adr	r2, .L8
  70 004a 52F823F0 		ldr	pc, [r2, r3, lsl #2]
  71 004e 00BF     		.align	2
  72              	.L8:
  73 0050 F5010000 		.word	.L4+1
  74 0054 C9050000 		.word	.L51+1
  75 0058 C9050000 		.word	.L51+1
  76 005c C9050000 		.word	.L51+1
  77 0060 C9050000 		.word	.L51+1
  78 0064 C9050000 		.word	.L51+1
  79 0068 7D000000 		.word	.L5+1
  80 006c C9050000 		.word	.L51+1
  81 0070 CB020000 		.word	.L6+1
  82 0074 C9050000 		.word	.L51+1
  83 0078 F5020000 		.word	.L7+1
  84              	.L5:
 108:.\Generated_Source\PSoC5/USBFS_std.c ****         {
 109:.\Generated_Source\PSoC5/USBFS_std.c ****             case USBFS_GET_DESCRIPTOR:
 110:.\Generated_Source\PSoC5/USBFS_std.c ****                 if (CY_GET_REG8(USBFS_wValueHi) == USBFS_DESCR_DEVICE)
  85              		.loc 1 110 0
  86 007c 46F20303 		movw	r3, #24579
  87 0080 C4F20003 		movt	r3, 16384
  88 0084 1B78     		ldrb	r3, [r3, #0]
  89 0086 DBB2     		uxtb	r3, r3
  90 0088 012B     		cmp	r3, #1
  91 008a 15D1     		bne	.L9
 111:.\Generated_Source\PSoC5/USBFS_std.c ****                 {
 112:.\Generated_Source\PSoC5/USBFS_std.c ****                     pTmp = USBFS_GetDeviceTablePtr();
  92              		.loc 1 112 0
  93 008c FFF7FEFF 		bl	USBFS_GetDeviceTablePtr
  94 0090 B860     		str	r0, [r7, #8]
 113:.\Generated_Source\PSoC5/USBFS_std.c ****                     USBFS_currentTD.pData = (volatile uint8 *)pTmp->p_list;
  95              		.loc 1 113 0
  96 0092 BB68     		ldr	r3, [r7, #8]
  97 0094 5A68     		ldr	r2, [r3, #4]
  98 0096 40F20003 		movw	r3, #:lower16:USBFS_currentTD
  99 009a C0F20003 		movt	r3, #:upper16:USBFS_currentTD
 100 009e 5A60     		str	r2, [r3, #4]
 114:.\Generated_Source\PSoC5/USBFS_std.c ****                     USBFS_currentTD.count = USBFS_DEVICE_DESCR_LENGTH;
 101              		.loc 1 114 0
 102 00a0 40F20003 		movw	r3, #:lower16:USBFS_currentTD
 103 00a4 C0F20003 		movt	r3, #:upper16:USBFS_currentTD
 104 00a8 4FF01202 		mov	r2, #18
 105 00ac 1A80     		strh	r2, [r3, #0]	@ movhi
 115:.\Generated_Source\PSoC5/USBFS_std.c ****                     requestHandled  = USBFS_InitControlRead();
 106              		.loc 1 115 0
 107 00ae FFF7FEFF 		bl	USBFS_InitControlRead
 108 00b2 0346     		mov	r3, r0
 109 00b4 FB75     		strb	r3, [r7, #23]
 116:.\Generated_Source\PSoC5/USBFS_std.c ****                 }
 117:.\Generated_Source\PSoC5/USBFS_std.c ****                 else if (CY_GET_REG8(USBFS_wValueHi) == USBFS_DESCR_CONFIG)
 118:.\Generated_Source\PSoC5/USBFS_std.c ****                 {
 119:.\Generated_Source\PSoC5/USBFS_std.c ****                     pTmp = USBFS_GetConfigTablePtr(CY_GET_REG8(USBFS_wValueLo));
ARM GAS  C:\Users\Robert\AppData\Local\Temp\ccWEb3hA.s 			page 5


 120:.\Generated_Source\PSoC5/USBFS_std.c ****                     USBFS_currentTD.pData = (volatile uint8 *)pTmp->p_list;
 121:.\Generated_Source\PSoC5/USBFS_std.c ****                     USBFS_currentTD.count = ((uint16)(USBFS_currentTD.pData)[ \
 122:.\Generated_Source\PSoC5/USBFS_std.c ****                                       USBFS_CONFIG_DESCR_TOTAL_LENGTH_HI] << 8u) | \
 123:.\Generated_Source\PSoC5/USBFS_std.c ****                                      (USBFS_currentTD.pData)[USBFS_CONFIG_DESCR_TOTAL_LENGTH_LOW];
 124:.\Generated_Source\PSoC5/USBFS_std.c ****                     requestHandled  = USBFS_InitControlRead();
 125:.\Generated_Source\PSoC5/USBFS_std.c ****                 }
 126:.\Generated_Source\PSoC5/USBFS_std.c ****                 #if defined(USBFS_ENABLE_STRINGS)
 127:.\Generated_Source\PSoC5/USBFS_std.c ****                 else if (CY_GET_REG8(USBFS_wValueHi) == USBFS_DESCR_STRING)
 128:.\Generated_Source\PSoC5/USBFS_std.c ****                 {
 129:.\Generated_Source\PSoC5/USBFS_std.c ****                     /* Descriptor Strings*/
 130:.\Generated_Source\PSoC5/USBFS_std.c ****                     #if defined(USBFS_ENABLE_DESCRIPTOR_STRINGS)
 131:.\Generated_Source\PSoC5/USBFS_std.c ****                         nStr = 0u;
 132:.\Generated_Source\PSoC5/USBFS_std.c ****                         pStr = (volatile uint8 *)&USBFS_STRING_DESCRIPTORS[0u];
 133:.\Generated_Source\PSoC5/USBFS_std.c ****                         while ( (CY_GET_REG8(USBFS_wValueLo) > nStr) && (*pStr != 0u) )
 134:.\Generated_Source\PSoC5/USBFS_std.c ****                         {
 135:.\Generated_Source\PSoC5/USBFS_std.c ****                             /* Read descriptor length from 1st byte */
 136:.\Generated_Source\PSoC5/USBFS_std.c ****                             descrLength = *pStr;
 137:.\Generated_Source\PSoC5/USBFS_std.c ****                             /* Move to next string descriptor */
 138:.\Generated_Source\PSoC5/USBFS_std.c ****                             pStr = &pStr[descrLength];
 139:.\Generated_Source\PSoC5/USBFS_std.c ****                             nStr++;
 140:.\Generated_Source\PSoC5/USBFS_std.c ****                         }
 141:.\Generated_Source\PSoC5/USBFS_std.c ****                     #endif /* End USBFS_ENABLE_DESCRIPTOR_STRINGS */
 142:.\Generated_Source\PSoC5/USBFS_std.c ****                     /* Microsoft OS String*/
 143:.\Generated_Source\PSoC5/USBFS_std.c ****                     #if defined(USBFS_ENABLE_MSOS_STRING)
 144:.\Generated_Source\PSoC5/USBFS_std.c ****                         if( CY_GET_REG8(USBFS_wValueLo) == USBFS_STRING_MSOS )
 145:.\Generated_Source\PSoC5/USBFS_std.c ****                         {
 146:.\Generated_Source\PSoC5/USBFS_std.c ****                             pStr = (volatile uint8 *)&USBFS_MSOS_DESCRIPTOR[0u];
 147:.\Generated_Source\PSoC5/USBFS_std.c ****                         }
 148:.\Generated_Source\PSoC5/USBFS_std.c ****                     #endif /* End USBFS_ENABLE_MSOS_STRING*/
 149:.\Generated_Source\PSoC5/USBFS_std.c ****                     /* SN string */
 150:.\Generated_Source\PSoC5/USBFS_std.c ****                     #if defined(USBFS_ENABLE_SN_STRING)
 151:.\Generated_Source\PSoC5/USBFS_std.c ****                         if( (CY_GET_REG8(USBFS_wValueLo) != 0u) &&
 152:.\Generated_Source\PSoC5/USBFS_std.c ****                             (CY_GET_REG8(USBFS_wValueLo) ==
 153:.\Generated_Source\PSoC5/USBFS_std.c ****                             USBFS_DEVICE0_DESCR[USBFS_DEVICE_DESCR_SN_SHIFT]) )
 154:.\Generated_Source\PSoC5/USBFS_std.c ****                         {
 155:.\Generated_Source\PSoC5/USBFS_std.c ****                             pStr = (volatile uint8 *)&USBFS_SN_STRING_DESCRIPTOR[0u];
 156:.\Generated_Source\PSoC5/USBFS_std.c ****                             #if defined(USBFS_ENABLE_FWSN_STRING)
 157:.\Generated_Source\PSoC5/USBFS_std.c ****                                 if(USBFS_snStringConfirm != USBFS_FALSE)
 158:.\Generated_Source\PSoC5/USBFS_std.c ****                                 {
 159:.\Generated_Source\PSoC5/USBFS_std.c ****                                     pStr = USBFS_fwSerialNumberStringDescriptor;
 160:.\Generated_Source\PSoC5/USBFS_std.c ****                                 }
 161:.\Generated_Source\PSoC5/USBFS_std.c ****                             #endif  /* USBFS_ENABLE_FWSN_STRING */
 162:.\Generated_Source\PSoC5/USBFS_std.c ****                             #if defined(USBFS_ENABLE_IDSN_STRING)
 163:.\Generated_Source\PSoC5/USBFS_std.c ****                                 /* Read DIE ID and generate string descriptor in RAM */
 164:.\Generated_Source\PSoC5/USBFS_std.c ****                                 USBFS_ReadDieID(USBFS_idSerialNumberStringDescriptor);
 165:.\Generated_Source\PSoC5/USBFS_std.c ****                                 pStr = USBFS_idSerialNumberStringDescriptor;
 166:.\Generated_Source\PSoC5/USBFS_std.c ****                             #endif    /* End USBFS_ENABLE_IDSN_STRING */
 167:.\Generated_Source\PSoC5/USBFS_std.c ****                         }
 168:.\Generated_Source\PSoC5/USBFS_std.c ****                     #endif    /* End USBFS_ENABLE_SN_STRING */
 169:.\Generated_Source\PSoC5/USBFS_std.c ****                     if (*pStr != 0u)
 170:.\Generated_Source\PSoC5/USBFS_std.c ****                     {
 171:.\Generated_Source\PSoC5/USBFS_std.c ****                         USBFS_currentTD.count = *pStr;
 172:.\Generated_Source\PSoC5/USBFS_std.c ****                         USBFS_currentTD.pData = pStr;
 173:.\Generated_Source\PSoC5/USBFS_std.c ****                         requestHandled  = USBFS_InitControlRead();
 174:.\Generated_Source\PSoC5/USBFS_std.c ****                     }
 175:.\Generated_Source\PSoC5/USBFS_std.c ****                 }
 176:.\Generated_Source\PSoC5/USBFS_std.c ****                 #endif /* End USBFS_ENABLE_STRINGS */
ARM GAS  C:\Users\Robert\AppData\Local\Temp\ccWEb3hA.s 			page 6


 177:.\Generated_Source\PSoC5/USBFS_std.c ****                 else
 178:.\Generated_Source\PSoC5/USBFS_std.c ****                 {
 179:.\Generated_Source\PSoC5/USBFS_std.c ****                     requestHandled = USBFS_DispatchClassRqst();
 180:.\Generated_Source\PSoC5/USBFS_std.c ****                 }
 181:.\Generated_Source\PSoC5/USBFS_std.c ****                 break;
 110              		.loc 1 181 0
 111 00b6 89E2     		b	.L52
 112              	.L9:
 117:.\Generated_Source\PSoC5/USBFS_std.c ****                 else if (CY_GET_REG8(USBFS_wValueHi) == USBFS_DESCR_CONFIG)
 113              		.loc 1 117 0
 114 00b8 46F20303 		movw	r3, #24579
 115 00bc C4F20003 		movt	r3, 16384
 116 00c0 1B78     		ldrb	r3, [r3, #0]
 117 00c2 DBB2     		uxtb	r3, r3
 118 00c4 022B     		cmp	r3, #2
 119 00c6 32D1     		bne	.L11
 119:.\Generated_Source\PSoC5/USBFS_std.c ****                     pTmp = USBFS_GetConfigTablePtr(CY_GET_REG8(USBFS_wValueLo));
 120              		.loc 1 119 0
 121 00c8 46F20203 		movw	r3, #24578
 122 00cc C4F20003 		movt	r3, 16384
 123 00d0 1B78     		ldrb	r3, [r3, #0]
 124 00d2 DBB2     		uxtb	r3, r3
 125 00d4 1846     		mov	r0, r3
 126 00d6 FFF7FEFF 		bl	USBFS_GetConfigTablePtr
 127 00da B860     		str	r0, [r7, #8]
 120:.\Generated_Source\PSoC5/USBFS_std.c ****                     USBFS_currentTD.pData = (volatile uint8 *)pTmp->p_list;
 128              		.loc 1 120 0
 129 00dc BB68     		ldr	r3, [r7, #8]
 130 00de 5A68     		ldr	r2, [r3, #4]
 131 00e0 40F20003 		movw	r3, #:lower16:USBFS_currentTD
 132 00e4 C0F20003 		movt	r3, #:upper16:USBFS_currentTD
 133 00e8 5A60     		str	r2, [r3, #4]
 121:.\Generated_Source\PSoC5/USBFS_std.c ****                     USBFS_currentTD.count = ((uint16)(USBFS_currentTD.pData)[ \
 134              		.loc 1 121 0
 135 00ea 40F20003 		movw	r3, #:lower16:USBFS_currentTD
 136 00ee C0F20003 		movt	r3, #:upper16:USBFS_currentTD
 137 00f2 5B68     		ldr	r3, [r3, #4]
 138 00f4 03F10303 		add	r3, r3, #3
 139 00f8 1B78     		ldrb	r3, [r3, #0]
 140 00fa DBB2     		uxtb	r3, r3
 122:.\Generated_Source\PSoC5/USBFS_std.c ****                                       USBFS_CONFIG_DESCR_TOTAL_LENGTH_HI] << 8u) | \
 141              		.loc 1 122 0
 142 00fc 4FEA0323 		lsl	r3, r3, #8
 121:.\Generated_Source\PSoC5/USBFS_std.c ****                     USBFS_currentTD.count = ((uint16)(USBFS_currentTD.pData)[ \
 143              		.loc 1 121 0
 144 0100 9AB2     		uxth	r2, r3
 123:.\Generated_Source\PSoC5/USBFS_std.c ****                                      (USBFS_currentTD.pData)[USBFS_CONFIG_DESCR_TOTAL_LENGTH_LOW];
 145              		.loc 1 123 0
 146 0102 40F20003 		movw	r3, #:lower16:USBFS_currentTD
 147 0106 C0F20003 		movt	r3, #:upper16:USBFS_currentTD
 148 010a 5B68     		ldr	r3, [r3, #4]
 149 010c 03F10203 		add	r3, r3, #2
 150 0110 1B78     		ldrb	r3, [r3, #0]
 151 0112 DBB2     		uxtb	r3, r3
 121:.\Generated_Source\PSoC5/USBFS_std.c ****                     USBFS_currentTD.count = ((uint16)(USBFS_currentTD.pData)[ \
 152              		.loc 1 121 0
 153 0114 1343     		orrs	r3, r3, r2
ARM GAS  C:\Users\Robert\AppData\Local\Temp\ccWEb3hA.s 			page 7


 154 0116 9BB2     		uxth	r3, r3
 155 0118 9AB2     		uxth	r2, r3
 156 011a 40F20003 		movw	r3, #:lower16:USBFS_currentTD
 157 011e C0F20003 		movt	r3, #:upper16:USBFS_currentTD
 158 0122 1A80     		strh	r2, [r3, #0]	@ movhi
 124:.\Generated_Source\PSoC5/USBFS_std.c ****                     requestHandled  = USBFS_InitControlRead();
 159              		.loc 1 124 0
 160 0124 FFF7FEFF 		bl	USBFS_InitControlRead
 161 0128 0346     		mov	r3, r0
 162 012a FB75     		strb	r3, [r7, #23]
 163              		.loc 1 181 0
 164 012c 4EE2     		b	.L52
 165              	.L11:
 127:.\Generated_Source\PSoC5/USBFS_std.c ****                 else if (CY_GET_REG8(USBFS_wValueHi) == USBFS_DESCR_STRING)
 166              		.loc 1 127 0
 167 012e 46F20303 		movw	r3, #24579
 168 0132 C4F20003 		movt	r3, 16384
 169 0136 1B78     		ldrb	r3, [r3, #0]
 170 0138 DBB2     		uxtb	r3, r3
 171 013a 032B     		cmp	r3, #3
 172 013c 55D1     		bne	.L12
 131:.\Generated_Source\PSoC5/USBFS_std.c ****                         nStr = 0u;
 173              		.loc 1 131 0
 174 013e 4FF00003 		mov	r3, #0
 175 0142 FB73     		strb	r3, [r7, #15]
 132:.\Generated_Source\PSoC5/USBFS_std.c ****                         pStr = (volatile uint8 *)&USBFS_STRING_DESCRIPTORS[0u];
 176              		.loc 1 132 0
 177 0144 40F20003 		movw	r3, #:lower16:USBFS_STRING_DESCRIPTORS
 178 0148 C0F20003 		movt	r3, #:upper16:USBFS_STRING_DESCRIPTORS
 179 014c 3B61     		str	r3, [r7, #16]
 133:.\Generated_Source\PSoC5/USBFS_std.c ****                         while ( (CY_GET_REG8(USBFS_wValueLo) > nStr) && (*pStr != 0u) )
 180              		.loc 1 133 0
 181 014e 0AE0     		b	.L13
 182              	.L15:
 136:.\Generated_Source\PSoC5/USBFS_std.c ****                             descrLength = *pStr;
 183              		.loc 1 136 0
 184 0150 3B69     		ldr	r3, [r7, #16]
 185 0152 1B78     		ldrb	r3, [r3, #0]
 186 0154 FB71     		strb	r3, [r7, #7]
 138:.\Generated_Source\PSoC5/USBFS_std.c ****                             pStr = &pStr[descrLength];
 187              		.loc 1 138 0
 188 0156 FB79     		ldrb	r3, [r7, #7]	@ zero_extendqisi2
 189 0158 3A69     		ldr	r2, [r7, #16]
 190 015a D318     		adds	r3, r2, r3
 191 015c 3B61     		str	r3, [r7, #16]
 139:.\Generated_Source\PSoC5/USBFS_std.c ****                             nStr++;
 192              		.loc 1 139 0
 193 015e FB7B     		ldrb	r3, [r7, #15]
 194 0160 03F10103 		add	r3, r3, #1
 195 0164 FB73     		strb	r3, [r7, #15]
 196              	.L13:
 133:.\Generated_Source\PSoC5/USBFS_std.c ****                         while ( (CY_GET_REG8(USBFS_wValueLo) > nStr) && (*pStr != 0u) )
 197              		.loc 1 133 0 discriminator 1
 198 0166 46F20203 		movw	r3, #24578
 199 016a C4F20003 		movt	r3, 16384
 200 016e 1B78     		ldrb	r3, [r3, #0]
 201 0170 DBB2     		uxtb	r3, r3
ARM GAS  C:\Users\Robert\AppData\Local\Temp\ccWEb3hA.s 			page 8


 202 0172 FA7B     		ldrb	r2, [r7, #15]	@ zero_extendqisi2
 203 0174 9A42     		cmp	r2, r3
 204 0176 04D2     		bcs	.L14
 133:.\Generated_Source\PSoC5/USBFS_std.c ****                         while ( (CY_GET_REG8(USBFS_wValueLo) > nStr) && (*pStr != 0u) )
 205              		.loc 1 133 0 is_stmt 0 discriminator 2
 206 0178 3B69     		ldr	r3, [r7, #16]
 207 017a 1B78     		ldrb	r3, [r3, #0]
 208 017c DBB2     		uxtb	r3, r3
 209 017e 002B     		cmp	r3, #0
 210 0180 E6D1     		bne	.L15
 211              	.L14:
 151:.\Generated_Source\PSoC5/USBFS_std.c ****                         if( (CY_GET_REG8(USBFS_wValueLo) != 0u) &&
 212              		.loc 1 151 0 is_stmt 1
 213 0182 46F20203 		movw	r3, #24578
 214 0186 C4F20003 		movt	r3, 16384
 215 018a 1B78     		ldrb	r3, [r3, #0]
 216 018c DBB2     		uxtb	r3, r3
 217 018e 002B     		cmp	r3, #0
 218 0190 11D0     		beq	.L16
 152:.\Generated_Source\PSoC5/USBFS_std.c ****                             (CY_GET_REG8(USBFS_wValueLo) ==
 219              		.loc 1 152 0 discriminator 1
 220 0192 46F20203 		movw	r3, #24578
 221 0196 C4F20003 		movt	r3, 16384
 222 019a 1B78     		ldrb	r3, [r3, #0]
 223 019c DAB2     		uxtb	r2, r3
 153:.\Generated_Source\PSoC5/USBFS_std.c ****                             USBFS_DEVICE0_DESCR[USBFS_DEVICE_DESCR_SN_SHIFT]) )
 224              		.loc 1 153 0 discriminator 1
 225 019e 40F20003 		movw	r3, #:lower16:USBFS_DEVICE0_DESCR
 226 01a2 C0F20003 		movt	r3, #:upper16:USBFS_DEVICE0_DESCR
 227 01a6 1B7C     		ldrb	r3, [r3, #16]	@ zero_extendqisi2
 151:.\Generated_Source\PSoC5/USBFS_std.c ****                         if( (CY_GET_REG8(USBFS_wValueLo) != 0u) &&
 228              		.loc 1 151 0 discriminator 1
 229 01a8 9A42     		cmp	r2, r3
 230 01aa 04D1     		bne	.L16
 155:.\Generated_Source\PSoC5/USBFS_std.c ****                             pStr = (volatile uint8 *)&USBFS_SN_STRING_DESCRIPTOR[0u];
 231              		.loc 1 155 0
 232 01ac 40F20003 		movw	r3, #:lower16:USBFS_SN_STRING_DESCRIPTOR
 233 01b0 C0F20003 		movt	r3, #:upper16:USBFS_SN_STRING_DESCRIPTOR
 234 01b4 3B61     		str	r3, [r7, #16]
 235              	.L16:
 169:.\Generated_Source\PSoC5/USBFS_std.c ****                     if (*pStr != 0u)
 236              		.loc 1 169 0
 237 01b6 3B69     		ldr	r3, [r7, #16]
 238 01b8 1B78     		ldrb	r3, [r3, #0]
 239 01ba DBB2     		uxtb	r3, r3
 240 01bc 002B     		cmp	r3, #0
 241 01be 00F00582 		beq	.L52
 171:.\Generated_Source\PSoC5/USBFS_std.c ****                         USBFS_currentTD.count = *pStr;
 242              		.loc 1 171 0
 243 01c2 3B69     		ldr	r3, [r7, #16]
 244 01c4 1B78     		ldrb	r3, [r3, #0]
 245 01c6 DBB2     		uxtb	r3, r3
 246 01c8 1A46     		mov	r2, r3
 247 01ca 40F20003 		movw	r3, #:lower16:USBFS_currentTD
 248 01ce C0F20003 		movt	r3, #:upper16:USBFS_currentTD
 249 01d2 1A80     		strh	r2, [r3, #0]	@ movhi
 172:.\Generated_Source\PSoC5/USBFS_std.c ****                         USBFS_currentTD.pData = pStr;
ARM GAS  C:\Users\Robert\AppData\Local\Temp\ccWEb3hA.s 			page 9


 250              		.loc 1 172 0
 251 01d4 40F20003 		movw	r3, #:lower16:USBFS_currentTD
 252 01d8 C0F20003 		movt	r3, #:upper16:USBFS_currentTD
 253 01dc 3A69     		ldr	r2, [r7, #16]
 254 01de 5A60     		str	r2, [r3, #4]
 173:.\Generated_Source\PSoC5/USBFS_std.c ****                         requestHandled  = USBFS_InitControlRead();
 255              		.loc 1 173 0
 256 01e0 FFF7FEFF 		bl	USBFS_InitControlRead
 257 01e4 0346     		mov	r3, r0
 258 01e6 FB75     		strb	r3, [r7, #23]
 259              		.loc 1 181 0
 260 01e8 F0E1     		b	.L52
 261              	.L12:
 179:.\Generated_Source\PSoC5/USBFS_std.c ****                     requestHandled = USBFS_DispatchClassRqst();
 262              		.loc 1 179 0
 263 01ea FFF7FEFF 		bl	USBFS_DispatchClassRqst
 264 01ee 0346     		mov	r3, r0
 265 01f0 FB75     		strb	r3, [r7, #23]
 266              		.loc 1 181 0
 267 01f2 EBE1     		b	.L52
 268              	.L4:
 182:.\Generated_Source\PSoC5/USBFS_std.c ****             case USBFS_GET_STATUS:
 183:.\Generated_Source\PSoC5/USBFS_std.c ****                 switch ((CY_GET_REG8(USBFS_bmRequestType) & USBFS_RQST_RCPT_MASK))
 269              		.loc 1 183 0
 270 01f4 4FF4C043 		mov	r3, #24576
 271 01f8 C4F20003 		movt	r3, 16384
 272 01fc 1B78     		ldrb	r3, [r3, #0]
 273 01fe DBB2     		uxtb	r3, r3
 274 0200 03F00303 		and	r3, r3, #3
 275 0204 002B     		cmp	r3, #0
 276 0206 37D0     		beq	.L19
 277 0208 022B     		cmp	r3, #2
 278 020a 5CD1     		bne	.L48
 279              	.L20:
 184:.\Generated_Source\PSoC5/USBFS_std.c ****                 {
 185:.\Generated_Source\PSoC5/USBFS_std.c ****                     case USBFS_RQST_RCPT_EP:
 186:.\Generated_Source\PSoC5/USBFS_std.c ****                         USBFS_currentTD.count = USBFS_EP_STATUS_LENGTH;
 280              		.loc 1 186 0
 281 020c 40F20003 		movw	r3, #:lower16:USBFS_currentTD
 282 0210 C0F20003 		movt	r3, #:upper16:USBFS_currentTD
 283 0214 4FF00202 		mov	r2, #2
 284 0218 1A80     		strh	r2, [r3, #0]	@ movhi
 187:.\Generated_Source\PSoC5/USBFS_std.c ****                         USBFS_tBuffer[0u] = USBFS_EP[ \
 188:.\Generated_Source\PSoC5/USBFS_std.c ****                                         CY_GET_REG8(USBFS_wIndexLo) & USBFS_DIR_UNUSED].hwEpState;
 285              		.loc 1 188 0
 286 021a 46F20403 		movw	r3, #24580
 287 021e C4F20003 		movt	r3, 16384
 288 0222 1B78     		ldrb	r3, [r3, #0]
 289 0224 DBB2     		uxtb	r3, r3
 290 0226 03F07F01 		and	r1, r3, #127
 291 022a 40F20002 		movw	r2, #:lower16:USBFS_EP
 292 022e C0F20002 		movt	r2, #:upper16:USBFS_EP
 293 0232 0B46     		mov	r3, r1
 294 0234 4FEA4303 		lsl	r3, r3, #1
 295 0238 5B18     		adds	r3, r3, r1
 296 023a 4FEA8303 		lsl	r3, r3, #2
 297 023e D318     		adds	r3, r2, r3
ARM GAS  C:\Users\Robert\AppData\Local\Temp\ccWEb3hA.s 			page 10


 298 0240 9B78     		ldrb	r3, [r3, #2]
 299 0242 DAB2     		uxtb	r2, r3
 187:.\Generated_Source\PSoC5/USBFS_std.c ****                         USBFS_tBuffer[0u] = USBFS_EP[ \
 300              		.loc 1 187 0
 301 0244 40F20003 		movw	r3, #:lower16:USBFS_tBuffer.5004
 302 0248 C0F20003 		movt	r3, #:upper16:USBFS_tBuffer.5004
 303 024c 1A70     		strb	r2, [r3, #0]
 189:.\Generated_Source\PSoC5/USBFS_std.c ****                         USBFS_tBuffer[1u] = 0u;
 304              		.loc 1 189 0
 305 024e 40F20003 		movw	r3, #:lower16:USBFS_tBuffer.5004
 306 0252 C0F20003 		movt	r3, #:upper16:USBFS_tBuffer.5004
 307 0256 4FF00002 		mov	r2, #0
 308 025a 5A70     		strb	r2, [r3, #1]
 190:.\Generated_Source\PSoC5/USBFS_std.c ****                         USBFS_currentTD.pData = &USBFS_tBuffer[0u];
 309              		.loc 1 190 0
 310 025c 40F20003 		movw	r3, #:lower16:USBFS_currentTD
 311 0260 C0F20003 		movt	r3, #:upper16:USBFS_currentTD
 312 0264 40F20002 		movw	r2, #:lower16:USBFS_tBuffer.5004
 313 0268 C0F20002 		movt	r2, #:upper16:USBFS_tBuffer.5004
 314 026c 5A60     		str	r2, [r3, #4]
 191:.\Generated_Source\PSoC5/USBFS_std.c ****                         requestHandled  = USBFS_InitControlRead();
 315              		.loc 1 191 0
 316 026e FFF7FEFF 		bl	USBFS_InitControlRead
 317 0272 0346     		mov	r3, r0
 318 0274 FB75     		strb	r3, [r7, #23]
 192:.\Generated_Source\PSoC5/USBFS_std.c ****                         break;
 319              		.loc 1 192 0
 320 0276 27E0     		b	.L21
 321              	.L19:
 193:.\Generated_Source\PSoC5/USBFS_std.c ****                     case USBFS_RQST_RCPT_DEV:
 194:.\Generated_Source\PSoC5/USBFS_std.c ****                         USBFS_currentTD.count = USBFS_DEVICE_STATUS_LENGTH;
 322              		.loc 1 194 0
 323 0278 40F20003 		movw	r3, #:lower16:USBFS_currentTD
 324 027c C0F20003 		movt	r3, #:upper16:USBFS_currentTD
 325 0280 4FF00202 		mov	r2, #2
 326 0284 1A80     		strh	r2, [r3, #0]	@ movhi
 195:.\Generated_Source\PSoC5/USBFS_std.c ****                         USBFS_tBuffer[0u] = USBFS_deviceStatus;
 327              		.loc 1 195 0
 328 0286 40F20003 		movw	r3, #:lower16:USBFS_deviceStatus
 329 028a C0F20003 		movt	r3, #:upper16:USBFS_deviceStatus
 330 028e 1B78     		ldrb	r3, [r3, #0]
 331 0290 DAB2     		uxtb	r2, r3
 332 0292 40F20003 		movw	r3, #:lower16:USBFS_tBuffer.5004
 333 0296 C0F20003 		movt	r3, #:upper16:USBFS_tBuffer.5004
 334 029a 1A70     		strb	r2, [r3, #0]
 196:.\Generated_Source\PSoC5/USBFS_std.c ****                         USBFS_tBuffer[1u] = 0u;
 335              		.loc 1 196 0
 336 029c 40F20003 		movw	r3, #:lower16:USBFS_tBuffer.5004
 337 02a0 C0F20003 		movt	r3, #:upper16:USBFS_tBuffer.5004
 338 02a4 4FF00002 		mov	r2, #0
 339 02a8 5A70     		strb	r2, [r3, #1]
 197:.\Generated_Source\PSoC5/USBFS_std.c ****                         USBFS_currentTD.pData = &USBFS_tBuffer[0u];
 340              		.loc 1 197 0
 341 02aa 40F20003 		movw	r3, #:lower16:USBFS_currentTD
 342 02ae C0F20003 		movt	r3, #:upper16:USBFS_currentTD
 343 02b2 40F20002 		movw	r2, #:lower16:USBFS_tBuffer.5004
 344 02b6 C0F20002 		movt	r2, #:upper16:USBFS_tBuffer.5004
ARM GAS  C:\Users\Robert\AppData\Local\Temp\ccWEb3hA.s 			page 11


 345 02ba 5A60     		str	r2, [r3, #4]
 198:.\Generated_Source\PSoC5/USBFS_std.c ****                         requestHandled  = USBFS_InitControlRead();
 346              		.loc 1 198 0
 347 02bc FFF7FEFF 		bl	USBFS_InitControlRead
 348 02c0 0346     		mov	r3, r0
 349 02c2 FB75     		strb	r3, [r7, #23]
 199:.\Generated_Source\PSoC5/USBFS_std.c ****                         break;
 350              		.loc 1 199 0
 351 02c4 00E0     		b	.L21
 352              	.L48:
 200:.\Generated_Source\PSoC5/USBFS_std.c ****                     default:    /* requestHandled is initialized as FALSE by default */
 201:.\Generated_Source\PSoC5/USBFS_std.c ****                         break;
 353              		.loc 1 201 0
 354 02c6 00BF     		nop
 355              	.L21:
 202:.\Generated_Source\PSoC5/USBFS_std.c ****                 }
 203:.\Generated_Source\PSoC5/USBFS_std.c ****                 break;
 356              		.loc 1 203 0
 357 02c8 85E1     		b	.L22
 358              	.L6:
 204:.\Generated_Source\PSoC5/USBFS_std.c ****             case USBFS_GET_CONFIGURATION:
 205:.\Generated_Source\PSoC5/USBFS_std.c ****                 USBFS_currentTD.count = 1u;
 359              		.loc 1 205 0
 360 02ca 40F20003 		movw	r3, #:lower16:USBFS_currentTD
 361 02ce C0F20003 		movt	r3, #:upper16:USBFS_currentTD
 362 02d2 4FF00102 		mov	r2, #1
 363 02d6 1A80     		strh	r2, [r3, #0]	@ movhi
 206:.\Generated_Source\PSoC5/USBFS_std.c ****                 USBFS_currentTD.pData = (volatile uint8 *)&USBFS_configuration;
 364              		.loc 1 206 0
 365 02d8 40F20003 		movw	r3, #:lower16:USBFS_currentTD
 366 02dc C0F20003 		movt	r3, #:upper16:USBFS_currentTD
 367 02e0 40F20002 		movw	r2, #:lower16:USBFS_configuration
 368 02e4 C0F20002 		movt	r2, #:upper16:USBFS_configuration
 369 02e8 5A60     		str	r2, [r3, #4]
 207:.\Generated_Source\PSoC5/USBFS_std.c ****                 requestHandled  = USBFS_InitControlRead();
 370              		.loc 1 207 0
 371 02ea FFF7FEFF 		bl	USBFS_InitControlRead
 372 02ee 0346     		mov	r3, r0
 373 02f0 FB75     		strb	r3, [r7, #23]
 208:.\Generated_Source\PSoC5/USBFS_std.c ****                 break;
 374              		.loc 1 208 0
 375 02f2 70E1     		b	.L22
 376              	.L7:
 209:.\Generated_Source\PSoC5/USBFS_std.c ****             case USBFS_GET_INTERFACE:
 210:.\Generated_Source\PSoC5/USBFS_std.c ****                 USBFS_currentTD.count = 1u;
 377              		.loc 1 210 0
 378 02f4 40F20003 		movw	r3, #:lower16:USBFS_currentTD
 379 02f8 C0F20003 		movt	r3, #:upper16:USBFS_currentTD
 380 02fc 4FF00102 		mov	r2, #1
 381 0300 1A80     		strh	r2, [r3, #0]	@ movhi
 211:.\Generated_Source\PSoC5/USBFS_std.c ****                 USBFS_currentTD.pData = (volatile uint8 *)&USBFS_interfaceSetting[ \
 212:.\Generated_Source\PSoC5/USBFS_std.c ****                                                                             CY_GET_REG8(USBFS_wInde
 382              		.loc 1 212 0
 383 0302 46F20403 		movw	r3, #24580
 384 0306 C4F20003 		movt	r3, 16384
 385 030a 1B78     		ldrb	r3, [r3, #0]
 386 030c DBB2     		uxtb	r3, r3
ARM GAS  C:\Users\Robert\AppData\Local\Temp\ccWEb3hA.s 			page 12


 211:.\Generated_Source\PSoC5/USBFS_std.c ****                 USBFS_currentTD.pData = (volatile uint8 *)&USBFS_interfaceSetting[ \
 387              		.loc 1 211 0
 388 030e 1A46     		mov	r2, r3
 389 0310 40F20003 		movw	r3, #:lower16:USBFS_interfaceSetting
 390 0314 C0F20003 		movt	r3, #:upper16:USBFS_interfaceSetting
 391 0318 D218     		adds	r2, r2, r3
 392 031a 40F20003 		movw	r3, #:lower16:USBFS_currentTD
 393 031e C0F20003 		movt	r3, #:upper16:USBFS_currentTD
 394 0322 5A60     		str	r2, [r3, #4]
 213:.\Generated_Source\PSoC5/USBFS_std.c ****                 requestHandled  = USBFS_InitControlRead();
 395              		.loc 1 213 0
 396 0324 FFF7FEFF 		bl	USBFS_InitControlRead
 397 0328 0346     		mov	r3, r0
 398 032a FB75     		strb	r3, [r7, #23]
 214:.\Generated_Source\PSoC5/USBFS_std.c ****                 break;
 399              		.loc 1 214 0
 400 032c 00BF     		nop
 401 032e 52E1     		b	.L22
 402              	.L2:
 215:.\Generated_Source\PSoC5/USBFS_std.c ****             default: /* requestHandled is initialized as FALSE by default */
 216:.\Generated_Source\PSoC5/USBFS_std.c ****                 break;
 217:.\Generated_Source\PSoC5/USBFS_std.c ****         }
 218:.\Generated_Source\PSoC5/USBFS_std.c ****     }
 219:.\Generated_Source\PSoC5/USBFS_std.c ****     else {
 220:.\Generated_Source\PSoC5/USBFS_std.c ****         /* Control Write */
 221:.\Generated_Source\PSoC5/USBFS_std.c ****         switch (CY_GET_REG8(USBFS_bRequest))
 403              		.loc 1 221 0
 404 0330 46F20103 		movw	r3, #24577
 405 0334 C4F20003 		movt	r3, 16384
 406 0338 1B78     		ldrb	r3, [r3, #0]
 407 033a DBB2     		uxtb	r3, r3
 408 033c 03F1FF33 		add	r3, r3, #-1
 409 0340 0A2B     		cmp	r3, #10
 410 0342 00F24581 		bhi	.L53
 411 0346 01A2     		adr	r2, .L29
 412 0348 52F823F0 		ldr	pc, [r2, r3, lsl #2]
 413              		.align	2
 414              	.L29:
 415 034c 29040000 		.word	.L24+1
 416 0350 D1050000 		.word	.L53+1
 417 0354 F9040000 		.word	.L25+1
 418 0358 D1050000 		.word	.L53+1
 419 035c 79030000 		.word	.L26+1
 420 0360 D1050000 		.word	.L53+1
 421 0364 D1050000 		.word	.L53+1
 422 0368 D1050000 		.word	.L53+1
 423 036c 99030000 		.word	.L27+1
 424 0370 D1050000 		.word	.L53+1
 425 0374 CF030000 		.word	.L28+1
 426              	.L26:
 222:.\Generated_Source\PSoC5/USBFS_std.c ****         {
 223:.\Generated_Source\PSoC5/USBFS_std.c ****             case USBFS_SET_ADDRESS:
 224:.\Generated_Source\PSoC5/USBFS_std.c ****                 USBFS_deviceAddress = CY_GET_REG8(USBFS_wValueLo);
 427              		.loc 1 224 0
 428 0378 46F20203 		movw	r3, #24578
 429 037c C4F20003 		movt	r3, 16384
 430 0380 1B78     		ldrb	r3, [r3, #0]
ARM GAS  C:\Users\Robert\AppData\Local\Temp\ccWEb3hA.s 			page 13


 431 0382 DAB2     		uxtb	r2, r3
 432 0384 40F20003 		movw	r3, #:lower16:USBFS_deviceAddress
 433 0388 C0F20003 		movt	r3, #:upper16:USBFS_deviceAddress
 434 038c 1A70     		strb	r2, [r3, #0]
 225:.\Generated_Source\PSoC5/USBFS_std.c ****                 requestHandled = USBFS_InitNoDataControlTransfer();
 435              		.loc 1 225 0
 436 038e FFF7FEFF 		bl	USBFS_InitNoDataControlTransfer
 437 0392 0346     		mov	r3, r0
 438 0394 FB75     		strb	r3, [r7, #23]
 226:.\Generated_Source\PSoC5/USBFS_std.c ****                 break;
 439              		.loc 1 226 0
 440 0396 1EE1     		b	.L22
 441              	.L27:
 227:.\Generated_Source\PSoC5/USBFS_std.c ****             case USBFS_SET_CONFIGURATION:
 228:.\Generated_Source\PSoC5/USBFS_std.c ****                 USBFS_configuration = CY_GET_REG8(USBFS_wValueLo);
 442              		.loc 1 228 0
 443 0398 46F20203 		movw	r3, #24578
 444 039c C4F20003 		movt	r3, 16384
 445 03a0 1B78     		ldrb	r3, [r3, #0]
 446 03a2 DAB2     		uxtb	r2, r3
 447 03a4 40F20003 		movw	r3, #:lower16:USBFS_configuration
 448 03a8 C0F20003 		movt	r3, #:upper16:USBFS_configuration
 449 03ac 1A70     		strb	r2, [r3, #0]
 229:.\Generated_Source\PSoC5/USBFS_std.c ****                 USBFS_configurationChanged = USBFS_TRUE;
 450              		.loc 1 229 0
 451 03ae 40F20003 		movw	r3, #:lower16:USBFS_configurationChanged
 452 03b2 C0F20003 		movt	r3, #:upper16:USBFS_configurationChanged
 453 03b6 4FF00102 		mov	r2, #1
 454 03ba 1A70     		strb	r2, [r3, #0]
 230:.\Generated_Source\PSoC5/USBFS_std.c ****                 USBFS_Config(USBFS_TRUE);
 455              		.loc 1 230 0
 456 03bc 4FF00100 		mov	r0, #1
 457 03c0 FFF7FEFF 		bl	USBFS_Config
 231:.\Generated_Source\PSoC5/USBFS_std.c ****                 requestHandled = USBFS_InitNoDataControlTransfer();
 458              		.loc 1 231 0
 459 03c4 FFF7FEFF 		bl	USBFS_InitNoDataControlTransfer
 460 03c8 0346     		mov	r3, r0
 461 03ca FB75     		strb	r3, [r7, #23]
 232:.\Generated_Source\PSoC5/USBFS_std.c ****                 break;
 462              		.loc 1 232 0
 463 03cc 03E1     		b	.L22
 464              	.L28:
 233:.\Generated_Source\PSoC5/USBFS_std.c ****             case USBFS_SET_INTERFACE:
 234:.\Generated_Source\PSoC5/USBFS_std.c ****                 if (USBFS_ValidateAlternateSetting() != 0u)
 465              		.loc 1 234 0
 466 03ce FFF7FEFF 		bl	USBFS_ValidateAlternateSetting
 467 03d2 0346     		mov	r3, r0
 468 03d4 002B     		cmp	r3, #0
 469 03d6 00F0FD80 		beq	.L54
 235:.\Generated_Source\PSoC5/USBFS_std.c ****                 {
 236:.\Generated_Source\PSoC5/USBFS_std.c ****                     interfaceNumber = CY_GET_REG8(USBFS_wIndexLo);
 470              		.loc 1 236 0
 471 03da 46F20403 		movw	r3, #24580
 472 03de C4F20003 		movt	r3, 16384
 473 03e2 1B78     		ldrb	r3, [r3, #0]
 474 03e4 BB71     		strb	r3, [r7, #6]
 237:.\Generated_Source\PSoC5/USBFS_std.c ****                     USBFS_interfaceNumber = interfaceNumber;
ARM GAS  C:\Users\Robert\AppData\Local\Temp\ccWEb3hA.s 			page 14


 475              		.loc 1 237 0
 476 03e6 40F20003 		movw	r3, #:lower16:USBFS_interfaceNumber
 477 03ea C0F20003 		movt	r3, #:upper16:USBFS_interfaceNumber
 478 03ee BA79     		ldrb	r2, [r7, #6]
 479 03f0 1A70     		strb	r2, [r3, #0]
 238:.\Generated_Source\PSoC5/USBFS_std.c ****                     USBFS_configurationChanged = USBFS_TRUE;
 480              		.loc 1 238 0
 481 03f2 40F20003 		movw	r3, #:lower16:USBFS_configurationChanged
 482 03f6 C0F20003 		movt	r3, #:upper16:USBFS_configurationChanged
 483 03fa 4FF00102 		mov	r2, #1
 484 03fe 1A70     		strb	r2, [r3, #0]
 239:.\Generated_Source\PSoC5/USBFS_std.c ****                     #if ((USBFS_EP_MA == USBFS__MA_DYNAMIC) && \
 240:.\Generated_Source\PSoC5/USBFS_std.c ****                          (USBFS_EP_MM == USBFS__EP_MANUAL) )
 241:.\Generated_Source\PSoC5/USBFS_std.c ****                         USBFS_Config(USBFS_FALSE);
 242:.\Generated_Source\PSoC5/USBFS_std.c ****                     #else
 243:.\Generated_Source\PSoC5/USBFS_std.c ****                         USBFS_ConfigAltChanged();
 485              		.loc 1 243 0
 486 0400 FFF7FEFF 		bl	USBFS_ConfigAltChanged
 244:.\Generated_Source\PSoC5/USBFS_std.c ****                     #endif /* End (USBFS_EP_MA == USBFS__MA_DYNAMIC) */
 245:.\Generated_Source\PSoC5/USBFS_std.c ****                     /* Update handled Alt setting changes status */
 246:.\Generated_Source\PSoC5/USBFS_std.c ****                     USBFS_interfaceSetting_last[interfaceNumber] =
 487              		.loc 1 246 0
 488 0404 BA79     		ldrb	r2, [r7, #6]	@ zero_extendqisi2
 247:.\Generated_Source\PSoC5/USBFS_std.c ****                          USBFS_interfaceSetting[interfaceNumber];
 489              		.loc 1 247 0
 490 0406 B979     		ldrb	r1, [r7, #6]	@ zero_extendqisi2
 491 0408 40F20003 		movw	r3, #:lower16:USBFS_interfaceSetting
 492 040c C0F20003 		movt	r3, #:upper16:USBFS_interfaceSetting
 493 0410 5B5C     		ldrb	r3, [r3, r1]
 494 0412 D9B2     		uxtb	r1, r3
 246:.\Generated_Source\PSoC5/USBFS_std.c ****                     USBFS_interfaceSetting_last[interfaceNumber] =
 495              		.loc 1 246 0
 496 0414 40F20003 		movw	r3, #:lower16:USBFS_interfaceSetting_last
 497 0418 C0F20003 		movt	r3, #:upper16:USBFS_interfaceSetting_last
 498 041c 9954     		strb	r1, [r3, r2]
 248:.\Generated_Source\PSoC5/USBFS_std.c ****                     requestHandled = USBFS_InitNoDataControlTransfer();
 499              		.loc 1 248 0
 500 041e FFF7FEFF 		bl	USBFS_InitNoDataControlTransfer
 501 0422 0346     		mov	r3, r0
 502 0424 FB75     		strb	r3, [r7, #23]
 249:.\Generated_Source\PSoC5/USBFS_std.c ****                 }
 250:.\Generated_Source\PSoC5/USBFS_std.c ****                 break;
 503              		.loc 1 250 0
 504 0426 D5E0     		b	.L54
 505              	.L24:
 251:.\Generated_Source\PSoC5/USBFS_std.c ****             case USBFS_CLEAR_FEATURE:
 252:.\Generated_Source\PSoC5/USBFS_std.c ****                 switch (CY_GET_REG8(USBFS_bmRequestType) & USBFS_RQST_RCPT_MASK)
 506              		.loc 1 252 0
 507 0428 4FF4C043 		mov	r3, #24576
 508 042c C4F20003 		movt	r3, 16384
 509 0430 1B78     		ldrb	r3, [r3, #0]
 510 0432 DBB2     		uxtb	r3, r3
 511 0434 03F00303 		and	r3, r3, #3
 512 0438 012B     		cmp	r3, #1
 513 043a 2BD0     		beq	.L33
 514 043c 012B     		cmp	r3, #1
 515 043e 0ED3     		bcc	.L32
ARM GAS  C:\Users\Robert\AppData\Local\Temp\ccWEb3hA.s 			page 15


 516 0440 022B     		cmp	r3, #2
 517 0442 52D1     		bne	.L49
 518              	.L34:
 253:.\Generated_Source\PSoC5/USBFS_std.c ****                 {
 254:.\Generated_Source\PSoC5/USBFS_std.c ****                     case USBFS_RQST_RCPT_EP:
 255:.\Generated_Source\PSoC5/USBFS_std.c ****                         if (CY_GET_REG8(USBFS_wValueLo) == USBFS_ENDPOINT_HALT)
 519              		.loc 1 255 0
 520 0444 46F20203 		movw	r3, #24578
 521 0448 C4F20003 		movt	r3, 16384
 522 044c 1B78     		ldrb	r3, [r3, #0]
 523 044e DBB2     		uxtb	r3, r3
 524 0450 002B     		cmp	r3, #0
 525 0452 4BD1     		bne	.L55
 256:.\Generated_Source\PSoC5/USBFS_std.c ****                         {
 257:.\Generated_Source\PSoC5/USBFS_std.c ****                             requestHandled = USBFS_ClearEndpointHalt();
 526              		.loc 1 257 0
 527 0454 FFF7FEFF 		bl	USBFS_ClearEndpointHalt
 528 0458 0346     		mov	r3, r0
 529 045a FB75     		strb	r3, [r7, #23]
 258:.\Generated_Source\PSoC5/USBFS_std.c ****                         }
 259:.\Generated_Source\PSoC5/USBFS_std.c ****                         break;
 530              		.loc 1 259 0
 531 045c 46E0     		b	.L55
 532              	.L32:
 260:.\Generated_Source\PSoC5/USBFS_std.c ****                     case USBFS_RQST_RCPT_DEV:
 261:.\Generated_Source\PSoC5/USBFS_std.c ****                         /* Clear device REMOTE_WAKEUP */
 262:.\Generated_Source\PSoC5/USBFS_std.c ****                         if (CY_GET_REG8(USBFS_wValueLo) == USBFS_DEVICE_REMOTE_WAKEUP)
 533              		.loc 1 262 0
 534 045e 46F20203 		movw	r3, #24578
 535 0462 C4F20003 		movt	r3, 16384
 536 0466 1B78     		ldrb	r3, [r3, #0]
 537 0468 DBB2     		uxtb	r3, r3
 538 046a 012B     		cmp	r3, #1
 539 046c 40D1     		bne	.L56
 263:.\Generated_Source\PSoC5/USBFS_std.c ****                         {
 264:.\Generated_Source\PSoC5/USBFS_std.c ****                             USBFS_deviceStatus &= (uint8)~USBFS_DEVICE_STATUS_REMOTE_WAKEUP;
 540              		.loc 1 264 0
 541 046e 40F20003 		movw	r3, #:lower16:USBFS_deviceStatus
 542 0472 C0F20003 		movt	r3, #:upper16:USBFS_deviceStatus
 543 0476 1B78     		ldrb	r3, [r3, #0]
 544 0478 DBB2     		uxtb	r3, r3
 545 047a 23F00203 		bic	r3, r3, #2
 546 047e DAB2     		uxtb	r2, r3
 547 0480 40F20003 		movw	r3, #:lower16:USBFS_deviceStatus
 548 0484 C0F20003 		movt	r3, #:upper16:USBFS_deviceStatus
 549 0488 1A70     		strb	r2, [r3, #0]
 265:.\Generated_Source\PSoC5/USBFS_std.c ****                             requestHandled = USBFS_InitNoDataControlTransfer();
 550              		.loc 1 265 0
 551 048a FFF7FEFF 		bl	USBFS_InitNoDataControlTransfer
 552 048e 0346     		mov	r3, r0
 553 0490 FB75     		strb	r3, [r7, #23]
 266:.\Generated_Source\PSoC5/USBFS_std.c ****                         }
 267:.\Generated_Source\PSoC5/USBFS_std.c ****                         break;
 554              		.loc 1 267 0
 555 0492 2DE0     		b	.L56
 556              	.L33:
 268:.\Generated_Source\PSoC5/USBFS_std.c ****                     case USBFS_RQST_RCPT_IFC:
ARM GAS  C:\Users\Robert\AppData\Local\Temp\ccWEb3hA.s 			page 16


 269:.\Generated_Source\PSoC5/USBFS_std.c ****                         /* Validate interfaceNumber */
 270:.\Generated_Source\PSoC5/USBFS_std.c ****                         if (CY_GET_REG8(USBFS_wIndexLo) < USBFS_MAX_INTERFACES_NUMBER)
 557              		.loc 1 270 0
 558 0494 46F20403 		movw	r3, #24580
 559 0498 C4F20003 		movt	r3, 16384
 560 049c 1B78     		ldrb	r3, [r3, #0]
 561 049e DBB2     		uxtb	r3, r3
 562 04a0 002B     		cmp	r3, #0
 563 04a2 27D1     		bne	.L57
 271:.\Generated_Source\PSoC5/USBFS_std.c ****                         {
 272:.\Generated_Source\PSoC5/USBFS_std.c ****                             USBFS_interfaceStatus[CY_GET_REG8(USBFS_wIndexLo)] &=
 564              		.loc 1 272 0
 565 04a4 46F20403 		movw	r3, #24580
 566 04a8 C4F20003 		movt	r3, 16384
 567 04ac 1B78     		ldrb	r3, [r3, #0]
 568 04ae DBB2     		uxtb	r3, r3
 569 04b0 1A46     		mov	r2, r3
 570 04b2 1946     		mov	r1, r3
 571 04b4 40F20003 		movw	r3, #:lower16:USBFS_interfaceStatus
 572 04b8 C0F20003 		movt	r3, #:upper16:USBFS_interfaceStatus
 573 04bc 5B5C     		ldrb	r3, [r3, r1]
 574 04be D9B2     		uxtb	r1, r3
 273:.\Generated_Source\PSoC5/USBFS_std.c ****                                                                 (uint8)~(CY_GET_REG8(USBFS_wValueLo
 575              		.loc 1 273 0
 576 04c0 46F20203 		movw	r3, #24578
 577 04c4 C4F20003 		movt	r3, 16384
 578 04c8 1B78     		ldrb	r3, [r3, #0]
 579 04ca DBB2     		uxtb	r3, r3
 580 04cc 6FEA0303 		mvn	r3, r3
 581 04d0 DBB2     		uxtb	r3, r3
 272:.\Generated_Source\PSoC5/USBFS_std.c ****                             USBFS_interfaceStatus[CY_GET_REG8(USBFS_wIndexLo)] &=
 582              		.loc 1 272 0
 583 04d2 0B40     		ands	r3, r3, r1
 584 04d4 D9B2     		uxtb	r1, r3
 585 04d6 40F20003 		movw	r3, #:lower16:USBFS_interfaceStatus
 586 04da C0F20003 		movt	r3, #:upper16:USBFS_interfaceStatus
 587 04de 9954     		strb	r1, [r3, r2]
 274:.\Generated_Source\PSoC5/USBFS_std.c ****                             requestHandled = USBFS_InitNoDataControlTransfer();
 588              		.loc 1 274 0
 589 04e0 FFF7FEFF 		bl	USBFS_InitNoDataControlTransfer
 590 04e4 0346     		mov	r3, r0
 591 04e6 FB75     		strb	r3, [r7, #23]
 275:.\Generated_Source\PSoC5/USBFS_std.c ****                         }
 276:.\Generated_Source\PSoC5/USBFS_std.c ****                         break;
 592              		.loc 1 276 0
 593 04e8 04E0     		b	.L57
 594              	.L49:
 277:.\Generated_Source\PSoC5/USBFS_std.c ****                     default:    /* requestHandled is initialized as FALSE by default */
 278:.\Generated_Source\PSoC5/USBFS_std.c ****                         break;
 595              		.loc 1 278 0
 596 04ea 04E0     		b	.L36
 597              	.L55:
 259:.\Generated_Source\PSoC5/USBFS_std.c ****                         break;
 598              		.loc 1 259 0
 599 04ec 00BF     		nop
 600 04ee 02E0     		b	.L36
 601              	.L56:
ARM GAS  C:\Users\Robert\AppData\Local\Temp\ccWEb3hA.s 			page 17


 267:.\Generated_Source\PSoC5/USBFS_std.c ****                         break;
 602              		.loc 1 267 0
 603 04f0 00BF     		nop
 604 04f2 00E0     		b	.L36
 605              	.L57:
 276:.\Generated_Source\PSoC5/USBFS_std.c ****                         break;
 606              		.loc 1 276 0
 607 04f4 00BF     		nop
 608              	.L36:
 279:.\Generated_Source\PSoC5/USBFS_std.c ****                 }
 280:.\Generated_Source\PSoC5/USBFS_std.c ****                 break;
 609              		.loc 1 280 0
 610 04f6 6EE0     		b	.L22
 611              	.L25:
 281:.\Generated_Source\PSoC5/USBFS_std.c ****             case USBFS_SET_FEATURE:
 282:.\Generated_Source\PSoC5/USBFS_std.c ****                 switch (CY_GET_REG8(USBFS_bmRequestType) & USBFS_RQST_RCPT_MASK)
 612              		.loc 1 282 0
 613 04f8 4FF4C043 		mov	r3, #24576
 614 04fc C4F20003 		movt	r3, 16384
 615 0500 1B78     		ldrb	r3, [r3, #0]
 616 0502 DBB2     		uxtb	r3, r3
 617 0504 03F00303 		and	r3, r3, #3
 618 0508 012B     		cmp	r3, #1
 619 050a 2BD0     		beq	.L41
 620 050c 012B     		cmp	r3, #1
 621 050e 0ED3     		bcc	.L40
 622 0510 022B     		cmp	r3, #2
 623 0512 52D1     		bne	.L50
 624              	.L42:
 283:.\Generated_Source\PSoC5/USBFS_std.c ****                 {
 284:.\Generated_Source\PSoC5/USBFS_std.c ****                     case USBFS_RQST_RCPT_EP:
 285:.\Generated_Source\PSoC5/USBFS_std.c ****                         if (CY_GET_REG8(USBFS_wValueLo) == USBFS_ENDPOINT_HALT)
 625              		.loc 1 285 0
 626 0514 46F20203 		movw	r3, #24578
 627 0518 C4F20003 		movt	r3, 16384
 628 051c 1B78     		ldrb	r3, [r3, #0]
 629 051e DBB2     		uxtb	r3, r3
 630 0520 002B     		cmp	r3, #0
 631 0522 4BD1     		bne	.L58
 286:.\Generated_Source\PSoC5/USBFS_std.c ****                         {
 287:.\Generated_Source\PSoC5/USBFS_std.c ****                             requestHandled = USBFS_SetEndpointHalt();
 632              		.loc 1 287 0
 633 0524 FFF7FEFF 		bl	USBFS_SetEndpointHalt
 634 0528 0346     		mov	r3, r0
 635 052a FB75     		strb	r3, [r7, #23]
 288:.\Generated_Source\PSoC5/USBFS_std.c ****                         }
 289:.\Generated_Source\PSoC5/USBFS_std.c ****                         break;
 636              		.loc 1 289 0
 637 052c 46E0     		b	.L58
 638              	.L40:
 290:.\Generated_Source\PSoC5/USBFS_std.c ****                     case USBFS_RQST_RCPT_DEV:
 291:.\Generated_Source\PSoC5/USBFS_std.c ****                         /* Set device REMOTE_WAKEUP */
 292:.\Generated_Source\PSoC5/USBFS_std.c ****                         if (CY_GET_REG8(USBFS_wValueLo) == USBFS_DEVICE_REMOTE_WAKEUP)
 639              		.loc 1 292 0
 640 052e 46F20203 		movw	r3, #24578
 641 0532 C4F20003 		movt	r3, 16384
 642 0536 1B78     		ldrb	r3, [r3, #0]
ARM GAS  C:\Users\Robert\AppData\Local\Temp\ccWEb3hA.s 			page 18


 643 0538 DBB2     		uxtb	r3, r3
 644 053a 012B     		cmp	r3, #1
 645 053c 40D1     		bne	.L59
 293:.\Generated_Source\PSoC5/USBFS_std.c ****                         {
 294:.\Generated_Source\PSoC5/USBFS_std.c ****                             USBFS_deviceStatus |= USBFS_DEVICE_STATUS_REMOTE_WAKEUP;
 646              		.loc 1 294 0
 647 053e 40F20003 		movw	r3, #:lower16:USBFS_deviceStatus
 648 0542 C0F20003 		movt	r3, #:upper16:USBFS_deviceStatus
 649 0546 1B78     		ldrb	r3, [r3, #0]
 650 0548 DBB2     		uxtb	r3, r3
 651 054a 43F00203 		orr	r3, r3, #2
 652 054e DAB2     		uxtb	r2, r3
 653 0550 40F20003 		movw	r3, #:lower16:USBFS_deviceStatus
 654 0554 C0F20003 		movt	r3, #:upper16:USBFS_deviceStatus
 655 0558 1A70     		strb	r2, [r3, #0]
 295:.\Generated_Source\PSoC5/USBFS_std.c ****                             requestHandled = USBFS_InitNoDataControlTransfer();
 656              		.loc 1 295 0
 657 055a FFF7FEFF 		bl	USBFS_InitNoDataControlTransfer
 658 055e 0346     		mov	r3, r0
 659 0560 FB75     		strb	r3, [r7, #23]
 296:.\Generated_Source\PSoC5/USBFS_std.c ****                         }
 297:.\Generated_Source\PSoC5/USBFS_std.c ****                         break;
 660              		.loc 1 297 0
 661 0562 2DE0     		b	.L59
 662              	.L41:
 298:.\Generated_Source\PSoC5/USBFS_std.c ****                     case USBFS_RQST_RCPT_IFC:
 299:.\Generated_Source\PSoC5/USBFS_std.c ****                         /* Validate interfaceNumber */
 300:.\Generated_Source\PSoC5/USBFS_std.c ****                         if (CY_GET_REG8(USBFS_wIndexLo) < USBFS_MAX_INTERFACES_NUMBER)
 663              		.loc 1 300 0
 664 0564 46F20403 		movw	r3, #24580
 665 0568 C4F20003 		movt	r3, 16384
 666 056c 1B78     		ldrb	r3, [r3, #0]
 667 056e DBB2     		uxtb	r3, r3
 668 0570 002B     		cmp	r3, #0
 669 0572 27D1     		bne	.L60
 301:.\Generated_Source\PSoC5/USBFS_std.c ****                         {
 302:.\Generated_Source\PSoC5/USBFS_std.c ****                             USBFS_interfaceStatus[CY_GET_REG8(USBFS_wIndexLo)] &=
 670              		.loc 1 302 0
 671 0574 46F20403 		movw	r3, #24580
 672 0578 C4F20003 		movt	r3, 16384
 673 057c 1B78     		ldrb	r3, [r3, #0]
 674 057e DBB2     		uxtb	r3, r3
 675 0580 1A46     		mov	r2, r3
 676 0582 1946     		mov	r1, r3
 677 0584 40F20003 		movw	r3, #:lower16:USBFS_interfaceStatus
 678 0588 C0F20003 		movt	r3, #:upper16:USBFS_interfaceStatus
 679 058c 5B5C     		ldrb	r3, [r3, r1]
 680 058e D9B2     		uxtb	r1, r3
 303:.\Generated_Source\PSoC5/USBFS_std.c ****                                                                 (uint8)~(CY_GET_REG8(USBFS_wValueLo
 681              		.loc 1 303 0
 682 0590 46F20203 		movw	r3, #24578
 683 0594 C4F20003 		movt	r3, 16384
 684 0598 1B78     		ldrb	r3, [r3, #0]
 685 059a DBB2     		uxtb	r3, r3
 686 059c 6FEA0303 		mvn	r3, r3
 687 05a0 DBB2     		uxtb	r3, r3
 302:.\Generated_Source\PSoC5/USBFS_std.c ****                             USBFS_interfaceStatus[CY_GET_REG8(USBFS_wIndexLo)] &=
ARM GAS  C:\Users\Robert\AppData\Local\Temp\ccWEb3hA.s 			page 19


 688              		.loc 1 302 0
 689 05a2 0B40     		ands	r3, r3, r1
 690 05a4 D9B2     		uxtb	r1, r3
 691 05a6 40F20003 		movw	r3, #:lower16:USBFS_interfaceStatus
 692 05aa C0F20003 		movt	r3, #:upper16:USBFS_interfaceStatus
 693 05ae 9954     		strb	r1, [r3, r2]
 304:.\Generated_Source\PSoC5/USBFS_std.c ****                             requestHandled = USBFS_InitNoDataControlTransfer();
 694              		.loc 1 304 0
 695 05b0 FFF7FEFF 		bl	USBFS_InitNoDataControlTransfer
 696 05b4 0346     		mov	r3, r0
 697 05b6 FB75     		strb	r3, [r7, #23]
 305:.\Generated_Source\PSoC5/USBFS_std.c ****                         }
 306:.\Generated_Source\PSoC5/USBFS_std.c ****                         break;
 698              		.loc 1 306 0
 699 05b8 04E0     		b	.L60
 700              	.L50:
 307:.\Generated_Source\PSoC5/USBFS_std.c ****                     default:    /* requestHandled is initialized as FALSE by default */
 308:.\Generated_Source\PSoC5/USBFS_std.c ****                         break;
 701              		.loc 1 308 0
 702 05ba 04E0     		b	.L44
 703              	.L58:
 289:.\Generated_Source\PSoC5/USBFS_std.c ****                         break;
 704              		.loc 1 289 0
 705 05bc 00BF     		nop
 706 05be 02E0     		b	.L44
 707              	.L59:
 297:.\Generated_Source\PSoC5/USBFS_std.c ****                         break;
 708              		.loc 1 297 0
 709 05c0 00BF     		nop
 710 05c2 00E0     		b	.L44
 711              	.L60:
 306:.\Generated_Source\PSoC5/USBFS_std.c ****                         break;
 712              		.loc 1 306 0
 713 05c4 00BF     		nop
 714              	.L44:
 309:.\Generated_Source\PSoC5/USBFS_std.c ****                 }
 310:.\Generated_Source\PSoC5/USBFS_std.c ****                 break;
 715              		.loc 1 310 0
 716 05c6 06E0     		b	.L22
 717              	.L51:
 216:.\Generated_Source\PSoC5/USBFS_std.c ****                 break;
 718              		.loc 1 216 0
 719 05c8 00BF     		nop
 720 05ca 04E0     		b	.L22
 721              	.L52:
 181:.\Generated_Source\PSoC5/USBFS_std.c ****                 break;
 722              		.loc 1 181 0
 723 05cc 00BF     		nop
 724 05ce 02E0     		b	.L22
 725              	.L53:
 311:.\Generated_Source\PSoC5/USBFS_std.c ****             default:    /* requestHandled is initialized as FALSE by default */
 312:.\Generated_Source\PSoC5/USBFS_std.c ****                 break;
 726              		.loc 1 312 0
 727 05d0 00BF     		nop
 728 05d2 00E0     		b	.L22
 729              	.L54:
 250:.\Generated_Source\PSoC5/USBFS_std.c ****                 break;
ARM GAS  C:\Users\Robert\AppData\Local\Temp\ccWEb3hA.s 			page 20


 730              		.loc 1 250 0
 731 05d4 00BF     		nop
 732              	.L22:
 313:.\Generated_Source\PSoC5/USBFS_std.c ****         }
 314:.\Generated_Source\PSoC5/USBFS_std.c ****     }
 315:.\Generated_Source\PSoC5/USBFS_std.c ****     return(requestHandled);
 733              		.loc 1 315 0
 734 05d6 FB7D     		ldrb	r3, [r7, #23]	@ zero_extendqisi2
 316:.\Generated_Source\PSoC5/USBFS_std.c **** }
 735              		.loc 1 316 0
 736 05d8 1846     		mov	r0, r3
 737 05da 07F11807 		add	r7, r7, #24
 738 05de BD46     		mov	sp, r7
 739 05e0 80BD     		pop	{r7, pc}
 740              		.cfi_endproc
 741              	.LFE0:
 742              		.size	USBFS_HandleStandardRqst, .-USBFS_HandleStandardRqst
 743 05e2 00BF     		.section	.text.USBFS_ConfigReg,"ax",%progbits
 744              		.align	2
 745              		.global	USBFS_ConfigReg
 746              		.thumb
 747              		.thumb_func
 748              		.type	USBFS_ConfigReg, %function
 749              	USBFS_ConfigReg:
 750              	.LFB1:
 317:.\Generated_Source\PSoC5/USBFS_std.c **** 
 318:.\Generated_Source\PSoC5/USBFS_std.c **** 
 319:.\Generated_Source\PSoC5/USBFS_std.c **** #if defined(USBFS_ENABLE_IDSN_STRING)
 320:.\Generated_Source\PSoC5/USBFS_std.c **** 
 321:.\Generated_Source\PSoC5/USBFS_std.c ****     /***************************************************************************
 322:.\Generated_Source\PSoC5/USBFS_std.c ****     * Function Name: USBFS_ReadDieID
 323:.\Generated_Source\PSoC5/USBFS_std.c ****     ****************************************************************************
 324:.\Generated_Source\PSoC5/USBFS_std.c ****     *
 325:.\Generated_Source\PSoC5/USBFS_std.c ****     * Summary:
 326:.\Generated_Source\PSoC5/USBFS_std.c ****     *  This routine read Die ID and generate Serial Number string descriptor.
 327:.\Generated_Source\PSoC5/USBFS_std.c ****     *
 328:.\Generated_Source\PSoC5/USBFS_std.c ****     * Parameters:
 329:.\Generated_Source\PSoC5/USBFS_std.c ****     *  descr:  pointer on string descriptor.
 330:.\Generated_Source\PSoC5/USBFS_std.c ****     *
 331:.\Generated_Source\PSoC5/USBFS_std.c ****     * Return:
 332:.\Generated_Source\PSoC5/USBFS_std.c ****     *  None.
 333:.\Generated_Source\PSoC5/USBFS_std.c ****     *
 334:.\Generated_Source\PSoC5/USBFS_std.c ****     * Reentrant:
 335:.\Generated_Source\PSoC5/USBFS_std.c ****     *  No.
 336:.\Generated_Source\PSoC5/USBFS_std.c ****     *
 337:.\Generated_Source\PSoC5/USBFS_std.c ****     ***************************************************************************/
 338:.\Generated_Source\PSoC5/USBFS_std.c ****     void USBFS_ReadDieID(uint8 descr[]) 
 339:.\Generated_Source\PSoC5/USBFS_std.c ****     {
 340:.\Generated_Source\PSoC5/USBFS_std.c ****         uint8 i;
 341:.\Generated_Source\PSoC5/USBFS_std.c ****         uint8 j = 0u;
 342:.\Generated_Source\PSoC5/USBFS_std.c ****         uint8 value;
 343:.\Generated_Source\PSoC5/USBFS_std.c ****         const char8 CYCODE hex[16u] = "0123456789ABCDEF";
 344:.\Generated_Source\PSoC5/USBFS_std.c **** 
 345:.\Generated_Source\PSoC5/USBFS_std.c **** 
 346:.\Generated_Source\PSoC5/USBFS_std.c ****         /* Check descriptor validation */
 347:.\Generated_Source\PSoC5/USBFS_std.c ****         if( descr != NULL)
 348:.\Generated_Source\PSoC5/USBFS_std.c ****         {
ARM GAS  C:\Users\Robert\AppData\Local\Temp\ccWEb3hA.s 			page 21


 349:.\Generated_Source\PSoC5/USBFS_std.c ****             descr[0u] = USBFS_IDSN_DESCR_LENGTH;
 350:.\Generated_Source\PSoC5/USBFS_std.c ****             descr[1u] = USBFS_DESCR_STRING;
 351:.\Generated_Source\PSoC5/USBFS_std.c **** 
 352:.\Generated_Source\PSoC5/USBFS_std.c ****             /* fill descriptor */
 353:.\Generated_Source\PSoC5/USBFS_std.c ****             for(i = 2u; i < USBFS_IDSN_DESCR_LENGTH; i += 4u)
 354:.\Generated_Source\PSoC5/USBFS_std.c ****             {
 355:.\Generated_Source\PSoC5/USBFS_std.c ****                 value = CY_GET_XTND_REG8((void CYFAR *)(USBFS_DIE_ID + j));
 356:.\Generated_Source\PSoC5/USBFS_std.c ****                 j++;
 357:.\Generated_Source\PSoC5/USBFS_std.c ****                 descr[i] = (uint8)hex[value >> 4u];
 358:.\Generated_Source\PSoC5/USBFS_std.c ****                 descr[i + 2u] = (uint8)hex[value & 0x0Fu];
 359:.\Generated_Source\PSoC5/USBFS_std.c ****             }
 360:.\Generated_Source\PSoC5/USBFS_std.c ****         }
 361:.\Generated_Source\PSoC5/USBFS_std.c ****     }
 362:.\Generated_Source\PSoC5/USBFS_std.c **** 
 363:.\Generated_Source\PSoC5/USBFS_std.c **** #endif /* End USBFS_ENABLE_IDSN_STRING */
 364:.\Generated_Source\PSoC5/USBFS_std.c **** 
 365:.\Generated_Source\PSoC5/USBFS_std.c **** 
 366:.\Generated_Source\PSoC5/USBFS_std.c **** /*******************************************************************************
 367:.\Generated_Source\PSoC5/USBFS_std.c **** * Function Name: USBFS_ConfigReg
 368:.\Generated_Source\PSoC5/USBFS_std.c **** ********************************************************************************
 369:.\Generated_Source\PSoC5/USBFS_std.c **** *
 370:.\Generated_Source\PSoC5/USBFS_std.c **** * Summary:
 371:.\Generated_Source\PSoC5/USBFS_std.c **** *  This routine configures hardware registers from the variables.
 372:.\Generated_Source\PSoC5/USBFS_std.c **** *  It is called from USBFS_Config() function and from RestoreConfig
 373:.\Generated_Source\PSoC5/USBFS_std.c **** *  after Wakeup.
 374:.\Generated_Source\PSoC5/USBFS_std.c **** *
 375:.\Generated_Source\PSoC5/USBFS_std.c **** * Parameters:
 376:.\Generated_Source\PSoC5/USBFS_std.c **** *  None.
 377:.\Generated_Source\PSoC5/USBFS_std.c **** *
 378:.\Generated_Source\PSoC5/USBFS_std.c **** * Return:
 379:.\Generated_Source\PSoC5/USBFS_std.c **** *  None.
 380:.\Generated_Source\PSoC5/USBFS_std.c **** *
 381:.\Generated_Source\PSoC5/USBFS_std.c **** *******************************************************************************/
 382:.\Generated_Source\PSoC5/USBFS_std.c **** void USBFS_ConfigReg(void) 
 383:.\Generated_Source\PSoC5/USBFS_std.c **** {
 751              		.loc 1 383 0
 752              		.cfi_startproc
 753              		@ args = 0, pretend = 0, frame = 8
 754              		@ frame_needed = 1, uses_anonymous_args = 0
 755              		@ link register save eliminated.
 756 0000 80B4     		push	{r7}
 757              	.LCFI3:
 758              		.cfi_def_cfa_offset 4
 759              		.cfi_offset 7, -4
 760 0002 83B0     		sub	sp, sp, #12
 761              	.LCFI4:
 762              		.cfi_def_cfa_offset 16
 763 0004 00AF     		add	r7, sp, #0
 764              	.LCFI5:
 765              		.cfi_def_cfa_register 7
 384:.\Generated_Source\PSoC5/USBFS_std.c ****     uint8 ep;
 385:.\Generated_Source\PSoC5/USBFS_std.c ****     uint8 i;
 386:.\Generated_Source\PSoC5/USBFS_std.c ****     #if(USBFS_EP_MM == USBFS__EP_DMAAUTO)
 387:.\Generated_Source\PSoC5/USBFS_std.c ****         uint8 ep_type = 0u;
 388:.\Generated_Source\PSoC5/USBFS_std.c ****     #endif /* End USBFS_EP_MM == USBFS__EP_DMAAUTO */
 389:.\Generated_Source\PSoC5/USBFS_std.c **** 
 390:.\Generated_Source\PSoC5/USBFS_std.c ****     /* Set the endpoint buffer addresses */
ARM GAS  C:\Users\Robert\AppData\Local\Temp\ccWEb3hA.s 			page 22


 391:.\Generated_Source\PSoC5/USBFS_std.c ****     ep = USBFS_EP1;
 766              		.loc 1 391 0
 767 0006 4FF00103 		mov	r3, #1
 768 000a FB71     		strb	r3, [r7, #7]
 392:.\Generated_Source\PSoC5/USBFS_std.c ****     for (i = 0u; i < 0x80u; i+= 0x10u)
 769              		.loc 1 392 0
 770 000c 4FF00003 		mov	r3, #0
 771 0010 BB71     		strb	r3, [r7, #6]
 772 0012 E5E0     		b	.L62
 773              	.L66:
 393:.\Generated_Source\PSoC5/USBFS_std.c ****     {
 394:.\Generated_Source\PSoC5/USBFS_std.c ****         CY_SET_REG8((reg8 *)(USBFS_ARB_EP1_CFG_IND + i), USBFS_ARB_EPX_CFG_CRC_BYPASS |
 774              		.loc 1 394 0
 775 0014 BB79     		ldrb	r3, [r7, #6]	@ zero_extendqisi2
 776 0016 03F18043 		add	r3, r3, #1073741824
 777 001a 03F5C143 		add	r3, r3, #24704
 778 001e 4FF00C02 		mov	r2, #12
 779 0022 1A70     		strb	r2, [r3, #0]
 395:.\Generated_Source\PSoC5/USBFS_std.c ****                                                           USBFS_ARB_EPX_CFG_RESET);
 396:.\Generated_Source\PSoC5/USBFS_std.c **** 
 397:.\Generated_Source\PSoC5/USBFS_std.c ****         #if(USBFS_EP_MM != USBFS__EP_MANUAL)
 398:.\Generated_Source\PSoC5/USBFS_std.c ****             /* Enable all Arbiter EP Interrupts : err, buf under, buf over, dma gnt(mode2 only), in
 399:.\Generated_Source\PSoC5/USBFS_std.c ****             CY_SET_REG8((reg8 *)(USBFS_ARB_EP1_INT_EN_IND + i), USBFS_ARB_EPX_INT_MASK);
 400:.\Generated_Source\PSoC5/USBFS_std.c ****         #endif   /* End USBFS_EP_MM != USBFS__EP_MANUAL */
 401:.\Generated_Source\PSoC5/USBFS_std.c **** 
 402:.\Generated_Source\PSoC5/USBFS_std.c ****         if(USBFS_EP[ep].epMode != USBFS_MODE_DISABLE)
 780              		.loc 1 402 0
 781 0024 F979     		ldrb	r1, [r7, #7]	@ zero_extendqisi2
 782 0026 40F20002 		movw	r2, #:lower16:USBFS_EP
 783 002a C0F20002 		movt	r2, #:upper16:USBFS_EP
 784 002e 0B46     		mov	r3, r1
 785 0030 4FEA4303 		lsl	r3, r3, #1
 786 0034 5B18     		adds	r3, r3, r1
 787 0036 4FEA8303 		lsl	r3, r3, #2
 788 003a D318     		adds	r3, r2, r3
 789 003c 5B79     		ldrb	r3, [r3, #5]
 790 003e DBB2     		uxtb	r3, r3
 791 0040 002B     		cmp	r3, #0
 792 0042 25D0     		beq	.L63
 403:.\Generated_Source\PSoC5/USBFS_std.c ****         {
 404:.\Generated_Source\PSoC5/USBFS_std.c ****             if((USBFS_EP[ep].addr & USBFS_DIR_IN) != 0u )
 793              		.loc 1 404 0
 794 0044 F979     		ldrb	r1, [r7, #7]	@ zero_extendqisi2
 795 0046 40F20002 		movw	r2, #:lower16:USBFS_EP
 796 004a C0F20002 		movt	r2, #:upper16:USBFS_EP
 797 004e 0B46     		mov	r3, r1
 798 0050 4FEA4303 		lsl	r3, r3, #1
 799 0054 5B18     		adds	r3, r3, r1
 800 0056 4FEA8303 		lsl	r3, r3, #2
 801 005a D318     		adds	r3, r2, r3
 802 005c 1B79     		ldrb	r3, [r3, #4]
 803 005e DBB2     		uxtb	r3, r3
 804 0060 DBB2     		uxtb	r3, r3
 805 0062 5BB2     		sxtb	r3, r3
 806 0064 002B     		cmp	r3, #0
 807 0066 09DA     		bge	.L64
 405:.\Generated_Source\PSoC5/USBFS_std.c ****             {
ARM GAS  C:\Users\Robert\AppData\Local\Temp\ccWEb3hA.s 			page 23


 406:.\Generated_Source\PSoC5/USBFS_std.c ****                 CY_SET_REG8((reg8 *)(USBFS_SIE_EP1_CR0_IND + i), USBFS_MODE_NAK_IN);
 808              		.loc 1 406 0
 809 0068 BA79     		ldrb	r2, [r7, #6]	@ zero_extendqisi2
 810 006a 46F20E03 		movw	r3, #24590
 811 006e C4F20003 		movt	r3, 16384
 812 0072 D318     		adds	r3, r2, r3
 813 0074 4FF00C02 		mov	r2, #12
 814 0078 1A70     		strb	r2, [r3, #0]
 815 007a 12E0     		b	.L65
 816              	.L64:
 407:.\Generated_Source\PSoC5/USBFS_std.c ****             }
 408:.\Generated_Source\PSoC5/USBFS_std.c ****             else
 409:.\Generated_Source\PSoC5/USBFS_std.c ****             {
 410:.\Generated_Source\PSoC5/USBFS_std.c ****                 CY_SET_REG8((reg8 *)(USBFS_SIE_EP1_CR0_IND + i), USBFS_MODE_NAK_OUT);
 817              		.loc 1 410 0
 818 007c BA79     		ldrb	r2, [r7, #6]	@ zero_extendqisi2
 819 007e 46F20E03 		movw	r3, #24590
 820 0082 C4F20003 		movt	r3, 16384
 821 0086 D318     		adds	r3, r2, r3
 822 0088 4FF00802 		mov	r2, #8
 823 008c 1A70     		strb	r2, [r3, #0]
 824 008e 08E0     		b	.L65
 825              	.L63:
 411:.\Generated_Source\PSoC5/USBFS_std.c ****                 /* Prepare EP type mask for automatic memory allocation */
 412:.\Generated_Source\PSoC5/USBFS_std.c ****                 #if(USBFS_EP_MM == USBFS__EP_DMAAUTO)
 413:.\Generated_Source\PSoC5/USBFS_std.c ****                     ep_type |= (uint8)(0x01u << (ep - USBFS_EP1));
 414:.\Generated_Source\PSoC5/USBFS_std.c ****                 #endif /* End USBFS_EP_MM == USBFS__EP_DMAAUTO */
 415:.\Generated_Source\PSoC5/USBFS_std.c ****             }
 416:.\Generated_Source\PSoC5/USBFS_std.c ****         }
 417:.\Generated_Source\PSoC5/USBFS_std.c ****         else
 418:.\Generated_Source\PSoC5/USBFS_std.c ****         {
 419:.\Generated_Source\PSoC5/USBFS_std.c ****             CY_SET_REG8((reg8 *)(USBFS_SIE_EP1_CR0_IND + i), USBFS_MODE_STALL_DATA_EP);
 826              		.loc 1 419 0
 827 0090 BA79     		ldrb	r2, [r7, #6]	@ zero_extendqisi2
 828 0092 46F20E03 		movw	r3, #24590
 829 0096 C4F20003 		movt	r3, 16384
 830 009a D318     		adds	r3, r2, r3
 831 009c 4FF08002 		mov	r2, #128
 832 00a0 1A70     		strb	r2, [r3, #0]
 833              	.L65:
 420:.\Generated_Source\PSoC5/USBFS_std.c ****         }
 421:.\Generated_Source\PSoC5/USBFS_std.c **** 
 422:.\Generated_Source\PSoC5/USBFS_std.c ****         #if(USBFS_EP_MM != USBFS__EP_DMAAUTO)
 423:.\Generated_Source\PSoC5/USBFS_std.c ****             CY_SET_REG8((reg8 *)(USBFS_SIE_EP1_CNT0_IND + i),   USBFS_EP[ep].bufferSize >> 8u);
 834              		.loc 1 423 0
 835 00a2 BA79     		ldrb	r2, [r7, #6]	@ zero_extendqisi2
 836 00a4 46F20C03 		movw	r3, #24588
 837 00a8 C4F20003 		movt	r3, 16384
 838 00ac D318     		adds	r3, r2, r3
 839 00ae 1846     		mov	r0, r3
 840 00b0 F979     		ldrb	r1, [r7, #7]	@ zero_extendqisi2
 841 00b2 40F20002 		movw	r2, #:lower16:USBFS_EP
 842 00b6 C0F20002 		movt	r2, #:upper16:USBFS_EP
 843 00ba 0B46     		mov	r3, r1
 844 00bc 4FEA4303 		lsl	r3, r3, #1
 845 00c0 5B18     		adds	r3, r3, r1
 846 00c2 4FEA8303 		lsl	r3, r3, #2
ARM GAS  C:\Users\Robert\AppData\Local\Temp\ccWEb3hA.s 			page 24


 847 00c6 D318     		adds	r3, r2, r3
 848 00c8 03F10803 		add	r3, r3, #8
 849 00cc 1B88     		ldrh	r3, [r3, #0]	@ movhi
 850 00ce 9BB2     		uxth	r3, r3
 851 00d0 4FEA1323 		lsr	r3, r3, #8
 852 00d4 9BB2     		uxth	r3, r3
 853 00d6 DBB2     		uxtb	r3, r3
 854 00d8 0370     		strb	r3, [r0, #0]
 424:.\Generated_Source\PSoC5/USBFS_std.c ****             CY_SET_REG8((reg8 *)(USBFS_SIE_EP1_CNT1_IND + i),   USBFS_EP[ep].bufferSize & 0xFFu);
 855              		.loc 1 424 0
 856 00da BA79     		ldrb	r2, [r7, #6]	@ zero_extendqisi2
 857 00dc 46F20D03 		movw	r3, #24589
 858 00e0 C4F20003 		movt	r3, 16384
 859 00e4 D318     		adds	r3, r2, r3
 860 00e6 1846     		mov	r0, r3
 861 00e8 F979     		ldrb	r1, [r7, #7]	@ zero_extendqisi2
 862 00ea 40F20002 		movw	r2, #:lower16:USBFS_EP
 863 00ee C0F20002 		movt	r2, #:upper16:USBFS_EP
 864 00f2 0B46     		mov	r3, r1
 865 00f4 4FEA4303 		lsl	r3, r3, #1
 866 00f8 5B18     		adds	r3, r3, r1
 867 00fa 4FEA8303 		lsl	r3, r3, #2
 868 00fe D318     		adds	r3, r2, r3
 869 0100 03F10803 		add	r3, r3, #8
 870 0104 1B88     		ldrh	r3, [r3, #0]	@ movhi
 871 0106 9BB2     		uxth	r3, r3
 872 0108 DBB2     		uxtb	r3, r3
 873 010a 0370     		strb	r3, [r0, #0]
 425:.\Generated_Source\PSoC5/USBFS_std.c **** 
 426:.\Generated_Source\PSoC5/USBFS_std.c ****             CY_SET_REG8((reg8 *)(USBFS_ARB_RW1_RA_IND + i),     USBFS_EP[ep].buffOffset & 0xFFu);
 874              		.loc 1 426 0
 875 010c BA79     		ldrb	r2, [r7, #6]	@ zero_extendqisi2
 876 010e 46F28603 		movw	r3, #24710
 877 0112 C4F20003 		movt	r3, 16384
 878 0116 D318     		adds	r3, r2, r3
 879 0118 1846     		mov	r0, r3
 880 011a F979     		ldrb	r1, [r7, #7]	@ zero_extendqisi2
 881 011c 40F20002 		movw	r2, #:lower16:USBFS_EP
 882 0120 C0F20002 		movt	r2, #:upper16:USBFS_EP
 883 0124 0B46     		mov	r3, r1
 884 0126 4FEA4303 		lsl	r3, r3, #1
 885 012a 5B18     		adds	r3, r3, r1
 886 012c 4FEA8303 		lsl	r3, r3, #2
 887 0130 D318     		adds	r3, r2, r3
 888 0132 DB88     		ldrh	r3, [r3, #6]	@ movhi
 889 0134 9BB2     		uxth	r3, r3
 890 0136 DBB2     		uxtb	r3, r3
 891 0138 0370     		strb	r3, [r0, #0]
 427:.\Generated_Source\PSoC5/USBFS_std.c ****             CY_SET_REG8((reg8 *)(USBFS_ARB_RW1_RA_MSB_IND + i), USBFS_EP[ep].buffOffset >> 8u);
 892              		.loc 1 427 0
 893 013a BA79     		ldrb	r2, [r7, #6]	@ zero_extendqisi2
 894 013c 46F28703 		movw	r3, #24711
 895 0140 C4F20003 		movt	r3, 16384
 896 0144 D318     		adds	r3, r2, r3
 897 0146 1846     		mov	r0, r3
 898 0148 F979     		ldrb	r1, [r7, #7]	@ zero_extendqisi2
 899 014a 40F20002 		movw	r2, #:lower16:USBFS_EP
ARM GAS  C:\Users\Robert\AppData\Local\Temp\ccWEb3hA.s 			page 25


 900 014e C0F20002 		movt	r2, #:upper16:USBFS_EP
 901 0152 0B46     		mov	r3, r1
 902 0154 4FEA4303 		lsl	r3, r3, #1
 903 0158 5B18     		adds	r3, r3, r1
 904 015a 4FEA8303 		lsl	r3, r3, #2
 905 015e D318     		adds	r3, r2, r3
 906 0160 DB88     		ldrh	r3, [r3, #6]	@ movhi
 907 0162 9BB2     		uxth	r3, r3
 908 0164 4FEA1323 		lsr	r3, r3, #8
 909 0168 9BB2     		uxth	r3, r3
 910 016a DBB2     		uxtb	r3, r3
 911 016c 0370     		strb	r3, [r0, #0]
 428:.\Generated_Source\PSoC5/USBFS_std.c ****             CY_SET_REG8((reg8 *)(USBFS_ARB_RW1_WA_IND + i),     USBFS_EP[ep].buffOffset & 0xFFu);
 912              		.loc 1 428 0
 913 016e BA79     		ldrb	r2, [r7, #6]	@ zero_extendqisi2
 914 0170 46F28403 		movw	r3, #24708
 915 0174 C4F20003 		movt	r3, 16384
 916 0178 D318     		adds	r3, r2, r3
 917 017a 1846     		mov	r0, r3
 918 017c F979     		ldrb	r1, [r7, #7]	@ zero_extendqisi2
 919 017e 40F20002 		movw	r2, #:lower16:USBFS_EP
 920 0182 C0F20002 		movt	r2, #:upper16:USBFS_EP
 921 0186 0B46     		mov	r3, r1
 922 0188 4FEA4303 		lsl	r3, r3, #1
 923 018c 5B18     		adds	r3, r3, r1
 924 018e 4FEA8303 		lsl	r3, r3, #2
 925 0192 D318     		adds	r3, r2, r3
 926 0194 DB88     		ldrh	r3, [r3, #6]	@ movhi
 927 0196 9BB2     		uxth	r3, r3
 928 0198 DBB2     		uxtb	r3, r3
 929 019a 0370     		strb	r3, [r0, #0]
 429:.\Generated_Source\PSoC5/USBFS_std.c ****             CY_SET_REG8((reg8 *)(USBFS_ARB_RW1_WA_MSB_IND + i), USBFS_EP[ep].buffOffset >> 8u);
 930              		.loc 1 429 0
 931 019c BA79     		ldrb	r2, [r7, #6]	@ zero_extendqisi2
 932 019e 46F28503 		movw	r3, #24709
 933 01a2 C4F20003 		movt	r3, 16384
 934 01a6 D318     		adds	r3, r2, r3
 935 01a8 1846     		mov	r0, r3
 936 01aa F979     		ldrb	r1, [r7, #7]	@ zero_extendqisi2
 937 01ac 40F20002 		movw	r2, #:lower16:USBFS_EP
 938 01b0 C0F20002 		movt	r2, #:upper16:USBFS_EP
 939 01b4 0B46     		mov	r3, r1
 940 01b6 4FEA4303 		lsl	r3, r3, #1
 941 01ba 5B18     		adds	r3, r3, r1
 942 01bc 4FEA8303 		lsl	r3, r3, #2
 943 01c0 D318     		adds	r3, r2, r3
 944 01c2 DB88     		ldrh	r3, [r3, #6]	@ movhi
 945 01c4 9BB2     		uxth	r3, r3
 946 01c6 4FEA1323 		lsr	r3, r3, #8
 947 01ca 9BB2     		uxth	r3, r3
 948 01cc DBB2     		uxtb	r3, r3
 949 01ce 0370     		strb	r3, [r0, #0]
 430:.\Generated_Source\PSoC5/USBFS_std.c ****         #endif /* End USBFS_EP_MM != USBFS__EP_DMAAUTO */
 431:.\Generated_Source\PSoC5/USBFS_std.c **** 
 432:.\Generated_Source\PSoC5/USBFS_std.c ****         ep++;
 950              		.loc 1 432 0
 951 01d0 FB79     		ldrb	r3, [r7, #7]
ARM GAS  C:\Users\Robert\AppData\Local\Temp\ccWEb3hA.s 			page 26


 952 01d2 03F10103 		add	r3, r3, #1
 953 01d6 FB71     		strb	r3, [r7, #7]
 392:.\Generated_Source\PSoC5/USBFS_std.c ****     for (i = 0u; i < 0x80u; i+= 0x10u)
 954              		.loc 1 392 0
 955 01d8 BB79     		ldrb	r3, [r7, #6]
 956 01da 03F11003 		add	r3, r3, #16
 957 01de BB71     		strb	r3, [r7, #6]
 958              	.L62:
 392:.\Generated_Source\PSoC5/USBFS_std.c ****     for (i = 0u; i < 0x80u; i+= 0x10u)
 959              		.loc 1 392 0 is_stmt 0 discriminator 1
 960 01e0 BB79     		ldrb	r3, [r7, #6]	@ zero_extendqisi2
 961 01e2 5BB2     		sxtb	r3, r3
 962 01e4 002B     		cmp	r3, #0
 963 01e6 BFF615AF 		bge	.L66
 433:.\Generated_Source\PSoC5/USBFS_std.c ****     }
 434:.\Generated_Source\PSoC5/USBFS_std.c **** 
 435:.\Generated_Source\PSoC5/USBFS_std.c ****     #if(USBFS_EP_MM == USBFS__EP_DMAAUTO)
 436:.\Generated_Source\PSoC5/USBFS_std.c ****          /* BUF_SIZE depend on DMA_THRESS value: 55-32 bytes  44-16 bytes 33-8 bytes 22-4 bytes 11-
 437:.\Generated_Source\PSoC5/USBFS_std.c ****         USBFS_BUF_SIZE_REG = USBFS_DMA_BUF_SIZE;
 438:.\Generated_Source\PSoC5/USBFS_std.c ****         USBFS_DMA_THRES_REG = USBFS_DMA_BYTES_PER_BURST;   /* DMA burst threshold */
 439:.\Generated_Source\PSoC5/USBFS_std.c ****         USBFS_DMA_THRES_MSB_REG = 0u;
 440:.\Generated_Source\PSoC5/USBFS_std.c ****         USBFS_EP_ACTIVE_REG = USBFS_ARB_INT_MASK;
 441:.\Generated_Source\PSoC5/USBFS_std.c ****         USBFS_EP_TYPE_REG = ep_type;
 442:.\Generated_Source\PSoC5/USBFS_std.c ****         /* Cfg_cmp bit set to 1 once configuration is complete. */
 443:.\Generated_Source\PSoC5/USBFS_std.c ****         USBFS_ARB_CFG_REG = USBFS_ARB_CFG_AUTO_DMA | USBFS_ARB_CFG_AUTO_MEM |
 444:.\Generated_Source\PSoC5/USBFS_std.c ****                                        USBFS_ARB_CFG_CFG_CPM;
 445:.\Generated_Source\PSoC5/USBFS_std.c ****         /* Cfg_cmp bit set to 0 during configuration of PFSUSB Registers. */
 446:.\Generated_Source\PSoC5/USBFS_std.c ****         USBFS_ARB_CFG_REG = USBFS_ARB_CFG_AUTO_DMA | USBFS_ARB_CFG_AUTO_MEM;
 447:.\Generated_Source\PSoC5/USBFS_std.c ****     #endif /* End USBFS_EP_MM == USBFS__EP_DMAAUTO */
 448:.\Generated_Source\PSoC5/USBFS_std.c **** 
 449:.\Generated_Source\PSoC5/USBFS_std.c ****     CY_SET_REG8(USBFS_SIE_EP_INT_EN_PTR, 0xFFu);
 964              		.loc 1 449 0 is_stmt 1
 965 01ea 46F20A03 		movw	r3, #24586
 966 01ee C4F20003 		movt	r3, 16384
 967 01f2 4FF0FF02 		mov	r2, #255
 968 01f6 1A70     		strb	r2, [r3, #0]
 450:.\Generated_Source\PSoC5/USBFS_std.c **** }
 969              		.loc 1 450 0
 970 01f8 07F10C07 		add	r7, r7, #12
 971 01fc BD46     		mov	sp, r7
 972 01fe 80BC     		pop	{r7}
 973 0200 7047     		bx	lr
 974              		.cfi_endproc
 975              	.LFE1:
 976              		.size	USBFS_ConfigReg, .-USBFS_ConfigReg
 977 0202 00BF     		.section	.text.USBFS_Config,"ax",%progbits
 978              		.align	2
 979              		.global	USBFS_Config
 980              		.thumb
 981              		.thumb_func
 982              		.type	USBFS_Config, %function
 983              	USBFS_Config:
 984              	.LFB2:
 451:.\Generated_Source\PSoC5/USBFS_std.c **** 
 452:.\Generated_Source\PSoC5/USBFS_std.c **** 
 453:.\Generated_Source\PSoC5/USBFS_std.c **** /*******************************************************************************
 454:.\Generated_Source\PSoC5/USBFS_std.c **** * Function Name: USBFS_Config
ARM GAS  C:\Users\Robert\AppData\Local\Temp\ccWEb3hA.s 			page 27


 455:.\Generated_Source\PSoC5/USBFS_std.c **** ********************************************************************************
 456:.\Generated_Source\PSoC5/USBFS_std.c **** *
 457:.\Generated_Source\PSoC5/USBFS_std.c **** * Summary:
 458:.\Generated_Source\PSoC5/USBFS_std.c **** *  This routine configures endpoints for the entire configuration by scanning
 459:.\Generated_Source\PSoC5/USBFS_std.c **** *  the configuration descriptor.
 460:.\Generated_Source\PSoC5/USBFS_std.c **** *
 461:.\Generated_Source\PSoC5/USBFS_std.c **** * Parameters:
 462:.\Generated_Source\PSoC5/USBFS_std.c **** *  clearAltSetting: It configures the bAlternateSetting 0 for each interface.
 463:.\Generated_Source\PSoC5/USBFS_std.c **** *
 464:.\Generated_Source\PSoC5/USBFS_std.c **** * Return:
 465:.\Generated_Source\PSoC5/USBFS_std.c **** *  None.
 466:.\Generated_Source\PSoC5/USBFS_std.c **** *
 467:.\Generated_Source\PSoC5/USBFS_std.c **** * USBFS_interfaceClass - Initialized class array for each interface.
 468:.\Generated_Source\PSoC5/USBFS_std.c **** *   It is used for handling Class specific requests depend on interface class.
 469:.\Generated_Source\PSoC5/USBFS_std.c **** *   Different classes in multiple Alternate settings does not supported.
 470:.\Generated_Source\PSoC5/USBFS_std.c **** *
 471:.\Generated_Source\PSoC5/USBFS_std.c **** * Reentrant:
 472:.\Generated_Source\PSoC5/USBFS_std.c **** *  No.
 473:.\Generated_Source\PSoC5/USBFS_std.c **** *
 474:.\Generated_Source\PSoC5/USBFS_std.c **** *******************************************************************************/
 475:.\Generated_Source\PSoC5/USBFS_std.c **** void USBFS_Config(uint8 clearAltSetting) 
 476:.\Generated_Source\PSoC5/USBFS_std.c **** {
 985              		.loc 1 476 0
 986              		.cfi_startproc
 987              		@ args = 0, pretend = 0, frame = 32
 988              		@ frame_needed = 1, uses_anonymous_args = 0
 989 0000 80B5     		push	{r7, lr}
 990              	.LCFI6:
 991              		.cfi_def_cfa_offset 8
 992              		.cfi_offset 7, -8
 993              		.cfi_offset 14, -4
 994 0002 88B0     		sub	sp, sp, #32
 995              	.LCFI7:
 996              		.cfi_def_cfa_offset 40
 997 0004 00AF     		add	r7, sp, #0
 998              	.LCFI8:
 999              		.cfi_def_cfa_register 7
 1000 0006 0346     		mov	r3, r0
 1001 0008 FB71     		strb	r3, [r7, #7]
 477:.\Generated_Source\PSoC5/USBFS_std.c ****     uint8 ep;
 478:.\Generated_Source\PSoC5/USBFS_std.c ****     uint8 cur_ep;
 479:.\Generated_Source\PSoC5/USBFS_std.c ****     uint8 i;
 480:.\Generated_Source\PSoC5/USBFS_std.c ****     uint8 ep_type;
 481:.\Generated_Source\PSoC5/USBFS_std.c ****     const uint8 *pDescr;
 482:.\Generated_Source\PSoC5/USBFS_std.c ****     #if(USBFS_EP_MM != USBFS__EP_DMAAUTO)
 483:.\Generated_Source\PSoC5/USBFS_std.c ****         uint16 buffCount = 0u;
 1002              		.loc 1 483 0
 1003 000a 4FF00003 		mov	r3, #0
 1004 000e 7B83     		strh	r3, [r7, #26]	@ movhi
 484:.\Generated_Source\PSoC5/USBFS_std.c ****     #endif /* End USBFS_EP_MM != USBFS__EP_DMAAUTO */
 485:.\Generated_Source\PSoC5/USBFS_std.c **** 
 486:.\Generated_Source\PSoC5/USBFS_std.c ****     const T_USBFS_LUT CYCODE *pTmp;
 487:.\Generated_Source\PSoC5/USBFS_std.c ****     const T_USBFS_EP_SETTINGS_BLOCK CYCODE *pEP;
 488:.\Generated_Source\PSoC5/USBFS_std.c **** 
 489:.\Generated_Source\PSoC5/USBFS_std.c ****     /* Clear all of the endpoints */
 490:.\Generated_Source\PSoC5/USBFS_std.c ****     for (ep = 0u; ep < USBFS_MAX_EP; ep++)
 1005              		.loc 1 490 0
ARM GAS  C:\Users\Robert\AppData\Local\Temp\ccWEb3hA.s 			page 28


 1006 0010 4FF00003 		mov	r3, #0
 1007 0014 FB77     		strb	r3, [r7, #31]
 1008 0016 70E0     		b	.L68
 1009              	.L69:
 491:.\Generated_Source\PSoC5/USBFS_std.c ****     {
 492:.\Generated_Source\PSoC5/USBFS_std.c ****         USBFS_EP[ep].attrib = 0u;
 1010              		.loc 1 492 0 discriminator 2
 1011 0018 F97F     		ldrb	r1, [r7, #31]	@ zero_extendqisi2
 1012 001a 40F20002 		movw	r2, #:lower16:USBFS_EP
 1013 001e C0F20002 		movt	r2, #:upper16:USBFS_EP
 1014 0022 0B46     		mov	r3, r1
 1015 0024 4FEA4303 		lsl	r3, r3, #1
 1016 0028 5B18     		adds	r3, r3, r1
 1017 002a 4FEA8303 		lsl	r3, r3, #2
 1018 002e D318     		adds	r3, r2, r3
 1019 0030 4FF00002 		mov	r2, #0
 1020 0034 1A70     		strb	r2, [r3, #0]
 493:.\Generated_Source\PSoC5/USBFS_std.c ****         USBFS_EP[ep].hwEpState = 0u;
 1021              		.loc 1 493 0 discriminator 2
 1022 0036 F97F     		ldrb	r1, [r7, #31]	@ zero_extendqisi2
 1023 0038 40F20002 		movw	r2, #:lower16:USBFS_EP
 1024 003c C0F20002 		movt	r2, #:upper16:USBFS_EP
 1025 0040 0B46     		mov	r3, r1
 1026 0042 4FEA4303 		lsl	r3, r3, #1
 1027 0046 5B18     		adds	r3, r3, r1
 1028 0048 4FEA8303 		lsl	r3, r3, #2
 1029 004c D318     		adds	r3, r2, r3
 1030 004e 4FF00002 		mov	r2, #0
 1031 0052 9A70     		strb	r2, [r3, #2]
 494:.\Generated_Source\PSoC5/USBFS_std.c ****         USBFS_EP[ep].apiEpState = USBFS_NO_EVENT_PENDING;
 1032              		.loc 1 494 0 discriminator 2
 1033 0054 F97F     		ldrb	r1, [r7, #31]	@ zero_extendqisi2
 1034 0056 40F20002 		movw	r2, #:lower16:USBFS_EP
 1035 005a C0F20002 		movt	r2, #:upper16:USBFS_EP
 1036 005e 0B46     		mov	r3, r1
 1037 0060 4FEA4303 		lsl	r3, r3, #1
 1038 0064 5B18     		adds	r3, r3, r1
 1039 0066 4FEA8303 		lsl	r3, r3, #2
 1040 006a D318     		adds	r3, r2, r3
 1041 006c 4FF00002 		mov	r2, #0
 1042 0070 5A70     		strb	r2, [r3, #1]
 495:.\Generated_Source\PSoC5/USBFS_std.c ****         USBFS_EP[ep].epToggle = 0u;
 1043              		.loc 1 495 0 discriminator 2
 1044 0072 F97F     		ldrb	r1, [r7, #31]	@ zero_extendqisi2
 1045 0074 40F20002 		movw	r2, #:lower16:USBFS_EP
 1046 0078 C0F20002 		movt	r2, #:upper16:USBFS_EP
 1047 007c 0B46     		mov	r3, r1
 1048 007e 4FEA4303 		lsl	r3, r3, #1
 1049 0082 5B18     		adds	r3, r3, r1
 1050 0084 4FEA8303 		lsl	r3, r3, #2
 1051 0088 D318     		adds	r3, r2, r3
 1052 008a 4FF00002 		mov	r2, #0
 1053 008e DA70     		strb	r2, [r3, #3]
 496:.\Generated_Source\PSoC5/USBFS_std.c ****         USBFS_EP[ep].epMode = USBFS_MODE_DISABLE;
 1054              		.loc 1 496 0 discriminator 2
 1055 0090 F97F     		ldrb	r1, [r7, #31]	@ zero_extendqisi2
 1056 0092 40F20002 		movw	r2, #:lower16:USBFS_EP
ARM GAS  C:\Users\Robert\AppData\Local\Temp\ccWEb3hA.s 			page 29


 1057 0096 C0F20002 		movt	r2, #:upper16:USBFS_EP
 1058 009a 0B46     		mov	r3, r1
 1059 009c 4FEA4303 		lsl	r3, r3, #1
 1060 00a0 5B18     		adds	r3, r3, r1
 1061 00a2 4FEA8303 		lsl	r3, r3, #2
 1062 00a6 D318     		adds	r3, r2, r3
 1063 00a8 4FF00002 		mov	r2, #0
 1064 00ac 5A71     		strb	r2, [r3, #5]
 497:.\Generated_Source\PSoC5/USBFS_std.c ****         USBFS_EP[ep].bufferSize = 0u;
 1065              		.loc 1 497 0 discriminator 2
 1066 00ae F97F     		ldrb	r1, [r7, #31]	@ zero_extendqisi2
 1067 00b0 40F20002 		movw	r2, #:lower16:USBFS_EP
 1068 00b4 C0F20002 		movt	r2, #:upper16:USBFS_EP
 1069 00b8 0B46     		mov	r3, r1
 1070 00ba 4FEA4303 		lsl	r3, r3, #1
 1071 00be 5B18     		adds	r3, r3, r1
 1072 00c0 4FEA8303 		lsl	r3, r3, #2
 1073 00c4 D318     		adds	r3, r2, r3
 1074 00c6 03F10803 		add	r3, r3, #8
 1075 00ca 4FF00002 		mov	r2, #0
 1076 00ce 1A80     		strh	r2, [r3, #0]	@ movhi
 498:.\Generated_Source\PSoC5/USBFS_std.c ****         USBFS_EP[ep].interface = 0u;
 1077              		.loc 1 498 0 discriminator 2
 1078 00d0 F97F     		ldrb	r1, [r7, #31]	@ zero_extendqisi2
 1079 00d2 40F20002 		movw	r2, #:lower16:USBFS_EP
 1080 00d6 C0F20002 		movt	r2, #:upper16:USBFS_EP
 1081 00da 0B46     		mov	r3, r1
 1082 00dc 4FEA4303 		lsl	r3, r3, #1
 1083 00e0 5B18     		adds	r3, r3, r1
 1084 00e2 4FEA8303 		lsl	r3, r3, #2
 1085 00e6 D318     		adds	r3, r2, r3
 1086 00e8 03F10803 		add	r3, r3, #8
 1087 00ec 4FF00002 		mov	r2, #0
 1088 00f0 9A70     		strb	r2, [r3, #2]
 490:.\Generated_Source\PSoC5/USBFS_std.c ****     for (ep = 0u; ep < USBFS_MAX_EP; ep++)
 1089              		.loc 1 490 0 discriminator 2
 1090 00f2 FB7F     		ldrb	r3, [r7, #31]
 1091 00f4 03F10103 		add	r3, r3, #1
 1092 00f8 FB77     		strb	r3, [r7, #31]
 1093              	.L68:
 490:.\Generated_Source\PSoC5/USBFS_std.c ****     for (ep = 0u; ep < USBFS_MAX_EP; ep++)
 1094              		.loc 1 490 0 is_stmt 0 discriminator 1
 1095 00fa FB7F     		ldrb	r3, [r7, #31]	@ zero_extendqisi2
 1096 00fc 082B     		cmp	r3, #8
 1097 00fe 8BD9     		bls	.L69
 499:.\Generated_Source\PSoC5/USBFS_std.c **** 
 500:.\Generated_Source\PSoC5/USBFS_std.c ****     }
 501:.\Generated_Source\PSoC5/USBFS_std.c **** 
 502:.\Generated_Source\PSoC5/USBFS_std.c ****     /* Clear Alternate settings for all interfaces */
 503:.\Generated_Source\PSoC5/USBFS_std.c ****     if(clearAltSetting != 0u)
 1098              		.loc 1 503 0 is_stmt 1
 1099 0100 FB79     		ldrb	r3, [r7, #7]	@ zero_extendqisi2
 1100 0102 002B     		cmp	r3, #0
 1101 0104 1AD0     		beq	.L70
 504:.\Generated_Source\PSoC5/USBFS_std.c ****     {
 505:.\Generated_Source\PSoC5/USBFS_std.c ****         for (i = 0u; i < USBFS_MAX_INTERFACES_NUMBER; i++)
 1102              		.loc 1 505 0
ARM GAS  C:\Users\Robert\AppData\Local\Temp\ccWEb3hA.s 			page 30


 1103 0106 4FF00003 		mov	r3, #0
 1104 010a 7B77     		strb	r3, [r7, #29]
 1105 010c 13E0     		b	.L71
 1106              	.L72:
 506:.\Generated_Source\PSoC5/USBFS_std.c ****         {
 507:.\Generated_Source\PSoC5/USBFS_std.c ****             USBFS_interfaceSetting[i] = 0x00u;
 1107              		.loc 1 507 0 discriminator 2
 1108 010e 7A7F     		ldrb	r2, [r7, #29]	@ zero_extendqisi2
 1109 0110 40F20003 		movw	r3, #:lower16:USBFS_interfaceSetting
 1110 0114 C0F20003 		movt	r3, #:upper16:USBFS_interfaceSetting
 1111 0118 4FF00001 		mov	r1, #0
 1112 011c 9954     		strb	r1, [r3, r2]
 508:.\Generated_Source\PSoC5/USBFS_std.c ****             USBFS_interfaceSetting_last[i] = 0x00u;
 1113              		.loc 1 508 0 discriminator 2
 1114 011e 7A7F     		ldrb	r2, [r7, #29]	@ zero_extendqisi2
 1115 0120 40F20003 		movw	r3, #:lower16:USBFS_interfaceSetting_last
 1116 0124 C0F20003 		movt	r3, #:upper16:USBFS_interfaceSetting_last
 1117 0128 4FF00001 		mov	r1, #0
 1118 012c 9954     		strb	r1, [r3, r2]
 505:.\Generated_Source\PSoC5/USBFS_std.c ****         for (i = 0u; i < USBFS_MAX_INTERFACES_NUMBER; i++)
 1119              		.loc 1 505 0 discriminator 2
 1120 012e 7B7F     		ldrb	r3, [r7, #29]
 1121 0130 03F10103 		add	r3, r3, #1
 1122 0134 7B77     		strb	r3, [r7, #29]
 1123              	.L71:
 505:.\Generated_Source\PSoC5/USBFS_std.c ****         for (i = 0u; i < USBFS_MAX_INTERFACES_NUMBER; i++)
 1124              		.loc 1 505 0 is_stmt 0 discriminator 1
 1125 0136 7B7F     		ldrb	r3, [r7, #29]	@ zero_extendqisi2
 1126 0138 002B     		cmp	r3, #0
 1127 013a E8D0     		beq	.L72
 1128              	.L70:
 509:.\Generated_Source\PSoC5/USBFS_std.c ****         }
 510:.\Generated_Source\PSoC5/USBFS_std.c ****     }
 511:.\Generated_Source\PSoC5/USBFS_std.c **** 
 512:.\Generated_Source\PSoC5/USBFS_std.c ****     /* Init Endpoints and Device Status if configured */
 513:.\Generated_Source\PSoC5/USBFS_std.c ****     if(USBFS_configuration > 0u)
 1129              		.loc 1 513 0 is_stmt 1
 1130 013c 40F20003 		movw	r3, #:lower16:USBFS_configuration
 1131 0140 C0F20003 		movt	r3, #:upper16:USBFS_configuration
 1132 0144 1B78     		ldrb	r3, [r3, #0]
 1133 0146 DBB2     		uxtb	r3, r3
 1134 0148 002B     		cmp	r3, #0
 1135 014a 00F06B81 		beq	.L67
 514:.\Generated_Source\PSoC5/USBFS_std.c ****     {
 515:.\Generated_Source\PSoC5/USBFS_std.c ****         pTmp = USBFS_GetConfigTablePtr(USBFS_configuration - 1u);
 1136              		.loc 1 515 0
 1137 014e 40F20003 		movw	r3, #:lower16:USBFS_configuration
 1138 0152 C0F20003 		movt	r3, #:upper16:USBFS_configuration
 1139 0156 1B78     		ldrb	r3, [r3, #0]
 1140 0158 DBB2     		uxtb	r3, r3
 1141 015a 03F1FF33 		add	r3, r3, #-1
 1142 015e DBB2     		uxtb	r3, r3
 1143 0160 1846     		mov	r0, r3
 1144 0162 FFF7FEFF 		bl	USBFS_GetConfigTablePtr
 1145 0166 3861     		str	r0, [r7, #16]
 516:.\Generated_Source\PSoC5/USBFS_std.c ****         /* Set Power status for current configuration */
 517:.\Generated_Source\PSoC5/USBFS_std.c ****         pDescr = (const uint8 *)pTmp->p_list;
ARM GAS  C:\Users\Robert\AppData\Local\Temp\ccWEb3hA.s 			page 31


 1146              		.loc 1 517 0
 1147 0168 3B69     		ldr	r3, [r7, #16]
 1148 016a 5B68     		ldr	r3, [r3, #4]
 1149 016c FB60     		str	r3, [r7, #12]
 518:.\Generated_Source\PSoC5/USBFS_std.c ****         if((pDescr[USBFS_CONFIG_DESCR_ATTRIB] & USBFS_CONFIG_DESCR_ATTRIB_SELF_POWERED) != 0u)
 1150              		.loc 1 518 0
 1151 016e FB68     		ldr	r3, [r7, #12]
 1152 0170 03F10703 		add	r3, r3, #7
 1153 0174 1B78     		ldrb	r3, [r3, #0]	@ zero_extendqisi2
 1154 0176 03F04003 		and	r3, r3, #64
 1155 017a 002B     		cmp	r3, #0
 1156 017c 0ED0     		beq	.L74
 519:.\Generated_Source\PSoC5/USBFS_std.c ****         {
 520:.\Generated_Source\PSoC5/USBFS_std.c ****             USBFS_deviceStatus |=  USBFS_DEVICE_STATUS_SELF_POWERED;
 1157              		.loc 1 520 0
 1158 017e 40F20003 		movw	r3, #:lower16:USBFS_deviceStatus
 1159 0182 C0F20003 		movt	r3, #:upper16:USBFS_deviceStatus
 1160 0186 1B78     		ldrb	r3, [r3, #0]
 1161 0188 DBB2     		uxtb	r3, r3
 1162 018a 43F00103 		orr	r3, r3, #1
 1163 018e DAB2     		uxtb	r2, r3
 1164 0190 40F20003 		movw	r3, #:lower16:USBFS_deviceStatus
 1165 0194 C0F20003 		movt	r3, #:upper16:USBFS_deviceStatus
 1166 0198 1A70     		strb	r2, [r3, #0]
 1167 019a 0DE0     		b	.L75
 1168              	.L74:
 521:.\Generated_Source\PSoC5/USBFS_std.c ****         }
 522:.\Generated_Source\PSoC5/USBFS_std.c ****         else
 523:.\Generated_Source\PSoC5/USBFS_std.c ****         {
 524:.\Generated_Source\PSoC5/USBFS_std.c ****             USBFS_deviceStatus &=  (uint8)~USBFS_DEVICE_STATUS_SELF_POWERED;
 1169              		.loc 1 524 0
 1170 019c 40F20003 		movw	r3, #:lower16:USBFS_deviceStatus
 1171 01a0 C0F20003 		movt	r3, #:upper16:USBFS_deviceStatus
 1172 01a4 1B78     		ldrb	r3, [r3, #0]
 1173 01a6 DBB2     		uxtb	r3, r3
 1174 01a8 23F00103 		bic	r3, r3, #1
 1175 01ac DAB2     		uxtb	r2, r3
 1176 01ae 40F20003 		movw	r3, #:lower16:USBFS_deviceStatus
 1177 01b2 C0F20003 		movt	r3, #:upper16:USBFS_deviceStatus
 1178 01b6 1A70     		strb	r2, [r3, #0]
 1179              	.L75:
 525:.\Generated_Source\PSoC5/USBFS_std.c ****         }
 526:.\Generated_Source\PSoC5/USBFS_std.c ****         /* Move to next element */
 527:.\Generated_Source\PSoC5/USBFS_std.c ****         pTmp = &pTmp[1u];
 1180              		.loc 1 527 0
 1181 01b8 3B69     		ldr	r3, [r7, #16]
 1182 01ba 03F10803 		add	r3, r3, #8
 1183 01be 3B61     		str	r3, [r7, #16]
 528:.\Generated_Source\PSoC5/USBFS_std.c ****         ep = pTmp->c;  /* For this table, c is the number of endpoints configurations  */
 1184              		.loc 1 528 0
 1185 01c0 3B69     		ldr	r3, [r7, #16]
 1186 01c2 1B78     		ldrb	r3, [r3, #0]
 1187 01c4 FB77     		strb	r3, [r7, #31]
 529:.\Generated_Source\PSoC5/USBFS_std.c **** 
 530:.\Generated_Source\PSoC5/USBFS_std.c ****         #if ((USBFS_EP_MA == USBFS__MA_DYNAMIC) && \
 531:.\Generated_Source\PSoC5/USBFS_std.c ****              (USBFS_EP_MM == USBFS__EP_MANUAL) )
 532:.\Generated_Source\PSoC5/USBFS_std.c ****             /* Configure for dynamic EP memory allocation */
ARM GAS  C:\Users\Robert\AppData\Local\Temp\ccWEb3hA.s 			page 32


 533:.\Generated_Source\PSoC5/USBFS_std.c ****             /* p_list points the endpoint setting table. */
 534:.\Generated_Source\PSoC5/USBFS_std.c ****             pEP = (T_USBFS_EP_SETTINGS_BLOCK *) pTmp->p_list;
 535:.\Generated_Source\PSoC5/USBFS_std.c ****             for (i = 0u; i < ep; i++)
 536:.\Generated_Source\PSoC5/USBFS_std.c ****             {
 537:.\Generated_Source\PSoC5/USBFS_std.c ****                 /* Compare current Alternate setting with EP Alt*/
 538:.\Generated_Source\PSoC5/USBFS_std.c ****                 if(USBFS_interfaceSetting[pEP->interface] == pEP->altSetting)
 539:.\Generated_Source\PSoC5/USBFS_std.c ****                 {
 540:.\Generated_Source\PSoC5/USBFS_std.c ****                     cur_ep = pEP->addr & USBFS_DIR_UNUSED;
 541:.\Generated_Source\PSoC5/USBFS_std.c ****                     ep_type = pEP->attributes & USBFS_EP_TYPE_MASK;
 542:.\Generated_Source\PSoC5/USBFS_std.c ****                     if (pEP->addr & USBFS_DIR_IN)
 543:.\Generated_Source\PSoC5/USBFS_std.c ****                     {
 544:.\Generated_Source\PSoC5/USBFS_std.c ****                         /* IN Endpoint */
 545:.\Generated_Source\PSoC5/USBFS_std.c ****                         USBFS_EP[cur_ep].apiEpState = USBFS_EVENT_PENDING;
 546:.\Generated_Source\PSoC5/USBFS_std.c ****                         USBFS_EP[cur_ep].epMode = (ep_type == USBFS_EP_TYPE_ISOC) ?
 547:.\Generated_Source\PSoC5/USBFS_std.c ****                                                         USBFS_MODE_ISO_IN : USBFS_MODE_ACK_IN;
 548:.\Generated_Source\PSoC5/USBFS_std.c ****                         #if defined(USBFS_ENABLE_CDC_CLASS)
 549:.\Generated_Source\PSoC5/USBFS_std.c ****                             if(((pEP->bMisc == USBFS_CLASS_CDC_DATA) ||
 550:.\Generated_Source\PSoC5/USBFS_std.c ****                                 (pEP->bMisc == USBFS_CLASS_CDC)) &&
 551:.\Generated_Source\PSoC5/USBFS_std.c ****                                 (ep_type != USBFS_EP_TYPE_INT))
 552:.\Generated_Source\PSoC5/USBFS_std.c ****                             {
 553:.\Generated_Source\PSoC5/USBFS_std.c ****                                 USBFS_cdc_data_in_ep = cur_ep;
 554:.\Generated_Source\PSoC5/USBFS_std.c ****                             }
 555:.\Generated_Source\PSoC5/USBFS_std.c ****                         #endif  /* End USBFS_ENABLE_CDC_CLASS*/
 556:.\Generated_Source\PSoC5/USBFS_std.c ****                         #if ( defined(USBFS_ENABLE_MIDI_STREAMING) && \
 557:.\Generated_Source\PSoC5/USBFS_std.c ****                                              (USBFS_MIDI_IN_BUFF_SIZE > 0) )
 558:.\Generated_Source\PSoC5/USBFS_std.c ****                             if((pEP->bMisc == USBFS_CLASS_AUDIO) &&
 559:.\Generated_Source\PSoC5/USBFS_std.c ****                                (ep_type == USBFS_EP_TYPE_BULK))
 560:.\Generated_Source\PSoC5/USBFS_std.c ****                             {
 561:.\Generated_Source\PSoC5/USBFS_std.c ****                                 USBFS_midi_in_ep = cur_ep;
 562:.\Generated_Source\PSoC5/USBFS_std.c ****                             }
 563:.\Generated_Source\PSoC5/USBFS_std.c ****                         #endif  /* End USBFS_ENABLE_MIDI_STREAMING*/
 564:.\Generated_Source\PSoC5/USBFS_std.c ****                     }
 565:.\Generated_Source\PSoC5/USBFS_std.c ****                     else
 566:.\Generated_Source\PSoC5/USBFS_std.c ****                     {
 567:.\Generated_Source\PSoC5/USBFS_std.c ****                         /* OUT Endpoint */
 568:.\Generated_Source\PSoC5/USBFS_std.c ****                         USBFS_EP[cur_ep].apiEpState = USBFS_NO_EVENT_PENDING;
 569:.\Generated_Source\PSoC5/USBFS_std.c ****                         USBFS_EP[cur_ep].epMode = (ep_type == USBFS_EP_TYPE_ISOC) ?
 570:.\Generated_Source\PSoC5/USBFS_std.c ****                                                     USBFS_MODE_ISO_OUT : USBFS_MODE_ACK_OUT;
 571:.\Generated_Source\PSoC5/USBFS_std.c ****                         #if defined(USBFS_ENABLE_CDC_CLASS)
 572:.\Generated_Source\PSoC5/USBFS_std.c ****                             if(((pEP->bMisc == USBFS_CLASS_CDC_DATA) ||
 573:.\Generated_Source\PSoC5/USBFS_std.c ****                                 (pEP->bMisc == USBFS_CLASS_CDC)) &&
 574:.\Generated_Source\PSoC5/USBFS_std.c ****                                 (ep_type != USBFS_EP_TYPE_INT))
 575:.\Generated_Source\PSoC5/USBFS_std.c ****                             {
 576:.\Generated_Source\PSoC5/USBFS_std.c ****                                 USBFS_cdc_data_out_ep = cur_ep;
 577:.\Generated_Source\PSoC5/USBFS_std.c ****                             }
 578:.\Generated_Source\PSoC5/USBFS_std.c ****                         #endif  /* End USBFS_ENABLE_CDC_CLASS*/
 579:.\Generated_Source\PSoC5/USBFS_std.c ****                         #if ( defined(USBFS_ENABLE_MIDI_STREAMING) && \
 580:.\Generated_Source\PSoC5/USBFS_std.c ****                                      (USBFS_MIDI_OUT_BUFF_SIZE > 0) )
 581:.\Generated_Source\PSoC5/USBFS_std.c ****                             if((pEP->bMisc == USBFS_CLASS_AUDIO) &&
 582:.\Generated_Source\PSoC5/USBFS_std.c ****                                (ep_type == USBFS_EP_TYPE_BULK))
 583:.\Generated_Source\PSoC5/USBFS_std.c ****                             {
 584:.\Generated_Source\PSoC5/USBFS_std.c ****                                 USBFS_midi_out_ep = cur_ep;
 585:.\Generated_Source\PSoC5/USBFS_std.c ****                             }
 586:.\Generated_Source\PSoC5/USBFS_std.c ****                         #endif  /* End USBFS_ENABLE_MIDI_STREAMING*/
 587:.\Generated_Source\PSoC5/USBFS_std.c ****                     }
 588:.\Generated_Source\PSoC5/USBFS_std.c ****                     USBFS_EP[cur_ep].bufferSize = pEP->bufferSize;
 589:.\Generated_Source\PSoC5/USBFS_std.c ****                     USBFS_EP[cur_ep].addr = pEP->addr;
ARM GAS  C:\Users\Robert\AppData\Local\Temp\ccWEb3hA.s 			page 33


 590:.\Generated_Source\PSoC5/USBFS_std.c ****                     USBFS_EP[cur_ep].attrib = pEP->attributes;
 591:.\Generated_Source\PSoC5/USBFS_std.c ****                 }
 592:.\Generated_Source\PSoC5/USBFS_std.c ****                 pEP = &pEP[1u];
 593:.\Generated_Source\PSoC5/USBFS_std.c ****             }
 594:.\Generated_Source\PSoC5/USBFS_std.c ****         #else /* Config for static EP memory allocation  */
 595:.\Generated_Source\PSoC5/USBFS_std.c ****             for (i = USBFS_EP1; i < USBFS_MAX_EP; i++)
 1188              		.loc 1 595 0
 1189 01c6 4FF00103 		mov	r3, #1
 1190 01ca 7B77     		strb	r3, [r7, #29]
 1191 01cc C8E0     		b	.L76
 1192              	.L87:
 596:.\Generated_Source\PSoC5/USBFS_std.c ****             {
 597:.\Generated_Source\PSoC5/USBFS_std.c ****                 /* p_list points the endpoint setting table. */
 598:.\Generated_Source\PSoC5/USBFS_std.c ****                 pEP = (const T_USBFS_EP_SETTINGS_BLOCK CYCODE *) pTmp->p_list;
 1193              		.loc 1 598 0
 1194 01ce 3B69     		ldr	r3, [r7, #16]
 1195 01d0 5B68     		ldr	r3, [r3, #4]
 1196 01d2 7B61     		str	r3, [r7, #20]
 599:.\Generated_Source\PSoC5/USBFS_std.c ****                 /* Find max length for each EP and select it (length could be different in differen
 600:.\Generated_Source\PSoC5/USBFS_std.c ****                 /* but other settings should be correct with regards to Interface alt Setting */
 601:.\Generated_Source\PSoC5/USBFS_std.c ****                 for (cur_ep = 0u; cur_ep < ep; cur_ep++)
 1197              		.loc 1 601 0
 1198 01d4 4FF00003 		mov	r3, #0
 1199 01d8 BB77     		strb	r3, [r7, #30]
 1200 01da B8E0     		b	.L77
 1201              	.L86:
 602:.\Generated_Source\PSoC5/USBFS_std.c ****                 {
 603:.\Generated_Source\PSoC5/USBFS_std.c ****                     /* EP count is equal to EP # in table and we found larger EP length than have b
 604:.\Generated_Source\PSoC5/USBFS_std.c ****                     if(i == (pEP->addr & USBFS_DIR_UNUSED))
 1202              		.loc 1 604 0
 1203 01dc 7A7F     		ldrb	r2, [r7, #29]	@ zero_extendqisi2
 1204 01de 7B69     		ldr	r3, [r7, #20]
 1205 01e0 9B78     		ldrb	r3, [r3, #2]	@ zero_extendqisi2
 1206 01e2 03F07F03 		and	r3, r3, #127
 1207 01e6 9A42     		cmp	r2, r3
 1208 01e8 40F0A980 		bne	.L78
 605:.\Generated_Source\PSoC5/USBFS_std.c ****                     {
 606:.\Generated_Source\PSoC5/USBFS_std.c ****                         if(USBFS_EP[i].bufferSize < pEP->bufferSize)
 1209              		.loc 1 606 0
 1210 01ec 797F     		ldrb	r1, [r7, #29]	@ zero_extendqisi2
 1211 01ee 40F20002 		movw	r2, #:lower16:USBFS_EP
 1212 01f2 C0F20002 		movt	r2, #:upper16:USBFS_EP
 1213 01f6 0B46     		mov	r3, r1
 1214 01f8 4FEA4303 		lsl	r3, r3, #1
 1215 01fc 5B18     		adds	r3, r3, r1
 1216 01fe 4FEA8303 		lsl	r3, r3, #2
 1217 0202 D318     		adds	r3, r2, r3
 1218 0204 03F10803 		add	r3, r3, #8
 1219 0208 1B88     		ldrh	r3, [r3, #0]	@ movhi
 1220 020a 9AB2     		uxth	r2, r3
 1221 020c 7B69     		ldr	r3, [r7, #20]
 1222 020e 9B88     		ldrh	r3, [r3, #4]
 1223 0210 9A42     		cmp	r2, r3
 1224 0212 11D2     		bcs	.L79
 607:.\Generated_Source\PSoC5/USBFS_std.c ****                         {
 608:.\Generated_Source\PSoC5/USBFS_std.c ****                             USBFS_EP[i].bufferSize = pEP->bufferSize;
 1225              		.loc 1 608 0
ARM GAS  C:\Users\Robert\AppData\Local\Temp\ccWEb3hA.s 			page 34


 1226 0214 797F     		ldrb	r1, [r7, #29]	@ zero_extendqisi2
 1227 0216 7B69     		ldr	r3, [r7, #20]
 1228 0218 9888     		ldrh	r0, [r3, #4]
 1229 021a 40F20002 		movw	r2, #:lower16:USBFS_EP
 1230 021e C0F20002 		movt	r2, #:upper16:USBFS_EP
 1231 0222 0B46     		mov	r3, r1
 1232 0224 4FEA4303 		lsl	r3, r3, #1
 1233 0228 5B18     		adds	r3, r3, r1
 1234 022a 4FEA8303 		lsl	r3, r3, #2
 1235 022e D318     		adds	r3, r2, r3
 1236 0230 03F10803 		add	r3, r3, #8
 1237 0234 0246     		mov	r2, r0	@ movhi
 1238 0236 1A80     		strh	r2, [r3, #0]	@ movhi
 1239              	.L79:
 609:.\Generated_Source\PSoC5/USBFS_std.c ****                         }
 610:.\Generated_Source\PSoC5/USBFS_std.c ****                         /* Compare current Alternate setting with EP Alt*/
 611:.\Generated_Source\PSoC5/USBFS_std.c ****                         if(USBFS_interfaceSetting[pEP->interface] == pEP->altSetting)
 1240              		.loc 1 611 0
 1241 0238 7B69     		ldr	r3, [r7, #20]
 1242 023a 1B78     		ldrb	r3, [r3, #0]	@ zero_extendqisi2
 1243 023c 1A46     		mov	r2, r3
 1244 023e 40F20003 		movw	r3, #:lower16:USBFS_interfaceSetting
 1245 0242 C0F20003 		movt	r3, #:upper16:USBFS_interfaceSetting
 1246 0246 9B5C     		ldrb	r3, [r3, r2]
 1247 0248 DAB2     		uxtb	r2, r3
 1248 024a 7B69     		ldr	r3, [r7, #20]
 1249 024c 5B78     		ldrb	r3, [r3, #1]	@ zero_extendqisi2
 1250 024e 9A42     		cmp	r2, r3
 1251 0250 75D1     		bne	.L78
 612:.\Generated_Source\PSoC5/USBFS_std.c ****                         {
 613:.\Generated_Source\PSoC5/USBFS_std.c ****                             ep_type = pEP->attributes & USBFS_EP_TYPE_MASK;
 1252              		.loc 1 613 0
 1253 0252 7B69     		ldr	r3, [r7, #20]
 1254 0254 DB78     		ldrb	r3, [r3, #3]	@ zero_extendqisi2
 1255 0256 03F00303 		and	r3, r3, #3
 1256 025a FB72     		strb	r3, [r7, #11]
 614:.\Generated_Source\PSoC5/USBFS_std.c ****                             if ((pEP->addr & USBFS_DIR_IN) != 0u)
 1257              		.loc 1 614 0
 1258 025c 7B69     		ldr	r3, [r7, #20]
 1259 025e 9B78     		ldrb	r3, [r3, #2]	@ zero_extendqisi2
 1260 0260 DBB2     		uxtb	r3, r3
 1261 0262 5BB2     		sxtb	r3, r3
 1262 0264 002B     		cmp	r3, #0
 1263 0266 25DA     		bge	.L80
 615:.\Generated_Source\PSoC5/USBFS_std.c ****                             {
 616:.\Generated_Source\PSoC5/USBFS_std.c ****                                 /* IN Endpoint */
 617:.\Generated_Source\PSoC5/USBFS_std.c ****                                 USBFS_EP[i].apiEpState = USBFS_EVENT_PENDING;
 1264              		.loc 1 617 0
 1265 0268 797F     		ldrb	r1, [r7, #29]	@ zero_extendqisi2
 1266 026a 40F20002 		movw	r2, #:lower16:USBFS_EP
 1267 026e C0F20002 		movt	r2, #:upper16:USBFS_EP
 1268 0272 0B46     		mov	r3, r1
 1269 0274 4FEA4303 		lsl	r3, r3, #1
 1270 0278 5B18     		adds	r3, r3, r1
 1271 027a 4FEA8303 		lsl	r3, r3, #2
 1272 027e D318     		adds	r3, r2, r3
 1273 0280 4FF00102 		mov	r2, #1
ARM GAS  C:\Users\Robert\AppData\Local\Temp\ccWEb3hA.s 			page 35


 1274 0284 5A70     		strb	r2, [r3, #1]
 618:.\Generated_Source\PSoC5/USBFS_std.c ****                                 USBFS_EP[i].epMode = (ep_type == USBFS_EP_TYPE_ISOC) ?
 1275              		.loc 1 618 0
 1276 0286 787F     		ldrb	r0, [r7, #29]	@ zero_extendqisi2
 1277 0288 FB7A     		ldrb	r3, [r7, #11]	@ zero_extendqisi2
 1278 028a 012B     		cmp	r3, #1
 1279 028c 02D1     		bne	.L81
 1280              		.loc 1 618 0 is_stmt 0 discriminator 1
 1281 028e 4FF00701 		mov	r1, #7
 1282 0292 01E0     		b	.L82
 1283              	.L81:
 1284              		.loc 1 618 0 discriminator 2
 1285 0294 4FF00D01 		mov	r1, #13
 1286              	.L82:
 1287              		.loc 1 618 0 discriminator 3
 1288 0298 40F20002 		movw	r2, #:lower16:USBFS_EP
 1289 029c C0F20002 		movt	r2, #:upper16:USBFS_EP
 1290 02a0 0346     		mov	r3, r0
 1291 02a2 4FEA4303 		lsl	r3, r3, #1
 1292 02a6 1B18     		adds	r3, r3, r0
 1293 02a8 4FEA8303 		lsl	r3, r3, #2
 1294 02ac D318     		adds	r3, r2, r3
 1295 02ae 0A46     		mov	r2, r1
 1296 02b0 5A71     		strb	r2, [r3, #5]
 1297 02b2 24E0     		b	.L83
 1298              	.L80:
 619:.\Generated_Source\PSoC5/USBFS_std.c ****                                                         USBFS_MODE_ISO_IN : USBFS_MODE_ACK_IN;
 620:.\Generated_Source\PSoC5/USBFS_std.c ****                                 /* Find and init CDC IN endpoint number */
 621:.\Generated_Source\PSoC5/USBFS_std.c ****                                 #if defined(USBFS_ENABLE_CDC_CLASS)
 622:.\Generated_Source\PSoC5/USBFS_std.c ****                                     if(((pEP->bMisc == USBFS_CLASS_CDC_DATA) ||
 623:.\Generated_Source\PSoC5/USBFS_std.c ****                                         (pEP->bMisc == USBFS_CLASS_CDC)) &&
 624:.\Generated_Source\PSoC5/USBFS_std.c ****                                         (ep_type != USBFS_EP_TYPE_INT))
 625:.\Generated_Source\PSoC5/USBFS_std.c ****                                     {
 626:.\Generated_Source\PSoC5/USBFS_std.c ****                                         USBFS_cdc_data_in_ep = i;
 627:.\Generated_Source\PSoC5/USBFS_std.c ****                                     }
 628:.\Generated_Source\PSoC5/USBFS_std.c ****                                 #endif  /* End USBFS_ENABLE_CDC_CLASS*/
 629:.\Generated_Source\PSoC5/USBFS_std.c ****                                 #if ( defined(USBFS_ENABLE_MIDI_STREAMING) && \
 630:.\Generated_Source\PSoC5/USBFS_std.c ****                                              (USBFS_MIDI_IN_BUFF_SIZE > 0) )
 631:.\Generated_Source\PSoC5/USBFS_std.c ****                                     if((pEP->bMisc == USBFS_CLASS_AUDIO) &&
 632:.\Generated_Source\PSoC5/USBFS_std.c ****                                        (ep_type == USBFS_EP_TYPE_BULK))
 633:.\Generated_Source\PSoC5/USBFS_std.c ****                                     {
 634:.\Generated_Source\PSoC5/USBFS_std.c ****                                         USBFS_midi_in_ep = i;
 635:.\Generated_Source\PSoC5/USBFS_std.c ****                                     }
 636:.\Generated_Source\PSoC5/USBFS_std.c ****                                 #endif  /* End USBFS_ENABLE_MIDI_STREAMING*/
 637:.\Generated_Source\PSoC5/USBFS_std.c ****                             }
 638:.\Generated_Source\PSoC5/USBFS_std.c ****                             else
 639:.\Generated_Source\PSoC5/USBFS_std.c ****                             {
 640:.\Generated_Source\PSoC5/USBFS_std.c ****                                 /* OUT Endpoint */
 641:.\Generated_Source\PSoC5/USBFS_std.c ****                                 USBFS_EP[i].apiEpState = USBFS_NO_EVENT_PENDING;
 1299              		.loc 1 641 0 is_stmt 1
 1300 02b4 797F     		ldrb	r1, [r7, #29]	@ zero_extendqisi2
 1301 02b6 40F20002 		movw	r2, #:lower16:USBFS_EP
 1302 02ba C0F20002 		movt	r2, #:upper16:USBFS_EP
 1303 02be 0B46     		mov	r3, r1
 1304 02c0 4FEA4303 		lsl	r3, r3, #1
 1305 02c4 5B18     		adds	r3, r3, r1
 1306 02c6 4FEA8303 		lsl	r3, r3, #2
ARM GAS  C:\Users\Robert\AppData\Local\Temp\ccWEb3hA.s 			page 36


 1307 02ca D318     		adds	r3, r2, r3
 1308 02cc 4FF00002 		mov	r2, #0
 1309 02d0 5A70     		strb	r2, [r3, #1]
 642:.\Generated_Source\PSoC5/USBFS_std.c ****                                 USBFS_EP[i].epMode = (ep_type == USBFS_EP_TYPE_ISOC) ?
 1310              		.loc 1 642 0
 1311 02d2 787F     		ldrb	r0, [r7, #29]	@ zero_extendqisi2
 1312 02d4 FB7A     		ldrb	r3, [r7, #11]	@ zero_extendqisi2
 1313 02d6 012B     		cmp	r3, #1
 1314 02d8 02D1     		bne	.L84
 1315              		.loc 1 642 0 is_stmt 0 discriminator 1
 1316 02da 4FF00501 		mov	r1, #5
 1317 02de 01E0     		b	.L85
 1318              	.L84:
 1319              		.loc 1 642 0 discriminator 2
 1320 02e0 4FF00901 		mov	r1, #9
 1321              	.L85:
 1322              		.loc 1 642 0 discriminator 3
 1323 02e4 40F20002 		movw	r2, #:lower16:USBFS_EP
 1324 02e8 C0F20002 		movt	r2, #:upper16:USBFS_EP
 1325 02ec 0346     		mov	r3, r0
 1326 02ee 4FEA4303 		lsl	r3, r3, #1
 1327 02f2 1B18     		adds	r3, r3, r0
 1328 02f4 4FEA8303 		lsl	r3, r3, #2
 1329 02f8 D318     		adds	r3, r2, r3
 1330 02fa 0A46     		mov	r2, r1
 1331 02fc 5A71     		strb	r2, [r3, #5]
 1332              	.L83:
 643:.\Generated_Source\PSoC5/USBFS_std.c ****                                                     USBFS_MODE_ISO_OUT : USBFS_MODE_ACK_OUT;
 644:.\Generated_Source\PSoC5/USBFS_std.c ****                                 /* Find and init CDC IN endpoint number */
 645:.\Generated_Source\PSoC5/USBFS_std.c ****                                 #if defined(USBFS_ENABLE_CDC_CLASS)
 646:.\Generated_Source\PSoC5/USBFS_std.c ****                                     if(((pEP->bMisc == USBFS_CLASS_CDC_DATA) ||
 647:.\Generated_Source\PSoC5/USBFS_std.c ****                                         (pEP->bMisc == USBFS_CLASS_CDC)) &&
 648:.\Generated_Source\PSoC5/USBFS_std.c ****                                         (ep_type != USBFS_EP_TYPE_INT))
 649:.\Generated_Source\PSoC5/USBFS_std.c ****                                     {
 650:.\Generated_Source\PSoC5/USBFS_std.c ****                                         USBFS_cdc_data_out_ep = i;
 651:.\Generated_Source\PSoC5/USBFS_std.c ****                                     }
 652:.\Generated_Source\PSoC5/USBFS_std.c ****                                 #endif  /* End USBFS_ENABLE_CDC_CLASS*/
 653:.\Generated_Source\PSoC5/USBFS_std.c ****                                 #if ( defined(USBFS_ENABLE_MIDI_STREAMING) && \
 654:.\Generated_Source\PSoC5/USBFS_std.c ****                                              (USBFS_MIDI_OUT_BUFF_SIZE > 0) )
 655:.\Generated_Source\PSoC5/USBFS_std.c ****                                     if((pEP->bMisc == USBFS_CLASS_AUDIO) &&
 656:.\Generated_Source\PSoC5/USBFS_std.c ****                                        (ep_type == USBFS_EP_TYPE_BULK))
 657:.\Generated_Source\PSoC5/USBFS_std.c ****                                     {
 658:.\Generated_Source\PSoC5/USBFS_std.c ****                                         USBFS_midi_out_ep = i;
 659:.\Generated_Source\PSoC5/USBFS_std.c ****                                     }
 660:.\Generated_Source\PSoC5/USBFS_std.c ****                                 #endif  /* End USBFS_ENABLE_MIDI_STREAMING*/
 661:.\Generated_Source\PSoC5/USBFS_std.c ****                             }
 662:.\Generated_Source\PSoC5/USBFS_std.c ****                             USBFS_EP[i].addr = pEP->addr;
 1333              		.loc 1 662 0 is_stmt 1
 1334 02fe 797F     		ldrb	r1, [r7, #29]	@ zero_extendqisi2
 1335 0300 7B69     		ldr	r3, [r7, #20]
 1336 0302 9878     		ldrb	r0, [r3, #2]	@ zero_extendqisi2
 1337 0304 40F20002 		movw	r2, #:lower16:USBFS_EP
 1338 0308 C0F20002 		movt	r2, #:upper16:USBFS_EP
 1339 030c 0B46     		mov	r3, r1
 1340 030e 4FEA4303 		lsl	r3, r3, #1
 1341 0312 5B18     		adds	r3, r3, r1
 1342 0314 4FEA8303 		lsl	r3, r3, #2
ARM GAS  C:\Users\Robert\AppData\Local\Temp\ccWEb3hA.s 			page 37


 1343 0318 D318     		adds	r3, r2, r3
 1344 031a 0246     		mov	r2, r0
 1345 031c 1A71     		strb	r2, [r3, #4]
 663:.\Generated_Source\PSoC5/USBFS_std.c ****                             USBFS_EP[i].attrib = pEP->attributes;
 1346              		.loc 1 663 0
 1347 031e 797F     		ldrb	r1, [r7, #29]	@ zero_extendqisi2
 1348 0320 7B69     		ldr	r3, [r7, #20]
 1349 0322 D878     		ldrb	r0, [r3, #3]	@ zero_extendqisi2
 1350 0324 40F20002 		movw	r2, #:lower16:USBFS_EP
 1351 0328 C0F20002 		movt	r2, #:upper16:USBFS_EP
 1352 032c 0B46     		mov	r3, r1
 1353 032e 4FEA4303 		lsl	r3, r3, #1
 1354 0332 5B18     		adds	r3, r3, r1
 1355 0334 4FEA8303 		lsl	r3, r3, #2
 1356 0338 D318     		adds	r3, r2, r3
 1357 033a 0246     		mov	r2, r0
 1358 033c 1A70     		strb	r2, [r3, #0]
 1359              	.L78:
 664:.\Generated_Source\PSoC5/USBFS_std.c **** 
 665:.\Generated_Source\PSoC5/USBFS_std.c ****                             #if(USBFS_EP_MM == USBFS__EP_DMAAUTO)
 666:.\Generated_Source\PSoC5/USBFS_std.c ****                                 break;      /* use first EP setting in Auto memory managment */
 667:.\Generated_Source\PSoC5/USBFS_std.c ****                             #endif /* End USBFS_EP_MM == USBFS__EP_DMAAUTO */
 668:.\Generated_Source\PSoC5/USBFS_std.c ****                         }
 669:.\Generated_Source\PSoC5/USBFS_std.c ****                     }
 670:.\Generated_Source\PSoC5/USBFS_std.c ****                     pEP = &pEP[1u];
 1360              		.loc 1 670 0
 1361 033e 7B69     		ldr	r3, [r7, #20]
 1362 0340 03F10803 		add	r3, r3, #8
 1363 0344 7B61     		str	r3, [r7, #20]
 601:.\Generated_Source\PSoC5/USBFS_std.c ****                 for (cur_ep = 0u; cur_ep < ep; cur_ep++)
 1364              		.loc 1 601 0
 1365 0346 BB7F     		ldrb	r3, [r7, #30]
 1366 0348 03F10103 		add	r3, r3, #1
 1367 034c BB77     		strb	r3, [r7, #30]
 1368              	.L77:
 601:.\Generated_Source\PSoC5/USBFS_std.c ****                 for (cur_ep = 0u; cur_ep < ep; cur_ep++)
 1369              		.loc 1 601 0 is_stmt 0 discriminator 1
 1370 034e BA7F     		ldrb	r2, [r7, #30]	@ zero_extendqisi2
 1371 0350 FB7F     		ldrb	r3, [r7, #31]	@ zero_extendqisi2
 1372 0352 9A42     		cmp	r2, r3
 1373 0354 FFF442AF 		bcc	.L86
 595:.\Generated_Source\PSoC5/USBFS_std.c ****             for (i = USBFS_EP1; i < USBFS_MAX_EP; i++)
 1374              		.loc 1 595 0 is_stmt 1
 1375 0358 7B7F     		ldrb	r3, [r7, #29]
 1376 035a 03F10103 		add	r3, r3, #1
 1377 035e 7B77     		strb	r3, [r7, #29]
 1378              	.L76:
 595:.\Generated_Source\PSoC5/USBFS_std.c ****             for (i = USBFS_EP1; i < USBFS_MAX_EP; i++)
 1379              		.loc 1 595 0 is_stmt 0 discriminator 1
 1380 0360 7B7F     		ldrb	r3, [r7, #29]	@ zero_extendqisi2
 1381 0362 082B     		cmp	r3, #8
 1382 0364 7FF633AF 		bls	.L87
 671:.\Generated_Source\PSoC5/USBFS_std.c ****                 }
 672:.\Generated_Source\PSoC5/USBFS_std.c ****             }
 673:.\Generated_Source\PSoC5/USBFS_std.c ****         #endif /* End (USBFS_EP_MA == USBFS__MA_DYNAMIC) */
 674:.\Generated_Source\PSoC5/USBFS_std.c **** 
 675:.\Generated_Source\PSoC5/USBFS_std.c ****         /* Init class array for each interface and interface number for each EP.
ARM GAS  C:\Users\Robert\AppData\Local\Temp\ccWEb3hA.s 			page 38


 676:.\Generated_Source\PSoC5/USBFS_std.c ****         *  It is used for handling Class specific requests directed to either an
 677:.\Generated_Source\PSoC5/USBFS_std.c ****         *  interface or the endpoint.
 678:.\Generated_Source\PSoC5/USBFS_std.c ****         */
 679:.\Generated_Source\PSoC5/USBFS_std.c ****         /* p_list points the endpoint setting table. */
 680:.\Generated_Source\PSoC5/USBFS_std.c ****         pEP = (const T_USBFS_EP_SETTINGS_BLOCK CYCODE *) pTmp->p_list;
 1383              		.loc 1 680 0 is_stmt 1
 1384 0368 3B69     		ldr	r3, [r7, #16]
 1385 036a 5B68     		ldr	r3, [r3, #4]
 1386 036c 7B61     		str	r3, [r7, #20]
 681:.\Generated_Source\PSoC5/USBFS_std.c ****         for (i = 0u; i < ep; i++)
 1387              		.loc 1 681 0
 1388 036e 4FF00003 		mov	r3, #0
 1389 0372 7B77     		strb	r3, [r7, #29]
 1390 0374 1CE0     		b	.L88
 1391              	.L89:
 682:.\Generated_Source\PSoC5/USBFS_std.c ****         {
 683:.\Generated_Source\PSoC5/USBFS_std.c ****             /* Configure interface number for each EP*/
 684:.\Generated_Source\PSoC5/USBFS_std.c ****             USBFS_EP[pEP->addr & USBFS_DIR_UNUSED].interface = pEP->interface;
 1392              		.loc 1 684 0 discriminator 2
 1393 0376 7B69     		ldr	r3, [r7, #20]
 1394 0378 9B78     		ldrb	r3, [r3, #2]	@ zero_extendqisi2
 1395 037a 03F07F01 		and	r1, r3, #127
 1396 037e 7B69     		ldr	r3, [r7, #20]
 1397 0380 1878     		ldrb	r0, [r3, #0]	@ zero_extendqisi2
 1398 0382 40F20002 		movw	r2, #:lower16:USBFS_EP
 1399 0386 C0F20002 		movt	r2, #:upper16:USBFS_EP
 1400 038a 0B46     		mov	r3, r1
 1401 038c 4FEA4303 		lsl	r3, r3, #1
 1402 0390 5B18     		adds	r3, r3, r1
 1403 0392 4FEA8303 		lsl	r3, r3, #2
 1404 0396 D318     		adds	r3, r2, r3
 1405 0398 03F10803 		add	r3, r3, #8
 1406 039c 0246     		mov	r2, r0
 1407 039e 9A70     		strb	r2, [r3, #2]
 685:.\Generated_Source\PSoC5/USBFS_std.c ****             pEP = &pEP[1u];
 1408              		.loc 1 685 0 discriminator 2
 1409 03a0 7B69     		ldr	r3, [r7, #20]
 1410 03a2 03F10803 		add	r3, r3, #8
 1411 03a6 7B61     		str	r3, [r7, #20]
 681:.\Generated_Source\PSoC5/USBFS_std.c ****         for (i = 0u; i < ep; i++)
 1412              		.loc 1 681 0 discriminator 2
 1413 03a8 7B7F     		ldrb	r3, [r7, #29]
 1414 03aa 03F10103 		add	r3, r3, #1
 1415 03ae 7B77     		strb	r3, [r7, #29]
 1416              	.L88:
 681:.\Generated_Source\PSoC5/USBFS_std.c ****         for (i = 0u; i < ep; i++)
 1417              		.loc 1 681 0 is_stmt 0 discriminator 1
 1418 03b0 7A7F     		ldrb	r2, [r7, #29]	@ zero_extendqisi2
 1419 03b2 FB7F     		ldrb	r3, [r7, #31]	@ zero_extendqisi2
 1420 03b4 9A42     		cmp	r2, r3
 1421 03b6 DED3     		bcc	.L89
 686:.\Generated_Source\PSoC5/USBFS_std.c ****         }
 687:.\Generated_Source\PSoC5/USBFS_std.c ****         /* Init pointer on interface class table*/
 688:.\Generated_Source\PSoC5/USBFS_std.c ****         USBFS_interfaceClass = USBFS_GetInterfaceClassTablePtr();
 1422              		.loc 1 688 0 is_stmt 1
 1423 03b8 FFF7FEFF 		bl	USBFS_GetInterfaceClassTablePtr
 1424 03bc 0246     		mov	r2, r0
ARM GAS  C:\Users\Robert\AppData\Local\Temp\ccWEb3hA.s 			page 39


 1425 03be 40F20003 		movw	r3, #:lower16:USBFS_interfaceClass
 1426 03c2 C0F20003 		movt	r3, #:upper16:USBFS_interfaceClass
 1427 03c6 1A60     		str	r2, [r3, #0]
 689:.\Generated_Source\PSoC5/USBFS_std.c ****         /* Set the endpoint buffer addresses */
 690:.\Generated_Source\PSoC5/USBFS_std.c **** 
 691:.\Generated_Source\PSoC5/USBFS_std.c ****         #if(USBFS_EP_MM != USBFS__EP_DMAAUTO)
 692:.\Generated_Source\PSoC5/USBFS_std.c ****             for (ep = USBFS_EP1; ep < USBFS_MAX_EP; ep++)
 1428              		.loc 1 692 0
 1429 03c8 4FF00103 		mov	r3, #1
 1430 03cc FB77     		strb	r3, [r7, #31]
 1431 03ce 24E0     		b	.L90
 1432              	.L91:
 693:.\Generated_Source\PSoC5/USBFS_std.c ****             {
 694:.\Generated_Source\PSoC5/USBFS_std.c ****                 USBFS_EP[ep].buffOffset = buffCount;
 1433              		.loc 1 694 0 discriminator 2
 1434 03d0 F97F     		ldrb	r1, [r7, #31]	@ zero_extendqisi2
 1435 03d2 40F20002 		movw	r2, #:lower16:USBFS_EP
 1436 03d6 C0F20002 		movt	r2, #:upper16:USBFS_EP
 1437 03da 0B46     		mov	r3, r1
 1438 03dc 4FEA4303 		lsl	r3, r3, #1
 1439 03e0 5B18     		adds	r3, r3, r1
 1440 03e2 4FEA8303 		lsl	r3, r3, #2
 1441 03e6 D318     		adds	r3, r2, r3
 1442 03e8 7A8B     		ldrh	r2, [r7, #26]	@ movhi
 1443 03ea DA80     		strh	r2, [r3, #6]	@ movhi
 695:.\Generated_Source\PSoC5/USBFS_std.c ****                  buffCount += USBFS_EP[ep].bufferSize;
 1444              		.loc 1 695 0 discriminator 2
 1445 03ec F97F     		ldrb	r1, [r7, #31]	@ zero_extendqisi2
 1446 03ee 40F20002 		movw	r2, #:lower16:USBFS_EP
 1447 03f2 C0F20002 		movt	r2, #:upper16:USBFS_EP
 1448 03f6 0B46     		mov	r3, r1
 1449 03f8 4FEA4303 		lsl	r3, r3, #1
 1450 03fc 5B18     		adds	r3, r3, r1
 1451 03fe 4FEA8303 		lsl	r3, r3, #2
 1452 0402 D318     		adds	r3, r2, r3
 1453 0404 03F10803 		add	r3, r3, #8
 1454 0408 1B88     		ldrh	r3, [r3, #0]	@ movhi
 1455 040a 9AB2     		uxth	r2, r3
 1456 040c 7B8B     		ldrh	r3, [r7, #26]	@ movhi
 1457 040e D318     		adds	r3, r2, r3
 1458 0410 7B83     		strh	r3, [r7, #26]	@ movhi
 692:.\Generated_Source\PSoC5/USBFS_std.c ****             for (ep = USBFS_EP1; ep < USBFS_MAX_EP; ep++)
 1459              		.loc 1 692 0 discriminator 2
 1460 0412 FB7F     		ldrb	r3, [r7, #31]
 1461 0414 03F10103 		add	r3, r3, #1
 1462 0418 FB77     		strb	r3, [r7, #31]
 1463              	.L90:
 692:.\Generated_Source\PSoC5/USBFS_std.c ****             for (ep = USBFS_EP1; ep < USBFS_MAX_EP; ep++)
 1464              		.loc 1 692 0 is_stmt 0 discriminator 1
 1465 041a FB7F     		ldrb	r3, [r7, #31]	@ zero_extendqisi2
 1466 041c 082B     		cmp	r3, #8
 1467 041e D7D9     		bls	.L91
 696:.\Generated_Source\PSoC5/USBFS_std.c ****             }
 697:.\Generated_Source\PSoC5/USBFS_std.c ****         #endif /* End USBFS_EP_MM != USBFS__EP_DMAAUTO */
 698:.\Generated_Source\PSoC5/USBFS_std.c **** 
 699:.\Generated_Source\PSoC5/USBFS_std.c ****         /* Configure hardware registers */
 700:.\Generated_Source\PSoC5/USBFS_std.c ****         USBFS_ConfigReg();
ARM GAS  C:\Users\Robert\AppData\Local\Temp\ccWEb3hA.s 			page 40


 1468              		.loc 1 700 0 is_stmt 1
 1469 0420 FFF7FEFF 		bl	USBFS_ConfigReg
 1470              	.L67:
 701:.\Generated_Source\PSoC5/USBFS_std.c ****     } /* USBFS_configuration > 0 */
 702:.\Generated_Source\PSoC5/USBFS_std.c **** }
 1471              		.loc 1 702 0
 1472 0424 07F12007 		add	r7, r7, #32
 1473 0428 BD46     		mov	sp, r7
 1474 042a 80BD     		pop	{r7, pc}
 1475              		.cfi_endproc
 1476              	.LFE2:
 1477              		.size	USBFS_Config, .-USBFS_Config
 1478              		.section	.text.USBFS_ConfigAltChanged,"ax",%progbits
 1479              		.align	2
 1480              		.global	USBFS_ConfigAltChanged
 1481              		.thumb
 1482              		.thumb_func
 1483              		.type	USBFS_ConfigAltChanged, %function
 1484              	USBFS_ConfigAltChanged:
 1485              	.LFB3:
 703:.\Generated_Source\PSoC5/USBFS_std.c **** 
 704:.\Generated_Source\PSoC5/USBFS_std.c **** 
 705:.\Generated_Source\PSoC5/USBFS_std.c **** /*******************************************************************************
 706:.\Generated_Source\PSoC5/USBFS_std.c **** * Function Name: USBFS_ConfigAltChanged
 707:.\Generated_Source\PSoC5/USBFS_std.c **** ********************************************************************************
 708:.\Generated_Source\PSoC5/USBFS_std.c **** *
 709:.\Generated_Source\PSoC5/USBFS_std.c **** * Summary:
 710:.\Generated_Source\PSoC5/USBFS_std.c **** *  This routine update configuration for the required endpoints only.
 711:.\Generated_Source\PSoC5/USBFS_std.c **** *  It is called after SET_INTERFACE request when Static memory allocation used.
 712:.\Generated_Source\PSoC5/USBFS_std.c **** *
 713:.\Generated_Source\PSoC5/USBFS_std.c **** * Parameters:
 714:.\Generated_Source\PSoC5/USBFS_std.c **** *  None.
 715:.\Generated_Source\PSoC5/USBFS_std.c **** *
 716:.\Generated_Source\PSoC5/USBFS_std.c **** * Return:
 717:.\Generated_Source\PSoC5/USBFS_std.c **** *  None.
 718:.\Generated_Source\PSoC5/USBFS_std.c **** *
 719:.\Generated_Source\PSoC5/USBFS_std.c **** * Reentrant:
 720:.\Generated_Source\PSoC5/USBFS_std.c **** *  No.
 721:.\Generated_Source\PSoC5/USBFS_std.c **** *
 722:.\Generated_Source\PSoC5/USBFS_std.c **** *******************************************************************************/
 723:.\Generated_Source\PSoC5/USBFS_std.c **** void USBFS_ConfigAltChanged(void) 
 724:.\Generated_Source\PSoC5/USBFS_std.c **** {
 1486              		.loc 1 724 0
 1487              		.cfi_startproc
 1488              		@ args = 0, pretend = 0, frame = 16
 1489              		@ frame_needed = 1, uses_anonymous_args = 0
 1490 0000 80B5     		push	{r7, lr}
 1491              	.LCFI9:
 1492              		.cfi_def_cfa_offset 8
 1493              		.cfi_offset 7, -8
 1494              		.cfi_offset 14, -4
 1495 0002 84B0     		sub	sp, sp, #16
 1496              	.LCFI10:
 1497              		.cfi_def_cfa_offset 24
 1498 0004 00AF     		add	r7, sp, #0
 1499              	.LCFI11:
 1500              		.cfi_def_cfa_register 7
ARM GAS  C:\Users\Robert\AppData\Local\Temp\ccWEb3hA.s 			page 41


 725:.\Generated_Source\PSoC5/USBFS_std.c ****     uint8 ep;
 726:.\Generated_Source\PSoC5/USBFS_std.c ****     uint8 cur_ep;
 727:.\Generated_Source\PSoC5/USBFS_std.c ****     uint8 i;
 728:.\Generated_Source\PSoC5/USBFS_std.c ****     uint8 ep_type;
 729:.\Generated_Source\PSoC5/USBFS_std.c ****     uint8 ri;
 730:.\Generated_Source\PSoC5/USBFS_std.c **** 
 731:.\Generated_Source\PSoC5/USBFS_std.c ****     const T_USBFS_LUT CYCODE *pTmp;
 732:.\Generated_Source\PSoC5/USBFS_std.c ****     const T_USBFS_EP_SETTINGS_BLOCK CYCODE *pEP;
 733:.\Generated_Source\PSoC5/USBFS_std.c **** 
 734:.\Generated_Source\PSoC5/USBFS_std.c **** 
 735:.\Generated_Source\PSoC5/USBFS_std.c ****     /* Init Endpoints and Device Status if configured */
 736:.\Generated_Source\PSoC5/USBFS_std.c ****     if(USBFS_configuration > 0u)
 1501              		.loc 1 736 0
 1502 0006 40F20003 		movw	r3, #:lower16:USBFS_configuration
 1503 000a C0F20003 		movt	r3, #:upper16:USBFS_configuration
 1504 000e 1B78     		ldrb	r3, [r3, #0]
 1505 0010 DBB2     		uxtb	r3, r3
 1506 0012 002B     		cmp	r3, #0
 1507 0014 00F09981 		beq	.L92
 737:.\Generated_Source\PSoC5/USBFS_std.c ****     {
 738:.\Generated_Source\PSoC5/USBFS_std.c ****         pTmp = USBFS_GetConfigTablePtr(USBFS_configuration - 1u);
 1508              		.loc 1 738 0
 1509 0018 40F20003 		movw	r3, #:lower16:USBFS_configuration
 1510 001c C0F20003 		movt	r3, #:upper16:USBFS_configuration
 1511 0020 1B78     		ldrb	r3, [r3, #0]
 1512 0022 DBB2     		uxtb	r3, r3
 1513 0024 03F1FF33 		add	r3, r3, #-1
 1514 0028 DBB2     		uxtb	r3, r3
 1515 002a 1846     		mov	r0, r3
 1516 002c FFF7FEFF 		bl	USBFS_GetConfigTablePtr
 1517 0030 7860     		str	r0, [r7, #4]
 739:.\Generated_Source\PSoC5/USBFS_std.c ****         pTmp = &pTmp[1u];
 1518              		.loc 1 739 0
 1519 0032 7B68     		ldr	r3, [r7, #4]
 1520 0034 03F10803 		add	r3, r3, #8
 1521 0038 7B60     		str	r3, [r7, #4]
 740:.\Generated_Source\PSoC5/USBFS_std.c ****         ep = pTmp->c;  /* For this table, c is the number of endpoints configurations  */
 1522              		.loc 1 740 0
 1523 003a 7B68     		ldr	r3, [r7, #4]
 1524 003c 1B78     		ldrb	r3, [r3, #0]
 1525 003e FB70     		strb	r3, [r7, #3]
 741:.\Generated_Source\PSoC5/USBFS_std.c **** 
 742:.\Generated_Source\PSoC5/USBFS_std.c ****         /* Do not touch EP which doesn't need reconfiguration */
 743:.\Generated_Source\PSoC5/USBFS_std.c ****         /* When Alt setting changed, the only required endpoints need to be reconfigured */
 744:.\Generated_Source\PSoC5/USBFS_std.c ****         /* p_list points the endpoint setting table. */
 745:.\Generated_Source\PSoC5/USBFS_std.c ****         pEP = (const T_USBFS_EP_SETTINGS_BLOCK CYCODE *) pTmp->p_list;
 1526              		.loc 1 745 0
 1527 0040 7B68     		ldr	r3, [r7, #4]
 1528 0042 5B68     		ldr	r3, [r3, #4]
 1529 0044 BB60     		str	r3, [r7, #8]
 746:.\Generated_Source\PSoC5/USBFS_std.c ****         for (i = 0u; i < ep; i++)
 1530              		.loc 1 746 0
 1531 0046 4FF00003 		mov	r3, #0
 1532 004a FB73     		strb	r3, [r7, #15]
 1533 004c 78E1     		b	.L94
 1534              	.L102:
 747:.\Generated_Source\PSoC5/USBFS_std.c ****         {
ARM GAS  C:\Users\Robert\AppData\Local\Temp\ccWEb3hA.s 			page 42


 748:.\Generated_Source\PSoC5/USBFS_std.c ****             /*If Alt setting changed and new is same with EP Alt */
 749:.\Generated_Source\PSoC5/USBFS_std.c ****             if((USBFS_interfaceSetting[pEP->interface] !=
 1535              		.loc 1 749 0
 1536 004e BB68     		ldr	r3, [r7, #8]
 1537 0050 1B78     		ldrb	r3, [r3, #0]	@ zero_extendqisi2
 1538 0052 1A46     		mov	r2, r3
 1539 0054 40F20003 		movw	r3, #:lower16:USBFS_interfaceSetting
 1540 0058 C0F20003 		movt	r3, #:upper16:USBFS_interfaceSetting
 1541 005c 9B5C     		ldrb	r3, [r3, r2]
 1542 005e DAB2     		uxtb	r2, r3
 750:.\Generated_Source\PSoC5/USBFS_std.c ****                 USBFS_interfaceSetting_last[pEP->interface] ) &&
 1543              		.loc 1 750 0
 1544 0060 BB68     		ldr	r3, [r7, #8]
 1545 0062 1B78     		ldrb	r3, [r3, #0]	@ zero_extendqisi2
 1546 0064 1946     		mov	r1, r3
 1547 0066 40F20003 		movw	r3, #:lower16:USBFS_interfaceSetting_last
 1548 006a C0F20003 		movt	r3, #:upper16:USBFS_interfaceSetting_last
 1549 006e 5B5C     		ldrb	r3, [r3, r1]
 1550 0070 DBB2     		uxtb	r3, r3
 749:.\Generated_Source\PSoC5/USBFS_std.c ****             if((USBFS_interfaceSetting[pEP->interface] !=
 1551              		.loc 1 749 0
 1552 0072 9A42     		cmp	r2, r3
 1553 0074 00F05C81 		beq	.L95
 751:.\Generated_Source\PSoC5/USBFS_std.c ****                (USBFS_interfaceSetting[pEP->interface] == pEP->altSetting) &&
 1554              		.loc 1 751 0
 1555 0078 BB68     		ldr	r3, [r7, #8]
 1556 007a 1B78     		ldrb	r3, [r3, #0]	@ zero_extendqisi2
 1557 007c 1A46     		mov	r2, r3
 1558 007e 40F20003 		movw	r3, #:lower16:USBFS_interfaceSetting
 1559 0082 C0F20003 		movt	r3, #:upper16:USBFS_interfaceSetting
 1560 0086 9B5C     		ldrb	r3, [r3, r2]
 1561 0088 DAB2     		uxtb	r2, r3
 1562 008a BB68     		ldr	r3, [r7, #8]
 1563 008c 5B78     		ldrb	r3, [r3, #1]	@ zero_extendqisi2
 750:.\Generated_Source\PSoC5/USBFS_std.c ****                 USBFS_interfaceSetting_last[pEP->interface] ) &&
 1564              		.loc 1 750 0
 1565 008e 9A42     		cmp	r2, r3
 1566 0090 40F04E81 		bne	.L95
 752:.\Generated_Source\PSoC5/USBFS_std.c ****                (pEP->interface == CY_GET_REG8(USBFS_wIndexLo)))
 1567              		.loc 1 752 0
 1568 0094 BB68     		ldr	r3, [r7, #8]
 1569 0096 1A78     		ldrb	r2, [r3, #0]	@ zero_extendqisi2
 1570 0098 46F20403 		movw	r3, #24580
 1571 009c C4F20003 		movt	r3, 16384
 1572 00a0 1B78     		ldrb	r3, [r3, #0]
 1573 00a2 DBB2     		uxtb	r3, r3
 751:.\Generated_Source\PSoC5/USBFS_std.c ****                (USBFS_interfaceSetting[pEP->interface] == pEP->altSetting) &&
 1574              		.loc 1 751 0
 1575 00a4 9A42     		cmp	r2, r3
 1576 00a6 40F04381 		bne	.L95
 753:.\Generated_Source\PSoC5/USBFS_std.c ****             {
 754:.\Generated_Source\PSoC5/USBFS_std.c ****                 cur_ep = pEP->addr & USBFS_DIR_UNUSED;
 1577              		.loc 1 754 0
 1578 00aa BB68     		ldr	r3, [r7, #8]
 1579 00ac 9B78     		ldrb	r3, [r3, #2]	@ zero_extendqisi2
 1580 00ae 03F07F03 		and	r3, r3, #127
 1581 00b2 BB70     		strb	r3, [r7, #2]
ARM GAS  C:\Users\Robert\AppData\Local\Temp\ccWEb3hA.s 			page 43


 755:.\Generated_Source\PSoC5/USBFS_std.c ****                 ri = ((cur_ep - USBFS_EP1) << USBFS_EPX_CNTX_ADDR_SHIFT);
 1582              		.loc 1 755 0
 1583 00b4 BB78     		ldrb	r3, [r7, #2]
 1584 00b6 03F1FF33 		add	r3, r3, #-1
 1585 00ba DBB2     		uxtb	r3, r3
 1586 00bc 4FEA0313 		lsl	r3, r3, #4
 1587 00c0 7B70     		strb	r3, [r7, #1]
 756:.\Generated_Source\PSoC5/USBFS_std.c ****                 ep_type = pEP->attributes & USBFS_EP_TYPE_MASK;
 1588              		.loc 1 756 0
 1589 00c2 BB68     		ldr	r3, [r7, #8]
 1590 00c4 DB78     		ldrb	r3, [r3, #3]	@ zero_extendqisi2
 1591 00c6 03F00303 		and	r3, r3, #3
 1592 00ca 3B70     		strb	r3, [r7, #0]
 757:.\Generated_Source\PSoC5/USBFS_std.c ****                 if ((pEP->addr & USBFS_DIR_IN) != 0u)
 1593              		.loc 1 757 0
 1594 00cc BB68     		ldr	r3, [r7, #8]
 1595 00ce 9B78     		ldrb	r3, [r3, #2]	@ zero_extendqisi2
 1596 00d0 DBB2     		uxtb	r3, r3
 1597 00d2 5BB2     		sxtb	r3, r3
 1598 00d4 002B     		cmp	r3, #0
 1599 00d6 25DA     		bge	.L96
 758:.\Generated_Source\PSoC5/USBFS_std.c ****                 {
 759:.\Generated_Source\PSoC5/USBFS_std.c ****                     /* IN Endpoint */
 760:.\Generated_Source\PSoC5/USBFS_std.c ****                     USBFS_EP[cur_ep].apiEpState = USBFS_EVENT_PENDING;
 1600              		.loc 1 760 0
 1601 00d8 B978     		ldrb	r1, [r7, #2]	@ zero_extendqisi2
 1602 00da 40F20002 		movw	r2, #:lower16:USBFS_EP
 1603 00de C0F20002 		movt	r2, #:upper16:USBFS_EP
 1604 00e2 0B46     		mov	r3, r1
 1605 00e4 4FEA4303 		lsl	r3, r3, #1
 1606 00e8 5B18     		adds	r3, r3, r1
 1607 00ea 4FEA8303 		lsl	r3, r3, #2
 1608 00ee D318     		adds	r3, r2, r3
 1609 00f0 4FF00102 		mov	r2, #1
 1610 00f4 5A70     		strb	r2, [r3, #1]
 761:.\Generated_Source\PSoC5/USBFS_std.c ****                     USBFS_EP[cur_ep].epMode = (ep_type == USBFS_EP_TYPE_ISOC) ?
 1611              		.loc 1 761 0
 1612 00f6 B878     		ldrb	r0, [r7, #2]	@ zero_extendqisi2
 1613 00f8 3B78     		ldrb	r3, [r7, #0]	@ zero_extendqisi2
 1614 00fa 012B     		cmp	r3, #1
 1615 00fc 02D1     		bne	.L97
 1616              		.loc 1 761 0 is_stmt 0 discriminator 1
 1617 00fe 4FF00701 		mov	r1, #7
 1618 0102 01E0     		b	.L98
 1619              	.L97:
 1620              		.loc 1 761 0 discriminator 2
 1621 0104 4FF00D01 		mov	r1, #13
 1622              	.L98:
 1623              		.loc 1 761 0 discriminator 3
 1624 0108 40F20002 		movw	r2, #:lower16:USBFS_EP
 1625 010c C0F20002 		movt	r2, #:upper16:USBFS_EP
 1626 0110 0346     		mov	r3, r0
 1627 0112 4FEA4303 		lsl	r3, r3, #1
 1628 0116 1B18     		adds	r3, r3, r0
 1629 0118 4FEA8303 		lsl	r3, r3, #2
 1630 011c D318     		adds	r3, r2, r3
 1631 011e 0A46     		mov	r2, r1
ARM GAS  C:\Users\Robert\AppData\Local\Temp\ccWEb3hA.s 			page 44


 1632 0120 5A71     		strb	r2, [r3, #5]
 1633 0122 24E0     		b	.L99
 1634              	.L96:
 762:.\Generated_Source\PSoC5/USBFS_std.c ****                                                 USBFS_MODE_ISO_IN : USBFS_MODE_ACK_IN;
 763:.\Generated_Source\PSoC5/USBFS_std.c ****                 }
 764:.\Generated_Source\PSoC5/USBFS_std.c ****                 else
 765:.\Generated_Source\PSoC5/USBFS_std.c ****                 {
 766:.\Generated_Source\PSoC5/USBFS_std.c ****                     /* OUT Endpoint */
 767:.\Generated_Source\PSoC5/USBFS_std.c ****                     USBFS_EP[cur_ep].apiEpState = USBFS_NO_EVENT_PENDING;
 1635              		.loc 1 767 0 is_stmt 1
 1636 0124 B978     		ldrb	r1, [r7, #2]	@ zero_extendqisi2
 1637 0126 40F20002 		movw	r2, #:lower16:USBFS_EP
 1638 012a C0F20002 		movt	r2, #:upper16:USBFS_EP
 1639 012e 0B46     		mov	r3, r1
 1640 0130 4FEA4303 		lsl	r3, r3, #1
 1641 0134 5B18     		adds	r3, r3, r1
 1642 0136 4FEA8303 		lsl	r3, r3, #2
 1643 013a D318     		adds	r3, r2, r3
 1644 013c 4FF00002 		mov	r2, #0
 1645 0140 5A70     		strb	r2, [r3, #1]
 768:.\Generated_Source\PSoC5/USBFS_std.c ****                     USBFS_EP[cur_ep].epMode = (ep_type == USBFS_EP_TYPE_ISOC) ?
 1646              		.loc 1 768 0
 1647 0142 B878     		ldrb	r0, [r7, #2]	@ zero_extendqisi2
 1648 0144 3B78     		ldrb	r3, [r7, #0]	@ zero_extendqisi2
 1649 0146 012B     		cmp	r3, #1
 1650 0148 02D1     		bne	.L100
 1651              		.loc 1 768 0 is_stmt 0 discriminator 1
 1652 014a 4FF00501 		mov	r1, #5
 1653 014e 01E0     		b	.L101
 1654              	.L100:
 1655              		.loc 1 768 0 discriminator 2
 1656 0150 4FF00901 		mov	r1, #9
 1657              	.L101:
 1658              		.loc 1 768 0 discriminator 3
 1659 0154 40F20002 		movw	r2, #:lower16:USBFS_EP
 1660 0158 C0F20002 		movt	r2, #:upper16:USBFS_EP
 1661 015c 0346     		mov	r3, r0
 1662 015e 4FEA4303 		lsl	r3, r3, #1
 1663 0162 1B18     		adds	r3, r3, r0
 1664 0164 4FEA8303 		lsl	r3, r3, #2
 1665 0168 D318     		adds	r3, r2, r3
 1666 016a 0A46     		mov	r2, r1
 1667 016c 5A71     		strb	r2, [r3, #5]
 1668              	.L99:
 769:.\Generated_Source\PSoC5/USBFS_std.c ****                                                 USBFS_MODE_ISO_OUT : USBFS_MODE_ACK_OUT;
 770:.\Generated_Source\PSoC5/USBFS_std.c ****                 }
 771:.\Generated_Source\PSoC5/USBFS_std.c ****                  /* Change the SIE mode for the selected EP to NAK ALL */
 772:.\Generated_Source\PSoC5/USBFS_std.c ****                  CY_SET_REG8((reg8 *)(USBFS_SIE_EP1_CR0_IND + ri), USBFS_MODE_NAK_IN_OUT);
 1669              		.loc 1 772 0 is_stmt 1
 1670 016e 7A78     		ldrb	r2, [r7, #1]	@ zero_extendqisi2
 1671 0170 46F20E03 		movw	r3, #24590
 1672 0174 C4F20003 		movt	r3, 16384
 1673 0178 D318     		adds	r3, r2, r3
 1674 017a 4FF00102 		mov	r2, #1
 1675 017e 1A70     		strb	r2, [r3, #0]
 773:.\Generated_Source\PSoC5/USBFS_std.c ****                 USBFS_EP[cur_ep].bufferSize = pEP->bufferSize;
 1676              		.loc 1 773 0
ARM GAS  C:\Users\Robert\AppData\Local\Temp\ccWEb3hA.s 			page 45


 1677 0180 B978     		ldrb	r1, [r7, #2]	@ zero_extendqisi2
 1678 0182 BB68     		ldr	r3, [r7, #8]
 1679 0184 9888     		ldrh	r0, [r3, #4]
 1680 0186 40F20002 		movw	r2, #:lower16:USBFS_EP
 1681 018a C0F20002 		movt	r2, #:upper16:USBFS_EP
 1682 018e 0B46     		mov	r3, r1
 1683 0190 4FEA4303 		lsl	r3, r3, #1
 1684 0194 5B18     		adds	r3, r3, r1
 1685 0196 4FEA8303 		lsl	r3, r3, #2
 1686 019a D318     		adds	r3, r2, r3
 1687 019c 03F10803 		add	r3, r3, #8
 1688 01a0 0246     		mov	r2, r0	@ movhi
 1689 01a2 1A80     		strh	r2, [r3, #0]	@ movhi
 774:.\Generated_Source\PSoC5/USBFS_std.c ****                 USBFS_EP[cur_ep].addr = pEP->addr;
 1690              		.loc 1 774 0
 1691 01a4 B978     		ldrb	r1, [r7, #2]	@ zero_extendqisi2
 1692 01a6 BB68     		ldr	r3, [r7, #8]
 1693 01a8 9878     		ldrb	r0, [r3, #2]	@ zero_extendqisi2
 1694 01aa 40F20002 		movw	r2, #:lower16:USBFS_EP
 1695 01ae C0F20002 		movt	r2, #:upper16:USBFS_EP
 1696 01b2 0B46     		mov	r3, r1
 1697 01b4 4FEA4303 		lsl	r3, r3, #1
 1698 01b8 5B18     		adds	r3, r3, r1
 1699 01ba 4FEA8303 		lsl	r3, r3, #2
 1700 01be D318     		adds	r3, r2, r3
 1701 01c0 0246     		mov	r2, r0
 1702 01c2 1A71     		strb	r2, [r3, #4]
 775:.\Generated_Source\PSoC5/USBFS_std.c ****                 USBFS_EP[cur_ep].attrib = pEP->attributes;
 1703              		.loc 1 775 0
 1704 01c4 B978     		ldrb	r1, [r7, #2]	@ zero_extendqisi2
 1705 01c6 BB68     		ldr	r3, [r7, #8]
 1706 01c8 D878     		ldrb	r0, [r3, #3]	@ zero_extendqisi2
 1707 01ca 40F20002 		movw	r2, #:lower16:USBFS_EP
 1708 01ce C0F20002 		movt	r2, #:upper16:USBFS_EP
 1709 01d2 0B46     		mov	r3, r1
 1710 01d4 4FEA4303 		lsl	r3, r3, #1
 1711 01d8 5B18     		adds	r3, r3, r1
 1712 01da 4FEA8303 		lsl	r3, r3, #2
 1713 01de D318     		adds	r3, r2, r3
 1714 01e0 0246     		mov	r2, r0
 1715 01e2 1A70     		strb	r2, [r3, #0]
 776:.\Generated_Source\PSoC5/USBFS_std.c **** 
 777:.\Generated_Source\PSoC5/USBFS_std.c ****                 /* Clear the data toggle */
 778:.\Generated_Source\PSoC5/USBFS_std.c ****                 USBFS_EP[cur_ep].epToggle = 0u;
 1716              		.loc 1 778 0
 1717 01e4 B978     		ldrb	r1, [r7, #2]	@ zero_extendqisi2
 1718 01e6 40F20002 		movw	r2, #:lower16:USBFS_EP
 1719 01ea C0F20002 		movt	r2, #:upper16:USBFS_EP
 1720 01ee 0B46     		mov	r3, r1
 1721 01f0 4FEA4303 		lsl	r3, r3, #1
 1722 01f4 5B18     		adds	r3, r3, r1
 1723 01f6 4FEA8303 		lsl	r3, r3, #2
 1724 01fa D318     		adds	r3, r2, r3
 1725 01fc 4FF00002 		mov	r2, #0
 1726 0200 DA70     		strb	r2, [r3, #3]
 779:.\Generated_Source\PSoC5/USBFS_std.c **** 
 780:.\Generated_Source\PSoC5/USBFS_std.c ****                 /* Dynamic reconfiguration for mode 3 transfer */
ARM GAS  C:\Users\Robert\AppData\Local\Temp\ccWEb3hA.s 			page 46


 781:.\Generated_Source\PSoC5/USBFS_std.c ****             #if(USBFS_EP_MM == USBFS__EP_DMAAUTO)
 782:.\Generated_Source\PSoC5/USBFS_std.c ****                 /* In_data_rdy for selected EP should be set to 0 */
 783:.\Generated_Source\PSoC5/USBFS_std.c ****                 * (reg8 *)(USBFS_ARB_EP1_CFG_IND + ri) &= (uint8)~USBFS_ARB_EPX_CFG_IN_DATA_RDY;
 784:.\Generated_Source\PSoC5/USBFS_std.c **** 
 785:.\Generated_Source\PSoC5/USBFS_std.c ****                 /* write the EP number for which reconfiguration is required */
 786:.\Generated_Source\PSoC5/USBFS_std.c ****                 USBFS_DYN_RECONFIG_REG = (cur_ep - USBFS_EP1) <<
 787:.\Generated_Source\PSoC5/USBFS_std.c ****                                                     USBFS_DYN_RECONFIG_EP_SHIFT;
 788:.\Generated_Source\PSoC5/USBFS_std.c ****                 /* Set the dyn_config_en bit in dynamic reconfiguration register */
 789:.\Generated_Source\PSoC5/USBFS_std.c ****                 USBFS_DYN_RECONFIG_REG |= USBFS_DYN_RECONFIG_ENABLE;
 790:.\Generated_Source\PSoC5/USBFS_std.c ****                 /* wait for the dyn_config_rdy bit to set by the block,
 791:.\Generated_Source\PSoC5/USBFS_std.c ****                 *  this bit will be set to 1 when block is ready for reconfiguration.
 792:.\Generated_Source\PSoC5/USBFS_std.c ****                 */
 793:.\Generated_Source\PSoC5/USBFS_std.c ****                 while((USBFS_DYN_RECONFIG_REG & USBFS_DYN_RECONFIG_RDY_STS) == 0u)
 794:.\Generated_Source\PSoC5/USBFS_std.c ****                 {
 795:.\Generated_Source\PSoC5/USBFS_std.c ****                     ;
 796:.\Generated_Source\PSoC5/USBFS_std.c ****                 }
 797:.\Generated_Source\PSoC5/USBFS_std.c ****                 /* Once dyn_config_rdy bit is set, FW can change the EP configuration. */
 798:.\Generated_Source\PSoC5/USBFS_std.c ****                 /* Change EP Type with new direction */
 799:.\Generated_Source\PSoC5/USBFS_std.c ****                 if((pEP->addr & USBFS_DIR_IN) == 0u)
 800:.\Generated_Source\PSoC5/USBFS_std.c ****                 {
 801:.\Generated_Source\PSoC5/USBFS_std.c ****                     USBFS_EP_TYPE_REG |= (uint8)(0x01u << (cur_ep - USBFS_EP1));
 802:.\Generated_Source\PSoC5/USBFS_std.c ****                 }
 803:.\Generated_Source\PSoC5/USBFS_std.c ****                 else
 804:.\Generated_Source\PSoC5/USBFS_std.c ****                 {
 805:.\Generated_Source\PSoC5/USBFS_std.c ****                     USBFS_EP_TYPE_REG &= (uint8)~(uint8)(0x01u << (cur_ep - USBFS_EP1));
 806:.\Generated_Source\PSoC5/USBFS_std.c ****                 }
 807:.\Generated_Source\PSoC5/USBFS_std.c ****                 /* dynamic reconfiguration enable bit cleared, pointers and control/status
 808:.\Generated_Source\PSoC5/USBFS_std.c ****                 *  signals for the selected EP is cleared/re-initialized on negative edge
 809:.\Generated_Source\PSoC5/USBFS_std.c ****                 *  of dynamic reconfiguration enable bit).
 810:.\Generated_Source\PSoC5/USBFS_std.c ****                 */
 811:.\Generated_Source\PSoC5/USBFS_std.c ****                 USBFS_DYN_RECONFIG_REG &= (uint8)~USBFS_DYN_RECONFIG_ENABLE;
 812:.\Generated_Source\PSoC5/USBFS_std.c ****                 /* The main loop has to re-enable DMA and OUT endpoint*/
 813:.\Generated_Source\PSoC5/USBFS_std.c ****             #else
 814:.\Generated_Source\PSoC5/USBFS_std.c ****                 CY_SET_REG8((reg8 *)(USBFS_SIE_EP1_CNT0_IND + ri),
 1727              		.loc 1 814 0
 1728 0202 7A78     		ldrb	r2, [r7, #1]	@ zero_extendqisi2
 1729 0204 46F20C03 		movw	r3, #24588
 1730 0208 C4F20003 		movt	r3, 16384
 1731 020c D318     		adds	r3, r2, r3
 1732 020e 1846     		mov	r0, r3
 1733 0210 B978     		ldrb	r1, [r7, #2]	@ zero_extendqisi2
 1734 0212 40F20002 		movw	r2, #:lower16:USBFS_EP
 1735 0216 C0F20002 		movt	r2, #:upper16:USBFS_EP
 1736 021a 0B46     		mov	r3, r1
 1737 021c 4FEA4303 		lsl	r3, r3, #1
 1738 0220 5B18     		adds	r3, r3, r1
 1739 0222 4FEA8303 		lsl	r3, r3, #2
 1740 0226 D318     		adds	r3, r2, r3
 1741 0228 03F10803 		add	r3, r3, #8
 1742 022c 1B88     		ldrh	r3, [r3, #0]	@ movhi
 1743 022e 9BB2     		uxth	r3, r3
 1744 0230 4FEA1323 		lsr	r3, r3, #8
 1745 0234 9BB2     		uxth	r3, r3
 1746 0236 DBB2     		uxtb	r3, r3
 1747 0238 0370     		strb	r3, [r0, #0]
 815:.\Generated_Source\PSoC5/USBFS_std.c ****                                                                 USBFS_EP[cur_ep].bufferSize >> 8u);
 816:.\Generated_Source\PSoC5/USBFS_std.c ****                 CY_SET_REG8((reg8 *)(USBFS_SIE_EP1_CNT1_IND + ri),
ARM GAS  C:\Users\Robert\AppData\Local\Temp\ccWEb3hA.s 			page 47


 1748              		.loc 1 816 0
 1749 023a 7A78     		ldrb	r2, [r7, #1]	@ zero_extendqisi2
 1750 023c 46F20D03 		movw	r3, #24589
 1751 0240 C4F20003 		movt	r3, 16384
 1752 0244 D318     		adds	r3, r2, r3
 1753 0246 1846     		mov	r0, r3
 1754 0248 B978     		ldrb	r1, [r7, #2]	@ zero_extendqisi2
 1755 024a 40F20002 		movw	r2, #:lower16:USBFS_EP
 1756 024e C0F20002 		movt	r2, #:upper16:USBFS_EP
 1757 0252 0B46     		mov	r3, r1
 1758 0254 4FEA4303 		lsl	r3, r3, #1
 1759 0258 5B18     		adds	r3, r3, r1
 1760 025a 4FEA8303 		lsl	r3, r3, #2
 1761 025e D318     		adds	r3, r2, r3
 1762 0260 03F10803 		add	r3, r3, #8
 1763 0264 1B88     		ldrh	r3, [r3, #0]	@ movhi
 1764 0266 9BB2     		uxth	r3, r3
 1765 0268 DBB2     		uxtb	r3, r3
 1766 026a 0370     		strb	r3, [r0, #0]
 817:.\Generated_Source\PSoC5/USBFS_std.c ****                                                                 USBFS_EP[cur_ep].bufferSize & 0xFFu
 818:.\Generated_Source\PSoC5/USBFS_std.c ****                 CY_SET_REG8((reg8 *)(USBFS_ARB_RW1_RA_IND + ri),
 1767              		.loc 1 818 0
 1768 026c 7A78     		ldrb	r2, [r7, #1]	@ zero_extendqisi2
 1769 026e 46F28603 		movw	r3, #24710
 1770 0272 C4F20003 		movt	r3, 16384
 1771 0276 D318     		adds	r3, r2, r3
 1772 0278 1846     		mov	r0, r3
 1773 027a B978     		ldrb	r1, [r7, #2]	@ zero_extendqisi2
 1774 027c 40F20002 		movw	r2, #:lower16:USBFS_EP
 1775 0280 C0F20002 		movt	r2, #:upper16:USBFS_EP
 1776 0284 0B46     		mov	r3, r1
 1777 0286 4FEA4303 		lsl	r3, r3, #1
 1778 028a 5B18     		adds	r3, r3, r1
 1779 028c 4FEA8303 		lsl	r3, r3, #2
 1780 0290 D318     		adds	r3, r2, r3
 1781 0292 DB88     		ldrh	r3, [r3, #6]	@ movhi
 1782 0294 9BB2     		uxth	r3, r3
 1783 0296 DBB2     		uxtb	r3, r3
 1784 0298 0370     		strb	r3, [r0, #0]
 819:.\Generated_Source\PSoC5/USBFS_std.c ****                                                                 USBFS_EP[cur_ep].buffOffset & 0xFFu
 820:.\Generated_Source\PSoC5/USBFS_std.c ****                 CY_SET_REG8((reg8 *)(USBFS_ARB_RW1_RA_MSB_IND + ri),
 1785              		.loc 1 820 0
 1786 029a 7A78     		ldrb	r2, [r7, #1]	@ zero_extendqisi2
 1787 029c 46F28703 		movw	r3, #24711
 1788 02a0 C4F20003 		movt	r3, 16384
 1789 02a4 D318     		adds	r3, r2, r3
 1790 02a6 1846     		mov	r0, r3
 1791 02a8 B978     		ldrb	r1, [r7, #2]	@ zero_extendqisi2
 1792 02aa 40F20002 		movw	r2, #:lower16:USBFS_EP
 1793 02ae C0F20002 		movt	r2, #:upper16:USBFS_EP
 1794 02b2 0B46     		mov	r3, r1
 1795 02b4 4FEA4303 		lsl	r3, r3, #1
 1796 02b8 5B18     		adds	r3, r3, r1
 1797 02ba 4FEA8303 		lsl	r3, r3, #2
 1798 02be D318     		adds	r3, r2, r3
 1799 02c0 DB88     		ldrh	r3, [r3, #6]	@ movhi
 1800 02c2 9BB2     		uxth	r3, r3
ARM GAS  C:\Users\Robert\AppData\Local\Temp\ccWEb3hA.s 			page 48


 1801 02c4 4FEA1323 		lsr	r3, r3, #8
 1802 02c8 9BB2     		uxth	r3, r3
 1803 02ca DBB2     		uxtb	r3, r3
 1804 02cc 0370     		strb	r3, [r0, #0]
 821:.\Generated_Source\PSoC5/USBFS_std.c ****                                                                 USBFS_EP[cur_ep].buffOffset >> 8u);
 822:.\Generated_Source\PSoC5/USBFS_std.c ****                 CY_SET_REG8((reg8 *)(USBFS_ARB_RW1_WA_IND + ri),
 1805              		.loc 1 822 0
 1806 02ce 7A78     		ldrb	r2, [r7, #1]	@ zero_extendqisi2
 1807 02d0 46F28403 		movw	r3, #24708
 1808 02d4 C4F20003 		movt	r3, 16384
 1809 02d8 D318     		adds	r3, r2, r3
 1810 02da 1846     		mov	r0, r3
 1811 02dc B978     		ldrb	r1, [r7, #2]	@ zero_extendqisi2
 1812 02de 40F20002 		movw	r2, #:lower16:USBFS_EP
 1813 02e2 C0F20002 		movt	r2, #:upper16:USBFS_EP
 1814 02e6 0B46     		mov	r3, r1
 1815 02e8 4FEA4303 		lsl	r3, r3, #1
 1816 02ec 5B18     		adds	r3, r3, r1
 1817 02ee 4FEA8303 		lsl	r3, r3, #2
 1818 02f2 D318     		adds	r3, r2, r3
 1819 02f4 DB88     		ldrh	r3, [r3, #6]	@ movhi
 1820 02f6 9BB2     		uxth	r3, r3
 1821 02f8 DBB2     		uxtb	r3, r3
 1822 02fa 0370     		strb	r3, [r0, #0]
 823:.\Generated_Source\PSoC5/USBFS_std.c ****                                                                 USBFS_EP[cur_ep].buffOffset & 0xFFu
 824:.\Generated_Source\PSoC5/USBFS_std.c ****                 CY_SET_REG8((reg8 *)(USBFS_ARB_RW1_WA_MSB_IND + ri),
 1823              		.loc 1 824 0
 1824 02fc 7A78     		ldrb	r2, [r7, #1]	@ zero_extendqisi2
 1825 02fe 46F28503 		movw	r3, #24709
 1826 0302 C4F20003 		movt	r3, 16384
 1827 0306 D318     		adds	r3, r2, r3
 1828 0308 1846     		mov	r0, r3
 1829 030a B978     		ldrb	r1, [r7, #2]	@ zero_extendqisi2
 1830 030c 40F20002 		movw	r2, #:lower16:USBFS_EP
 1831 0310 C0F20002 		movt	r2, #:upper16:USBFS_EP
 1832 0314 0B46     		mov	r3, r1
 1833 0316 4FEA4303 		lsl	r3, r3, #1
 1834 031a 5B18     		adds	r3, r3, r1
 1835 031c 4FEA8303 		lsl	r3, r3, #2
 1836 0320 D318     		adds	r3, r2, r3
 1837 0322 DB88     		ldrh	r3, [r3, #6]	@ movhi
 1838 0324 9BB2     		uxth	r3, r3
 1839 0326 4FEA1323 		lsr	r3, r3, #8
 1840 032a 9BB2     		uxth	r3, r3
 1841 032c DBB2     		uxtb	r3, r3
 1842 032e 0370     		strb	r3, [r0, #0]
 1843              	.L95:
 825:.\Generated_Source\PSoC5/USBFS_std.c ****                                                                 USBFS_EP[cur_ep].buffOffset >> 8u);
 826:.\Generated_Source\PSoC5/USBFS_std.c ****             #endif /* End USBFS_EP_MM == USBFS__EP_DMAAUTO */
 827:.\Generated_Source\PSoC5/USBFS_std.c ****             }
 828:.\Generated_Source\PSoC5/USBFS_std.c ****             /* Get next EP element */
 829:.\Generated_Source\PSoC5/USBFS_std.c ****             pEP = &pEP[1u];
 1844              		.loc 1 829 0
 1845 0330 BB68     		ldr	r3, [r7, #8]
 1846 0332 03F10803 		add	r3, r3, #8
 1847 0336 BB60     		str	r3, [r7, #8]
 746:.\Generated_Source\PSoC5/USBFS_std.c ****         for (i = 0u; i < ep; i++)
ARM GAS  C:\Users\Robert\AppData\Local\Temp\ccWEb3hA.s 			page 49


 1848              		.loc 1 746 0
 1849 0338 FB7B     		ldrb	r3, [r7, #15]
 1850 033a 03F10103 		add	r3, r3, #1
 1851 033e FB73     		strb	r3, [r7, #15]
 1852              	.L94:
 746:.\Generated_Source\PSoC5/USBFS_std.c ****         for (i = 0u; i < ep; i++)
 1853              		.loc 1 746 0 is_stmt 0 discriminator 1
 1854 0340 FA7B     		ldrb	r2, [r7, #15]	@ zero_extendqisi2
 1855 0342 FB78     		ldrb	r3, [r7, #3]	@ zero_extendqisi2
 1856 0344 9A42     		cmp	r2, r3
 1857 0346 FFF482AE 		bcc	.L102
 1858              	.L92:
 830:.\Generated_Source\PSoC5/USBFS_std.c ****         }
 831:.\Generated_Source\PSoC5/USBFS_std.c ****     }   /* USBFS_configuration > 0 */
 832:.\Generated_Source\PSoC5/USBFS_std.c **** }
 1859              		.loc 1 832 0 is_stmt 1
 1860 034a 07F11007 		add	r7, r7, #16
 1861 034e BD46     		mov	sp, r7
 1862 0350 80BD     		pop	{r7, pc}
 1863              		.cfi_endproc
 1864              	.LFE3:
 1865              		.size	USBFS_ConfigAltChanged, .-USBFS_ConfigAltChanged
 1866 0352 00BF     		.section	.text.USBFS_GetConfigTablePtr,"ax",%progbits
 1867              		.align	2
 1868              		.global	USBFS_GetConfigTablePtr
 1869              		.thumb
 1870              		.thumb_func
 1871              		.type	USBFS_GetConfigTablePtr, %function
 1872              	USBFS_GetConfigTablePtr:
 1873              	.LFB4:
 833:.\Generated_Source\PSoC5/USBFS_std.c **** 
 834:.\Generated_Source\PSoC5/USBFS_std.c **** 
 835:.\Generated_Source\PSoC5/USBFS_std.c **** /*******************************************************************************
 836:.\Generated_Source\PSoC5/USBFS_std.c **** * Function Name: USBFS_GetConfigTablePtr
 837:.\Generated_Source\PSoC5/USBFS_std.c **** ********************************************************************************
 838:.\Generated_Source\PSoC5/USBFS_std.c **** *
 839:.\Generated_Source\PSoC5/USBFS_std.c **** * Summary:
 840:.\Generated_Source\PSoC5/USBFS_std.c **** *  This routine returns a pointer a configuration table entry
 841:.\Generated_Source\PSoC5/USBFS_std.c **** *
 842:.\Generated_Source\PSoC5/USBFS_std.c **** * Parameters:
 843:.\Generated_Source\PSoC5/USBFS_std.c **** *  c:  Configuration Index
 844:.\Generated_Source\PSoC5/USBFS_std.c **** *
 845:.\Generated_Source\PSoC5/USBFS_std.c **** * Return:
 846:.\Generated_Source\PSoC5/USBFS_std.c **** *  Device Descriptor pointer.
 847:.\Generated_Source\PSoC5/USBFS_std.c **** *
 848:.\Generated_Source\PSoC5/USBFS_std.c **** *******************************************************************************/
 849:.\Generated_Source\PSoC5/USBFS_std.c **** const T_USBFS_LUT CYCODE *USBFS_GetConfigTablePtr(uint8 c)
 850:.\Generated_Source\PSoC5/USBFS_std.c ****                                                         
 851:.\Generated_Source\PSoC5/USBFS_std.c **** {
 1874              		.loc 1 851 0
 1875              		.cfi_startproc
 1876              		@ args = 0, pretend = 0, frame = 16
 1877              		@ frame_needed = 1, uses_anonymous_args = 0
 1878              		@ link register save eliminated.
 1879 0000 80B4     		push	{r7}
 1880              	.LCFI12:
 1881              		.cfi_def_cfa_offset 4
ARM GAS  C:\Users\Robert\AppData\Local\Temp\ccWEb3hA.s 			page 50


 1882              		.cfi_offset 7, -4
 1883 0002 85B0     		sub	sp, sp, #20
 1884              	.LCFI13:
 1885              		.cfi_def_cfa_offset 24
 1886 0004 00AF     		add	r7, sp, #0
 1887              	.LCFI14:
 1888              		.cfi_def_cfa_register 7
 1889 0006 0346     		mov	r3, r0
 1890 0008 FB71     		strb	r3, [r7, #7]
 852:.\Generated_Source\PSoC5/USBFS_std.c ****     /* Device Table */
 853:.\Generated_Source\PSoC5/USBFS_std.c ****     const T_USBFS_LUT CYCODE *pTmp;
 854:.\Generated_Source\PSoC5/USBFS_std.c **** 
 855:.\Generated_Source\PSoC5/USBFS_std.c ****     pTmp = (const T_USBFS_LUT CYCODE *) USBFS_TABLE[USBFS_device].p_list;
 1891              		.loc 1 855 0
 1892 000a 40F20003 		movw	r3, #:lower16:USBFS_device
 1893 000e C0F20003 		movt	r3, #:upper16:USBFS_device
 1894 0012 1B78     		ldrb	r3, [r3, #0]
 1895 0014 DBB2     		uxtb	r3, r3
 1896 0016 40F20002 		movw	r2, #:lower16:USBFS_TABLE
 1897 001a C0F20002 		movt	r2, #:upper16:USBFS_TABLE
 1898 001e 4FEAC303 		lsl	r3, r3, #3
 1899 0022 D318     		adds	r3, r2, r3
 1900 0024 5B68     		ldr	r3, [r3, #4]
 1901 0026 FB60     		str	r3, [r7, #12]
 856:.\Generated_Source\PSoC5/USBFS_std.c **** 
 857:.\Generated_Source\PSoC5/USBFS_std.c ****     /* The first entry points to the Device Descriptor,
 858:.\Generated_Source\PSoC5/USBFS_std.c ****     *  the rest configuration entries.
 859:.\Generated_Source\PSoC5/USBFS_std.c **** 	*/
 860:.\Generated_Source\PSoC5/USBFS_std.c ****     return( (const T_USBFS_LUT CYCODE *) pTmp[c + 1u].p_list );
 1902              		.loc 1 860 0
 1903 0028 FB79     		ldrb	r3, [r7, #7]	@ zero_extendqisi2
 1904 002a 03F10103 		add	r3, r3, #1
 1905 002e 4FEAC303 		lsl	r3, r3, #3
 1906 0032 FA68     		ldr	r2, [r7, #12]
 1907 0034 D318     		adds	r3, r2, r3
 1908 0036 5B68     		ldr	r3, [r3, #4]
 861:.\Generated_Source\PSoC5/USBFS_std.c **** }
 1909              		.loc 1 861 0
 1910 0038 1846     		mov	r0, r3
 1911 003a 07F11407 		add	r7, r7, #20
 1912 003e BD46     		mov	sp, r7
 1913 0040 80BC     		pop	{r7}
 1914 0042 7047     		bx	lr
 1915              		.cfi_endproc
 1916              	.LFE4:
 1917              		.size	USBFS_GetConfigTablePtr, .-USBFS_GetConfigTablePtr
 1918              		.section	.text.USBFS_GetDeviceTablePtr,"ax",%progbits
 1919              		.align	2
 1920              		.global	USBFS_GetDeviceTablePtr
 1921              		.thumb
 1922              		.thumb_func
 1923              		.type	USBFS_GetDeviceTablePtr, %function
 1924              	USBFS_GetDeviceTablePtr:
 1925              	.LFB5:
 862:.\Generated_Source\PSoC5/USBFS_std.c **** 
 863:.\Generated_Source\PSoC5/USBFS_std.c **** 
 864:.\Generated_Source\PSoC5/USBFS_std.c **** /*******************************************************************************
ARM GAS  C:\Users\Robert\AppData\Local\Temp\ccWEb3hA.s 			page 51


 865:.\Generated_Source\PSoC5/USBFS_std.c **** * Function Name: USBFS_GetDeviceTablePtr
 866:.\Generated_Source\PSoC5/USBFS_std.c **** ********************************************************************************
 867:.\Generated_Source\PSoC5/USBFS_std.c **** *
 868:.\Generated_Source\PSoC5/USBFS_std.c **** * Summary:
 869:.\Generated_Source\PSoC5/USBFS_std.c **** *  This routine returns a pointer to the Device table
 870:.\Generated_Source\PSoC5/USBFS_std.c **** *
 871:.\Generated_Source\PSoC5/USBFS_std.c **** * Parameters:
 872:.\Generated_Source\PSoC5/USBFS_std.c **** *  None.
 873:.\Generated_Source\PSoC5/USBFS_std.c **** *
 874:.\Generated_Source\PSoC5/USBFS_std.c **** * Return:
 875:.\Generated_Source\PSoC5/USBFS_std.c **** *  Device Table pointer
 876:.\Generated_Source\PSoC5/USBFS_std.c **** *
 877:.\Generated_Source\PSoC5/USBFS_std.c **** *******************************************************************************/
 878:.\Generated_Source\PSoC5/USBFS_std.c **** const T_USBFS_LUT CYCODE *USBFS_GetDeviceTablePtr(void)
 879:.\Generated_Source\PSoC5/USBFS_std.c ****                                                             
 880:.\Generated_Source\PSoC5/USBFS_std.c **** {
 1926              		.loc 1 880 0
 1927              		.cfi_startproc
 1928              		@ args = 0, pretend = 0, frame = 0
 1929              		@ frame_needed = 1, uses_anonymous_args = 0
 1930              		@ link register save eliminated.
 1931 0000 80B4     		push	{r7}
 1932              	.LCFI15:
 1933              		.cfi_def_cfa_offset 4
 1934              		.cfi_offset 7, -4
 1935 0002 00AF     		add	r7, sp, #0
 1936              	.LCFI16:
 1937              		.cfi_def_cfa_register 7
 881:.\Generated_Source\PSoC5/USBFS_std.c ****     /* Device Table */
 882:.\Generated_Source\PSoC5/USBFS_std.c ****     return( (const T_USBFS_LUT CYCODE *) USBFS_TABLE[USBFS_device].p_list );
 1938              		.loc 1 882 0
 1939 0004 40F20003 		movw	r3, #:lower16:USBFS_device
 1940 0008 C0F20003 		movt	r3, #:upper16:USBFS_device
 1941 000c 1B78     		ldrb	r3, [r3, #0]
 1942 000e DBB2     		uxtb	r3, r3
 1943 0010 40F20002 		movw	r2, #:lower16:USBFS_TABLE
 1944 0014 C0F20002 		movt	r2, #:upper16:USBFS_TABLE
 1945 0018 4FEAC303 		lsl	r3, r3, #3
 1946 001c D318     		adds	r3, r2, r3
 1947 001e 5B68     		ldr	r3, [r3, #4]
 883:.\Generated_Source\PSoC5/USBFS_std.c **** }
 1948              		.loc 1 883 0
 1949 0020 1846     		mov	r0, r3
 1950 0022 BD46     		mov	sp, r7
 1951 0024 80BC     		pop	{r7}
 1952 0026 7047     		bx	lr
 1953              		.cfi_endproc
 1954              	.LFE5:
 1955              		.size	USBFS_GetDeviceTablePtr, .-USBFS_GetDeviceTablePtr
 1956              		.section	.text.USBFS_GetInterfaceClassTablePtr,"ax",%progbits
 1957              		.align	2
 1958              		.global	USBFS_GetInterfaceClassTablePtr
 1959              		.thumb
 1960              		.thumb_func
 1961              		.type	USBFS_GetInterfaceClassTablePtr, %function
 1962              	USBFS_GetInterfaceClassTablePtr:
 1963              	.LFB6:
ARM GAS  C:\Users\Robert\AppData\Local\Temp\ccWEb3hA.s 			page 52


 884:.\Generated_Source\PSoC5/USBFS_std.c **** 
 885:.\Generated_Source\PSoC5/USBFS_std.c **** 
 886:.\Generated_Source\PSoC5/USBFS_std.c **** /*******************************************************************************
 887:.\Generated_Source\PSoC5/USBFS_std.c **** * Function Name: USB_GetInterfaceClassTablePtr
 888:.\Generated_Source\PSoC5/USBFS_std.c **** ********************************************************************************
 889:.\Generated_Source\PSoC5/USBFS_std.c **** *
 890:.\Generated_Source\PSoC5/USBFS_std.c **** * Summary:
 891:.\Generated_Source\PSoC5/USBFS_std.c **** *  This routine returns Interface Class table pointer, which contains
 892:.\Generated_Source\PSoC5/USBFS_std.c **** *  the relation between interface number and interface class.
 893:.\Generated_Source\PSoC5/USBFS_std.c **** *
 894:.\Generated_Source\PSoC5/USBFS_std.c **** * Parameters:
 895:.\Generated_Source\PSoC5/USBFS_std.c **** *  None.
 896:.\Generated_Source\PSoC5/USBFS_std.c **** *
 897:.\Generated_Source\PSoC5/USBFS_std.c **** * Return:
 898:.\Generated_Source\PSoC5/USBFS_std.c **** *  Interface Class table pointer.
 899:.\Generated_Source\PSoC5/USBFS_std.c **** *
 900:.\Generated_Source\PSoC5/USBFS_std.c **** *******************************************************************************/
 901:.\Generated_Source\PSoC5/USBFS_std.c **** const uint8 CYCODE *USBFS_GetInterfaceClassTablePtr(void)
 902:.\Generated_Source\PSoC5/USBFS_std.c ****                                                         
 903:.\Generated_Source\PSoC5/USBFS_std.c **** {
 1964              		.loc 1 903 0
 1965              		.cfi_startproc
 1966              		@ args = 0, pretend = 0, frame = 8
 1967              		@ frame_needed = 1, uses_anonymous_args = 0
 1968 0000 80B5     		push	{r7, lr}
 1969              	.LCFI17:
 1970              		.cfi_def_cfa_offset 8
 1971              		.cfi_offset 7, -8
 1972              		.cfi_offset 14, -4
 1973 0002 82B0     		sub	sp, sp, #8
 1974              	.LCFI18:
 1975              		.cfi_def_cfa_offset 16
 1976 0004 00AF     		add	r7, sp, #0
 1977              	.LCFI19:
 1978              		.cfi_def_cfa_register 7
 904:.\Generated_Source\PSoC5/USBFS_std.c ****     const T_USBFS_LUT CYCODE *pTmp;
 905:.\Generated_Source\PSoC5/USBFS_std.c ****     uint8 currentInterfacesNum;
 906:.\Generated_Source\PSoC5/USBFS_std.c **** 
 907:.\Generated_Source\PSoC5/USBFS_std.c ****     pTmp = USBFS_GetConfigTablePtr(USBFS_configuration - 1u);
 1979              		.loc 1 907 0
 1980 0006 40F20003 		movw	r3, #:lower16:USBFS_configuration
 1981 000a C0F20003 		movt	r3, #:upper16:USBFS_configuration
 1982 000e 1B78     		ldrb	r3, [r3, #0]
 1983 0010 DBB2     		uxtb	r3, r3
 1984 0012 03F1FF33 		add	r3, r3, #-1
 1985 0016 DBB2     		uxtb	r3, r3
 1986 0018 1846     		mov	r0, r3
 1987 001a FFF7FEFF 		bl	USBFS_GetConfigTablePtr
 1988 001e 7860     		str	r0, [r7, #4]
 908:.\Generated_Source\PSoC5/USBFS_std.c ****     currentInterfacesNum  = ((const uint8 *) pTmp->p_list)[USBFS_CONFIG_DESCR_NUM_INTERFACES];
 1989              		.loc 1 908 0
 1990 0020 7B68     		ldr	r3, [r7, #4]
 1991 0022 5B68     		ldr	r3, [r3, #4]
 1992 0024 1B79     		ldrb	r3, [r3, #4]
 1993 0026 FB70     		strb	r3, [r7, #3]
 909:.\Generated_Source\PSoC5/USBFS_std.c ****     /* Third entry in the LUT starts the Interface Table pointers */
 910:.\Generated_Source\PSoC5/USBFS_std.c ****     /* The INTERFACE_CLASS table is located after all interfaces */
ARM GAS  C:\Users\Robert\AppData\Local\Temp\ccWEb3hA.s 			page 53


 911:.\Generated_Source\PSoC5/USBFS_std.c ****     pTmp = &pTmp[currentInterfacesNum + 2u];
 1994              		.loc 1 911 0
 1995 0028 FB78     		ldrb	r3, [r7, #3]	@ zero_extendqisi2
 1996 002a 03F10203 		add	r3, r3, #2
 1997 002e 4FEAC303 		lsl	r3, r3, #3
 1998 0032 7A68     		ldr	r2, [r7, #4]
 1999 0034 D318     		adds	r3, r2, r3
 2000 0036 7B60     		str	r3, [r7, #4]
 912:.\Generated_Source\PSoC5/USBFS_std.c ****     return( (const uint8 CYCODE *) pTmp->p_list );
 2001              		.loc 1 912 0
 2002 0038 7B68     		ldr	r3, [r7, #4]
 2003 003a 5B68     		ldr	r3, [r3, #4]
 913:.\Generated_Source\PSoC5/USBFS_std.c **** }
 2004              		.loc 1 913 0
 2005 003c 1846     		mov	r0, r3
 2006 003e 07F10807 		add	r7, r7, #8
 2007 0042 BD46     		mov	sp, r7
 2008 0044 80BD     		pop	{r7, pc}
 2009              		.cfi_endproc
 2010              	.LFE6:
 2011              		.size	USBFS_GetInterfaceClassTablePtr, .-USBFS_GetInterfaceClassTablePtr
 2012 0046 00BF     		.section	.text.USBFS_TerminateEP,"ax",%progbits
 2013              		.align	2
 2014              		.global	USBFS_TerminateEP
 2015              		.thumb
 2016              		.thumb_func
 2017              		.type	USBFS_TerminateEP, %function
 2018              	USBFS_TerminateEP:
 2019              	.LFB7:
 914:.\Generated_Source\PSoC5/USBFS_std.c **** 
 915:.\Generated_Source\PSoC5/USBFS_std.c **** 
 916:.\Generated_Source\PSoC5/USBFS_std.c **** /*******************************************************************************
 917:.\Generated_Source\PSoC5/USBFS_std.c **** * Function Name: USBFS_TerminateEP
 918:.\Generated_Source\PSoC5/USBFS_std.c **** ********************************************************************************
 919:.\Generated_Source\PSoC5/USBFS_std.c **** *
 920:.\Generated_Source\PSoC5/USBFS_std.c **** * Summary:
 921:.\Generated_Source\PSoC5/USBFS_std.c **** *  This function terminates the specified USBFS endpoint.
 922:.\Generated_Source\PSoC5/USBFS_std.c **** *  This function should be used before endpoint reconfiguration.
 923:.\Generated_Source\PSoC5/USBFS_std.c **** *
 924:.\Generated_Source\PSoC5/USBFS_std.c **** * Parameters:
 925:.\Generated_Source\PSoC5/USBFS_std.c **** *  Endpoint number.
 926:.\Generated_Source\PSoC5/USBFS_std.c **** *
 927:.\Generated_Source\PSoC5/USBFS_std.c **** * Return:
 928:.\Generated_Source\PSoC5/USBFS_std.c **** *  None.
 929:.\Generated_Source\PSoC5/USBFS_std.c **** *
 930:.\Generated_Source\PSoC5/USBFS_std.c **** * Reentrant:
 931:.\Generated_Source\PSoC5/USBFS_std.c **** *  No.
 932:.\Generated_Source\PSoC5/USBFS_std.c **** *
 933:.\Generated_Source\PSoC5/USBFS_std.c **** *******************************************************************************/
 934:.\Generated_Source\PSoC5/USBFS_std.c **** void USBFS_TerminateEP(uint8 ep) 
 935:.\Generated_Source\PSoC5/USBFS_std.c **** {
 2020              		.loc 1 935 0
 2021              		.cfi_startproc
 2022              		@ args = 0, pretend = 0, frame = 16
 2023              		@ frame_needed = 1, uses_anonymous_args = 0
 2024              		@ link register save eliminated.
 2025 0000 80B4     		push	{r7}
ARM GAS  C:\Users\Robert\AppData\Local\Temp\ccWEb3hA.s 			page 54


 2026              	.LCFI20:
 2027              		.cfi_def_cfa_offset 4
 2028              		.cfi_offset 7, -4
 2029 0002 85B0     		sub	sp, sp, #20
 2030              	.LCFI21:
 2031              		.cfi_def_cfa_offset 24
 2032 0004 00AF     		add	r7, sp, #0
 2033              	.LCFI22:
 2034              		.cfi_def_cfa_register 7
 2035 0006 0346     		mov	r3, r0
 2036 0008 FB71     		strb	r3, [r7, #7]
 936:.\Generated_Source\PSoC5/USBFS_std.c ****     uint8 ri;
 937:.\Generated_Source\PSoC5/USBFS_std.c **** 
 938:.\Generated_Source\PSoC5/USBFS_std.c ****     ep &= USBFS_DIR_UNUSED;
 2037              		.loc 1 938 0
 2038 000a FB79     		ldrb	r3, [r7, #7]
 2039 000c 03F07F03 		and	r3, r3, #127
 2040 0010 FB71     		strb	r3, [r7, #7]
 939:.\Generated_Source\PSoC5/USBFS_std.c ****     ri = ((ep - USBFS_EP1) << USBFS_EPX_CNTX_ADDR_SHIFT);
 2041              		.loc 1 939 0
 2042 0012 FB79     		ldrb	r3, [r7, #7]
 2043 0014 03F1FF33 		add	r3, r3, #-1
 2044 0018 DBB2     		uxtb	r3, r3
 2045 001a 4FEA0313 		lsl	r3, r3, #4
 2046 001e FB73     		strb	r3, [r7, #15]
 940:.\Generated_Source\PSoC5/USBFS_std.c **** 
 941:.\Generated_Source\PSoC5/USBFS_std.c ****     if ((ep > USBFS_EP0) && (ep < USBFS_MAX_EP))
 2047              		.loc 1 941 0
 2048 0020 FB79     		ldrb	r3, [r7, #7]	@ zero_extendqisi2
 2049 0022 002B     		cmp	r3, #0
 2050 0024 64D0     		beq	.L109
 2051              		.loc 1 941 0 is_stmt 0 discriminator 1
 2052 0026 FB79     		ldrb	r3, [r7, #7]	@ zero_extendqisi2
 2053 0028 082B     		cmp	r3, #8
 2054 002a 61D8     		bhi	.L109
 942:.\Generated_Source\PSoC5/USBFS_std.c ****     {
 943:.\Generated_Source\PSoC5/USBFS_std.c ****         /* Set the endpoint Halt */
 944:.\Generated_Source\PSoC5/USBFS_std.c ****         USBFS_EP[ep].hwEpState |= (USBFS_ENDPOINT_STATUS_HALT);
 2055              		.loc 1 944 0 is_stmt 1
 2056 002c F979     		ldrb	r1, [r7, #7]	@ zero_extendqisi2
 2057 002e F879     		ldrb	r0, [r7, #7]	@ zero_extendqisi2
 2058 0030 40F20002 		movw	r2, #:lower16:USBFS_EP
 2059 0034 C0F20002 		movt	r2, #:upper16:USBFS_EP
 2060 0038 0346     		mov	r3, r0
 2061 003a 4FEA4303 		lsl	r3, r3, #1
 2062 003e 1B18     		adds	r3, r3, r0
 2063 0040 4FEA8303 		lsl	r3, r3, #2
 2064 0044 D318     		adds	r3, r2, r3
 2065 0046 9B78     		ldrb	r3, [r3, #2]
 2066 0048 DBB2     		uxtb	r3, r3
 2067 004a 43F00103 		orr	r3, r3, #1
 2068 004e D8B2     		uxtb	r0, r3
 2069 0050 40F20002 		movw	r2, #:lower16:USBFS_EP
 2070 0054 C0F20002 		movt	r2, #:upper16:USBFS_EP
 2071 0058 0B46     		mov	r3, r1
 2072 005a 4FEA4303 		lsl	r3, r3, #1
 2073 005e 5B18     		adds	r3, r3, r1
ARM GAS  C:\Users\Robert\AppData\Local\Temp\ccWEb3hA.s 			page 55


 2074 0060 4FEA8303 		lsl	r3, r3, #2
 2075 0064 D318     		adds	r3, r2, r3
 2076 0066 0246     		mov	r2, r0
 2077 0068 9A70     		strb	r2, [r3, #2]
 945:.\Generated_Source\PSoC5/USBFS_std.c **** 
 946:.\Generated_Source\PSoC5/USBFS_std.c ****         /* Clear the data toggle */
 947:.\Generated_Source\PSoC5/USBFS_std.c ****         USBFS_EP[ep].epToggle = 0u;
 2078              		.loc 1 947 0
 2079 006a F979     		ldrb	r1, [r7, #7]	@ zero_extendqisi2
 2080 006c 40F20002 		movw	r2, #:lower16:USBFS_EP
 2081 0070 C0F20002 		movt	r2, #:upper16:USBFS_EP
 2082 0074 0B46     		mov	r3, r1
 2083 0076 4FEA4303 		lsl	r3, r3, #1
 2084 007a 5B18     		adds	r3, r3, r1
 2085 007c 4FEA8303 		lsl	r3, r3, #2
 2086 0080 D318     		adds	r3, r2, r3
 2087 0082 4FF00002 		mov	r2, #0
 2088 0086 DA70     		strb	r2, [r3, #3]
 948:.\Generated_Source\PSoC5/USBFS_std.c ****         USBFS_EP[ep].apiEpState = USBFS_NO_EVENT_ALLOWED;
 2089              		.loc 1 948 0
 2090 0088 F979     		ldrb	r1, [r7, #7]	@ zero_extendqisi2
 2091 008a 40F20002 		movw	r2, #:lower16:USBFS_EP
 2092 008e C0F20002 		movt	r2, #:upper16:USBFS_EP
 2093 0092 0B46     		mov	r3, r1
 2094 0094 4FEA4303 		lsl	r3, r3, #1
 2095 0098 5B18     		adds	r3, r3, r1
 2096 009a 4FEA8303 		lsl	r3, r3, #2
 2097 009e D318     		adds	r3, r2, r3
 2098 00a0 4FF00202 		mov	r2, #2
 2099 00a4 5A70     		strb	r2, [r3, #1]
 949:.\Generated_Source\PSoC5/USBFS_std.c **** 
 950:.\Generated_Source\PSoC5/USBFS_std.c ****         if ((USBFS_EP[ep].addr & USBFS_DIR_IN) != 0u)
 2100              		.loc 1 950 0
 2101 00a6 F979     		ldrb	r1, [r7, #7]	@ zero_extendqisi2
 2102 00a8 40F20002 		movw	r2, #:lower16:USBFS_EP
 2103 00ac C0F20002 		movt	r2, #:upper16:USBFS_EP
 2104 00b0 0B46     		mov	r3, r1
 2105 00b2 4FEA4303 		lsl	r3, r3, #1
 2106 00b6 5B18     		adds	r3, r3, r1
 2107 00b8 4FEA8303 		lsl	r3, r3, #2
 2108 00bc D318     		adds	r3, r2, r3
 2109 00be 1B79     		ldrb	r3, [r3, #4]
 2110 00c0 DBB2     		uxtb	r3, r3
 2111 00c2 DBB2     		uxtb	r3, r3
 2112 00c4 5BB2     		sxtb	r3, r3
 2113 00c6 002B     		cmp	r3, #0
 2114 00c8 09DA     		bge	.L111
 951:.\Generated_Source\PSoC5/USBFS_std.c ****         {
 952:.\Generated_Source\PSoC5/USBFS_std.c ****             /* IN Endpoint */
 953:.\Generated_Source\PSoC5/USBFS_std.c ****             CY_SET_REG8((reg8 *)(USBFS_SIE_EP1_CR0_IND + ri), USBFS_MODE_NAK_IN);
 2115              		.loc 1 953 0
 2116 00ca FA7B     		ldrb	r2, [r7, #15]	@ zero_extendqisi2
 2117 00cc 46F20E03 		movw	r3, #24590
 2118 00d0 C4F20003 		movt	r3, 16384
 2119 00d4 D318     		adds	r3, r2, r3
 2120 00d6 4FF00C02 		mov	r2, #12
 2121 00da 1A70     		strb	r2, [r3, #0]
ARM GAS  C:\Users\Robert\AppData\Local\Temp\ccWEb3hA.s 			page 56


 2122 00dc 08E0     		b	.L109
 2123              	.L111:
 954:.\Generated_Source\PSoC5/USBFS_std.c ****         }
 955:.\Generated_Source\PSoC5/USBFS_std.c ****         else
 956:.\Generated_Source\PSoC5/USBFS_std.c ****         {
 957:.\Generated_Source\PSoC5/USBFS_std.c ****             /* OUT Endpoint */
 958:.\Generated_Source\PSoC5/USBFS_std.c ****             CY_SET_REG8((reg8 *)(USBFS_SIE_EP1_CR0_IND + ri), USBFS_MODE_NAK_OUT);
 2124              		.loc 1 958 0
 2125 00de FA7B     		ldrb	r2, [r7, #15]	@ zero_extendqisi2
 2126 00e0 46F20E03 		movw	r3, #24590
 2127 00e4 C4F20003 		movt	r3, 16384
 2128 00e8 D318     		adds	r3, r2, r3
 2129 00ea 4FF00802 		mov	r2, #8
 2130 00ee 1A70     		strb	r2, [r3, #0]
 2131              	.L109:
 959:.\Generated_Source\PSoC5/USBFS_std.c ****         }
 960:.\Generated_Source\PSoC5/USBFS_std.c ****     }
 961:.\Generated_Source\PSoC5/USBFS_std.c **** }
 2132              		.loc 1 961 0
 2133 00f0 07F11407 		add	r7, r7, #20
 2134 00f4 BD46     		mov	sp, r7
 2135 00f6 80BC     		pop	{r7}
 2136 00f8 7047     		bx	lr
 2137              		.cfi_endproc
 2138              	.LFE7:
 2139              		.size	USBFS_TerminateEP, .-USBFS_TerminateEP
 2140 00fa 00BF     		.section	.text.USBFS_SetEndpointHalt,"ax",%progbits
 2141              		.align	2
 2142              		.global	USBFS_SetEndpointHalt
 2143              		.thumb
 2144              		.thumb_func
 2145              		.type	USBFS_SetEndpointHalt, %function
 2146              	USBFS_SetEndpointHalt:
 2147              	.LFB8:
 962:.\Generated_Source\PSoC5/USBFS_std.c **** 
 963:.\Generated_Source\PSoC5/USBFS_std.c **** 
 964:.\Generated_Source\PSoC5/USBFS_std.c **** /*******************************************************************************
 965:.\Generated_Source\PSoC5/USBFS_std.c **** * Function Name: USBFS_SetEndpointHalt
 966:.\Generated_Source\PSoC5/USBFS_std.c **** ********************************************************************************
 967:.\Generated_Source\PSoC5/USBFS_std.c **** *
 968:.\Generated_Source\PSoC5/USBFS_std.c **** * Summary:
 969:.\Generated_Source\PSoC5/USBFS_std.c **** *  This routine handles set endpoint halt.
 970:.\Generated_Source\PSoC5/USBFS_std.c **** *
 971:.\Generated_Source\PSoC5/USBFS_std.c **** * Parameters:
 972:.\Generated_Source\PSoC5/USBFS_std.c **** *  None.
 973:.\Generated_Source\PSoC5/USBFS_std.c **** *
 974:.\Generated_Source\PSoC5/USBFS_std.c **** * Return:
 975:.\Generated_Source\PSoC5/USBFS_std.c **** *  requestHandled.
 976:.\Generated_Source\PSoC5/USBFS_std.c **** *
 977:.\Generated_Source\PSoC5/USBFS_std.c **** * Reentrant:
 978:.\Generated_Source\PSoC5/USBFS_std.c **** *  No.
 979:.\Generated_Source\PSoC5/USBFS_std.c **** *
 980:.\Generated_Source\PSoC5/USBFS_std.c **** *******************************************************************************/
 981:.\Generated_Source\PSoC5/USBFS_std.c **** uint8 USBFS_SetEndpointHalt(void) 
 982:.\Generated_Source\PSoC5/USBFS_std.c **** {
 2148              		.loc 1 982 0
 2149              		.cfi_startproc
ARM GAS  C:\Users\Robert\AppData\Local\Temp\ccWEb3hA.s 			page 57


 2150              		@ args = 0, pretend = 0, frame = 8
 2151              		@ frame_needed = 1, uses_anonymous_args = 0
 2152 0000 80B5     		push	{r7, lr}
 2153              	.LCFI23:
 2154              		.cfi_def_cfa_offset 8
 2155              		.cfi_offset 7, -8
 2156              		.cfi_offset 14, -4
 2157 0002 82B0     		sub	sp, sp, #8
 2158              	.LCFI24:
 2159              		.cfi_def_cfa_offset 16
 2160 0004 00AF     		add	r7, sp, #0
 2161              	.LCFI25:
 2162              		.cfi_def_cfa_register 7
 983:.\Generated_Source\PSoC5/USBFS_std.c ****     uint8 ep;
 984:.\Generated_Source\PSoC5/USBFS_std.c ****     uint8 ri;
 985:.\Generated_Source\PSoC5/USBFS_std.c ****     uint8 requestHandled = USBFS_FALSE;
 2163              		.loc 1 985 0
 2164 0006 4FF00003 		mov	r3, #0
 2165 000a FB71     		strb	r3, [r7, #7]
 986:.\Generated_Source\PSoC5/USBFS_std.c **** 
 987:.\Generated_Source\PSoC5/USBFS_std.c ****     /* Set endpoint halt */
 988:.\Generated_Source\PSoC5/USBFS_std.c ****     ep = CY_GET_REG8(USBFS_wIndexLo) & USBFS_DIR_UNUSED;
 2166              		.loc 1 988 0
 2167 000c 46F20403 		movw	r3, #24580
 2168 0010 C4F20003 		movt	r3, 16384
 2169 0014 1B78     		ldrb	r3, [r3, #0]
 2170 0016 DBB2     		uxtb	r3, r3
 2171 0018 03F07F03 		and	r3, r3, #127
 2172 001c BB71     		strb	r3, [r7, #6]
 989:.\Generated_Source\PSoC5/USBFS_std.c ****     ri = ((ep - USBFS_EP1) << USBFS_EPX_CNTX_ADDR_SHIFT);
 2173              		.loc 1 989 0
 2174 001e BB79     		ldrb	r3, [r7, #6]
 2175 0020 03F1FF33 		add	r3, r3, #-1
 2176 0024 DBB2     		uxtb	r3, r3
 2177 0026 4FEA0313 		lsl	r3, r3, #4
 2178 002a 7B71     		strb	r3, [r7, #5]
 990:.\Generated_Source\PSoC5/USBFS_std.c **** 
 991:.\Generated_Source\PSoC5/USBFS_std.c ****     if ((ep > USBFS_EP0) && (ep < USBFS_MAX_EP))
 2179              		.loc 1 991 0
 2180 002c BB79     		ldrb	r3, [r7, #6]	@ zero_extendqisi2
 2181 002e 002B     		cmp	r3, #0
 2182 0030 78D0     		beq	.L113
 2183              		.loc 1 991 0 is_stmt 0 discriminator 1
 2184 0032 BB79     		ldrb	r3, [r7, #6]	@ zero_extendqisi2
 2185 0034 082B     		cmp	r3, #8
 2186 0036 75D8     		bhi	.L113
 992:.\Generated_Source\PSoC5/USBFS_std.c ****     {
 993:.\Generated_Source\PSoC5/USBFS_std.c ****         /* Set the endpoint Halt */
 994:.\Generated_Source\PSoC5/USBFS_std.c ****         USBFS_EP[ep].hwEpState |= (USBFS_ENDPOINT_STATUS_HALT);
 2187              		.loc 1 994 0 is_stmt 1
 2188 0038 B979     		ldrb	r1, [r7, #6]	@ zero_extendqisi2
 2189 003a B879     		ldrb	r0, [r7, #6]	@ zero_extendqisi2
 2190 003c 40F20002 		movw	r2, #:lower16:USBFS_EP
 2191 0040 C0F20002 		movt	r2, #:upper16:USBFS_EP
 2192 0044 0346     		mov	r3, r0
 2193 0046 4FEA4303 		lsl	r3, r3, #1
 2194 004a 1B18     		adds	r3, r3, r0
ARM GAS  C:\Users\Robert\AppData\Local\Temp\ccWEb3hA.s 			page 58


 2195 004c 4FEA8303 		lsl	r3, r3, #2
 2196 0050 D318     		adds	r3, r2, r3
 2197 0052 9B78     		ldrb	r3, [r3, #2]
 2198 0054 DBB2     		uxtb	r3, r3
 2199 0056 43F00103 		orr	r3, r3, #1
 2200 005a D8B2     		uxtb	r0, r3
 2201 005c 40F20002 		movw	r2, #:lower16:USBFS_EP
 2202 0060 C0F20002 		movt	r2, #:upper16:USBFS_EP
 2203 0064 0B46     		mov	r3, r1
 2204 0066 4FEA4303 		lsl	r3, r3, #1
 2205 006a 5B18     		adds	r3, r3, r1
 2206 006c 4FEA8303 		lsl	r3, r3, #2
 2207 0070 D318     		adds	r3, r2, r3
 2208 0072 0246     		mov	r2, r0
 2209 0074 9A70     		strb	r2, [r3, #2]
 995:.\Generated_Source\PSoC5/USBFS_std.c **** 
 996:.\Generated_Source\PSoC5/USBFS_std.c ****         /* Clear the data toggle */
 997:.\Generated_Source\PSoC5/USBFS_std.c ****         USBFS_EP[ep].epToggle = 0u;
 2210              		.loc 1 997 0
 2211 0076 B979     		ldrb	r1, [r7, #6]	@ zero_extendqisi2
 2212 0078 40F20002 		movw	r2, #:lower16:USBFS_EP
 2213 007c C0F20002 		movt	r2, #:upper16:USBFS_EP
 2214 0080 0B46     		mov	r3, r1
 2215 0082 4FEA4303 		lsl	r3, r3, #1
 2216 0086 5B18     		adds	r3, r3, r1
 2217 0088 4FEA8303 		lsl	r3, r3, #2
 2218 008c D318     		adds	r3, r2, r3
 2219 008e 4FF00002 		mov	r2, #0
 2220 0092 DA70     		strb	r2, [r3, #3]
 998:.\Generated_Source\PSoC5/USBFS_std.c ****         USBFS_EP[ep].apiEpState |= USBFS_NO_EVENT_ALLOWED;
 2221              		.loc 1 998 0
 2222 0094 B979     		ldrb	r1, [r7, #6]	@ zero_extendqisi2
 2223 0096 B879     		ldrb	r0, [r7, #6]	@ zero_extendqisi2
 2224 0098 40F20002 		movw	r2, #:lower16:USBFS_EP
 2225 009c C0F20002 		movt	r2, #:upper16:USBFS_EP
 2226 00a0 0346     		mov	r3, r0
 2227 00a2 4FEA4303 		lsl	r3, r3, #1
 2228 00a6 1B18     		adds	r3, r3, r0
 2229 00a8 4FEA8303 		lsl	r3, r3, #2
 2230 00ac D318     		adds	r3, r2, r3
 2231 00ae 5B78     		ldrb	r3, [r3, #1]
 2232 00b0 DBB2     		uxtb	r3, r3
 2233 00b2 43F00203 		orr	r3, r3, #2
 2234 00b6 D8B2     		uxtb	r0, r3
 2235 00b8 40F20002 		movw	r2, #:lower16:USBFS_EP
 2236 00bc C0F20002 		movt	r2, #:upper16:USBFS_EP
 2237 00c0 0B46     		mov	r3, r1
 2238 00c2 4FEA4303 		lsl	r3, r3, #1
 2239 00c6 5B18     		adds	r3, r3, r1
 2240 00c8 4FEA8303 		lsl	r3, r3, #2
 2241 00cc D318     		adds	r3, r2, r3
 2242 00ce 0246     		mov	r2, r0
 2243 00d0 5A70     		strb	r2, [r3, #1]
 999:.\Generated_Source\PSoC5/USBFS_std.c **** 
1000:.\Generated_Source\PSoC5/USBFS_std.c ****         if ((USBFS_EP[ep].addr & USBFS_DIR_IN) != 0u)
 2244              		.loc 1 1000 0
 2245 00d2 B979     		ldrb	r1, [r7, #6]	@ zero_extendqisi2
ARM GAS  C:\Users\Robert\AppData\Local\Temp\ccWEb3hA.s 			page 59


 2246 00d4 40F20002 		movw	r2, #:lower16:USBFS_EP
 2247 00d8 C0F20002 		movt	r2, #:upper16:USBFS_EP
 2248 00dc 0B46     		mov	r3, r1
 2249 00de 4FEA4303 		lsl	r3, r3, #1
 2250 00e2 5B18     		adds	r3, r3, r1
 2251 00e4 4FEA8303 		lsl	r3, r3, #2
 2252 00e8 D318     		adds	r3, r2, r3
 2253 00ea 1B79     		ldrb	r3, [r3, #4]
 2254 00ec DBB2     		uxtb	r3, r3
 2255 00ee DBB2     		uxtb	r3, r3
 2256 00f0 5BB2     		sxtb	r3, r3
 2257 00f2 002B     		cmp	r3, #0
 2258 00f4 09DA     		bge	.L114
1001:.\Generated_Source\PSoC5/USBFS_std.c ****         {
1002:.\Generated_Source\PSoC5/USBFS_std.c ****             /* IN Endpoint */
1003:.\Generated_Source\PSoC5/USBFS_std.c ****             CY_SET_REG8((reg8 *)(USBFS_SIE_EP1_CR0_IND + ri), USBFS_MODE_STALL_DATA_EP |
 2259              		.loc 1 1003 0
 2260 00f6 7A79     		ldrb	r2, [r7, #5]	@ zero_extendqisi2
 2261 00f8 46F20E03 		movw	r3, #24590
 2262 00fc C4F20003 		movt	r3, 16384
 2263 0100 D318     		adds	r3, r2, r3
 2264 0102 4FF08D02 		mov	r2, #141
 2265 0106 1A70     		strb	r2, [r3, #0]
 2266 0108 08E0     		b	.L115
 2267              	.L114:
1004:.\Generated_Source\PSoC5/USBFS_std.c ****                                                                USBFS_MODE_ACK_IN);
1005:.\Generated_Source\PSoC5/USBFS_std.c ****         }
1006:.\Generated_Source\PSoC5/USBFS_std.c ****         else
1007:.\Generated_Source\PSoC5/USBFS_std.c ****         {
1008:.\Generated_Source\PSoC5/USBFS_std.c ****             /* OUT Endpoint */
1009:.\Generated_Source\PSoC5/USBFS_std.c ****             CY_SET_REG8((reg8 *)(USBFS_SIE_EP1_CR0_IND + ri), USBFS_MODE_STALL_DATA_EP |
 2268              		.loc 1 1009 0
 2269 010a 7A79     		ldrb	r2, [r7, #5]	@ zero_extendqisi2
 2270 010c 46F20E03 		movw	r3, #24590
 2271 0110 C4F20003 		movt	r3, 16384
 2272 0114 D318     		adds	r3, r2, r3
 2273 0116 4FF08902 		mov	r2, #137
 2274 011a 1A70     		strb	r2, [r3, #0]
 2275              	.L115:
1010:.\Generated_Source\PSoC5/USBFS_std.c ****                                                                USBFS_MODE_ACK_OUT);
1011:.\Generated_Source\PSoC5/USBFS_std.c ****         }
1012:.\Generated_Source\PSoC5/USBFS_std.c ****         requestHandled = USBFS_InitNoDataControlTransfer();
 2276              		.loc 1 1012 0
 2277 011c FFF7FEFF 		bl	USBFS_InitNoDataControlTransfer
 2278 0120 0346     		mov	r3, r0
 2279 0122 FB71     		strb	r3, [r7, #7]
 2280              	.L113:
1013:.\Generated_Source\PSoC5/USBFS_std.c ****     }
1014:.\Generated_Source\PSoC5/USBFS_std.c **** 
1015:.\Generated_Source\PSoC5/USBFS_std.c ****     return(requestHandled);
 2281              		.loc 1 1015 0
 2282 0124 FB79     		ldrb	r3, [r7, #7]	@ zero_extendqisi2
1016:.\Generated_Source\PSoC5/USBFS_std.c **** }
 2283              		.loc 1 1016 0
 2284 0126 1846     		mov	r0, r3
 2285 0128 07F10807 		add	r7, r7, #8
 2286 012c BD46     		mov	sp, r7
ARM GAS  C:\Users\Robert\AppData\Local\Temp\ccWEb3hA.s 			page 60


 2287 012e 80BD     		pop	{r7, pc}
 2288              		.cfi_endproc
 2289              	.LFE8:
 2290              		.size	USBFS_SetEndpointHalt, .-USBFS_SetEndpointHalt
 2291              		.section	.text.USBFS_ClearEndpointHalt,"ax",%progbits
 2292              		.align	2
 2293              		.global	USBFS_ClearEndpointHalt
 2294              		.thumb
 2295              		.thumb_func
 2296              		.type	USBFS_ClearEndpointHalt, %function
 2297              	USBFS_ClearEndpointHalt:
 2298              	.LFB9:
1017:.\Generated_Source\PSoC5/USBFS_std.c **** 
1018:.\Generated_Source\PSoC5/USBFS_std.c **** 
1019:.\Generated_Source\PSoC5/USBFS_std.c **** /*******************************************************************************
1020:.\Generated_Source\PSoC5/USBFS_std.c **** * Function Name: USBFS_ClearEndpointHalt
1021:.\Generated_Source\PSoC5/USBFS_std.c **** ********************************************************************************
1022:.\Generated_Source\PSoC5/USBFS_std.c **** *
1023:.\Generated_Source\PSoC5/USBFS_std.c **** * Summary:
1024:.\Generated_Source\PSoC5/USBFS_std.c **** *  This routine handles clear endpoint halt.
1025:.\Generated_Source\PSoC5/USBFS_std.c **** *
1026:.\Generated_Source\PSoC5/USBFS_std.c **** * Parameters:
1027:.\Generated_Source\PSoC5/USBFS_std.c **** *  None.
1028:.\Generated_Source\PSoC5/USBFS_std.c **** *
1029:.\Generated_Source\PSoC5/USBFS_std.c **** * Return:
1030:.\Generated_Source\PSoC5/USBFS_std.c **** *  requestHandled.
1031:.\Generated_Source\PSoC5/USBFS_std.c **** *
1032:.\Generated_Source\PSoC5/USBFS_std.c **** * Reentrant:
1033:.\Generated_Source\PSoC5/USBFS_std.c **** *  No.
1034:.\Generated_Source\PSoC5/USBFS_std.c **** *
1035:.\Generated_Source\PSoC5/USBFS_std.c **** *******************************************************************************/
1036:.\Generated_Source\PSoC5/USBFS_std.c **** uint8 USBFS_ClearEndpointHalt(void) 
1037:.\Generated_Source\PSoC5/USBFS_std.c **** {
 2299              		.loc 1 1037 0
 2300              		.cfi_startproc
 2301              		@ args = 0, pretend = 0, frame = 8
 2302              		@ frame_needed = 1, uses_anonymous_args = 0
 2303 0000 80B5     		push	{r7, lr}
 2304              	.LCFI26:
 2305              		.cfi_def_cfa_offset 8
 2306              		.cfi_offset 7, -8
 2307              		.cfi_offset 14, -4
 2308 0002 82B0     		sub	sp, sp, #8
 2309              	.LCFI27:
 2310              		.cfi_def_cfa_offset 16
 2311 0004 00AF     		add	r7, sp, #0
 2312              	.LCFI28:
 2313              		.cfi_def_cfa_register 7
1038:.\Generated_Source\PSoC5/USBFS_std.c ****     uint8 ep;
1039:.\Generated_Source\PSoC5/USBFS_std.c ****     uint8 ri;
1040:.\Generated_Source\PSoC5/USBFS_std.c ****     uint8 requestHandled = USBFS_FALSE;
 2314              		.loc 1 1040 0
 2315 0006 4FF00003 		mov	r3, #0
 2316 000a FB71     		strb	r3, [r7, #7]
1041:.\Generated_Source\PSoC5/USBFS_std.c **** 
1042:.\Generated_Source\PSoC5/USBFS_std.c ****     /* Clear endpoint halt */
1043:.\Generated_Source\PSoC5/USBFS_std.c ****     ep = CY_GET_REG8(USBFS_wIndexLo) & USBFS_DIR_UNUSED;
ARM GAS  C:\Users\Robert\AppData\Local\Temp\ccWEb3hA.s 			page 61


 2317              		.loc 1 1043 0
 2318 000c 46F20403 		movw	r3, #24580
 2319 0010 C4F20003 		movt	r3, 16384
 2320 0014 1B78     		ldrb	r3, [r3, #0]
 2321 0016 DBB2     		uxtb	r3, r3
 2322 0018 03F07F03 		and	r3, r3, #127
 2323 001c BB71     		strb	r3, [r7, #6]
1044:.\Generated_Source\PSoC5/USBFS_std.c ****     ri = ((ep - USBFS_EP1) << USBFS_EPX_CNTX_ADDR_SHIFT);
 2324              		.loc 1 1044 0
 2325 001e BB79     		ldrb	r3, [r7, #6]
 2326 0020 03F1FF33 		add	r3, r3, #-1
 2327 0024 DBB2     		uxtb	r3, r3
 2328 0026 4FEA0313 		lsl	r3, r3, #4
 2329 002a 7B71     		strb	r3, [r7, #5]
1045:.\Generated_Source\PSoC5/USBFS_std.c **** 
1046:.\Generated_Source\PSoC5/USBFS_std.c ****     if ((ep > USBFS_EP0) && (ep < USBFS_MAX_EP))
 2330              		.loc 1 1046 0
 2331 002c BB79     		ldrb	r3, [r7, #6]	@ zero_extendqisi2
 2332 002e 002B     		cmp	r3, #0
 2333 0030 00F0C180 		beq	.L118
 2334              		.loc 1 1046 0 is_stmt 0 discriminator 1
 2335 0034 BB79     		ldrb	r3, [r7, #6]	@ zero_extendqisi2
 2336 0036 082B     		cmp	r3, #8
 2337 0038 00F2BD80 		bhi	.L118
1047:.\Generated_Source\PSoC5/USBFS_std.c ****     {
1048:.\Generated_Source\PSoC5/USBFS_std.c ****         /* Clear the endpoint Halt */
1049:.\Generated_Source\PSoC5/USBFS_std.c ****         USBFS_EP[ep].hwEpState &= (uint8)~(USBFS_ENDPOINT_STATUS_HALT);
 2338              		.loc 1 1049 0 is_stmt 1
 2339 003c B979     		ldrb	r1, [r7, #6]	@ zero_extendqisi2
 2340 003e B879     		ldrb	r0, [r7, #6]	@ zero_extendqisi2
 2341 0040 40F20002 		movw	r2, #:lower16:USBFS_EP
 2342 0044 C0F20002 		movt	r2, #:upper16:USBFS_EP
 2343 0048 0346     		mov	r3, r0
 2344 004a 4FEA4303 		lsl	r3, r3, #1
 2345 004e 1B18     		adds	r3, r3, r0
 2346 0050 4FEA8303 		lsl	r3, r3, #2
 2347 0054 D318     		adds	r3, r2, r3
 2348 0056 9B78     		ldrb	r3, [r3, #2]
 2349 0058 DBB2     		uxtb	r3, r3
 2350 005a 23F00103 		bic	r3, r3, #1
 2351 005e D8B2     		uxtb	r0, r3
 2352 0060 40F20002 		movw	r2, #:lower16:USBFS_EP
 2353 0064 C0F20002 		movt	r2, #:upper16:USBFS_EP
 2354 0068 0B46     		mov	r3, r1
 2355 006a 4FEA4303 		lsl	r3, r3, #1
 2356 006e 5B18     		adds	r3, r3, r1
 2357 0070 4FEA8303 		lsl	r3, r3, #2
 2358 0074 D318     		adds	r3, r2, r3
 2359 0076 0246     		mov	r2, r0
 2360 0078 9A70     		strb	r2, [r3, #2]
1050:.\Generated_Source\PSoC5/USBFS_std.c **** 
1051:.\Generated_Source\PSoC5/USBFS_std.c ****         /* Clear the data toggle */
1052:.\Generated_Source\PSoC5/USBFS_std.c ****         USBFS_EP[ep].epToggle = 0u;
 2361              		.loc 1 1052 0
 2362 007a B979     		ldrb	r1, [r7, #6]	@ zero_extendqisi2
 2363 007c 40F20002 		movw	r2, #:lower16:USBFS_EP
 2364 0080 C0F20002 		movt	r2, #:upper16:USBFS_EP
ARM GAS  C:\Users\Robert\AppData\Local\Temp\ccWEb3hA.s 			page 62


 2365 0084 0B46     		mov	r3, r1
 2366 0086 4FEA4303 		lsl	r3, r3, #1
 2367 008a 5B18     		adds	r3, r3, r1
 2368 008c 4FEA8303 		lsl	r3, r3, #2
 2369 0090 D318     		adds	r3, r2, r3
 2370 0092 4FF00002 		mov	r2, #0
 2371 0096 DA70     		strb	r2, [r3, #3]
1053:.\Generated_Source\PSoC5/USBFS_std.c ****         /* Clear toggle bit for already armed packet */
1054:.\Generated_Source\PSoC5/USBFS_std.c ****         CY_SET_REG8((reg8 *)(USBFS_SIE_EP1_CNT0_IND + ri), CY_GET_REG8(
 2372              		.loc 1 1054 0
 2373 0098 7A79     		ldrb	r2, [r7, #5]	@ zero_extendqisi2
 2374 009a 46F20C03 		movw	r3, #24588
 2375 009e C4F20003 		movt	r3, 16384
 2376 00a2 D318     		adds	r3, r2, r3
 2377 00a4 1A46     		mov	r2, r3
 2378 00a6 7979     		ldrb	r1, [r7, #5]	@ zero_extendqisi2
 2379 00a8 46F20C03 		movw	r3, #24588
 2380 00ac C4F20003 		movt	r3, 16384
 2381 00b0 CB18     		adds	r3, r1, r3
 2382 00b2 1B78     		ldrb	r3, [r3, #0]
 2383 00b4 DBB2     		uxtb	r3, r3
 2384 00b6 03F07F03 		and	r3, r3, #127
 2385 00ba DBB2     		uxtb	r3, r3
 2386 00bc 1370     		strb	r3, [r2, #0]
1055:.\Generated_Source\PSoC5/USBFS_std.c ****                     (reg8 *)(USBFS_SIE_EP1_CNT0_IND + ri)) & (uint8)~USBFS_EPX_CNT_DATA_TOGGLE);
1056:.\Generated_Source\PSoC5/USBFS_std.c ****         /* Return API State as it was defined before */
1057:.\Generated_Source\PSoC5/USBFS_std.c ****         USBFS_EP[ep].apiEpState &= (uint8)~USBFS_NO_EVENT_ALLOWED;
 2387              		.loc 1 1057 0
 2388 00be B979     		ldrb	r1, [r7, #6]	@ zero_extendqisi2
 2389 00c0 B879     		ldrb	r0, [r7, #6]	@ zero_extendqisi2
 2390 00c2 40F20002 		movw	r2, #:lower16:USBFS_EP
 2391 00c6 C0F20002 		movt	r2, #:upper16:USBFS_EP
 2392 00ca 0346     		mov	r3, r0
 2393 00cc 4FEA4303 		lsl	r3, r3, #1
 2394 00d0 1B18     		adds	r3, r3, r0
 2395 00d2 4FEA8303 		lsl	r3, r3, #2
 2396 00d6 D318     		adds	r3, r2, r3
 2397 00d8 5B78     		ldrb	r3, [r3, #1]
 2398 00da DBB2     		uxtb	r3, r3
 2399 00dc 23F00203 		bic	r3, r3, #2
 2400 00e0 D8B2     		uxtb	r0, r3
 2401 00e2 40F20002 		movw	r2, #:lower16:USBFS_EP
 2402 00e6 C0F20002 		movt	r2, #:upper16:USBFS_EP
 2403 00ea 0B46     		mov	r3, r1
 2404 00ec 4FEA4303 		lsl	r3, r3, #1
 2405 00f0 5B18     		adds	r3, r3, r1
 2406 00f2 4FEA8303 		lsl	r3, r3, #2
 2407 00f6 D318     		adds	r3, r2, r3
 2408 00f8 0246     		mov	r2, r0
 2409 00fa 5A70     		strb	r2, [r3, #1]
1058:.\Generated_Source\PSoC5/USBFS_std.c **** 
1059:.\Generated_Source\PSoC5/USBFS_std.c ****         if ((USBFS_EP[ep].addr & USBFS_DIR_IN) != 0u)
 2410              		.loc 1 1059 0
 2411 00fc B979     		ldrb	r1, [r7, #6]	@ zero_extendqisi2
 2412 00fe 40F20002 		movw	r2, #:lower16:USBFS_EP
 2413 0102 C0F20002 		movt	r2, #:upper16:USBFS_EP
 2414 0106 0B46     		mov	r3, r1
ARM GAS  C:\Users\Robert\AppData\Local\Temp\ccWEb3hA.s 			page 63


 2415 0108 4FEA4303 		lsl	r3, r3, #1
 2416 010c 5B18     		adds	r3, r3, r1
 2417 010e 4FEA8303 		lsl	r3, r3, #2
 2418 0112 D318     		adds	r3, r2, r3
 2419 0114 1B79     		ldrb	r3, [r3, #4]
 2420 0116 DBB2     		uxtb	r3, r3
 2421 0118 DBB2     		uxtb	r3, r3
 2422 011a 5BB2     		sxtb	r3, r3
 2423 011c 002B     		cmp	r3, #0
 2424 011e 23DA     		bge	.L119
1060:.\Generated_Source\PSoC5/USBFS_std.c ****         {
1061:.\Generated_Source\PSoC5/USBFS_std.c ****             /* IN Endpoint */
1062:.\Generated_Source\PSoC5/USBFS_std.c ****             if(USBFS_EP[ep].apiEpState == USBFS_IN_BUFFER_EMPTY)
 2425              		.loc 1 1062 0
 2426 0120 B979     		ldrb	r1, [r7, #6]	@ zero_extendqisi2
 2427 0122 40F20002 		movw	r2, #:lower16:USBFS_EP
 2428 0126 C0F20002 		movt	r2, #:upper16:USBFS_EP
 2429 012a 0B46     		mov	r3, r1
 2430 012c 4FEA4303 		lsl	r3, r3, #1
 2431 0130 5B18     		adds	r3, r3, r1
 2432 0132 4FEA8303 		lsl	r3, r3, #2
 2433 0136 D318     		adds	r3, r2, r3
 2434 0138 5B78     		ldrb	r3, [r3, #1]
 2435 013a DBB2     		uxtb	r3, r3
 2436 013c 012B     		cmp	r3, #1
 2437 013e 09D1     		bne	.L120
1063:.\Generated_Source\PSoC5/USBFS_std.c ****             {       /* Wait for next packet from application */
1064:.\Generated_Source\PSoC5/USBFS_std.c ****                 CY_SET_REG8((reg8 *)(USBFS_SIE_EP1_CR0_IND + ri), USBFS_MODE_NAK_IN);
 2438              		.loc 1 1064 0
 2439 0140 7A79     		ldrb	r2, [r7, #5]	@ zero_extendqisi2
 2440 0142 46F20E03 		movw	r3, #24590
 2441 0146 C4F20003 		movt	r3, 16384
 2442 014a D318     		adds	r3, r2, r3
 2443 014c 4FF00C02 		mov	r2, #12
 2444 0150 1A70     		strb	r2, [r3, #0]
 2445 0152 2CE0     		b	.L121
 2446              	.L120:
1065:.\Generated_Source\PSoC5/USBFS_std.c ****             }
1066:.\Generated_Source\PSoC5/USBFS_std.c ****             else    /* Continue armed transfer */
1067:.\Generated_Source\PSoC5/USBFS_std.c ****             {
1068:.\Generated_Source\PSoC5/USBFS_std.c ****                 CY_SET_REG8((reg8 *)(USBFS_SIE_EP1_CR0_IND + ri), USBFS_MODE_ACK_IN);
 2447              		.loc 1 1068 0
 2448 0154 7A79     		ldrb	r2, [r7, #5]	@ zero_extendqisi2
 2449 0156 46F20E03 		movw	r3, #24590
 2450 015a C4F20003 		movt	r3, 16384
 2451 015e D318     		adds	r3, r2, r3
 2452 0160 4FF00D02 		mov	r2, #13
 2453 0164 1A70     		strb	r2, [r3, #0]
 2454 0166 22E0     		b	.L121
 2455              	.L119:
1069:.\Generated_Source\PSoC5/USBFS_std.c ****             }
1070:.\Generated_Source\PSoC5/USBFS_std.c ****         }
1071:.\Generated_Source\PSoC5/USBFS_std.c ****         else
1072:.\Generated_Source\PSoC5/USBFS_std.c ****         {
1073:.\Generated_Source\PSoC5/USBFS_std.c ****             /* OUT Endpoint */
1074:.\Generated_Source\PSoC5/USBFS_std.c ****             if(USBFS_EP[ep].apiEpState == USBFS_OUT_BUFFER_FULL)
 2456              		.loc 1 1074 0
ARM GAS  C:\Users\Robert\AppData\Local\Temp\ccWEb3hA.s 			page 64


 2457 0168 B979     		ldrb	r1, [r7, #6]	@ zero_extendqisi2
 2458 016a 40F20002 		movw	r2, #:lower16:USBFS_EP
 2459 016e C0F20002 		movt	r2, #:upper16:USBFS_EP
 2460 0172 0B46     		mov	r3, r1
 2461 0174 4FEA4303 		lsl	r3, r3, #1
 2462 0178 5B18     		adds	r3, r3, r1
 2463 017a 4FEA8303 		lsl	r3, r3, #2
 2464 017e D318     		adds	r3, r2, r3
 2465 0180 5B78     		ldrb	r3, [r3, #1]
 2466 0182 DBB2     		uxtb	r3, r3
 2467 0184 012B     		cmp	r3, #1
 2468 0186 09D1     		bne	.L122
1075:.\Generated_Source\PSoC5/USBFS_std.c ****             {       /* Allow application to read full buffer */
1076:.\Generated_Source\PSoC5/USBFS_std.c ****                 CY_SET_REG8((reg8 *)(USBFS_SIE_EP1_CR0_IND + ri), USBFS_MODE_NAK_OUT);
 2469              		.loc 1 1076 0
 2470 0188 7A79     		ldrb	r2, [r7, #5]	@ zero_extendqisi2
 2471 018a 46F20E03 		movw	r3, #24590
 2472 018e C4F20003 		movt	r3, 16384
 2473 0192 D318     		adds	r3, r2, r3
 2474 0194 4FF00802 		mov	r2, #8
 2475 0198 1A70     		strb	r2, [r3, #0]
 2476 019a 08E0     		b	.L121
 2477              	.L122:
1077:.\Generated_Source\PSoC5/USBFS_std.c ****             }
1078:.\Generated_Source\PSoC5/USBFS_std.c ****             else    /* Mark endpoint as empty, so it will be reloaded */
1079:.\Generated_Source\PSoC5/USBFS_std.c ****             {
1080:.\Generated_Source\PSoC5/USBFS_std.c ****                 CY_SET_REG8((reg8 *)(USBFS_SIE_EP1_CR0_IND + ri), USBFS_MODE_ACK_OUT);
 2478              		.loc 1 1080 0
 2479 019c 7A79     		ldrb	r2, [r7, #5]	@ zero_extendqisi2
 2480 019e 46F20E03 		movw	r3, #24590
 2481 01a2 C4F20003 		movt	r3, 16384
 2482 01a6 D318     		adds	r3, r2, r3
 2483 01a8 4FF00902 		mov	r2, #9
 2484 01ac 1A70     		strb	r2, [r3, #0]
 2485              	.L121:
1081:.\Generated_Source\PSoC5/USBFS_std.c ****             }
1082:.\Generated_Source\PSoC5/USBFS_std.c ****         }
1083:.\Generated_Source\PSoC5/USBFS_std.c ****         requestHandled = USBFS_InitNoDataControlTransfer();
 2486              		.loc 1 1083 0
 2487 01ae FFF7FEFF 		bl	USBFS_InitNoDataControlTransfer
 2488 01b2 0346     		mov	r3, r0
 2489 01b4 FB71     		strb	r3, [r7, #7]
 2490              	.L118:
1084:.\Generated_Source\PSoC5/USBFS_std.c ****     }
1085:.\Generated_Source\PSoC5/USBFS_std.c **** 
1086:.\Generated_Source\PSoC5/USBFS_std.c ****     return(requestHandled);
 2491              		.loc 1 1086 0
 2492 01b6 FB79     		ldrb	r3, [r7, #7]	@ zero_extendqisi2
1087:.\Generated_Source\PSoC5/USBFS_std.c **** }
 2493              		.loc 1 1087 0
 2494 01b8 1846     		mov	r0, r3
 2495 01ba 07F10807 		add	r7, r7, #8
 2496 01be BD46     		mov	sp, r7
 2497 01c0 80BD     		pop	{r7, pc}
 2498              		.cfi_endproc
 2499              	.LFE9:
 2500              		.size	USBFS_ClearEndpointHalt, .-USBFS_ClearEndpointHalt
ARM GAS  C:\Users\Robert\AppData\Local\Temp\ccWEb3hA.s 			page 65


 2501 01c2 00BF     		.section	.text.USBFS_ValidateAlternateSetting,"ax",%progbits
 2502              		.align	2
 2503              		.global	USBFS_ValidateAlternateSetting
 2504              		.thumb
 2505              		.thumb_func
 2506              		.type	USBFS_ValidateAlternateSetting, %function
 2507              	USBFS_ValidateAlternateSetting:
 2508              	.LFB10:
1088:.\Generated_Source\PSoC5/USBFS_std.c **** 
1089:.\Generated_Source\PSoC5/USBFS_std.c **** 
1090:.\Generated_Source\PSoC5/USBFS_std.c **** /*******************************************************************************
1091:.\Generated_Source\PSoC5/USBFS_std.c **** * Function Name: USBFS_ValidateAlternateSetting
1092:.\Generated_Source\PSoC5/USBFS_std.c **** ********************************************************************************
1093:.\Generated_Source\PSoC5/USBFS_std.c **** *
1094:.\Generated_Source\PSoC5/USBFS_std.c **** * Summary:
1095:.\Generated_Source\PSoC5/USBFS_std.c **** *  Validates (and records) a SET INTERFACE request.
1096:.\Generated_Source\PSoC5/USBFS_std.c **** *
1097:.\Generated_Source\PSoC5/USBFS_std.c **** * Parameters:
1098:.\Generated_Source\PSoC5/USBFS_std.c **** *  None.
1099:.\Generated_Source\PSoC5/USBFS_std.c **** *
1100:.\Generated_Source\PSoC5/USBFS_std.c **** * Return:
1101:.\Generated_Source\PSoC5/USBFS_std.c **** *  requestHandled.
1102:.\Generated_Source\PSoC5/USBFS_std.c **** *
1103:.\Generated_Source\PSoC5/USBFS_std.c **** * Reentrant:
1104:.\Generated_Source\PSoC5/USBFS_std.c **** *  No.
1105:.\Generated_Source\PSoC5/USBFS_std.c **** *
1106:.\Generated_Source\PSoC5/USBFS_std.c **** *******************************************************************************/
1107:.\Generated_Source\PSoC5/USBFS_std.c **** uint8 USBFS_ValidateAlternateSetting(void) 
1108:.\Generated_Source\PSoC5/USBFS_std.c **** {
 2509              		.loc 1 1108 0
 2510              		.cfi_startproc
 2511              		@ args = 0, pretend = 0, frame = 16
 2512              		@ frame_needed = 1, uses_anonymous_args = 0
 2513 0000 80B5     		push	{r7, lr}
 2514              	.LCFI29:
 2515              		.cfi_def_cfa_offset 8
 2516              		.cfi_offset 7, -8
 2517              		.cfi_offset 14, -4
 2518 0002 84B0     		sub	sp, sp, #16
 2519              	.LCFI30:
 2520              		.cfi_def_cfa_offset 24
 2521 0004 00AF     		add	r7, sp, #0
 2522              	.LCFI31:
 2523              		.cfi_def_cfa_register 7
1109:.\Generated_Source\PSoC5/USBFS_std.c ****     uint8 requestHandled = USBFS_TRUE;
 2524              		.loc 1 1109 0
 2525 0006 4FF00103 		mov	r3, #1
 2526 000a FB73     		strb	r3, [r7, #15]
1110:.\Generated_Source\PSoC5/USBFS_std.c ****     uint8 interfaceNum;
1111:.\Generated_Source\PSoC5/USBFS_std.c ****     const T_USBFS_LUT CYCODE *pTmp;
1112:.\Generated_Source\PSoC5/USBFS_std.c ****     uint8 currentInterfacesNum;
1113:.\Generated_Source\PSoC5/USBFS_std.c **** 
1114:.\Generated_Source\PSoC5/USBFS_std.c ****     interfaceNum = CY_GET_REG8(USBFS_wIndexLo);
 2527              		.loc 1 1114 0
 2528 000c 46F20403 		movw	r3, #24580
 2529 0010 C4F20003 		movt	r3, 16384
 2530 0014 1B78     		ldrb	r3, [r3, #0]
ARM GAS  C:\Users\Robert\AppData\Local\Temp\ccWEb3hA.s 			page 66


 2531 0016 BB73     		strb	r3, [r7, #14]
1115:.\Generated_Source\PSoC5/USBFS_std.c ****     /* Validate interface setting, stall if invalid. */
1116:.\Generated_Source\PSoC5/USBFS_std.c ****     pTmp = USBFS_GetConfigTablePtr(USBFS_configuration - 1u);
 2532              		.loc 1 1116 0
 2533 0018 40F20003 		movw	r3, #:lower16:USBFS_configuration
 2534 001c C0F20003 		movt	r3, #:upper16:USBFS_configuration
 2535 0020 1B78     		ldrb	r3, [r3, #0]
 2536 0022 DBB2     		uxtb	r3, r3
 2537 0024 03F1FF33 		add	r3, r3, #-1
 2538 0028 DBB2     		uxtb	r3, r3
 2539 002a 1846     		mov	r0, r3
 2540 002c FFF7FEFF 		bl	USBFS_GetConfigTablePtr
 2541 0030 B860     		str	r0, [r7, #8]
1117:.\Generated_Source\PSoC5/USBFS_std.c ****     currentInterfacesNum  = ((const uint8 *) pTmp->p_list)[USBFS_CONFIG_DESCR_NUM_INTERFACES];
 2542              		.loc 1 1117 0
 2543 0032 BB68     		ldr	r3, [r7, #8]
 2544 0034 5B68     		ldr	r3, [r3, #4]
 2545 0036 1B79     		ldrb	r3, [r3, #4]
 2546 0038 FB71     		strb	r3, [r7, #7]
1118:.\Generated_Source\PSoC5/USBFS_std.c **** 
1119:.\Generated_Source\PSoC5/USBFS_std.c ****     if((interfaceNum >= currentInterfacesNum) || (interfaceNum >= USBFS_MAX_INTERFACES_NUMBER))
 2547              		.loc 1 1119 0
 2548 003a BA7B     		ldrb	r2, [r7, #14]	@ zero_extendqisi2
 2549 003c FB79     		ldrb	r3, [r7, #7]	@ zero_extendqisi2
 2550 003e 9A42     		cmp	r2, r3
 2551 0040 02D2     		bcs	.L125
 2552              		.loc 1 1119 0 is_stmt 0 discriminator 1
 2553 0042 BB7B     		ldrb	r3, [r7, #14]	@ zero_extendqisi2
 2554 0044 002B     		cmp	r3, #0
 2555 0046 03D0     		beq	.L126
 2556              	.L125:
1120:.\Generated_Source\PSoC5/USBFS_std.c ****     {   /* Wrong interface number */
1121:.\Generated_Source\PSoC5/USBFS_std.c ****         requestHandled = USBFS_FALSE;
 2557              		.loc 1 1121 0 is_stmt 1
 2558 0048 4FF00003 		mov	r3, #0
 2559 004c FB73     		strb	r3, [r7, #15]
 2560 004e 18E0     		b	.L127
 2561              	.L126:
1122:.\Generated_Source\PSoC5/USBFS_std.c ****     }
1123:.\Generated_Source\PSoC5/USBFS_std.c ****     else
1124:.\Generated_Source\PSoC5/USBFS_std.c ****     {
1125:.\Generated_Source\PSoC5/USBFS_std.c ****         /* Save current Alt setting to find out the difference in Config() function */
1126:.\Generated_Source\PSoC5/USBFS_std.c ****         USBFS_interfaceSetting_last[interfaceNum] = USBFS_interfaceSetting[interfaceNum];
 2562              		.loc 1 1126 0
 2563 0050 BA7B     		ldrb	r2, [r7, #14]	@ zero_extendqisi2
 2564 0052 B97B     		ldrb	r1, [r7, #14]	@ zero_extendqisi2
 2565 0054 40F20003 		movw	r3, #:lower16:USBFS_interfaceSetting
 2566 0058 C0F20003 		movt	r3, #:upper16:USBFS_interfaceSetting
 2567 005c 5B5C     		ldrb	r3, [r3, r1]
 2568 005e D9B2     		uxtb	r1, r3
 2569 0060 40F20003 		movw	r3, #:lower16:USBFS_interfaceSetting_last
 2570 0064 C0F20003 		movt	r3, #:upper16:USBFS_interfaceSetting_last
 2571 0068 9954     		strb	r1, [r3, r2]
1127:.\Generated_Source\PSoC5/USBFS_std.c ****         USBFS_interfaceSetting[interfaceNum] = CY_GET_REG8(USBFS_wValueLo);
 2572              		.loc 1 1127 0
 2573 006a BA7B     		ldrb	r2, [r7, #14]	@ zero_extendqisi2
 2574 006c 46F20203 		movw	r3, #24578
ARM GAS  C:\Users\Robert\AppData\Local\Temp\ccWEb3hA.s 			page 67


 2575 0070 C4F20003 		movt	r3, 16384
 2576 0074 1B78     		ldrb	r3, [r3, #0]
 2577 0076 D9B2     		uxtb	r1, r3
 2578 0078 40F20003 		movw	r3, #:lower16:USBFS_interfaceSetting
 2579 007c C0F20003 		movt	r3, #:upper16:USBFS_interfaceSetting
 2580 0080 9954     		strb	r1, [r3, r2]
 2581              	.L127:
1128:.\Generated_Source\PSoC5/USBFS_std.c ****     }
1129:.\Generated_Source\PSoC5/USBFS_std.c **** 
1130:.\Generated_Source\PSoC5/USBFS_std.c ****     return (requestHandled);
 2582              		.loc 1 1130 0
 2583 0082 FB7B     		ldrb	r3, [r7, #15]	@ zero_extendqisi2
1131:.\Generated_Source\PSoC5/USBFS_std.c **** }
 2584              		.loc 1 1131 0
 2585 0084 1846     		mov	r0, r3
 2586 0086 07F11007 		add	r7, r7, #16
 2587 008a BD46     		mov	sp, r7
 2588 008c 80BD     		pop	{r7, pc}
 2589              		.cfi_endproc
 2590              	.LFE10:
 2591              		.size	USBFS_ValidateAlternateSetting, .-USBFS_ValidateAlternateSetting
 2592              		.bss
 2593              		.align	2
 2594              	USBFS_tBuffer.5004:
 2595 0000 0000     		.space	2
 2596 0002 0000     		.text
 2597              	.Letext0:
 2598              		.file 2 ".\\Generated_Source\\PSoC5\\cytypes.h"
 2599              		.file 3 ".\\Generated_Source\\PSoC5\\USBFS.h"
 2600              		.file 4 ".\\Generated_Source\\PSoC5\\USBFS_pvt.h"
 2601              		.section	.debug_info,"",%progbits
 2602              	.Ldebug_info0:
 2603 0000 89070000 		.4byte	0x789
 2604 0004 0200     		.2byte	0x2
 2605 0006 00000000 		.4byte	.Ldebug_abbrev0
 2606 000a 04       		.byte	0x4
 2607 000b 01       		.uleb128 0x1
 2608 000c 62030000 		.4byte	.LASF79
 2609 0010 01       		.byte	0x1
 2610 0011 EB030000 		.4byte	.LASF80
 2611 0015 C9020000 		.4byte	.LASF81
 2612 0019 00000000 		.4byte	.Ldebug_ranges0+0
 2613 001d 00000000 		.4byte	0
 2614 0021 00000000 		.4byte	0
 2615 0025 00000000 		.4byte	.Ldebug_line0
 2616 0029 02       		.uleb128 0x2
 2617 002a 01       		.byte	0x1
 2618 002b 06       		.byte	0x6
 2619 002c 84000000 		.4byte	.LASF0
 2620 0030 02       		.uleb128 0x2
 2621 0031 01       		.byte	0x1
 2622 0032 08       		.byte	0x8
 2623 0033 B0030000 		.4byte	.LASF1
 2624 0037 02       		.uleb128 0x2
 2625 0038 02       		.byte	0x2
 2626 0039 05       		.byte	0x5
 2627 003a BE030000 		.4byte	.LASF2
ARM GAS  C:\Users\Robert\AppData\Local\Temp\ccWEb3hA.s 			page 68


 2628 003e 02       		.uleb128 0x2
 2629 003f 02       		.byte	0x2
 2630 0040 07       		.byte	0x7
 2631 0041 AE010000 		.4byte	.LASF3
 2632 0045 02       		.uleb128 0x2
 2633 0046 04       		.byte	0x4
 2634 0047 05       		.byte	0x5
 2635 0048 FF000000 		.4byte	.LASF4
 2636 004c 02       		.uleb128 0x2
 2637 004d 04       		.byte	0x4
 2638 004e 07       		.byte	0x7
 2639 004f 7C010000 		.4byte	.LASF5
 2640 0053 02       		.uleb128 0x2
 2641 0054 08       		.byte	0x8
 2642 0055 05       		.byte	0x5
 2643 0056 76000000 		.4byte	.LASF6
 2644 005a 02       		.uleb128 0x2
 2645 005b 08       		.byte	0x8
 2646 005c 07       		.byte	0x7
 2647 005d 3C000000 		.4byte	.LASF7
 2648 0061 03       		.uleb128 0x3
 2649 0062 04       		.byte	0x4
 2650 0063 05       		.byte	0x5
 2651 0064 696E7400 		.ascii	"int\000"
 2652 0068 02       		.uleb128 0x2
 2653 0069 04       		.byte	0x4
 2654 006a 07       		.byte	0x7
 2655 006b 6F010000 		.4byte	.LASF8
 2656 006f 04       		.uleb128 0x4
 2657 0070 08010000 		.4byte	.LASF9
 2658 0074 02       		.byte	0x2
 2659 0075 5B       		.byte	0x5b
 2660 0076 30000000 		.4byte	0x30
 2661 007a 04       		.uleb128 0x4
 2662 007b 13000000 		.4byte	.LASF10
 2663 007f 02       		.byte	0x2
 2664 0080 5C       		.byte	0x5c
 2665 0081 3E000000 		.4byte	0x3e
 2666 0085 02       		.uleb128 0x2
 2667 0086 04       		.byte	0x4
 2668 0087 04       		.byte	0x4
 2669 0088 43030000 		.4byte	.LASF11
 2670 008c 02       		.uleb128 0x2
 2671 008d 08       		.byte	0x8
 2672 008e 04       		.byte	0x4
 2673 008f 17010000 		.4byte	.LASF12
 2674 0093 02       		.uleb128 0x2
 2675 0094 01       		.byte	0x1
 2676 0095 08       		.byte	0x8
 2677 0096 79040000 		.4byte	.LASF13
 2678 009a 04       		.uleb128 0x4
 2679 009b AB030000 		.4byte	.LASF14
 2680 009f 02       		.byte	0x2
 2681 00a0 F0       		.byte	0xf0
 2682 00a1 A5000000 		.4byte	0xa5
 2683 00a5 05       		.uleb128 0x5
 2684 00a6 6F000000 		.4byte	0x6f
ARM GAS  C:\Users\Robert\AppData\Local\Temp\ccWEb3hA.s 			page 69


 2685 00aa 02       		.uleb128 0x2
 2686 00ab 04       		.byte	0x4
 2687 00ac 07       		.byte	0x7
 2688 00ad 50020000 		.4byte	.LASF15
 2689 00b1 06       		.uleb128 0x6
 2690 00b2 0C       		.byte	0xc
 2691 00b3 03       		.byte	0x3
 2692 00b4 79       		.byte	0x79
 2693 00b5 38010000 		.4byte	0x138
 2694 00b9 07       		.uleb128 0x7
 2695 00ba 6F020000 		.4byte	.LASF16
 2696 00be 03       		.byte	0x3
 2697 00bf 7B       		.byte	0x7b
 2698 00c0 6F000000 		.4byte	0x6f
 2699 00c4 02       		.byte	0x2
 2700 00c5 23       		.byte	0x23
 2701 00c6 00       		.uleb128 0
 2702 00c7 07       		.uleb128 0x7
 2703 00c8 49030000 		.4byte	.LASF17
 2704 00cc 03       		.byte	0x3
 2705 00cd 7C       		.byte	0x7c
 2706 00ce 6F000000 		.4byte	0x6f
 2707 00d2 02       		.byte	0x2
 2708 00d3 23       		.byte	0x23
 2709 00d4 01       		.uleb128 0x1
 2710 00d5 07       		.uleb128 0x7
 2711 00d6 3A020000 		.4byte	.LASF18
 2712 00da 03       		.byte	0x3
 2713 00db 7D       		.byte	0x7d
 2714 00dc 6F000000 		.4byte	0x6f
 2715 00e0 02       		.byte	0x2
 2716 00e1 23       		.byte	0x23
 2717 00e2 02       		.uleb128 0x2
 2718 00e3 07       		.uleb128 0x7
 2719 00e4 0E010000 		.4byte	.LASF19
 2720 00e8 03       		.byte	0x3
 2721 00e9 7E       		.byte	0x7e
 2722 00ea 6F000000 		.4byte	0x6f
 2723 00ee 02       		.byte	0x2
 2724 00ef 23       		.byte	0x23
 2725 00f0 03       		.uleb128 0x3
 2726 00f1 07       		.uleb128 0x7
 2727 00f2 53000000 		.4byte	.LASF20
 2728 00f6 03       		.byte	0x3
 2729 00f7 7F       		.byte	0x7f
 2730 00f8 6F000000 		.4byte	0x6f
 2731 00fc 02       		.byte	0x2
 2732 00fd 23       		.byte	0x23
 2733 00fe 04       		.uleb128 0x4
 2734 00ff 07       		.uleb128 0x7
 2735 0100 68010000 		.4byte	.LASF21
 2736 0104 03       		.byte	0x3
 2737 0105 80       		.byte	0x80
 2738 0106 6F000000 		.4byte	0x6f
 2739 010a 02       		.byte	0x2
 2740 010b 23       		.byte	0x23
 2741 010c 05       		.uleb128 0x5
ARM GAS  C:\Users\Robert\AppData\Local\Temp\ccWEb3hA.s 			page 70


 2742 010d 07       		.uleb128 0x7
 2743 010e 98040000 		.4byte	.LASF22
 2744 0112 03       		.byte	0x3
 2745 0113 81       		.byte	0x81
 2746 0114 7A000000 		.4byte	0x7a
 2747 0118 02       		.byte	0x2
 2748 0119 23       		.byte	0x23
 2749 011a 06       		.uleb128 0x6
 2750 011b 07       		.uleb128 0x7
 2751 011c 7E040000 		.4byte	.LASF23
 2752 0120 03       		.byte	0x3
 2753 0121 82       		.byte	0x82
 2754 0122 7A000000 		.4byte	0x7a
 2755 0126 02       		.byte	0x2
 2756 0127 23       		.byte	0x23
 2757 0128 08       		.uleb128 0x8
 2758 0129 07       		.uleb128 0x7
 2759 012a C8010000 		.4byte	.LASF24
 2760 012e 03       		.byte	0x3
 2761 012f 83       		.byte	0x83
 2762 0130 6F000000 		.4byte	0x6f
 2763 0134 02       		.byte	0x2
 2764 0135 23       		.byte	0x23
 2765 0136 0A       		.uleb128 0xa
 2766 0137 00       		.byte	0
 2767 0138 04       		.uleb128 0x4
 2768 0139 27040000 		.4byte	.LASF25
 2769 013d 03       		.byte	0x3
 2770 013e 84       		.byte	0x84
 2771 013f B1000000 		.4byte	0xb1
 2772 0143 06       		.uleb128 0x6
 2773 0144 08       		.byte	0x8
 2774 0145 03       		.byte	0x3
 2775 0146 86       		.byte	0x86
 2776 0147 A0010000 		.4byte	0x1a0
 2777 014b 07       		.uleb128 0x7
 2778 014c C8010000 		.4byte	.LASF24
 2779 0150 03       		.byte	0x3
 2780 0151 88       		.byte	0x88
 2781 0152 6F000000 		.4byte	0x6f
 2782 0156 02       		.byte	0x2
 2783 0157 23       		.byte	0x23
 2784 0158 00       		.uleb128 0
 2785 0159 07       		.uleb128 0x7
 2786 015a 6E040000 		.4byte	.LASF26
 2787 015e 03       		.byte	0x3
 2788 015f 89       		.byte	0x89
 2789 0160 6F000000 		.4byte	0x6f
 2790 0164 02       		.byte	0x2
 2791 0165 23       		.byte	0x23
 2792 0166 01       		.uleb128 0x1
 2793 0167 07       		.uleb128 0x7
 2794 0168 53000000 		.4byte	.LASF20
 2795 016c 03       		.byte	0x3
 2796 016d 8A       		.byte	0x8a
 2797 016e 6F000000 		.4byte	0x6f
 2798 0172 02       		.byte	0x2
ARM GAS  C:\Users\Robert\AppData\Local\Temp\ccWEb3hA.s 			page 71


 2799 0173 23       		.byte	0x23
 2800 0174 02       		.uleb128 0x2
 2801 0175 07       		.uleb128 0x7
 2802 0176 49040000 		.4byte	.LASF27
 2803 017a 03       		.byte	0x3
 2804 017b 8B       		.byte	0x8b
 2805 017c 6F000000 		.4byte	0x6f
 2806 0180 02       		.byte	0x2
 2807 0181 23       		.byte	0x23
 2808 0182 03       		.uleb128 0x3
 2809 0183 07       		.uleb128 0x7
 2810 0184 7E040000 		.4byte	.LASF23
 2811 0188 03       		.byte	0x3
 2812 0189 8C       		.byte	0x8c
 2813 018a 7A000000 		.4byte	0x7a
 2814 018e 02       		.byte	0x2
 2815 018f 23       		.byte	0x23
 2816 0190 04       		.uleb128 0x4
 2817 0191 07       		.uleb128 0x7
 2818 0192 0C050000 		.4byte	.LASF28
 2819 0196 03       		.byte	0x3
 2820 0197 8D       		.byte	0x8d
 2821 0198 6F000000 		.4byte	0x6f
 2822 019c 02       		.byte	0x2
 2823 019d 23       		.byte	0x23
 2824 019e 06       		.uleb128 0x6
 2825 019f 00       		.byte	0
 2826 01a0 04       		.uleb128 0x4
 2827 01a1 1E010000 		.4byte	.LASF29
 2828 01a5 03       		.byte	0x3
 2829 01a6 8E       		.byte	0x8e
 2830 01a7 43010000 		.4byte	0x143
 2831 01ab 06       		.uleb128 0x6
 2832 01ac 04       		.byte	0x4
 2833 01ad 03       		.byte	0x3
 2834 01ae 90       		.byte	0x90
 2835 01af D0010000 		.4byte	0x1d0
 2836 01b3 07       		.uleb128 0x7
 2837 01b4 05050000 		.4byte	.LASF30
 2838 01b8 03       		.byte	0x3
 2839 01b9 92       		.byte	0x92
 2840 01ba 6F000000 		.4byte	0x6f
 2841 01be 02       		.byte	0x2
 2842 01bf 23       		.byte	0x23
 2843 01c0 00       		.uleb128 0
 2844 01c1 07       		.uleb128 0x7
 2845 01c2 EA040000 		.4byte	.LASF31
 2846 01c6 03       		.byte	0x3
 2847 01c7 93       		.byte	0x93
 2848 01c8 7A000000 		.4byte	0x7a
 2849 01cc 02       		.byte	0x2
 2850 01cd 23       		.byte	0x23
 2851 01ce 02       		.uleb128 0x2
 2852 01cf 00       		.byte	0
 2853 01d0 04       		.uleb128 0x4
 2854 01d1 54040000 		.4byte	.LASF32
 2855 01d5 03       		.byte	0x3
ARM GAS  C:\Users\Robert\AppData\Local\Temp\ccWEb3hA.s 			page 72


 2856 01d6 94       		.byte	0x94
 2857 01d7 AB010000 		.4byte	0x1ab
 2858 01db 06       		.uleb128 0x6
 2859 01dc 0C       		.byte	0xc
 2860 01dd 03       		.byte	0x3
 2861 01de 96       		.byte	0x96
 2862 01df 0E020000 		.4byte	0x20e
 2863 01e3 07       		.uleb128 0x7
 2864 01e4 0D000000 		.4byte	.LASF33
 2865 01e8 03       		.byte	0x3
 2866 01e9 98       		.byte	0x98
 2867 01ea 7A000000 		.4byte	0x7a
 2868 01ee 02       		.byte	0x2
 2869 01ef 23       		.byte	0x23
 2870 01f0 00       		.uleb128 0
 2871 01f1 07       		.uleb128 0x7
 2872 01f2 4E010000 		.4byte	.LASF34
 2873 01f6 03       		.byte	0x3
 2874 01f7 99       		.byte	0x99
 2875 01f8 0E020000 		.4byte	0x20e
 2876 01fc 02       		.byte	0x2
 2877 01fd 23       		.byte	0x23
 2878 01fe 04       		.uleb128 0x4
 2879 01ff 07       		.uleb128 0x7
 2880 0200 00000000 		.4byte	.LASF35
 2881 0204 03       		.byte	0x3
 2882 0205 9A       		.byte	0x9a
 2883 0206 14020000 		.4byte	0x214
 2884 020a 02       		.byte	0x2
 2885 020b 23       		.byte	0x23
 2886 020c 08       		.uleb128 0x8
 2887 020d 00       		.byte	0
 2888 020e 08       		.uleb128 0x8
 2889 020f 04       		.byte	0x4
 2890 0210 A5000000 		.4byte	0xa5
 2891 0214 08       		.uleb128 0x8
 2892 0215 04       		.byte	0x4
 2893 0216 D0010000 		.4byte	0x1d0
 2894 021a 04       		.uleb128 0x4
 2895 021b C8030000 		.4byte	.LASF36
 2896 021f 03       		.byte	0x3
 2897 0220 9B       		.byte	0x9b
 2898 0221 DB010000 		.4byte	0x1db
 2899 0225 06       		.uleb128 0x6
 2900 0226 08       		.byte	0x8
 2901 0227 03       		.byte	0x3
 2902 0228 9E       		.byte	0x9e
 2903 0229 48020000 		.4byte	0x248
 2904 022d 09       		.uleb128 0x9
 2905 022e 6300     		.ascii	"c\000"
 2906 0230 03       		.byte	0x3
 2907 0231 A0       		.byte	0xa0
 2908 0232 6F000000 		.4byte	0x6f
 2909 0236 02       		.byte	0x2
 2910 0237 23       		.byte	0x23
 2911 0238 00       		.uleb128 0
 2912 0239 07       		.uleb128 0x7
ARM GAS  C:\Users\Robert\AppData\Local\Temp\ccWEb3hA.s 			page 73


 2913 023a 5E020000 		.4byte	.LASF37
 2914 023e 03       		.byte	0x3
 2915 023f A1       		.byte	0xa1
 2916 0240 48020000 		.4byte	0x248
 2917 0244 02       		.byte	0x2
 2918 0245 23       		.byte	0x23
 2919 0246 04       		.uleb128 0x4
 2920 0247 00       		.byte	0
 2921 0248 08       		.uleb128 0x8
 2922 0249 04       		.byte	0x4
 2923 024a 4E020000 		.4byte	0x24e
 2924 024e 0A       		.uleb128 0xa
 2925 024f 04       		.uleb128 0x4
 2926 0250 41050000 		.4byte	.LASF38
 2927 0254 03       		.byte	0x3
 2928 0255 A2       		.byte	0xa2
 2929 0256 25020000 		.4byte	0x225
 2930 025a 0B       		.uleb128 0xb
 2931 025b 01       		.byte	0x1
 2932 025c 28050000 		.4byte	.LASF53
 2933 0260 01       		.byte	0x1
 2934 0261 59       		.byte	0x59
 2935 0262 01       		.byte	0x1
 2936 0263 6F000000 		.4byte	0x6f
 2937 0267 00000000 		.4byte	.LFB0
 2938 026b E2050000 		.4byte	.LFE0
 2939 026f 00000000 		.4byte	.LLST0
 2940 0273 01       		.byte	0x1
 2941 0274 DE020000 		.4byte	0x2de
 2942 0278 0C       		.uleb128 0xc
 2943 0279 89040000 		.4byte	.LASF39
 2944 027d 01       		.byte	0x1
 2945 027e 5B       		.byte	0x5b
 2946 027f 6F000000 		.4byte	0x6f
 2947 0283 02       		.byte	0x2
 2948 0284 91       		.byte	0x91
 2949 0285 77       		.sleb128 -9
 2950 0286 0C       		.uleb128 0xc
 2951 0287 58000000 		.4byte	.LASF40
 2952 028b 01       		.byte	0x1
 2953 028c 5C       		.byte	0x5c
 2954 028d 6F000000 		.4byte	0x6f
 2955 0291 02       		.byte	0x2
 2956 0292 91       		.byte	0x91
 2957 0293 66       		.sleb128 -26
 2958 0294 0C       		.uleb128 0xc
 2959 0295 5D030000 		.4byte	.LASF41
 2960 0299 01       		.byte	0x1
 2961 029a 5E       		.byte	0x5e
 2962 029b 0E020000 		.4byte	0x20e
 2963 029f 02       		.byte	0x2
 2964 02a0 91       		.byte	0x91
 2965 02a1 70       		.sleb128 -16
 2966 02a2 0C       		.uleb128 0xc
 2967 02a3 F1040000 		.4byte	.LASF42
 2968 02a7 01       		.byte	0x1
 2969 02a8 60       		.byte	0x60
ARM GAS  C:\Users\Robert\AppData\Local\Temp\ccWEb3hA.s 			page 74


 2970 02a9 6F000000 		.4byte	0x6f
 2971 02ad 02       		.byte	0x2
 2972 02ae 91       		.byte	0x91
 2973 02af 6F       		.sleb128 -17
 2974 02b0 0C       		.uleb128 0xc
 2975 02b1 44020000 		.4byte	.LASF43
 2976 02b5 01       		.byte	0x1
 2977 02b6 61       		.byte	0x61
 2978 02b7 6F000000 		.4byte	0x6f
 2979 02bb 02       		.byte	0x2
 2980 02bc 91       		.byte	0x91
 2981 02bd 67       		.sleb128 -25
 2982 02be 0C       		.uleb128 0xc
 2983 02bf 68000000 		.4byte	.LASF44
 2984 02c3 01       		.byte	0x1
 2985 02c4 64       		.byte	0x64
 2986 02c5 EE020000 		.4byte	0x2ee
 2987 02c9 05       		.byte	0x5
 2988 02ca 03       		.byte	0x3
 2989 02cb 00000000 		.4byte	USBFS_tBuffer.5004
 2990 02cf 0C       		.uleb128 0xc
 2991 02d0 59020000 		.4byte	.LASF45
 2992 02d4 01       		.byte	0x1
 2993 02d5 65       		.byte	0x65
 2994 02d6 F3020000 		.4byte	0x2f3
 2995 02da 02       		.byte	0x2
 2996 02db 91       		.byte	0x91
 2997 02dc 68       		.sleb128 -24
 2998 02dd 00       		.byte	0
 2999 02de 0D       		.uleb128 0xd
 3000 02df 6F000000 		.4byte	0x6f
 3001 02e3 EE020000 		.4byte	0x2ee
 3002 02e7 0E       		.uleb128 0xe
 3003 02e8 AA000000 		.4byte	0xaa
 3004 02ec 01       		.byte	0x1
 3005 02ed 00       		.byte	0
 3006 02ee 05       		.uleb128 0x5
 3007 02ef DE020000 		.4byte	0x2de
 3008 02f3 08       		.uleb128 0x8
 3009 02f4 04       		.byte	0x4
 3010 02f5 F9020000 		.4byte	0x2f9
 3011 02f9 0F       		.uleb128 0xf
 3012 02fa 4F020000 		.4byte	0x24f
 3013 02fe 10       		.uleb128 0x10
 3014 02ff 01       		.byte	0x1
 3015 0300 EF000000 		.4byte	.LASF46
 3016 0304 01       		.byte	0x1
 3017 0305 7E01     		.2byte	0x17e
 3018 0307 01       		.byte	0x1
 3019 0308 00000000 		.4byte	.LFB1
 3020 030c 02020000 		.4byte	.LFE1
 3021 0310 38000000 		.4byte	.LLST1
 3022 0314 01       		.byte	0x1
 3023 0315 35030000 		.4byte	0x335
 3024 0319 11       		.uleb128 0x11
 3025 031a 657000   		.ascii	"ep\000"
 3026 031d 01       		.byte	0x1
ARM GAS  C:\Users\Robert\AppData\Local\Temp\ccWEb3hA.s 			page 75


 3027 031e 8001     		.2byte	0x180
 3028 0320 6F000000 		.4byte	0x6f
 3029 0324 02       		.byte	0x2
 3030 0325 91       		.byte	0x91
 3031 0326 77       		.sleb128 -9
 3032 0327 11       		.uleb128 0x11
 3033 0328 6900     		.ascii	"i\000"
 3034 032a 01       		.byte	0x1
 3035 032b 8101     		.2byte	0x181
 3036 032d 6F000000 		.4byte	0x6f
 3037 0331 02       		.byte	0x2
 3038 0332 91       		.byte	0x91
 3039 0333 76       		.sleb128 -10
 3040 0334 00       		.byte	0
 3041 0335 12       		.uleb128 0x12
 3042 0336 01       		.byte	0x1
 3043 0337 E2000000 		.4byte	.LASF47
 3044 033b 01       		.byte	0x1
 3045 033c DB01     		.2byte	0x1db
 3046 033e 01       		.byte	0x1
 3047 033f 00000000 		.4byte	.LFB2
 3048 0343 2C040000 		.4byte	.LFE2
 3049 0347 70000000 		.4byte	.LLST2
 3050 034b 01       		.byte	0x1
 3051 034c D5030000 		.4byte	0x3d5
 3052 0350 13       		.uleb128 0x13
 3053 0351 90000000 		.4byte	.LASF55
 3054 0355 01       		.byte	0x1
 3055 0356 DB01     		.2byte	0x1db
 3056 0358 6F000000 		.4byte	0x6f
 3057 035c 02       		.byte	0x2
 3058 035d 91       		.byte	0x91
 3059 035e 5F       		.sleb128 -33
 3060 035f 11       		.uleb128 0x11
 3061 0360 657000   		.ascii	"ep\000"
 3062 0363 01       		.byte	0x1
 3063 0364 DD01     		.2byte	0x1dd
 3064 0366 6F000000 		.4byte	0x6f
 3065 036a 02       		.byte	0x2
 3066 036b 91       		.byte	0x91
 3067 036c 77       		.sleb128 -9
 3068 036d 14       		.uleb128 0x14
 3069 036e FE040000 		.4byte	.LASF48
 3070 0372 01       		.byte	0x1
 3071 0373 DE01     		.2byte	0x1de
 3072 0375 6F000000 		.4byte	0x6f
 3073 0379 02       		.byte	0x2
 3074 037a 91       		.byte	0x91
 3075 037b 76       		.sleb128 -10
 3076 037c 11       		.uleb128 0x11
 3077 037d 6900     		.ascii	"i\000"
 3078 037f 01       		.byte	0x1
 3079 0380 DF01     		.2byte	0x1df
 3080 0382 6F000000 		.4byte	0x6f
 3081 0386 02       		.byte	0x2
 3082 0387 91       		.byte	0x91
 3083 0388 75       		.sleb128 -11
ARM GAS  C:\Users\Robert\AppData\Local\Temp\ccWEb3hA.s 			page 76


 3084 0389 14       		.uleb128 0x14
 3085 038a F6040000 		.4byte	.LASF49
 3086 038e 01       		.byte	0x1
 3087 038f E001     		.2byte	0x1e0
 3088 0391 6F000000 		.4byte	0x6f
 3089 0395 02       		.byte	0x2
 3090 0396 91       		.byte	0x91
 3091 0397 63       		.sleb128 -29
 3092 0398 14       		.uleb128 0x14
 3093 0399 C1010000 		.4byte	.LASF50
 3094 039d 01       		.byte	0x1
 3095 039e E101     		.2byte	0x1e1
 3096 03a0 D5030000 		.4byte	0x3d5
 3097 03a4 02       		.byte	0x2
 3098 03a5 91       		.byte	0x91
 3099 03a6 64       		.sleb128 -28
 3100 03a7 14       		.uleb128 0x14
 3101 03a8 65020000 		.4byte	.LASF51
 3102 03ac 01       		.byte	0x1
 3103 03ad E301     		.2byte	0x1e3
 3104 03af 7A000000 		.4byte	0x7a
 3105 03b3 02       		.byte	0x2
 3106 03b4 91       		.byte	0x91
 3107 03b5 72       		.sleb128 -14
 3108 03b6 14       		.uleb128 0x14
 3109 03b7 59020000 		.4byte	.LASF45
 3110 03bb 01       		.byte	0x1
 3111 03bc E601     		.2byte	0x1e6
 3112 03be F3020000 		.4byte	0x2f3
 3113 03c2 02       		.byte	0x2
 3114 03c3 91       		.byte	0x91
 3115 03c4 68       		.sleb128 -24
 3116 03c5 11       		.uleb128 0x11
 3117 03c6 70455000 		.ascii	"pEP\000"
 3118 03ca 01       		.byte	0x1
 3119 03cb E701     		.2byte	0x1e7
 3120 03cd E0030000 		.4byte	0x3e0
 3121 03d1 02       		.byte	0x2
 3122 03d2 91       		.byte	0x91
 3123 03d3 6C       		.sleb128 -20
 3124 03d4 00       		.byte	0
 3125 03d5 08       		.uleb128 0x8
 3126 03d6 04       		.byte	0x4
 3127 03d7 DB030000 		.4byte	0x3db
 3128 03db 0F       		.uleb128 0xf
 3129 03dc 6F000000 		.4byte	0x6f
 3130 03e0 08       		.uleb128 0x8
 3131 03e1 04       		.byte	0x4
 3132 03e2 E6030000 		.4byte	0x3e6
 3133 03e6 0F       		.uleb128 0xf
 3134 03e7 A0010000 		.4byte	0x1a0
 3135 03eb 12       		.uleb128 0x12
 3136 03ec 01       		.byte	0x1
 3137 03ed B2020000 		.4byte	.LASF52
 3138 03f1 01       		.byte	0x1
 3139 03f2 D302     		.2byte	0x2d3
 3140 03f4 01       		.byte	0x1
ARM GAS  C:\Users\Robert\AppData\Local\Temp\ccWEb3hA.s 			page 77


 3141 03f5 00000000 		.4byte	.LFB3
 3142 03f9 52030000 		.4byte	.LFE3
 3143 03fd A8000000 		.4byte	.LLST3
 3144 0401 01       		.byte	0x1
 3145 0402 6C040000 		.4byte	0x46c
 3146 0406 11       		.uleb128 0x11
 3147 0407 657000   		.ascii	"ep\000"
 3148 040a 01       		.byte	0x1
 3149 040b D502     		.2byte	0x2d5
 3150 040d 6F000000 		.4byte	0x6f
 3151 0411 02       		.byte	0x2
 3152 0412 91       		.byte	0x91
 3153 0413 6B       		.sleb128 -21
 3154 0414 14       		.uleb128 0x14
 3155 0415 FE040000 		.4byte	.LASF48
 3156 0419 01       		.byte	0x1
 3157 041a D602     		.2byte	0x2d6
 3158 041c 6F000000 		.4byte	0x6f
 3159 0420 02       		.byte	0x2
 3160 0421 91       		.byte	0x91
 3161 0422 6A       		.sleb128 -22
 3162 0423 11       		.uleb128 0x11
 3163 0424 6900     		.ascii	"i\000"
 3164 0426 01       		.byte	0x1
 3165 0427 D702     		.2byte	0x2d7
 3166 0429 6F000000 		.4byte	0x6f
 3167 042d 02       		.byte	0x2
 3168 042e 91       		.byte	0x91
 3169 042f 77       		.sleb128 -9
 3170 0430 14       		.uleb128 0x14
 3171 0431 F6040000 		.4byte	.LASF49
 3172 0435 01       		.byte	0x1
 3173 0436 D802     		.2byte	0x2d8
 3174 0438 6F000000 		.4byte	0x6f
 3175 043c 02       		.byte	0x2
 3176 043d 91       		.byte	0x91
 3177 043e 68       		.sleb128 -24
 3178 043f 11       		.uleb128 0x11
 3179 0440 726900   		.ascii	"ri\000"
 3180 0443 01       		.byte	0x1
 3181 0444 D902     		.2byte	0x2d9
 3182 0446 6F000000 		.4byte	0x6f
 3183 044a 02       		.byte	0x2
 3184 044b 91       		.byte	0x91
 3185 044c 69       		.sleb128 -23
 3186 044d 14       		.uleb128 0x14
 3187 044e 59020000 		.4byte	.LASF45
 3188 0452 01       		.byte	0x1
 3189 0453 DB02     		.2byte	0x2db
 3190 0455 F3020000 		.4byte	0x2f3
 3191 0459 02       		.byte	0x2
 3192 045a 91       		.byte	0x91
 3193 045b 6C       		.sleb128 -20
 3194 045c 11       		.uleb128 0x11
 3195 045d 70455000 		.ascii	"pEP\000"
 3196 0461 01       		.byte	0x1
 3197 0462 DC02     		.2byte	0x2dc
ARM GAS  C:\Users\Robert\AppData\Local\Temp\ccWEb3hA.s 			page 78


 3198 0464 E0030000 		.4byte	0x3e0
 3199 0468 02       		.byte	0x2
 3200 0469 91       		.byte	0x91
 3201 046a 70       		.sleb128 -16
 3202 046b 00       		.byte	0
 3203 046c 15       		.uleb128 0x15
 3204 046d 01       		.byte	0x1
 3205 046e D3030000 		.4byte	.LASF54
 3206 0472 01       		.byte	0x1
 3207 0473 5103     		.2byte	0x351
 3208 0475 01       		.byte	0x1
 3209 0476 F3020000 		.4byte	0x2f3
 3210 047a 00000000 		.4byte	.LFB4
 3211 047e 44000000 		.4byte	.LFE4
 3212 0482 E0000000 		.4byte	.LLST4
 3213 0486 01       		.byte	0x1
 3214 0487 A8040000 		.4byte	0x4a8
 3215 048b 16       		.uleb128 0x16
 3216 048c 6300     		.ascii	"c\000"
 3217 048e 01       		.byte	0x1
 3218 048f 5103     		.2byte	0x351
 3219 0491 6F000000 		.4byte	0x6f
 3220 0495 02       		.byte	0x2
 3221 0496 91       		.byte	0x91
 3222 0497 6F       		.sleb128 -17
 3223 0498 14       		.uleb128 0x14
 3224 0499 59020000 		.4byte	.LASF45
 3225 049d 01       		.byte	0x1
 3226 049e 5503     		.2byte	0x355
 3227 04a0 F3020000 		.4byte	0x2f3
 3228 04a4 02       		.byte	0x2
 3229 04a5 91       		.byte	0x91
 3230 04a6 74       		.sleb128 -12
 3231 04a7 00       		.byte	0
 3232 04a8 17       		.uleb128 0x17
 3233 04a9 01       		.byte	0x1
 3234 04aa A3040000 		.4byte	.LASF82
 3235 04ae 01       		.byte	0x1
 3236 04af 6E03     		.2byte	0x36e
 3237 04b1 01       		.byte	0x1
 3238 04b2 F3020000 		.4byte	0x2f3
 3239 04b6 00000000 		.4byte	.LFB5
 3240 04ba 28000000 		.4byte	.LFE5
 3241 04be 18010000 		.4byte	.LLST5
 3242 04c2 01       		.byte	0x1
 3243 04c3 18       		.uleb128 0x18
 3244 04c4 01       		.byte	0x1
 3245 04c5 8E010000 		.4byte	.LASF56
 3246 04c9 01       		.byte	0x1
 3247 04ca 8503     		.2byte	0x385
 3248 04cc 01       		.byte	0x1
 3249 04cd D5030000 		.4byte	0x3d5
 3250 04d1 00000000 		.4byte	.LFB6
 3251 04d5 46000000 		.4byte	.LFE6
 3252 04d9 44010000 		.4byte	.LLST6
 3253 04dd 01       		.byte	0x1
 3254 04de 01050000 		.4byte	0x501
ARM GAS  C:\Users\Robert\AppData\Local\Temp\ccWEb3hA.s 			page 79


 3255 04e2 14       		.uleb128 0x14
 3256 04e3 59020000 		.4byte	.LASF45
 3257 04e7 01       		.byte	0x1
 3258 04e8 8803     		.2byte	0x388
 3259 04ea F3020000 		.4byte	0x2f3
 3260 04ee 02       		.byte	0x2
 3261 04ef 91       		.byte	0x91
 3262 04f0 74       		.sleb128 -12
 3263 04f1 14       		.uleb128 0x14
 3264 04f2 9D020000 		.4byte	.LASF57
 3265 04f6 01       		.byte	0x1
 3266 04f7 8903     		.2byte	0x389
 3267 04f9 6F000000 		.4byte	0x6f
 3268 04fd 02       		.byte	0x2
 3269 04fe 91       		.byte	0x91
 3270 04ff 73       		.sleb128 -13
 3271 0500 00       		.byte	0
 3272 0501 10       		.uleb128 0x10
 3273 0502 01       		.byte	0x1
 3274 0503 1A000000 		.4byte	.LASF58
 3275 0507 01       		.byte	0x1
 3276 0508 A603     		.2byte	0x3a6
 3277 050a 01       		.byte	0x1
 3278 050b 00000000 		.4byte	.LFB7
 3279 050f FA000000 		.4byte	.LFE7
 3280 0513 7C010000 		.4byte	.LLST7
 3281 0517 01       		.byte	0x1
 3282 0518 39050000 		.4byte	0x539
 3283 051c 16       		.uleb128 0x16
 3284 051d 657000   		.ascii	"ep\000"
 3285 0520 01       		.byte	0x1
 3286 0521 A603     		.2byte	0x3a6
 3287 0523 6F000000 		.4byte	0x6f
 3288 0527 02       		.byte	0x2
 3289 0528 91       		.byte	0x91
 3290 0529 6F       		.sleb128 -17
 3291 052a 11       		.uleb128 0x11
 3292 052b 726900   		.ascii	"ri\000"
 3293 052e 01       		.byte	0x1
 3294 052f A803     		.2byte	0x3a8
 3295 0531 6F000000 		.4byte	0x6f
 3296 0535 02       		.byte	0x2
 3297 0536 91       		.byte	0x91
 3298 0537 77       		.sleb128 -9
 3299 0538 00       		.byte	0
 3300 0539 18       		.uleb128 0x18
 3301 053a 01       		.byte	0x1
 3302 053b 38010000 		.4byte	.LASF59
 3303 053f 01       		.byte	0x1
 3304 0540 D503     		.2byte	0x3d5
 3305 0542 01       		.byte	0x1
 3306 0543 6F000000 		.4byte	0x6f
 3307 0547 00000000 		.4byte	.LFB8
 3308 054b 30010000 		.4byte	.LFE8
 3309 054f B4010000 		.4byte	.LLST8
 3310 0553 01       		.byte	0x1
 3311 0554 84050000 		.4byte	0x584
ARM GAS  C:\Users\Robert\AppData\Local\Temp\ccWEb3hA.s 			page 80


 3312 0558 11       		.uleb128 0x11
 3313 0559 657000   		.ascii	"ep\000"
 3314 055c 01       		.byte	0x1
 3315 055d D703     		.2byte	0x3d7
 3316 055f 6F000000 		.4byte	0x6f
 3317 0563 02       		.byte	0x2
 3318 0564 91       		.byte	0x91
 3319 0565 76       		.sleb128 -10
 3320 0566 11       		.uleb128 0x11
 3321 0567 726900   		.ascii	"ri\000"
 3322 056a 01       		.byte	0x1
 3323 056b D803     		.2byte	0x3d8
 3324 056d 6F000000 		.4byte	0x6f
 3325 0571 02       		.byte	0x2
 3326 0572 91       		.byte	0x91
 3327 0573 75       		.sleb128 -11
 3328 0574 14       		.uleb128 0x14
 3329 0575 89040000 		.4byte	.LASF39
 3330 0579 01       		.byte	0x1
 3331 057a D903     		.2byte	0x3d9
 3332 057c 6F000000 		.4byte	0x6f
 3333 0580 02       		.byte	0x2
 3334 0581 91       		.byte	0x91
 3335 0582 77       		.sleb128 -9
 3336 0583 00       		.byte	0
 3337 0584 18       		.uleb128 0x18
 3338 0585 01       		.byte	0x1
 3339 0586 B4000000 		.4byte	.LASF60
 3340 058a 01       		.byte	0x1
 3341 058b 0C04     		.2byte	0x40c
 3342 058d 01       		.byte	0x1
 3343 058e 6F000000 		.4byte	0x6f
 3344 0592 00000000 		.4byte	.LFB9
 3345 0596 C2010000 		.4byte	.LFE9
 3346 059a EC010000 		.4byte	.LLST9
 3347 059e 01       		.byte	0x1
 3348 059f CF050000 		.4byte	0x5cf
 3349 05a3 11       		.uleb128 0x11
 3350 05a4 657000   		.ascii	"ep\000"
 3351 05a7 01       		.byte	0x1
 3352 05a8 0E04     		.2byte	0x40e
 3353 05aa 6F000000 		.4byte	0x6f
 3354 05ae 02       		.byte	0x2
 3355 05af 91       		.byte	0x91
 3356 05b0 76       		.sleb128 -10
 3357 05b1 11       		.uleb128 0x11
 3358 05b2 726900   		.ascii	"ri\000"
 3359 05b5 01       		.byte	0x1
 3360 05b6 0F04     		.2byte	0x40f
 3361 05b8 6F000000 		.4byte	0x6f
 3362 05bc 02       		.byte	0x2
 3363 05bd 91       		.byte	0x91
 3364 05be 75       		.sleb128 -11
 3365 05bf 14       		.uleb128 0x14
 3366 05c0 89040000 		.4byte	.LASF39
 3367 05c4 01       		.byte	0x1
 3368 05c5 1004     		.2byte	0x410
ARM GAS  C:\Users\Robert\AppData\Local\Temp\ccWEb3hA.s 			page 81


 3369 05c7 6F000000 		.4byte	0x6f
 3370 05cb 02       		.byte	0x2
 3371 05cc 91       		.byte	0x91
 3372 05cd 77       		.sleb128 -9
 3373 05ce 00       		.byte	0
 3374 05cf 18       		.uleb128 0x18
 3375 05d0 01       		.byte	0x1
 3376 05d1 D2010000 		.4byte	.LASF61
 3377 05d5 01       		.byte	0x1
 3378 05d6 5304     		.2byte	0x453
 3379 05d8 01       		.byte	0x1
 3380 05d9 6F000000 		.4byte	0x6f
 3381 05dd 00000000 		.4byte	.LFB10
 3382 05e1 8E000000 		.4byte	.LFE10
 3383 05e5 24020000 		.4byte	.LLST10
 3384 05e9 01       		.byte	0x1
 3385 05ea 2B060000 		.4byte	0x62b
 3386 05ee 14       		.uleb128 0x14
 3387 05ef 89040000 		.4byte	.LASF39
 3388 05f3 01       		.byte	0x1
 3389 05f4 5504     		.2byte	0x455
 3390 05f6 6F000000 		.4byte	0x6f
 3391 05fa 02       		.byte	0x2
 3392 05fb 91       		.byte	0x91
 3393 05fc 77       		.sleb128 -9
 3394 05fd 14       		.uleb128 0x14
 3395 05fe 22030000 		.4byte	.LASF62
 3396 0602 01       		.byte	0x1
 3397 0603 5604     		.2byte	0x456
 3398 0605 6F000000 		.4byte	0x6f
 3399 0609 02       		.byte	0x2
 3400 060a 91       		.byte	0x91
 3401 060b 76       		.sleb128 -10
 3402 060c 14       		.uleb128 0x14
 3403 060d 59020000 		.4byte	.LASF45
 3404 0611 01       		.byte	0x1
 3405 0612 5704     		.2byte	0x457
 3406 0614 F3020000 		.4byte	0x2f3
 3407 0618 02       		.byte	0x2
 3408 0619 91       		.byte	0x91
 3409 061a 70       		.sleb128 -16
 3410 061b 14       		.uleb128 0x14
 3411 061c 9D020000 		.4byte	.LASF57
 3412 0620 01       		.byte	0x1
 3413 0621 5804     		.2byte	0x458
 3414 0623 6F000000 		.4byte	0x6f
 3415 0627 02       		.byte	0x2
 3416 0628 91       		.byte	0x91
 3417 0629 6F       		.sleb128 -17
 3418 062a 00       		.byte	0
 3419 062b 19       		.uleb128 0x19
 3420 062c 3C040000 		.4byte	.LASF63
 3421 0630 03       		.byte	0x3
 3422 0631 1802     		.2byte	0x218
 3423 0633 A5000000 		.4byte	0xa5
 3424 0637 01       		.byte	0x1
 3425 0638 01       		.byte	0x1
ARM GAS  C:\Users\Robert\AppData\Local\Temp\ccWEb3hA.s 			page 82


 3426 0639 19       		.uleb128 0x19
 3427 063a 54010000 		.4byte	.LASF64
 3428 063e 03       		.byte	0x3
 3429 063f 1A02     		.2byte	0x21a
 3430 0641 A5000000 		.4byte	0xa5
 3431 0645 01       		.byte	0x1
 3432 0646 01       		.byte	0x1
 3433 0647 19       		.uleb128 0x19
 3434 0648 F1010000 		.4byte	.LASF65
 3435 064c 03       		.byte	0x3
 3436 064d 1B02     		.2byte	0x21b
 3437 064f A5000000 		.4byte	0xa5
 3438 0653 01       		.byte	0x1
 3439 0654 01       		.byte	0x1
 3440 0655 19       		.uleb128 0x19
 3441 0656 BB040000 		.4byte	.LASF66
 3442 065a 03       		.byte	0x3
 3443 065b 1C02     		.2byte	0x21c
 3444 065d A5000000 		.4byte	0xa5
 3445 0661 01       		.byte	0x1
 3446 0662 01       		.byte	0x1
 3447 0663 0D       		.uleb128 0xd
 3448 0664 6F000000 		.4byte	0x6f
 3449 0668 73060000 		.4byte	0x673
 3450 066c 0E       		.uleb128 0xe
 3451 066d AA000000 		.4byte	0xaa
 3452 0671 11       		.byte	0x11
 3453 0672 00       		.byte	0
 3454 0673 1A       		.uleb128 0x1a
 3455 0674 2F030000 		.4byte	.LASF67
 3456 0678 04       		.byte	0x4
 3457 0679 1C       		.byte	0x1c
 3458 067a 80060000 		.4byte	0x680
 3459 067e 01       		.byte	0x1
 3460 067f 01       		.byte	0x1
 3461 0680 0F       		.uleb128 0xf
 3462 0681 63060000 		.4byte	0x663
 3463 0685 0D       		.uleb128 0xd
 3464 0686 4F020000 		.4byte	0x24f
 3465 068a 95060000 		.4byte	0x695
 3466 068e 0E       		.uleb128 0xe
 3467 068f AA000000 		.4byte	0xaa
 3468 0693 00       		.byte	0
 3469 0694 00       		.byte	0
 3470 0695 1A       		.uleb128 0x1a
 3471 0696 76020000 		.4byte	.LASF68
 3472 069a 04       		.byte	0x4
 3473 069b 23       		.byte	0x23
 3474 069c A2060000 		.4byte	0x6a2
 3475 06a0 01       		.byte	0x1
 3476 06a1 01       		.byte	0x1
 3477 06a2 0F       		.uleb128 0xf
 3478 06a3 85060000 		.4byte	0x685
 3479 06a7 0D       		.uleb128 0xd
 3480 06a8 6F000000 		.4byte	0x6f
 3481 06ac B7060000 		.4byte	0x6b7
 3482 06b0 0E       		.uleb128 0xe
ARM GAS  C:\Users\Robert\AppData\Local\Temp\ccWEb3hA.s 			page 83


 3483 06b1 AA000000 		.4byte	0xaa
 3484 06b5 09       		.byte	0x9
 3485 06b6 00       		.byte	0
 3486 06b7 1A       		.uleb128 0x1a
 3487 06b8 82020000 		.4byte	.LASF69
 3488 06bc 04       		.byte	0x4
 3489 06bd 24       		.byte	0x24
 3490 06be C4060000 		.4byte	0x6c4
 3491 06c2 01       		.byte	0x1
 3492 06c3 01       		.byte	0x1
 3493 06c4 0F       		.uleb128 0xf
 3494 06c5 A7060000 		.4byte	0x6a7
 3495 06c9 0D       		.uleb128 0xd
 3496 06ca 6F000000 		.4byte	0x6f
 3497 06ce D9060000 		.4byte	0x6d9
 3498 06d2 0E       		.uleb128 0xe
 3499 06d3 AA000000 		.4byte	0xaa
 3500 06d7 54       		.byte	0x54
 3501 06d8 00       		.byte	0
 3502 06d9 1A       		.uleb128 0x1a
 3503 06da 21020000 		.4byte	.LASF70
 3504 06de 04       		.byte	0x4
 3505 06df 25       		.byte	0x25
 3506 06e0 E6060000 		.4byte	0x6e6
 3507 06e4 01       		.byte	0x1
 3508 06e5 01       		.byte	0x1
 3509 06e6 0F       		.uleb128 0xf
 3510 06e7 C9060000 		.4byte	0x6c9
 3511 06eb 1A       		.uleb128 0x1a
 3512 06ec CC000000 		.4byte	.LASF71
 3513 06f0 04       		.byte	0x4
 3514 06f1 38       		.byte	0x38
 3515 06f2 A5000000 		.4byte	0xa5
 3516 06f6 01       		.byte	0x1
 3517 06f7 01       		.byte	0x1
 3518 06f8 0D       		.uleb128 0xd
 3519 06f9 6F000000 		.4byte	0x6f
 3520 06fd 08070000 		.4byte	0x708
 3521 0701 0E       		.uleb128 0xe
 3522 0702 AA000000 		.4byte	0xaa
 3523 0706 00       		.byte	0
 3524 0707 00       		.byte	0
 3525 0708 1A       		.uleb128 0x1a
 3526 0709 10040000 		.4byte	.LASF72
 3527 070d 04       		.byte	0x4
 3528 070e 39       		.byte	0x39
 3529 070f 15070000 		.4byte	0x715
 3530 0713 01       		.byte	0x1
 3531 0714 01       		.byte	0x1
 3532 0715 05       		.uleb128 0x5
 3533 0716 F8060000 		.4byte	0x6f8
 3534 071a 1A       		.uleb128 0x1a
 3535 071b CE040000 		.4byte	.LASF73
 3536 071f 04       		.byte	0x4
 3537 0720 3A       		.byte	0x3a
 3538 0721 27070000 		.4byte	0x727
 3539 0725 01       		.byte	0x1
ARM GAS  C:\Users\Robert\AppData\Local\Temp\ccWEb3hA.s 			page 84


 3540 0726 01       		.byte	0x1
 3541 0727 05       		.uleb128 0x5
 3542 0728 F8060000 		.4byte	0x6f8
 3543 072c 1A       		.uleb128 0x1a
 3544 072d A0000000 		.4byte	.LASF74
 3545 0731 04       		.byte	0x4
 3546 0732 3B       		.byte	0x3b
 3547 0733 A5000000 		.4byte	0xa5
 3548 0737 01       		.byte	0x1
 3549 0738 01       		.byte	0x1
 3550 0739 1A       		.uleb128 0x1a
 3551 073a 12050000 		.4byte	.LASF75
 3552 073e 04       		.byte	0x4
 3553 073f 3C       		.byte	0x3c
 3554 0740 46070000 		.4byte	0x746
 3555 0744 01       		.byte	0x1
 3556 0745 01       		.byte	0x1
 3557 0746 05       		.uleb128 0x5
 3558 0747 F8060000 		.4byte	0x6f8
 3559 074b 1A       		.uleb128 0x1a
 3560 074c 0C020000 		.4byte	.LASF76
 3561 0750 04       		.byte	0x4
 3562 0751 3D       		.byte	0x3d
 3563 0752 D5030000 		.4byte	0x3d5
 3564 0756 01       		.byte	0x1
 3565 0757 01       		.byte	0x1
 3566 0758 0D       		.uleb128 0xd
 3567 0759 38010000 		.4byte	0x138
 3568 075d 68070000 		.4byte	0x768
 3569 0761 0E       		.uleb128 0xe
 3570 0762 AA000000 		.4byte	0xaa
 3571 0766 08       		.byte	0x8
 3572 0767 00       		.byte	0
 3573 0768 1A       		.uleb128 0x1a
 3574 0769 54030000 		.4byte	.LASF77
 3575 076d 04       		.byte	0x4
 3576 076e 3F       		.byte	0x3f
 3577 076f 75070000 		.4byte	0x775
 3578 0773 01       		.byte	0x1
 3579 0774 01       		.byte	0x1
 3580 0775 05       		.uleb128 0x5
 3581 0776 58070000 		.4byte	0x758
 3582 077a 1A       		.uleb128 0x1a
 3583 077b 2C000000 		.4byte	.LASF78
 3584 077f 04       		.byte	0x4
 3585 0780 40       		.byte	0x40
 3586 0781 87070000 		.4byte	0x787
 3587 0785 01       		.byte	0x1
 3588 0786 01       		.byte	0x1
 3589 0787 05       		.uleb128 0x5
 3590 0788 1A020000 		.4byte	0x21a
 3591 078c 00       		.byte	0
 3592              		.section	.debug_abbrev,"",%progbits
 3593              	.Ldebug_abbrev0:
 3594 0000 01       		.uleb128 0x1
 3595 0001 11       		.uleb128 0x11
 3596 0002 01       		.byte	0x1
ARM GAS  C:\Users\Robert\AppData\Local\Temp\ccWEb3hA.s 			page 85


 3597 0003 25       		.uleb128 0x25
 3598 0004 0E       		.uleb128 0xe
 3599 0005 13       		.uleb128 0x13
 3600 0006 0B       		.uleb128 0xb
 3601 0007 03       		.uleb128 0x3
 3602 0008 0E       		.uleb128 0xe
 3603 0009 1B       		.uleb128 0x1b
 3604 000a 0E       		.uleb128 0xe
 3605 000b 55       		.uleb128 0x55
 3606 000c 06       		.uleb128 0x6
 3607 000d 11       		.uleb128 0x11
 3608 000e 01       		.uleb128 0x1
 3609 000f 52       		.uleb128 0x52
 3610 0010 01       		.uleb128 0x1
 3611 0011 10       		.uleb128 0x10
 3612 0012 06       		.uleb128 0x6
 3613 0013 00       		.byte	0
 3614 0014 00       		.byte	0
 3615 0015 02       		.uleb128 0x2
 3616 0016 24       		.uleb128 0x24
 3617 0017 00       		.byte	0
 3618 0018 0B       		.uleb128 0xb
 3619 0019 0B       		.uleb128 0xb
 3620 001a 3E       		.uleb128 0x3e
 3621 001b 0B       		.uleb128 0xb
 3622 001c 03       		.uleb128 0x3
 3623 001d 0E       		.uleb128 0xe
 3624 001e 00       		.byte	0
 3625 001f 00       		.byte	0
 3626 0020 03       		.uleb128 0x3
 3627 0021 24       		.uleb128 0x24
 3628 0022 00       		.byte	0
 3629 0023 0B       		.uleb128 0xb
 3630 0024 0B       		.uleb128 0xb
 3631 0025 3E       		.uleb128 0x3e
 3632 0026 0B       		.uleb128 0xb
 3633 0027 03       		.uleb128 0x3
 3634 0028 08       		.uleb128 0x8
 3635 0029 00       		.byte	0
 3636 002a 00       		.byte	0
 3637 002b 04       		.uleb128 0x4
 3638 002c 16       		.uleb128 0x16
 3639 002d 00       		.byte	0
 3640 002e 03       		.uleb128 0x3
 3641 002f 0E       		.uleb128 0xe
 3642 0030 3A       		.uleb128 0x3a
 3643 0031 0B       		.uleb128 0xb
 3644 0032 3B       		.uleb128 0x3b
 3645 0033 0B       		.uleb128 0xb
 3646 0034 49       		.uleb128 0x49
 3647 0035 13       		.uleb128 0x13
 3648 0036 00       		.byte	0
 3649 0037 00       		.byte	0
 3650 0038 05       		.uleb128 0x5
 3651 0039 35       		.uleb128 0x35
 3652 003a 00       		.byte	0
 3653 003b 49       		.uleb128 0x49
ARM GAS  C:\Users\Robert\AppData\Local\Temp\ccWEb3hA.s 			page 86


 3654 003c 13       		.uleb128 0x13
 3655 003d 00       		.byte	0
 3656 003e 00       		.byte	0
 3657 003f 06       		.uleb128 0x6
 3658 0040 13       		.uleb128 0x13
 3659 0041 01       		.byte	0x1
 3660 0042 0B       		.uleb128 0xb
 3661 0043 0B       		.uleb128 0xb
 3662 0044 3A       		.uleb128 0x3a
 3663 0045 0B       		.uleb128 0xb
 3664 0046 3B       		.uleb128 0x3b
 3665 0047 0B       		.uleb128 0xb
 3666 0048 01       		.uleb128 0x1
 3667 0049 13       		.uleb128 0x13
 3668 004a 00       		.byte	0
 3669 004b 00       		.byte	0
 3670 004c 07       		.uleb128 0x7
 3671 004d 0D       		.uleb128 0xd
 3672 004e 00       		.byte	0
 3673 004f 03       		.uleb128 0x3
 3674 0050 0E       		.uleb128 0xe
 3675 0051 3A       		.uleb128 0x3a
 3676 0052 0B       		.uleb128 0xb
 3677 0053 3B       		.uleb128 0x3b
 3678 0054 0B       		.uleb128 0xb
 3679 0055 49       		.uleb128 0x49
 3680 0056 13       		.uleb128 0x13
 3681 0057 38       		.uleb128 0x38
 3682 0058 0A       		.uleb128 0xa
 3683 0059 00       		.byte	0
 3684 005a 00       		.byte	0
 3685 005b 08       		.uleb128 0x8
 3686 005c 0F       		.uleb128 0xf
 3687 005d 00       		.byte	0
 3688 005e 0B       		.uleb128 0xb
 3689 005f 0B       		.uleb128 0xb
 3690 0060 49       		.uleb128 0x49
 3691 0061 13       		.uleb128 0x13
 3692 0062 00       		.byte	0
 3693 0063 00       		.byte	0
 3694 0064 09       		.uleb128 0x9
 3695 0065 0D       		.uleb128 0xd
 3696 0066 00       		.byte	0
 3697 0067 03       		.uleb128 0x3
 3698 0068 08       		.uleb128 0x8
 3699 0069 3A       		.uleb128 0x3a
 3700 006a 0B       		.uleb128 0xb
 3701 006b 3B       		.uleb128 0x3b
 3702 006c 0B       		.uleb128 0xb
 3703 006d 49       		.uleb128 0x49
 3704 006e 13       		.uleb128 0x13
 3705 006f 38       		.uleb128 0x38
 3706 0070 0A       		.uleb128 0xa
 3707 0071 00       		.byte	0
 3708 0072 00       		.byte	0
 3709 0073 0A       		.uleb128 0xa
 3710 0074 26       		.uleb128 0x26
ARM GAS  C:\Users\Robert\AppData\Local\Temp\ccWEb3hA.s 			page 87


 3711 0075 00       		.byte	0
 3712 0076 00       		.byte	0
 3713 0077 00       		.byte	0
 3714 0078 0B       		.uleb128 0xb
 3715 0079 2E       		.uleb128 0x2e
 3716 007a 01       		.byte	0x1
 3717 007b 3F       		.uleb128 0x3f
 3718 007c 0C       		.uleb128 0xc
 3719 007d 03       		.uleb128 0x3
 3720 007e 0E       		.uleb128 0xe
 3721 007f 3A       		.uleb128 0x3a
 3722 0080 0B       		.uleb128 0xb
 3723 0081 3B       		.uleb128 0x3b
 3724 0082 0B       		.uleb128 0xb
 3725 0083 27       		.uleb128 0x27
 3726 0084 0C       		.uleb128 0xc
 3727 0085 49       		.uleb128 0x49
 3728 0086 13       		.uleb128 0x13
 3729 0087 11       		.uleb128 0x11
 3730 0088 01       		.uleb128 0x1
 3731 0089 12       		.uleb128 0x12
 3732 008a 01       		.uleb128 0x1
 3733 008b 40       		.uleb128 0x40
 3734 008c 06       		.uleb128 0x6
 3735 008d 9642     		.uleb128 0x2116
 3736 008f 0C       		.uleb128 0xc
 3737 0090 01       		.uleb128 0x1
 3738 0091 13       		.uleb128 0x13
 3739 0092 00       		.byte	0
 3740 0093 00       		.byte	0
 3741 0094 0C       		.uleb128 0xc
 3742 0095 34       		.uleb128 0x34
 3743 0096 00       		.byte	0
 3744 0097 03       		.uleb128 0x3
 3745 0098 0E       		.uleb128 0xe
 3746 0099 3A       		.uleb128 0x3a
 3747 009a 0B       		.uleb128 0xb
 3748 009b 3B       		.uleb128 0x3b
 3749 009c 0B       		.uleb128 0xb
 3750 009d 49       		.uleb128 0x49
 3751 009e 13       		.uleb128 0x13
 3752 009f 02       		.uleb128 0x2
 3753 00a0 0A       		.uleb128 0xa
 3754 00a1 00       		.byte	0
 3755 00a2 00       		.byte	0
 3756 00a3 0D       		.uleb128 0xd
 3757 00a4 01       		.uleb128 0x1
 3758 00a5 01       		.byte	0x1
 3759 00a6 49       		.uleb128 0x49
 3760 00a7 13       		.uleb128 0x13
 3761 00a8 01       		.uleb128 0x1
 3762 00a9 13       		.uleb128 0x13
 3763 00aa 00       		.byte	0
 3764 00ab 00       		.byte	0
 3765 00ac 0E       		.uleb128 0xe
 3766 00ad 21       		.uleb128 0x21
 3767 00ae 00       		.byte	0
ARM GAS  C:\Users\Robert\AppData\Local\Temp\ccWEb3hA.s 			page 88


 3768 00af 49       		.uleb128 0x49
 3769 00b0 13       		.uleb128 0x13
 3770 00b1 2F       		.uleb128 0x2f
 3771 00b2 0B       		.uleb128 0xb
 3772 00b3 00       		.byte	0
 3773 00b4 00       		.byte	0
 3774 00b5 0F       		.uleb128 0xf
 3775 00b6 26       		.uleb128 0x26
 3776 00b7 00       		.byte	0
 3777 00b8 49       		.uleb128 0x49
 3778 00b9 13       		.uleb128 0x13
 3779 00ba 00       		.byte	0
 3780 00bb 00       		.byte	0
 3781 00bc 10       		.uleb128 0x10
 3782 00bd 2E       		.uleb128 0x2e
 3783 00be 01       		.byte	0x1
 3784 00bf 3F       		.uleb128 0x3f
 3785 00c0 0C       		.uleb128 0xc
 3786 00c1 03       		.uleb128 0x3
 3787 00c2 0E       		.uleb128 0xe
 3788 00c3 3A       		.uleb128 0x3a
 3789 00c4 0B       		.uleb128 0xb
 3790 00c5 3B       		.uleb128 0x3b
 3791 00c6 05       		.uleb128 0x5
 3792 00c7 27       		.uleb128 0x27
 3793 00c8 0C       		.uleb128 0xc
 3794 00c9 11       		.uleb128 0x11
 3795 00ca 01       		.uleb128 0x1
 3796 00cb 12       		.uleb128 0x12
 3797 00cc 01       		.uleb128 0x1
 3798 00cd 40       		.uleb128 0x40
 3799 00ce 06       		.uleb128 0x6
 3800 00cf 9742     		.uleb128 0x2117
 3801 00d1 0C       		.uleb128 0xc
 3802 00d2 01       		.uleb128 0x1
 3803 00d3 13       		.uleb128 0x13
 3804 00d4 00       		.byte	0
 3805 00d5 00       		.byte	0
 3806 00d6 11       		.uleb128 0x11
 3807 00d7 34       		.uleb128 0x34
 3808 00d8 00       		.byte	0
 3809 00d9 03       		.uleb128 0x3
 3810 00da 08       		.uleb128 0x8
 3811 00db 3A       		.uleb128 0x3a
 3812 00dc 0B       		.uleb128 0xb
 3813 00dd 3B       		.uleb128 0x3b
 3814 00de 05       		.uleb128 0x5
 3815 00df 49       		.uleb128 0x49
 3816 00e0 13       		.uleb128 0x13
 3817 00e1 02       		.uleb128 0x2
 3818 00e2 0A       		.uleb128 0xa
 3819 00e3 00       		.byte	0
 3820 00e4 00       		.byte	0
 3821 00e5 12       		.uleb128 0x12
 3822 00e6 2E       		.uleb128 0x2e
 3823 00e7 01       		.byte	0x1
 3824 00e8 3F       		.uleb128 0x3f
ARM GAS  C:\Users\Robert\AppData\Local\Temp\ccWEb3hA.s 			page 89


 3825 00e9 0C       		.uleb128 0xc
 3826 00ea 03       		.uleb128 0x3
 3827 00eb 0E       		.uleb128 0xe
 3828 00ec 3A       		.uleb128 0x3a
 3829 00ed 0B       		.uleb128 0xb
 3830 00ee 3B       		.uleb128 0x3b
 3831 00ef 05       		.uleb128 0x5
 3832 00f0 27       		.uleb128 0x27
 3833 00f1 0C       		.uleb128 0xc
 3834 00f2 11       		.uleb128 0x11
 3835 00f3 01       		.uleb128 0x1
 3836 00f4 12       		.uleb128 0x12
 3837 00f5 01       		.uleb128 0x1
 3838 00f6 40       		.uleb128 0x40
 3839 00f7 06       		.uleb128 0x6
 3840 00f8 9642     		.uleb128 0x2116
 3841 00fa 0C       		.uleb128 0xc
 3842 00fb 01       		.uleb128 0x1
 3843 00fc 13       		.uleb128 0x13
 3844 00fd 00       		.byte	0
 3845 00fe 00       		.byte	0
 3846 00ff 13       		.uleb128 0x13
 3847 0100 05       		.uleb128 0x5
 3848 0101 00       		.byte	0
 3849 0102 03       		.uleb128 0x3
 3850 0103 0E       		.uleb128 0xe
 3851 0104 3A       		.uleb128 0x3a
 3852 0105 0B       		.uleb128 0xb
 3853 0106 3B       		.uleb128 0x3b
 3854 0107 05       		.uleb128 0x5
 3855 0108 49       		.uleb128 0x49
 3856 0109 13       		.uleb128 0x13
 3857 010a 02       		.uleb128 0x2
 3858 010b 0A       		.uleb128 0xa
 3859 010c 00       		.byte	0
 3860 010d 00       		.byte	0
 3861 010e 14       		.uleb128 0x14
 3862 010f 34       		.uleb128 0x34
 3863 0110 00       		.byte	0
 3864 0111 03       		.uleb128 0x3
 3865 0112 0E       		.uleb128 0xe
 3866 0113 3A       		.uleb128 0x3a
 3867 0114 0B       		.uleb128 0xb
 3868 0115 3B       		.uleb128 0x3b
 3869 0116 05       		.uleb128 0x5
 3870 0117 49       		.uleb128 0x49
 3871 0118 13       		.uleb128 0x13
 3872 0119 02       		.uleb128 0x2
 3873 011a 0A       		.uleb128 0xa
 3874 011b 00       		.byte	0
 3875 011c 00       		.byte	0
 3876 011d 15       		.uleb128 0x15
 3877 011e 2E       		.uleb128 0x2e
 3878 011f 01       		.byte	0x1
 3879 0120 3F       		.uleb128 0x3f
 3880 0121 0C       		.uleb128 0xc
 3881 0122 03       		.uleb128 0x3
ARM GAS  C:\Users\Robert\AppData\Local\Temp\ccWEb3hA.s 			page 90


 3882 0123 0E       		.uleb128 0xe
 3883 0124 3A       		.uleb128 0x3a
 3884 0125 0B       		.uleb128 0xb
 3885 0126 3B       		.uleb128 0x3b
 3886 0127 05       		.uleb128 0x5
 3887 0128 27       		.uleb128 0x27
 3888 0129 0C       		.uleb128 0xc
 3889 012a 49       		.uleb128 0x49
 3890 012b 13       		.uleb128 0x13
 3891 012c 11       		.uleb128 0x11
 3892 012d 01       		.uleb128 0x1
 3893 012e 12       		.uleb128 0x12
 3894 012f 01       		.uleb128 0x1
 3895 0130 40       		.uleb128 0x40
 3896 0131 06       		.uleb128 0x6
 3897 0132 9742     		.uleb128 0x2117
 3898 0134 0C       		.uleb128 0xc
 3899 0135 01       		.uleb128 0x1
 3900 0136 13       		.uleb128 0x13
 3901 0137 00       		.byte	0
 3902 0138 00       		.byte	0
 3903 0139 16       		.uleb128 0x16
 3904 013a 05       		.uleb128 0x5
 3905 013b 00       		.byte	0
 3906 013c 03       		.uleb128 0x3
 3907 013d 08       		.uleb128 0x8
 3908 013e 3A       		.uleb128 0x3a
 3909 013f 0B       		.uleb128 0xb
 3910 0140 3B       		.uleb128 0x3b
 3911 0141 05       		.uleb128 0x5
 3912 0142 49       		.uleb128 0x49
 3913 0143 13       		.uleb128 0x13
 3914 0144 02       		.uleb128 0x2
 3915 0145 0A       		.uleb128 0xa
 3916 0146 00       		.byte	0
 3917 0147 00       		.byte	0
 3918 0148 17       		.uleb128 0x17
 3919 0149 2E       		.uleb128 0x2e
 3920 014a 00       		.byte	0
 3921 014b 3F       		.uleb128 0x3f
 3922 014c 0C       		.uleb128 0xc
 3923 014d 03       		.uleb128 0x3
 3924 014e 0E       		.uleb128 0xe
 3925 014f 3A       		.uleb128 0x3a
 3926 0150 0B       		.uleb128 0xb
 3927 0151 3B       		.uleb128 0x3b
 3928 0152 05       		.uleb128 0x5
 3929 0153 27       		.uleb128 0x27
 3930 0154 0C       		.uleb128 0xc
 3931 0155 49       		.uleb128 0x49
 3932 0156 13       		.uleb128 0x13
 3933 0157 11       		.uleb128 0x11
 3934 0158 01       		.uleb128 0x1
 3935 0159 12       		.uleb128 0x12
 3936 015a 01       		.uleb128 0x1
 3937 015b 40       		.uleb128 0x40
 3938 015c 06       		.uleb128 0x6
ARM GAS  C:\Users\Robert\AppData\Local\Temp\ccWEb3hA.s 			page 91


 3939 015d 9742     		.uleb128 0x2117
 3940 015f 0C       		.uleb128 0xc
 3941 0160 00       		.byte	0
 3942 0161 00       		.byte	0
 3943 0162 18       		.uleb128 0x18
 3944 0163 2E       		.uleb128 0x2e
 3945 0164 01       		.byte	0x1
 3946 0165 3F       		.uleb128 0x3f
 3947 0166 0C       		.uleb128 0xc
 3948 0167 03       		.uleb128 0x3
 3949 0168 0E       		.uleb128 0xe
 3950 0169 3A       		.uleb128 0x3a
 3951 016a 0B       		.uleb128 0xb
 3952 016b 3B       		.uleb128 0x3b
 3953 016c 05       		.uleb128 0x5
 3954 016d 27       		.uleb128 0x27
 3955 016e 0C       		.uleb128 0xc
 3956 016f 49       		.uleb128 0x49
 3957 0170 13       		.uleb128 0x13
 3958 0171 11       		.uleb128 0x11
 3959 0172 01       		.uleb128 0x1
 3960 0173 12       		.uleb128 0x12
 3961 0174 01       		.uleb128 0x1
 3962 0175 40       		.uleb128 0x40
 3963 0176 06       		.uleb128 0x6
 3964 0177 9642     		.uleb128 0x2116
 3965 0179 0C       		.uleb128 0xc
 3966 017a 01       		.uleb128 0x1
 3967 017b 13       		.uleb128 0x13
 3968 017c 00       		.byte	0
 3969 017d 00       		.byte	0
 3970 017e 19       		.uleb128 0x19
 3971 017f 34       		.uleb128 0x34
 3972 0180 00       		.byte	0
 3973 0181 03       		.uleb128 0x3
 3974 0182 0E       		.uleb128 0xe
 3975 0183 3A       		.uleb128 0x3a
 3976 0184 0B       		.uleb128 0xb
 3977 0185 3B       		.uleb128 0x3b
 3978 0186 05       		.uleb128 0x5
 3979 0187 49       		.uleb128 0x49
 3980 0188 13       		.uleb128 0x13
 3981 0189 3F       		.uleb128 0x3f
 3982 018a 0C       		.uleb128 0xc
 3983 018b 3C       		.uleb128 0x3c
 3984 018c 0C       		.uleb128 0xc
 3985 018d 00       		.byte	0
 3986 018e 00       		.byte	0
 3987 018f 1A       		.uleb128 0x1a
 3988 0190 34       		.uleb128 0x34
 3989 0191 00       		.byte	0
 3990 0192 03       		.uleb128 0x3
 3991 0193 0E       		.uleb128 0xe
 3992 0194 3A       		.uleb128 0x3a
 3993 0195 0B       		.uleb128 0xb
 3994 0196 3B       		.uleb128 0x3b
 3995 0197 0B       		.uleb128 0xb
ARM GAS  C:\Users\Robert\AppData\Local\Temp\ccWEb3hA.s 			page 92


 3996 0198 49       		.uleb128 0x49
 3997 0199 13       		.uleb128 0x13
 3998 019a 3F       		.uleb128 0x3f
 3999 019b 0C       		.uleb128 0xc
 4000 019c 3C       		.uleb128 0x3c
 4001 019d 0C       		.uleb128 0xc
 4002 019e 00       		.byte	0
 4003 019f 00       		.byte	0
 4004 01a0 00       		.byte	0
 4005              		.section	.debug_loc,"",%progbits
 4006              	.Ldebug_loc0:
 4007              	.LLST0:
 4008 0000 00000000 		.4byte	.LFB0
 4009 0004 02000000 		.4byte	.LCFI0
 4010 0008 0200     		.2byte	0x2
 4011 000a 7D       		.byte	0x7d
 4012 000b 00       		.sleb128 0
 4013 000c 02000000 		.4byte	.LCFI0
 4014 0010 04000000 		.4byte	.LCFI1
 4015 0014 0200     		.2byte	0x2
 4016 0016 7D       		.byte	0x7d
 4017 0017 08       		.sleb128 8
 4018 0018 04000000 		.4byte	.LCFI1
 4019 001c 06000000 		.4byte	.LCFI2
 4020 0020 0200     		.2byte	0x2
 4021 0022 7D       		.byte	0x7d
 4022 0023 20       		.sleb128 32
 4023 0024 06000000 		.4byte	.LCFI2
 4024 0028 E2050000 		.4byte	.LFE0
 4025 002c 0200     		.2byte	0x2
 4026 002e 77       		.byte	0x77
 4027 002f 20       		.sleb128 32
 4028 0030 00000000 		.4byte	0
 4029 0034 00000000 		.4byte	0
 4030              	.LLST1:
 4031 0038 00000000 		.4byte	.LFB1
 4032 003c 02000000 		.4byte	.LCFI3
 4033 0040 0200     		.2byte	0x2
 4034 0042 7D       		.byte	0x7d
 4035 0043 00       		.sleb128 0
 4036 0044 02000000 		.4byte	.LCFI3
 4037 0048 04000000 		.4byte	.LCFI4
 4038 004c 0200     		.2byte	0x2
 4039 004e 7D       		.byte	0x7d
 4040 004f 04       		.sleb128 4
 4041 0050 04000000 		.4byte	.LCFI4
 4042 0054 06000000 		.4byte	.LCFI5
 4043 0058 0200     		.2byte	0x2
 4044 005a 7D       		.byte	0x7d
 4045 005b 10       		.sleb128 16
 4046 005c 06000000 		.4byte	.LCFI5
 4047 0060 02020000 		.4byte	.LFE1
 4048 0064 0200     		.2byte	0x2
 4049 0066 77       		.byte	0x77
 4050 0067 10       		.sleb128 16
 4051 0068 00000000 		.4byte	0
 4052 006c 00000000 		.4byte	0
ARM GAS  C:\Users\Robert\AppData\Local\Temp\ccWEb3hA.s 			page 93


 4053              	.LLST2:
 4054 0070 00000000 		.4byte	.LFB2
 4055 0074 02000000 		.4byte	.LCFI6
 4056 0078 0200     		.2byte	0x2
 4057 007a 7D       		.byte	0x7d
 4058 007b 00       		.sleb128 0
 4059 007c 02000000 		.4byte	.LCFI6
 4060 0080 04000000 		.4byte	.LCFI7
 4061 0084 0200     		.2byte	0x2
 4062 0086 7D       		.byte	0x7d
 4063 0087 08       		.sleb128 8
 4064 0088 04000000 		.4byte	.LCFI7
 4065 008c 06000000 		.4byte	.LCFI8
 4066 0090 0200     		.2byte	0x2
 4067 0092 7D       		.byte	0x7d
 4068 0093 28       		.sleb128 40
 4069 0094 06000000 		.4byte	.LCFI8
 4070 0098 2C040000 		.4byte	.LFE2
 4071 009c 0200     		.2byte	0x2
 4072 009e 77       		.byte	0x77
 4073 009f 28       		.sleb128 40
 4074 00a0 00000000 		.4byte	0
 4075 00a4 00000000 		.4byte	0
 4076              	.LLST3:
 4077 00a8 00000000 		.4byte	.LFB3
 4078 00ac 02000000 		.4byte	.LCFI9
 4079 00b0 0200     		.2byte	0x2
 4080 00b2 7D       		.byte	0x7d
 4081 00b3 00       		.sleb128 0
 4082 00b4 02000000 		.4byte	.LCFI9
 4083 00b8 04000000 		.4byte	.LCFI10
 4084 00bc 0200     		.2byte	0x2
 4085 00be 7D       		.byte	0x7d
 4086 00bf 08       		.sleb128 8
 4087 00c0 04000000 		.4byte	.LCFI10
 4088 00c4 06000000 		.4byte	.LCFI11
 4089 00c8 0200     		.2byte	0x2
 4090 00ca 7D       		.byte	0x7d
 4091 00cb 18       		.sleb128 24
 4092 00cc 06000000 		.4byte	.LCFI11
 4093 00d0 52030000 		.4byte	.LFE3
 4094 00d4 0200     		.2byte	0x2
 4095 00d6 77       		.byte	0x77
 4096 00d7 18       		.sleb128 24
 4097 00d8 00000000 		.4byte	0
 4098 00dc 00000000 		.4byte	0
 4099              	.LLST4:
 4100 00e0 00000000 		.4byte	.LFB4
 4101 00e4 02000000 		.4byte	.LCFI12
 4102 00e8 0200     		.2byte	0x2
 4103 00ea 7D       		.byte	0x7d
 4104 00eb 00       		.sleb128 0
 4105 00ec 02000000 		.4byte	.LCFI12
 4106 00f0 04000000 		.4byte	.LCFI13
 4107 00f4 0200     		.2byte	0x2
 4108 00f6 7D       		.byte	0x7d
 4109 00f7 04       		.sleb128 4
ARM GAS  C:\Users\Robert\AppData\Local\Temp\ccWEb3hA.s 			page 94


 4110 00f8 04000000 		.4byte	.LCFI13
 4111 00fc 06000000 		.4byte	.LCFI14
 4112 0100 0200     		.2byte	0x2
 4113 0102 7D       		.byte	0x7d
 4114 0103 18       		.sleb128 24
 4115 0104 06000000 		.4byte	.LCFI14
 4116 0108 44000000 		.4byte	.LFE4
 4117 010c 0200     		.2byte	0x2
 4118 010e 77       		.byte	0x77
 4119 010f 18       		.sleb128 24
 4120 0110 00000000 		.4byte	0
 4121 0114 00000000 		.4byte	0
 4122              	.LLST5:
 4123 0118 00000000 		.4byte	.LFB5
 4124 011c 02000000 		.4byte	.LCFI15
 4125 0120 0200     		.2byte	0x2
 4126 0122 7D       		.byte	0x7d
 4127 0123 00       		.sleb128 0
 4128 0124 02000000 		.4byte	.LCFI15
 4129 0128 04000000 		.4byte	.LCFI16
 4130 012c 0200     		.2byte	0x2
 4131 012e 7D       		.byte	0x7d
 4132 012f 04       		.sleb128 4
 4133 0130 04000000 		.4byte	.LCFI16
 4134 0134 28000000 		.4byte	.LFE5
 4135 0138 0200     		.2byte	0x2
 4136 013a 77       		.byte	0x77
 4137 013b 04       		.sleb128 4
 4138 013c 00000000 		.4byte	0
 4139 0140 00000000 		.4byte	0
 4140              	.LLST6:
 4141 0144 00000000 		.4byte	.LFB6
 4142 0148 02000000 		.4byte	.LCFI17
 4143 014c 0200     		.2byte	0x2
 4144 014e 7D       		.byte	0x7d
 4145 014f 00       		.sleb128 0
 4146 0150 02000000 		.4byte	.LCFI17
 4147 0154 04000000 		.4byte	.LCFI18
 4148 0158 0200     		.2byte	0x2
 4149 015a 7D       		.byte	0x7d
 4150 015b 08       		.sleb128 8
 4151 015c 04000000 		.4byte	.LCFI18
 4152 0160 06000000 		.4byte	.LCFI19
 4153 0164 0200     		.2byte	0x2
 4154 0166 7D       		.byte	0x7d
 4155 0167 10       		.sleb128 16
 4156 0168 06000000 		.4byte	.LCFI19
 4157 016c 46000000 		.4byte	.LFE6
 4158 0170 0200     		.2byte	0x2
 4159 0172 77       		.byte	0x77
 4160 0173 10       		.sleb128 16
 4161 0174 00000000 		.4byte	0
 4162 0178 00000000 		.4byte	0
 4163              	.LLST7:
 4164 017c 00000000 		.4byte	.LFB7
 4165 0180 02000000 		.4byte	.LCFI20
 4166 0184 0200     		.2byte	0x2
ARM GAS  C:\Users\Robert\AppData\Local\Temp\ccWEb3hA.s 			page 95


 4167 0186 7D       		.byte	0x7d
 4168 0187 00       		.sleb128 0
 4169 0188 02000000 		.4byte	.LCFI20
 4170 018c 04000000 		.4byte	.LCFI21
 4171 0190 0200     		.2byte	0x2
 4172 0192 7D       		.byte	0x7d
 4173 0193 04       		.sleb128 4
 4174 0194 04000000 		.4byte	.LCFI21
 4175 0198 06000000 		.4byte	.LCFI22
 4176 019c 0200     		.2byte	0x2
 4177 019e 7D       		.byte	0x7d
 4178 019f 18       		.sleb128 24
 4179 01a0 06000000 		.4byte	.LCFI22
 4180 01a4 FA000000 		.4byte	.LFE7
 4181 01a8 0200     		.2byte	0x2
 4182 01aa 77       		.byte	0x77
 4183 01ab 18       		.sleb128 24
 4184 01ac 00000000 		.4byte	0
 4185 01b0 00000000 		.4byte	0
 4186              	.LLST8:
 4187 01b4 00000000 		.4byte	.LFB8
 4188 01b8 02000000 		.4byte	.LCFI23
 4189 01bc 0200     		.2byte	0x2
 4190 01be 7D       		.byte	0x7d
 4191 01bf 00       		.sleb128 0
 4192 01c0 02000000 		.4byte	.LCFI23
 4193 01c4 04000000 		.4byte	.LCFI24
 4194 01c8 0200     		.2byte	0x2
 4195 01ca 7D       		.byte	0x7d
 4196 01cb 08       		.sleb128 8
 4197 01cc 04000000 		.4byte	.LCFI24
 4198 01d0 06000000 		.4byte	.LCFI25
 4199 01d4 0200     		.2byte	0x2
 4200 01d6 7D       		.byte	0x7d
 4201 01d7 10       		.sleb128 16
 4202 01d8 06000000 		.4byte	.LCFI25
 4203 01dc 30010000 		.4byte	.LFE8
 4204 01e0 0200     		.2byte	0x2
 4205 01e2 77       		.byte	0x77
 4206 01e3 10       		.sleb128 16
 4207 01e4 00000000 		.4byte	0
 4208 01e8 00000000 		.4byte	0
 4209              	.LLST9:
 4210 01ec 00000000 		.4byte	.LFB9
 4211 01f0 02000000 		.4byte	.LCFI26
 4212 01f4 0200     		.2byte	0x2
 4213 01f6 7D       		.byte	0x7d
 4214 01f7 00       		.sleb128 0
 4215 01f8 02000000 		.4byte	.LCFI26
 4216 01fc 04000000 		.4byte	.LCFI27
 4217 0200 0200     		.2byte	0x2
 4218 0202 7D       		.byte	0x7d
 4219 0203 08       		.sleb128 8
 4220 0204 04000000 		.4byte	.LCFI27
 4221 0208 06000000 		.4byte	.LCFI28
 4222 020c 0200     		.2byte	0x2
 4223 020e 7D       		.byte	0x7d
ARM GAS  C:\Users\Robert\AppData\Local\Temp\ccWEb3hA.s 			page 96


 4224 020f 10       		.sleb128 16
 4225 0210 06000000 		.4byte	.LCFI28
 4226 0214 C2010000 		.4byte	.LFE9
 4227 0218 0200     		.2byte	0x2
 4228 021a 77       		.byte	0x77
 4229 021b 10       		.sleb128 16
 4230 021c 00000000 		.4byte	0
 4231 0220 00000000 		.4byte	0
 4232              	.LLST10:
 4233 0224 00000000 		.4byte	.LFB10
 4234 0228 02000000 		.4byte	.LCFI29
 4235 022c 0200     		.2byte	0x2
 4236 022e 7D       		.byte	0x7d
 4237 022f 00       		.sleb128 0
 4238 0230 02000000 		.4byte	.LCFI29
 4239 0234 04000000 		.4byte	.LCFI30
 4240 0238 0200     		.2byte	0x2
 4241 023a 7D       		.byte	0x7d
 4242 023b 08       		.sleb128 8
 4243 023c 04000000 		.4byte	.LCFI30
 4244 0240 06000000 		.4byte	.LCFI31
 4245 0244 0200     		.2byte	0x2
 4246 0246 7D       		.byte	0x7d
 4247 0247 18       		.sleb128 24
 4248 0248 06000000 		.4byte	.LCFI31
 4249 024c 8E000000 		.4byte	.LFE10
 4250 0250 0200     		.2byte	0x2
 4251 0252 77       		.byte	0x77
 4252 0253 18       		.sleb128 24
 4253 0254 00000000 		.4byte	0
 4254 0258 00000000 		.4byte	0
 4255              		.section	.debug_aranges,"",%progbits
 4256 0000 6C000000 		.4byte	0x6c
 4257 0004 0200     		.2byte	0x2
 4258 0006 00000000 		.4byte	.Ldebug_info0
 4259 000a 04       		.byte	0x4
 4260 000b 00       		.byte	0
 4261 000c 0000     		.2byte	0
 4262 000e 0000     		.2byte	0
 4263 0010 00000000 		.4byte	.LFB0
 4264 0014 E2050000 		.4byte	.LFE0-.LFB0
 4265 0018 00000000 		.4byte	.LFB1
 4266 001c 02020000 		.4byte	.LFE1-.LFB1
 4267 0020 00000000 		.4byte	.LFB2
 4268 0024 2C040000 		.4byte	.LFE2-.LFB2
 4269 0028 00000000 		.4byte	.LFB3
 4270 002c 52030000 		.4byte	.LFE3-.LFB3
 4271 0030 00000000 		.4byte	.LFB4
 4272 0034 44000000 		.4byte	.LFE4-.LFB4
 4273 0038 00000000 		.4byte	.LFB5
 4274 003c 28000000 		.4byte	.LFE5-.LFB5
 4275 0040 00000000 		.4byte	.LFB6
 4276 0044 46000000 		.4byte	.LFE6-.LFB6
 4277 0048 00000000 		.4byte	.LFB7
 4278 004c FA000000 		.4byte	.LFE7-.LFB7
 4279 0050 00000000 		.4byte	.LFB8
 4280 0054 30010000 		.4byte	.LFE8-.LFB8
ARM GAS  C:\Users\Robert\AppData\Local\Temp\ccWEb3hA.s 			page 97


 4281 0058 00000000 		.4byte	.LFB9
 4282 005c C2010000 		.4byte	.LFE9-.LFB9
 4283 0060 00000000 		.4byte	.LFB10
 4284 0064 8E000000 		.4byte	.LFE10-.LFB10
 4285 0068 00000000 		.4byte	0
 4286 006c 00000000 		.4byte	0
 4287              		.section	.debug_ranges,"",%progbits
 4288              	.Ldebug_ranges0:
 4289 0000 00000000 		.4byte	.LFB0
 4290 0004 E2050000 		.4byte	.LFE0
 4291 0008 00000000 		.4byte	.LFB1
 4292 000c 02020000 		.4byte	.LFE1
 4293 0010 00000000 		.4byte	.LFB2
 4294 0014 2C040000 		.4byte	.LFE2
 4295 0018 00000000 		.4byte	.LFB3
 4296 001c 52030000 		.4byte	.LFE3
 4297 0020 00000000 		.4byte	.LFB4
 4298 0024 44000000 		.4byte	.LFE4
 4299 0028 00000000 		.4byte	.LFB5
 4300 002c 28000000 		.4byte	.LFE5
 4301 0030 00000000 		.4byte	.LFB6
 4302 0034 46000000 		.4byte	.LFE6
 4303 0038 00000000 		.4byte	.LFB7
 4304 003c FA000000 		.4byte	.LFE7
 4305 0040 00000000 		.4byte	.LFB8
 4306 0044 30010000 		.4byte	.LFE8
 4307 0048 00000000 		.4byte	.LFB9
 4308 004c C2010000 		.4byte	.LFE9
 4309 0050 00000000 		.4byte	.LFB10
 4310 0054 8E000000 		.4byte	.LFE10
 4311 0058 00000000 		.4byte	0
 4312 005c 00000000 		.4byte	0
 4313              		.section	.debug_line,"",%progbits
 4314              	.Ldebug_line0:
 4315 0000 9C030000 		.section	.debug_str,"MS",%progbits,1
 4315      02006200 
 4315      00000201 
 4315      FB0E0D00 
 4315      01010101 
 4316              	.LASF35:
 4317 0000 70537461 		.ascii	"pStatusBlock\000"
 4317      74757342 
 4317      6C6F636B 
 4317      00
 4318              	.LASF33:
 4319 000d 636F756E 		.ascii	"count\000"
 4319      7400
 4320              	.LASF10:
 4321 0013 75696E74 		.ascii	"uint16\000"
 4321      313600
 4322              	.LASF58:
 4323 001a 55534246 		.ascii	"USBFS_TerminateEP\000"
 4323      535F5465 
 4323      726D696E 
 4323      61746545 
 4323      5000
 4324              	.LASF78:
ARM GAS  C:\Users\Robert\AppData\Local\Temp\ccWEb3hA.s 			page 98


 4325 002c 55534246 		.ascii	"USBFS_currentTD\000"
 4325      535F6375 
 4325      7272656E 
 4325      74544400 
 4326              	.LASF7:
 4327 003c 6C6F6E67 		.ascii	"long long unsigned int\000"
 4327      206C6F6E 
 4327      6720756E 
 4327      7369676E 
 4327      65642069 
 4328              	.LASF20:
 4329 0053 61646472 		.ascii	"addr\000"
 4329      00
 4330              	.LASF40:
 4331 0058 696E7465 		.ascii	"interfaceNumber\000"
 4331      72666163 
 4331      654E756D 
 4331      62657200 
 4332              	.LASF44:
 4333 0068 55534246 		.ascii	"USBFS_tBuffer\000"
 4333      535F7442 
 4333      75666665 
 4333      7200
 4334              	.LASF6:
 4335 0076 6C6F6E67 		.ascii	"long long int\000"
 4335      206C6F6E 
 4335      6720696E 
 4335      7400
 4336              	.LASF0:
 4337 0084 7369676E 		.ascii	"signed char\000"
 4337      65642063 
 4337      68617200 
 4338              	.LASF55:
 4339 0090 636C6561 		.ascii	"clearAltSetting\000"
 4339      72416C74 
 4339      53657474 
 4339      696E6700 
 4340              	.LASF74:
 4341 00a0 55534246 		.ascii	"USBFS_deviceAddress\000"
 4341      535F6465 
 4341      76696365 
 4341      41646472 
 4341      65737300 
 4342              	.LASF60:
 4343 00b4 55534246 		.ascii	"USBFS_ClearEndpointHalt\000"
 4343      535F436C 
 4343      65617245 
 4343      6E64706F 
 4343      696E7448 
 4344              	.LASF71:
 4345 00cc 55534246 		.ascii	"USBFS_interfaceNumber\000"
 4345      535F696E 
 4345      74657266 
 4345      6163654E 
 4345      756D6265 
 4346              	.LASF47:
 4347 00e2 55534246 		.ascii	"USBFS_Config\000"
ARM GAS  C:\Users\Robert\AppData\Local\Temp\ccWEb3hA.s 			page 99


 4347      535F436F 
 4347      6E666967 
 4347      00
 4348              	.LASF46:
 4349 00ef 55534246 		.ascii	"USBFS_ConfigReg\000"
 4349      535F436F 
 4349      6E666967 
 4349      52656700 
 4350              	.LASF4:
 4351 00ff 6C6F6E67 		.ascii	"long int\000"
 4351      20696E74 
 4351      00
 4352              	.LASF9:
 4353 0108 75696E74 		.ascii	"uint8\000"
 4353      3800
 4354              	.LASF19:
 4355 010e 6570546F 		.ascii	"epToggle\000"
 4355      67676C65 
 4355      00
 4356              	.LASF12:
 4357 0117 646F7562 		.ascii	"double\000"
 4357      6C6500
 4358              	.LASF29:
 4359 011e 545F5553 		.ascii	"T_USBFS_EP_SETTINGS_BLOCK\000"
 4359      4246535F 
 4359      45505F53 
 4359      45545449 
 4359      4E47535F 
 4360              	.LASF59:
 4361 0138 55534246 		.ascii	"USBFS_SetEndpointHalt\000"
 4361      535F5365 
 4361      74456E64 
 4361      706F696E 
 4361      7448616C 
 4362              	.LASF34:
 4363 014e 70446174 		.ascii	"pData\000"
 4363      6100
 4364              	.LASF64:
 4365 0154 55534246 		.ascii	"USBFS_configuration\000"
 4365      535F636F 
 4365      6E666967 
 4365      75726174 
 4365      696F6E00 
 4366              	.LASF21:
 4367 0168 65704D6F 		.ascii	"epMode\000"
 4367      646500
 4368              	.LASF8:
 4369 016f 756E7369 		.ascii	"unsigned int\000"
 4369      676E6564 
 4369      20696E74 
 4369      00
 4370              	.LASF5:
 4371 017c 6C6F6E67 		.ascii	"long unsigned int\000"
 4371      20756E73 
 4371      69676E65 
 4371      6420696E 
 4371      7400
ARM GAS  C:\Users\Robert\AppData\Local\Temp\ccWEb3hA.s 			page 100


 4372              	.LASF56:
 4373 018e 55534246 		.ascii	"USBFS_GetInterfaceClassTablePtr\000"
 4373      535F4765 
 4373      74496E74 
 4373      65726661 
 4373      6365436C 
 4374              	.LASF3:
 4375 01ae 73686F72 		.ascii	"short unsigned int\000"
 4375      7420756E 
 4375      7369676E 
 4375      65642069 
 4375      6E7400
 4376              	.LASF50:
 4377 01c1 70446573 		.ascii	"pDescr\000"
 4377      637200
 4378              	.LASF24:
 4379 01c8 696E7465 		.ascii	"interface\000"
 4379      72666163 
 4379      6500
 4380              	.LASF61:
 4381 01d2 55534246 		.ascii	"USBFS_ValidateAlternateSetting\000"
 4381      535F5661 
 4381      6C696461 
 4381      7465416C 
 4381      7465726E 
 4382              	.LASF65:
 4383 01f1 55534246 		.ascii	"USBFS_configurationChanged\000"
 4383      535F636F 
 4383      6E666967 
 4383      75726174 
 4383      696F6E43 
 4384              	.LASF76:
 4385 020c 55534246 		.ascii	"USBFS_interfaceClass\000"
 4385      535F696E 
 4385      74657266 
 4385      61636543 
 4385      6C617373 
 4386              	.LASF70:
 4387 0221 55534246 		.ascii	"USBFS_STRING_DESCRIPTORS\000"
 4387      535F5354 
 4387      52494E47 
 4387      5F444553 
 4387      43524950 
 4388              	.LASF18:
 4389 023a 68774570 		.ascii	"hwEpState\000"
 4389      53746174 
 4389      6500
 4390              	.LASF43:
 4391 0244 64657363 		.ascii	"descrLength\000"
 4391      724C656E 
 4391      67746800 
 4392              	.LASF15:
 4393 0250 73697A65 		.ascii	"sizetype\000"
 4393      74797065 
 4393      00
 4394              	.LASF45:
 4395 0259 70546D70 		.ascii	"pTmp\000"
ARM GAS  C:\Users\Robert\AppData\Local\Temp\ccWEb3hA.s 			page 101


 4395      00
 4396              	.LASF37:
 4397 025e 705F6C69 		.ascii	"p_list\000"
 4397      737400
 4398              	.LASF51:
 4399 0265 62756666 		.ascii	"buffCount\000"
 4399      436F756E 
 4399      7400
 4400              	.LASF16:
 4401 026f 61747472 		.ascii	"attrib\000"
 4401      696200
 4402              	.LASF68:
 4403 0276 55534246 		.ascii	"USBFS_TABLE\000"
 4403      535F5441 
 4403      424C4500 
 4404              	.LASF69:
 4405 0282 55534246 		.ascii	"USBFS_SN_STRING_DESCRIPTOR\000"
 4405      535F534E 
 4405      5F535452 
 4405      494E475F 
 4405      44455343 
 4406              	.LASF57:
 4407 029d 63757272 		.ascii	"currentInterfacesNum\000"
 4407      656E7449 
 4407      6E746572 
 4407      66616365 
 4407      734E756D 
 4408              	.LASF52:
 4409 02b2 55534246 		.ascii	"USBFS_ConfigAltChanged\000"
 4409      535F436F 
 4409      6E666967 
 4409      416C7443 
 4409      68616E67 
 4410              	.LASF81:
 4411 02c9 433A5C55 		.ascii	"C:\\Users\\Robert\\workspace\\Embedit_git_projects\\"
 4411      73657273 
 4411      5C526F62 
 4411      6572745C 
 4411      776F726B 
 4412 02f8 426F6F74 		.ascii	"Bootloader_RPiSoC\\Bootloader_RPiSoC.cydsn\000"
 4412      6C6F6164 
 4412      65725F52 
 4412      5069536F 
 4412      435C426F 
 4413              	.LASF62:
 4414 0322 696E7465 		.ascii	"interfaceNum\000"
 4414      72666163 
 4414      654E756D 
 4414      00
 4415              	.LASF67:
 4416 032f 55534246 		.ascii	"USBFS_DEVICE0_DESCR\000"
 4416      535F4445 
 4416      56494345 
 4416      305F4445 
 4416      53435200 
 4417              	.LASF11:
 4418 0343 666C6F61 		.ascii	"float\000"
ARM GAS  C:\Users\Robert\AppData\Local\Temp\ccWEb3hA.s 			page 102


 4418      7400
 4419              	.LASF17:
 4420 0349 61706945 		.ascii	"apiEpState\000"
 4420      70537461 
 4420      746500
 4421              	.LASF77:
 4422 0354 55534246 		.ascii	"USBFS_EP\000"
 4422      535F4550 
 4422      00
 4423              	.LASF41:
 4424 035d 70537472 		.ascii	"pStr\000"
 4424      00
 4425              	.LASF79:
 4426 0362 474E5520 		.ascii	"GNU C 4.7.3 20130312 (release) [ARM/embedded-4_7-br"
 4426      4320342E 
 4426      372E3320 
 4426      32303133 
 4426      30333132 
 4427 0395 616E6368 		.ascii	"anch revision 196615]\000"
 4427      20726576 
 4427      6973696F 
 4427      6E203139 
 4427      36363135 
 4428              	.LASF14:
 4429 03ab 72656738 		.ascii	"reg8\000"
 4429      00
 4430              	.LASF1:
 4431 03b0 756E7369 		.ascii	"unsigned char\000"
 4431      676E6564 
 4431      20636861 
 4431      7200
 4432              	.LASF2:
 4433 03be 73686F72 		.ascii	"short int\000"
 4433      7420696E 
 4433      7400
 4434              	.LASF36:
 4435 03c8 545F5553 		.ascii	"T_USBFS_TD\000"
 4435      4246535F 
 4435      544400
 4436              	.LASF54:
 4437 03d3 55534246 		.ascii	"USBFS_GetConfigTablePtr\000"
 4437      535F4765 
 4437      74436F6E 
 4437      66696754 
 4437      61626C65 
 4438              	.LASF80:
 4439 03eb 2E5C4765 		.ascii	".\\Generated_Source\\PSoC5\\USBFS_std.c\000"
 4439      6E657261 
 4439      7465645F 
 4439      536F7572 
 4439      63655C50 
 4440              	.LASF72:
 4441 0410 55534246 		.ascii	"USBFS_interfaceSetting\000"
 4441      535F696E 
 4441      74657266 
 4441      61636553 
 4441      65747469 
ARM GAS  C:\Users\Robert\AppData\Local\Temp\ccWEb3hA.s 			page 103


 4442              	.LASF25:
 4443 0427 545F5553 		.ascii	"T_USBFS_EP_CTL_BLOCK\000"
 4443      4246535F 
 4443      45505F43 
 4443      544C5F42 
 4443      4C4F434B 
 4444              	.LASF63:
 4445 043c 55534246 		.ascii	"USBFS_device\000"
 4445      535F6465 
 4445      76696365 
 4445      00
 4446              	.LASF27:
 4447 0449 61747472 		.ascii	"attributes\000"
 4447      69627574 
 4447      657300
 4448              	.LASF32:
 4449 0454 545F5553 		.ascii	"T_USBFS_XFER_STATUS_BLOCK\000"
 4449      4246535F 
 4449      58464552 
 4449      5F535441 
 4449      5455535F 
 4450              	.LASF26:
 4451 046e 616C7453 		.ascii	"altSetting\000"
 4451      65747469 
 4451      6E6700
 4452              	.LASF13:
 4453 0479 63686172 		.ascii	"char\000"
 4453      00
 4454              	.LASF23:
 4455 047e 62756666 		.ascii	"bufferSize\000"
 4455      65725369 
 4455      7A6500
 4456              	.LASF39:
 4457 0489 72657175 		.ascii	"requestHandled\000"
 4457      65737448 
 4457      616E646C 
 4457      656400
 4458              	.LASF22:
 4459 0498 62756666 		.ascii	"buffOffset\000"
 4459      4F666673 
 4459      657400
 4460              	.LASF82:
 4461 04a3 55534246 		.ascii	"USBFS_GetDeviceTablePtr\000"
 4461      535F4765 
 4461      74446576 
 4461      69636554 
 4461      61626C65 
 4462              	.LASF66:
 4463 04bb 55534246 		.ascii	"USBFS_deviceStatus\000"
 4463      535F6465 
 4463      76696365 
 4463      53746174 
 4463      757300
 4464              	.LASF73:
 4465 04ce 55534246 		.ascii	"USBFS_interfaceSetting_last\000"
 4465      535F696E 
 4465      74657266 
ARM GAS  C:\Users\Robert\AppData\Local\Temp\ccWEb3hA.s 			page 104


 4465      61636553 
 4465      65747469 
 4466              	.LASF31:
 4467 04ea 6C656E67 		.ascii	"length\000"
 4467      746800
 4468              	.LASF42:
 4469 04f1 6E537472 		.ascii	"nStr\000"
 4469      00
 4470              	.LASF49:
 4471 04f6 65705F74 		.ascii	"ep_type\000"
 4471      79706500 
 4472              	.LASF48:
 4473 04fe 6375725F 		.ascii	"cur_ep\000"
 4473      657000
 4474              	.LASF30:
 4475 0505 73746174 		.ascii	"status\000"
 4475      757300
 4476              	.LASF28:
 4477 050c 624D6973 		.ascii	"bMisc\000"
 4477      6300
 4478              	.LASF75:
 4479 0512 55534246 		.ascii	"USBFS_interfaceStatus\000"
 4479      535F696E 
 4479      74657266 
 4479      61636553 
 4479      74617475 
 4480              	.LASF53:
 4481 0528 55534246 		.ascii	"USBFS_HandleStandardRqst\000"
 4481      535F4861 
 4481      6E646C65 
 4481      5374616E 
 4481      64617264 
 4482              	.LASF38:
 4483 0541 545F5553 		.ascii	"T_USBFS_LUT\000"
 4483      4246535F 
 4483      4C555400 
 4484              		.ident	"GCC: (GNU Tools for ARM Embedded Processors) 4.7.3 20130312 (release) [ARM/embedded-4_7-br
